 SettingsMasterShim

 Timestamp is 3e4e588b (Sat Feb 15 10:11:07 2003)

 Preferred load address is 10000000

 Start         Length     Name                   Class
 0001:00000000 0000d41dH .text                   CODE
 0001:0000d41d 00000598H .text$x                 CODE
 0001:0000d9b5 0000005aH .text$yc                CODE
 0001:0000da0f 00000029H .text$yd                CODE
 0002:00000000 0000002bH .orpc                   CODE
 0003:00000000 000003a8H .idata$5                DATA
 0003:000003b0 000017a8H .rdata                  DATA
 0003:00001b58 0000004bH .rdata$debug            DATA
 0003:00001ba4 00000044H .rdata$r                DATA
 0003:00001bf0 000000e0H .rdata$sxdata           DATA
 0003:00001cd0 00000004H .rtc$IAA                DATA
 0003:00001cd4 00000004H .rtc$IZZ                DATA
 0003:00001cd8 00000004H .rtc$TAA                DATA
 0003:00001cdc 00000004H .rtc$TZZ                DATA
 0003:00001ce0 00000c78H .xdata$x                DATA
 0003:00002958 00000004H ATL$__a                 DATA
 0003:0000295c 00000004H ATL$__m                 DATA
 0003:00002960 00000004H ATL$__z                 DATA
 0003:00002964 000000c8H .idata$2                DATA
 0003:00002a2c 00000014H .idata$3                DATA
 0003:00002a40 000003a8H .idata$4                DATA
 0003:00002de8 00000e80H .idata$6                DATA
 0003:00003c70 000000afH .edata                  DATA
 0004:00000000 00000004H .CRT$XCA                DATA
 0004:00000004 00000004H .CRT$XCAA               DATA
 0004:00000008 00000008H .CRT$XCL                DATA
 0004:00000010 00000008H .CRT$XCU                DATA
 0004:00000018 00000004H .CRT$XCZ                DATA
 0004:0000001c 00000004H .CRT$XIA                DATA
 0004:00000020 00000004H .CRT$XIZ                DATA
 0004:00000030 000002e0H .data                   DATA
 0004:00000310 00000154H .bss                    DATA
 0005:00000000 00000214H .rsrc$01                DATA
 0005:00000220 000011f8H .rsrc$02                DATA

  Address         Publics by Value              Rva+Base     Lib:Object

 0000:00000000       __except_list              00000000     <absolute>
 0000:00000038       ___safe_se_handler_count   00000038     <absolute>
 0000:00009876       __ldused                   00009876     <absolute>
 0000:00009876       __fltused                  00009876     <absolute>
 0000:00000000       ___ImageBase               10000000     <linker-defined>
 0001:00000000       _PrxDllGetClassObject@12   10001000 f   dlldatax.obj
 0001:00000034       _PrxDllCanUnloadNow@0      10001034 f   dlldatax.obj
 0001:00000040       _CStdStubBuffer2_Release@4 10001040 f   dlldatax.obj
 0001:00000051       __purecall                 10001051 f   dlldatax.obj
 0001:00000052       _PrxDllMain@12             10001052 f   dlldatax.obj
 0001:00000064       _PrxDllRegisterServer@0    10001064 f   dlldatax.obj
 0001:0000008b       _PrxDllUnregisterServer@0  1000108b f   dlldatax.obj
 0001:000000b2       ??0_ATL_MSG@ATL@@QAE@PAUHWND__@@IIJH@Z 100010b2 f i SettingsMasterOptions.obj
 0001:000000e5       ?Register@_ATL_WNDCLASSINFOW@ATL@@QAEGPAP6GJPAUHWND__@@IIJ@Z@Z 100010e5 f i SettingsMasterOptions.obj
 0001:00000104       ?FindFirstDlgItem@_DialogSplitHelper@ATL@@SAPAUDLGITEMTEMPLATE@@PBUDLGTEMPLATE@@@Z 10001104 f i SettingsMasterOptions.obj
 0001:00000180       ?FindNextDlgItem@_DialogSplitHelper@ATL@@SAPAUDLGITEMTEMPLATE@@PAU3@H@Z 10001180 f i SettingsMasterOptions.obj
 0001:000001df       ?FindCreateData@_DialogSplitHelper@ATL@@SAKKPAEPAPAE@Z 100011df f i SettingsMasterOptions.obj
 0001:00000219       ?IsActiveXControl@_DialogSplitHelper@ATL@@SA_NPAUDLGITEMTEMPLATE@@H@Z 10001219 f i SettingsMasterOptions.obj
 0001:00000230       ?SplitDialogTemplate@_DialogSplitHelper@ATL@@SAPAUDLGTEMPLATE@@PAU3@PAE@Z 10001230 f i SettingsMasterOptions.obj
 0001:0000034d       ?ParseInitData@_DialogSplitHelper@ATL@@SAJPAUIStream@@PAPAG@Z 1000134d f i SettingsMasterOptions.obj
 0001:000004ea       ?Create@CWindow@ATL@@QAEPAUHWND__@@PBGPAU3@V_U_RECT@2@0KKV_U_MENUorID@2@PAX@Z 100014ea f i SettingsMasterOptions.obj
 0001:00000538       ?IsParentDialog@CWindow@ATL@@QAEHXZ 10001538 f i SettingsMasterOptions.obj
 0001:00000582       ?Init@CWndProcThunk@ATL@@QAEXP6GJPAUHWND__@@IIJ@ZPAX@Z 10001582 f i SettingsMasterOptions.obj
 0001:00000599       ?GetDialogSize@_DialogSizeHelper@ATL@@SAXPBUDLGTEMPLATE@@PAUtagSIZE@@_N@Z 10001599 f i SettingsMasterOptions.obj
 0001:000005f1       ?GetFontDimensions@_DialogSizeHelper@ATL@@SAXPBGGPAUtagSIZE@@PAJ@Z 100015f1 f i SettingsMasterOptions.obj
 0001:00000707       ?ConvertDialogUnitsToPixels@_DialogSizeHelper@ATL@@SAXPBGGPAUtagSIZE@@_N@Z 10001707 f i SettingsMasterOptions.obj
 0001:000007ec       ?HasFont@_DialogSizeHelper@ATL@@SAHPBUDLGTEMPLATE@@@Z 100017ec f i SettingsMasterOptions.obj
 0001:000007ff       ?GetFontSizeField@_DialogSizeHelper@ATL@@SAPAEPBUDLGTEMPLATE@@@Z 100017ff f i SettingsMasterOptions.obj
 0001:00000846       ?GetFont@_DialogSizeHelper@ATL@@SAHPBUDLGTEMPLATE@@PAG1@Z 10001846 f i SettingsMasterOptions.obj
 0001:0000089d       ?GetSizeInDialogUnits@_DialogSizeHelper@ATL@@SAXPBUDLGTEMPLATE@@PAUtagSIZE@@@Z 1000189d f i SettingsMasterOptions.obj
 0001:00000a63       ??0CAxFrameWindow@ATL@@QAE@XZ 10001a63 f i SettingsMasterOptions.obj
 0001:00000a63       ??0CAxUIWindow@ATL@@QAE@XZ 10001a63 f i SettingsMasterOptions.obj
 0001:00000a81       ?FinalRelease@CAxUIWindow@ATL@@QAEXXZ 10001a81 f i SettingsMasterOptions.obj
 0001:00000a81       ?FinalRelease@CAxFrameWindow@ATL@@QAEXXZ 10001a81 f i SettingsMasterOptions.obj
 0001:00000aa5       ?GetWindow@CAxFrameWindow@ATL@@UAGJPAPAUHWND__@@@Z 10001aa5 f i SettingsMasterOptions.obj
 0001:00000aee       ?RequestBorderSpace@CAxFrameWindow@ATL@@UAGJPBUtagRECT@@@Z 10001aee f i SettingsMasterOptions.obj
 0001:00000aee       ?RequestBorderSpace@CAxUIWindow@ATL@@UAGJPBUtagRECT@@@Z 10001aee f i SettingsMasterOptions.obj
 0001:00000af6       ?TranslateAcceleratorW@CAxHostWindow@ATL@@UAGJPAUtagMSG@@K@Z 10001af6 f i SettingsMasterOptions.obj
 0001:00000af6       ?TranslateAcceleratorW@CAxFrameWindow@ATL@@UAGJPAUtagMSG@@G@Z 10001af6 f i SettingsMasterOptions.obj
 0001:00000afc       ??1CAxUIWindow@ATL@@UAE@XZ 10001afc f i SettingsMasterOptions.obj
 0001:00000afc       ??1CAxFrameWindow@ATL@@UAE@XZ 10001afc f i SettingsMasterOptions.obj
 0001:00000b11       ?ProcessWindowMessage@CAxFrameWindow@ATL@@UAEHPAUHWND__@@IIJAAJK@Z 10001b11 f i SettingsMasterOptions.obj
 0001:00000b11       ?ProcessWindowMessage@CAxUIWindow@ATL@@UAEHPAUHWND__@@IIJAAJK@Z 10001b11 f i SettingsMasterOptions.obj
 0001:00000b16       ?GetWindow@CAxUIWindow@ATL@@UAGJPAPAUHWND__@@@Z 10001b16 f i SettingsMasterOptions.obj
 0001:00000b52       ?LockInPlaceActive@CAxHostWindow@ATL@@UAGJH@Z 10001b52 f i SettingsMasterOptions.obj
 0001:00000b52       ?SetBorderSpace@CAxUIWindow@ATL@@UAGJPBUtagRECT@@@Z 10001b52 f i SettingsMasterOptions.obj
 0001:00000b52       ?ContextSensitiveHelp@CAxFrameWindow@ATL@@UAGJH@Z 10001b52 f i SettingsMasterOptions.obj
 0001:00000b52       ?GetBorder@CAxFrameWindow@ATL@@UAGJPAUtagRECT@@@Z 10001b52 f i SettingsMasterOptions.obj
 0001:00000b52       ?SetStatusText@CAxFrameWindow@ATL@@UAGJPBG@Z 10001b52 f i SettingsMasterOptions.obj
 0001:00000b52       ?SetBorderSpace@CAxFrameWindow@ATL@@UAGJPBUtagRECT@@@Z 10001b52 f i SettingsMasterOptions.obj
 0001:00000b52       ?EnableModeless@?$IOleInPlaceActiveObjectImpl@VCSettingsMasterOptions@@@ATL@@UAGJH@Z 10001b52 f i SettingsMasterOptions.obj
 0001:00000b52       ?AdjustRect@CAxHostWindow@ATL@@UAGJPAUtagRECT@@@Z 10001b52 f i SettingsMasterOptions.obj
 0001:00000b52       ?GetBorder@CAxUIWindow@ATL@@UAGJPAUtagRECT@@@Z 10001b52 f i SettingsMasterOptions.obj
 0001:00000b52       ?RemoveMenus@CAxFrameWindow@ATL@@UAGJPAUHMENU__@@@Z 10001b52 f i SettingsMasterOptions.obj
 0001:00000b52       ?SaveCompleted@?$IPersistStorageImpl@VCSettingsMasterOptions@@@ATL@@UAGJPAUIStorage@@@Z 10001b52 f i SettingsMasterOptions.obj
 0001:00000b52       ?ContextSensitiveHelp@CAxUIWindow@ATL@@UAGJH@Z 10001b52 f i SettingsMasterOptions.obj
 0001:00000b52       ?EnableModeless@CAxFrameWindow@ATL@@UAGJH@Z 10001b52 f i SettingsMasterOptions.obj
 0001:00000b52       ?OnFrameWindowActivate@?$IOleInPlaceActiveObjectImpl@VCSettingsMasterOptions@@@ATL@@UAGJH@Z 10001b52 f i SettingsMasterOptions.obj
 0001:00000b57       ?SetActiveObject@CAxFrameWindow@ATL@@UAGJPAUIOleInPlaceActiveObject@@PBG@Z 10001b57 f i SettingsMasterOptions.obj
 0001:00000b57       ?SetActiveObject@CAxUIWindow@ATL@@UAGJPAUIOleInPlaceActiveObject@@PBG@Z 10001b57 f i SettingsMasterOptions.obj
 0001:00000b70       ??0CAxHostWindow@ATL@@QAE@XZ 10001b70 f i SettingsMasterOptions.obj
 0001:00000c35       ??1CAxHostWindow@ATL@@UAE@XZ 10001c35 f i SettingsMasterOptions.obj
 0001:00000d0c       ?OnFinalMessage@CAxHostWindow@ATL@@UAEXPAUHWND__@@@Z 10001d0c f i SettingsMasterOptions.obj
 0001:00000d1a       ?ProcessWindowMessage@CAxHostWindow@ATL@@UAEHPAUHWND__@@IIJAAJK@Z 10001d1a f i SettingsMasterOptions.obj
 0001:000010e2       ?OnForwardMsg@CAxHostWindow@ATL@@QAEJIIJAAH@Z 100020e2 f i SettingsMasterOptions.obj
 0001:0000114c       ?ReleaseAll@CAxHostWindow@ATL@@QAEXXZ 1000214c f i SettingsMasterOptions.obj
 0001:0000129f       ?OnMouseActivate@CAxHostWindow@ATL@@QAEJIIJAAH@Z 1000229f f i SettingsMasterOptions.obj
 0001:00001333       ?OnSetFocus@CAxHostWindow@ATL@@QAEJIIJAAH@Z 10002333 f i SettingsMasterOptions.obj
 0001:000013f6       ?OnSize@CAxHostWindow@ATL@@QAEJIIJAAH@Z 100023f6 f i SettingsMasterOptions.obj
 0001:00001483       ?OnDestroy@CAxHostWindow@ATL@@QAEJIIJAAH@Z 10002483 f i SettingsMasterOptions.obj
 0001:000014b6       ?OnWindowMessage@CAxHostWindow@ATL@@QAEJIIJAAH@Z 100024b6 f i SettingsMasterOptions.obj
 0001:000014f8       ?OnWindowlessMouseMessage@CAxHostWindow@ATL@@QAEJIIJAAH@Z 100024f8 f i SettingsMasterOptions.obj
 0001:00001535       ?OnPaint@CAxHostWindow@ATL@@QAEJIIJAAH@Z 10002535 f i SettingsMasterOptions.obj
 0001:000016aa       ?CreateControl@CAxHostWindow@ATL@@UAGJPBGPAUHWND__@@PAUIStream@@@Z 100026aa f i SettingsMasterOptions.obj
 0001:00001701       ?CreateControlEx@CAxHostWindow@ATL@@UAGJPBGPAUHWND__@@PAUIStream@@PAPAUIUnknown@@ABU_GUID@@PAU5@@Z 10002701 f i SettingsMasterOptions.obj
 0001:00001725       ?AttachControl@CAxHostWindow@ATL@@UAGJPAUIUnknown@@PAUHWND__@@@Z 10002725 f i SettingsMasterOptions.obj
 0001:000017ce       ?QueryControl@CAxHostWindow@ATL@@UAGJABU_GUID@@PAPAX@Z 100027ce f i SettingsMasterOptions.obj
 0001:000017fd       ?SetExternalDispatch@CAxHostWindow@ATL@@UAGJPAUIDispatch@@@Z 100027fd f i SettingsMasterOptions.obj
 0001:00001816       ?SetExternalUIHandler@CAxHostWindow@ATL@@UAGJPAUIDocHostUIHandlerDispatch@@@Z 10002816 f i SettingsMasterOptions.obj
 0001:0000182f       ?CreateControlLic@CAxHostWindow@ATL@@UAGJPBGPAUHWND__@@PAUIStream@@PAG@Z 1000282f f i SettingsMasterOptions.obj
 0001:00001887       ?CreateControlLicEx@CAxHostWindow@ATL@@UAGJPBGPAUHWND__@@PAUIStream@@PAPAUIUnknown@@ABU_GUID@@PAU5@PAG@Z 10002887 f i SettingsMasterOptions.obj
 0001:00001c35       ?ShowContextMenu@CAxHostWindow@ATL@@UAGJKPAUtagPOINT@@PAUIUnknown@@PAUIDispatch@@@Z 10002c35 f i SettingsMasterOptions.obj
 0001:00001c73       ?GetHostInfo@CAxHostWindow@ATL@@UAGJPAU_DOCHOSTUIINFO@@@Z 10002c73 f i SettingsMasterOptions.obj
 0001:00001cb6       ?ShowUI@CAxHostWindow@ATL@@UAGJKPAUIOleInPlaceActiveObject@@PAUIOleCommandTarget@@PAUIOleInPlaceFrame@@PAUIOleInPlaceUIWindow@@@Z 10002cb6 f i SettingsMasterOptions.obj
 0001:00001cf2       ?HideUI@CAxHostWindow@ATL@@UAGJXZ 10002cf2 f i SettingsMasterOptions.obj
 0001:00001d08       ?UpdateUI@CAxHostWindow@ATL@@UAGJXZ 10002d08 f i SettingsMasterOptions.obj
 0001:00001d1e       ?EnableModeless@CAxHostWindow@ATL@@UAGJH@Z 10002d1e f i SettingsMasterOptions.obj
 0001:00001d3d       ?OnDocWindowActivate@CAxHostWindow@ATL@@UAGJH@Z 10002d3d f i SettingsMasterOptions.obj
 0001:00001d5c       ?OnFrameWindowActivate@CAxHostWindow@ATL@@UAGJH@Z 10002d5c f i SettingsMasterOptions.obj
 0001:00001d7b       ?ResizeBorder@CAxHostWindow@ATL@@UAGJPBUtagRECT@@PAUIOleInPlaceUIWindow@@H@Z 10002d7b f i SettingsMasterOptions.obj
 0001:00001dad       ?TranslateAcceleratorW@CAxHostWindow@ATL@@UAGJPAUtagMSG@@PBU_GUID@@K@Z 10002dad f i SettingsMasterOptions.obj
 0001:00001e16       ?GetOptionKeyPath@CAxHostWindow@ATL@@UAGJPAPAGK@Z 10002e16 f i SettingsMasterOptions.obj
 0001:00001e9d       ?GetDropTarget@CAxHostWindow@ATL@@UAGJPAUIDropTarget@@PAPAU3@@Z 10002e9d f i SettingsMasterOptions.obj
 0001:00001f23       ?GetExternal@CAxHostWindow@ATL@@UAGJPAPAUIDispatch@@@Z 10002f23 f i SettingsMasterOptions.obj
 0001:00001f68       ?TranslateUrl@CAxHostWindow@ATL@@UAGJKPAGPAPAG@Z 10002f68 f i SettingsMasterOptions.obj
 0001:00002035       ?FilterDataObject@CAxHostWindow@ATL@@UAGJPAUIDataObject@@PAPAU3@@Z 10003035 f i SettingsMasterOptions.obj
 0001:000020bc       ?FireAmbientPropertyChange@CAxHostWindow@ATL@@QAEJJ@Z 100030bc f i SettingsMasterOptions.obj
 0001:00002111       ?Invoke@CAxHostWindow@ATL@@UAGJJABU_GUID@@KGPAUtagDISPPARAMS@@PAUtagVARIANT@@PAUtagEXCEPINFO@@PAI@Z 10003111 f i SettingsMasterOptions.obj
 0001:00002184       ?put_AllowWindowlessActivation@CAxHostWindow@ATL@@UAGJF@Z 10003184 f i SettingsMasterOptions.obj
 0001:0000219a       ?get_AllowWindowlessActivation@CAxHostWindow@ATL@@UAGJPAF@Z 1000319a f i SettingsMasterOptions.obj
 0001:000021bf       ?put_BackColor@CAxHostWindow@ATL@@UAGJK@Z 100031bf f i SettingsMasterOptions.obj
 0001:000021ef       ?get_BackColor@CAxHostWindow@ATL@@UAGJPAK@Z 100031ef f i SettingsMasterOptions.obj
 0001:0000220f       ?put_ForeColor@CAxHostWindow@ATL@@UAGJK@Z 1000320f f i SettingsMasterOptions.obj
 0001:00002230       ?get_ForeColor@CAxHostWindow@ATL@@UAGJPAK@Z 10003230 f i SettingsMasterOptions.obj
 0001:00002250       ?put_LocaleID@CAxHostWindow@ATL@@UAGJK@Z 10003250 f i SettingsMasterOptions.obj
 0001:00002271       ?get_LocaleID@CAxHostWindow@ATL@@UAGJPAK@Z 10003271 f i SettingsMasterOptions.obj
 0001:00002291       ?put_UserMode@CAxHostWindow@ATL@@UAGJF@Z 10003291 f i SettingsMasterOptions.obj
 0001:000022b8       ?get_UserMode@CAxHostWindow@ATL@@UAGJPAF@Z 100032b8 f i SettingsMasterOptions.obj
 0001:000022dd       ?put_DisplayAsDefault@CAxHostWindow@ATL@@UAGJF@Z 100032dd f i SettingsMasterOptions.obj
 0001:00002305       ?get_DisplayAsDefault@CAxHostWindow@ATL@@UAGJPAF@Z 10003305 f i SettingsMasterOptions.obj
 0001:0000232a       ?put_Font@CAxHostWindow@ATL@@UAGJPAUIFontDisp@@@Z 1000332a f i SettingsMasterOptions.obj
 0001:00002356       ?get_Font@CAxHostWindow@ATL@@UAGJPAPAUIFontDisp@@@Z 10003356 f i SettingsMasterOptions.obj
 0001:000024a0       ?put_MessageReflect@CAxHostWindow@ATL@@UAGJF@Z 100034a0 f i SettingsMasterOptions.obj
 0001:000024c8       ?get_MessageReflect@CAxHostWindow@ATL@@UAGJPAF@Z 100034c8 f i SettingsMasterOptions.obj
 0001:000024ed       ?get_ShowGrabHandles@CAxHostWindow@ATL@@UAGJPAF@Z 100034ed f i SettingsMasterOptions.obj
 0001:000024fa       ?get_ShowHatching@CAxHostWindow@ATL@@UAGJPAF@Z 100034fa f i SettingsMasterOptions.obj
 0001:00002512       ?put_DocHostFlags@CAxHostWindow@ATL@@UAGJK@Z 10003512 f i SettingsMasterOptions.obj
 0001:00002530       ?get_DocHostFlags@CAxHostWindow@ATL@@UAGJPAK@Z 10003530 f i SettingsMasterOptions.obj
 0001:00002550       ?put_DocHostDoubleClickFlags@CAxHostWindow@ATL@@UAGJK@Z 10003550 f i SettingsMasterOptions.obj
 0001:00002563       ?get_DocHostDoubleClickFlags@CAxHostWindow@ATL@@UAGJPAK@Z 10003563 f i SettingsMasterOptions.obj
 0001:00002583       ?put_AllowContextMenu@CAxHostWindow@ATL@@UAGJF@Z 10003583 f i SettingsMasterOptions.obj
 0001:0000259d       ?get_AllowContextMenu@CAxHostWindow@ATL@@UAGJPAF@Z 1000359d f i SettingsMasterOptions.obj
 0001:000025c2       ?put_AllowShowUI@CAxHostWindow@ATL@@UAGJF@Z 100035c2 f i SettingsMasterOptions.obj
 0001:000025dc       ?get_AllowShowUI@CAxHostWindow@ATL@@UAGJPAF@Z 100035dc f i SettingsMasterOptions.obj
 0001:00002601       ?put_OptionKeyPath@CAxHostWindow@ATL@@UAGJPAG@Z 10003601 f i SettingsMasterOptions.obj
 0001:0000261b       ?get_OptionKeyPath@CAxHostWindow@ATL@@UAGJPAPAG@Z 1000361b f i SettingsMasterOptions.obj
 0001:0000263b       ?SetAmbientDispatch@CAxHostWindow@ATL@@UAGJPAUIDispatch@@@Z 1000363b f i SettingsMasterOptions.obj
 0001:00002654       ?SetSite@CAxHostWindow@ATL@@UAGJPAUIUnknown@@@Z 10003654 f i SettingsMasterOptions.obj
 0001:000026a7       ?SetData@?$IDataObjectImpl@VCSettingsMasterOptions@@@ATL@@UAGJPAUtagFORMATETC@@PAUtagSTGMEDIUM@@H@Z 100036a7 f i SettingsMasterOptions.obj
 0001:000026a7       ?InitFromData@?$IOleObjectImpl@VCSettingsMasterOptions@@@ATL@@UAGJPAUIDataObject@@HK@Z 100036a7 f i SettingsMasterOptions.obj
 0001:000026a7       ?GetMoniker@?$IOleObjectImpl@VCSettingsMasterOptions@@@ATL@@UAGJKKPAPAUIMoniker@@@Z 100036a7 f i SettingsMasterOptions.obj
 0001:000026a7       ?GetMoniker@CAxHostWindow@ATL@@UAGJKKPAPAUIMoniker@@@Z 100036a7 f i SettingsMasterOptions.obj
 0001:000026a7       ?TransformCoords@CAxHostWindow@ATL@@UAGJPAU_POINTL@@PAUtagPOINTF@@K@Z 100036a7 f i SettingsMasterOptions.obj
 0001:000026af       ?GetContainer@CAxHostWindow@ATL@@UAGJPAPAUIOleContainer@@@Z 100036af f i SettingsMasterOptions.obj
 0001:000026ed       ?ShowObject@CAxHostWindow@ATL@@UAGJXZ 100036ed f i SettingsMasterOptions.obj
 0001:0000273d       ?OnPosRectChange@CAxHostWindow@ATL@@UAGJPBUtagRECT@@@Z 1000373d f i SettingsMasterOptions.obj
 0001:0000273d       ?ContextSensitiveHelp@?$IOleInPlaceActiveObjectImpl@VCSettingsMasterOptions@@@ATL@@UAGJH@Z 1000373d f i SettingsMasterOptions.obj
 0001:0000273d       ?Unfreeze@?$IViewObjectExImpl@VCSettingsMasterOptions@@@ATL@@UAGJK@Z 1000373d f i SettingsMasterOptions.obj
 0001:0000273d       ?OnMnemonic@?$IOleControlImpl@VCSettingsMasterOptions@@@ATL@@UAGJPAUtagMSG@@@Z 1000373d f i SettingsMasterOptions.obj
 0001:0000273d       ?ContextSensitiveHelp@?$IOleInPlaceObjectWindowlessImpl@VCSettingsMasterOptions@@@ATL@@UAGJH@Z 1000373d f i SettingsMasterOptions.obj
 0001:0000273d       ?OnShowWindow@CAxHostWindow@ATL@@UAGJH@Z 1000373d f i SettingsMasterOptions.obj
 0001:0000273d       ?ContextSensitiveHelp@CAxHostWindow@ATL@@UAGJH@Z 1000373d f i SettingsMasterOptions.obj
 0001:0000273d       ?GetControlInfo@?$IOleControlImpl@VCSettingsMasterOptions@@@ATL@@UAGJPAUtagCONTROLINFO@@@Z 1000373d f i SettingsMasterOptions.obj
 0001:0000273d       ?QueryGetData@?$IDataObjectImpl@VCSettingsMasterOptions@@@ATL@@UAGJPAUtagFORMATETC@@@Z 1000373d f i SettingsMasterOptions.obj
 0001:0000273d       ?GetDropTarget@?$IOleInPlaceObjectWindowlessImpl@VCSettingsMasterOptions@@@ATL@@UAGJPAPAUIDropTarget@@@Z 1000373d f i SettingsMasterOptions.obj
 0001:0000273d       ?SetColorScheme@?$IOleObjectImpl@VCSettingsMasterOptions@@@ATL@@UAGJPAUtagLOGPALETTE@@@Z 1000373d f i SettingsMasterOptions.obj
 0001:00002745       ?SaveObject@CAxHostWindow@ATL@@UAGJXZ 10003745 f i SettingsMasterOptions.obj
 0001:00002745       ?RequestNewObjectLayout@CAxHostWindow@ATL@@UAGJXZ 10003745 f i SettingsMasterOptions.obj
 0001:00002745       ?DiscardUndoState@CAxHostWindow@ATL@@UAGJXZ 10003745 f i SettingsMasterOptions.obj
 0001:00002745       ?DeactivateAndUndo@CAxHostWindow@ATL@@UAGJXZ 10003745 f i SettingsMasterOptions.obj
 0001:00002745       ?ShowPropertyFrame@CAxHostWindow@ATL@@UAGJXZ 10003745 f i SettingsMasterOptions.obj
 0001:00002745       ?ReactivateAndUndo@?$IOleInPlaceObjectWindowlessImpl@VCSettingsMasterOptions@@@ATL@@UAGJXZ 10003745 f i SettingsMasterOptions.obj
 0001:0000274d       ?GetWindow@CAxHostWindow@ATL@@UAGJPAPAUHWND__@@@Z 1000374d f i SettingsMasterOptions.obj
 0001:0000275f       ?OnInPlaceActivate@CAxHostWindow@ATL@@UAGJXZ 1000375f f i SettingsMasterOptions.obj
 0001:00002790       ?OnUIActivate@CAxHostWindow@ATL@@UAGJXZ 10003790 f i SettingsMasterOptions.obj
 0001:0000279d       ?GetWindowContext@CAxHostWindow@ATL@@UAGJPAPAUIOleInPlaceFrame@@PAPAUIOleInPlaceUIWindow@@PAUtagRECT@@2PAUtagOIFI@@@Z 1000379d f i SettingsMasterOptions.obj
 0001:000028b8       ?SetMoniker@?$IOleObjectImpl@VCSettingsMasterOptions@@@ATL@@UAGJKPAUIMoniker@@@Z 100038b8 f i SettingsMasterOptions.obj
 0001:000028b8       ?EnumFormatEtc@?$IDataObjectImpl@VCSettingsMasterOptions@@@ATL@@UAGJKPAPAUIEnumFORMATETC@@@Z 100038b8 f i SettingsMasterOptions.obj
 0001:000028b8       ?GetClipboardData@?$IOleObjectImpl@VCSettingsMasterOptions@@@ATL@@UAGJKPAPAUIDataObject@@@Z 100038b8 f i SettingsMasterOptions.obj
 0001:000028b8       ?GetDataHere@?$IDataObjectImpl@VCSettingsMasterOptions@@@ATL@@UAGJPAUtagFORMATETC@@PAUtagSTGMEDIUM@@@Z 100038b8 f i SettingsMasterOptions.obj
 0001:000028b8       ?Scroll@CAxHostWindow@ATL@@UAGJUtagSIZE@@@Z 100038b8 f i SettingsMasterOptions.obj
 0001:000028b8       ?QueryInterface@CRegObject@ATL@@UAGJABU_GUID@@PAPAX@Z 100038b8 f i SettingsMasterOptions.obj
 0001:000028b8       ?GetCanonicalFormatEtc@?$IDataObjectImpl@VCSettingsMasterOptions@@@ATL@@UAGJPAUtagFORMATETC@@0@Z 100038b8 f i SettingsMasterOptions.obj
 0001:000028b8       ?GetRect@?$IViewObjectExImpl@VCSettingsMasterOptions@@@ATL@@UAGJKPAU_RECTL@@@Z 100038b8 f i SettingsMasterOptions.obj
 0001:000028c0       ?OnUIDeactivate@CAxHostWindow@ATL@@UAGJH@Z 100038c0 f i SettingsMasterOptions.obj
 0001:000028cd       ?OnInPlaceDeactivate@CAxHostWindow@ATL@@UAGJXZ 100038cd f i SettingsMasterOptions.obj
 0001:000028eb       ?OnInPlaceActivateEx@CAxHostWindow@ATL@@UAGJPAHK@Z 100038eb f i SettingsMasterOptions.obj
 0001:00002952       ?OnInPlaceDeactivateEx@CAxHostWindow@ATL@@UAGJH@Z 10003952 f i SettingsMasterOptions.obj
 0001:00002970       ?CanWindowlessActivate@CAxHostWindow@ATL@@UAGJXZ 10003970 f i SettingsMasterOptions.obj
 0001:00002982       ?GetCapture@CAxHostWindow@ATL@@UAGJXZ 10003982 f i SettingsMasterOptions.obj
 0001:00002994       ?SetCapture@CAxHostWindow@ATL@@UAGJH@Z 10003994 f i SettingsMasterOptions.obj
 0001:000029c3       ?GetFocus@CAxHostWindow@ATL@@UAGJXZ 100039c3 f i SettingsMasterOptions.obj
 0001:000029d5       ?SetFocus@CAxHostWindow@ATL@@UAGJH@Z 100039d5 f i SettingsMasterOptions.obj
 0001:000029ee       ?GetDC@CAxHostWindow@ATL@@UAGJPBUtagRECT@@KPAPAUHDC__@@@Z 100039ee f i SettingsMasterOptions.obj
 0001:00002ac1       ?ReleaseDC@CAxHostWindow@ATL@@UAGJPAUHDC__@@@Z 10003ac1 f i SettingsMasterOptions.obj
 0001:00002b2d       ?InvalidateRect@CAxHostWindow@ATL@@UAGJPBUtagRECT@@H@Z 10003b2d f i SettingsMasterOptions.obj
 0001:00002b47       ?InvalidateRgn@CAxHostWindow@ATL@@UAGJPAUHRGN__@@H@Z 10003b47 f i SettingsMasterOptions.obj
 0001:00002b61       ?ScrollRect@CAxHostWindow@ATL@@UAGJHHPBUtagRECT@@0@Z 10003b61 f i SettingsMasterOptions.obj
 0001:00002b66       ?OnDefWindowMessage@CAxHostWindow@ATL@@UAGJIIJPAJ@Z 10003b66 f i SettingsMasterOptions.obj
 0001:00002b88       ?RequestUIActivate@CAxHostWindow@ATL@@UAGJXZ 10003b88 f i SettingsMasterOptions.obj
 0001:00002b88       ?Update@?$IOleObjectImpl@VCSettingsMasterOptions@@@ATL@@UAGJXZ 10003b88 f i SettingsMasterOptions.obj
 0001:00002b88       ?Release@CRegObject@ATL@@UAGKXZ 10003b88 f i SettingsMasterOptions.obj
 0001:00002b88       ?IsUpToDate@?$IOleObjectImpl@VCSettingsMasterOptions@@@ATL@@UAGJXZ 10003b88 f i SettingsMasterOptions.obj
 0001:00002b88       ?HandsOffStorage@?$IPersistStorageImpl@VCSettingsMasterOptions@@@ATL@@UAGJXZ 10003b88 f i SettingsMasterOptions.obj
 0001:00002b88       ?CanInPlaceActivate@CAxHostWindow@ATL@@UAGJXZ 10003b88 f i SettingsMasterOptions.obj
 0001:00002b88       ?OnControlInfoChanged@CAxHostWindow@ATL@@UAGJXZ 10003b88 f i SettingsMasterOptions.obj
 0001:00002b8d       ?GetExtendedControl@CAxHostWindow@ATL@@UAGJPAPAUIDispatch@@@Z 10003b8d f i SettingsMasterOptions.obj
 0001:00002bb3       ?OnFocus@CAxHostWindow@ATL@@UAGJH@Z 10003bb3 f i SettingsMasterOptions.obj
 0001:00002bcc       ?OnViewChange@CAxHostWindow@ATL@@UAGXKJ@Z 10003bcc f i SettingsMasterOptions.obj
 0001:00002bcc       ?OnDataChange@CAxHostWindow@ATL@@UAGXPAUtagFORMATETC@@PAUtagSTGMEDIUM@@@Z 10003bcc f i SettingsMasterOptions.obj
 0001:00002bcf       ?OnRename@CAxHostWindow@ATL@@UAGXPAUIMoniker@@@Z 10003bcf f i SettingsMasterOptions.obj
 0001:00002bd2       ?ObjectMain@CComObjectRootBase@ATL@@SGX_N@Z 10003bd2 f i SettingsMasterOptions.obj
 0001:00002bd2       ?OnClose@CAxHostWindow@ATL@@UAGXXZ 10003bd2 f i SettingsMasterOptions.obj
 0001:00002bd2       ?OnSave@CAxHostWindow@ATL@@UAGXXZ 10003bd2 f i SettingsMasterOptions.obj
 0001:00002bd2       ?OnFinalMessage@?$CDialogImplBaseT@VCWindow@ATL@@@ATL@@UAEXPAUHWND__@@@Z 10003bd2 f i SettingsMasterOptions.obj
 0001:00002bd2       ?OnFinalMessage@?$CWindowImplBaseT@VCWindow@ATL@@V?$CWinTraits@$0FGAAAAAA@$0A@@2@@ATL@@UAEXPAUHWND__@@@Z 10003bd2 f i SettingsMasterOptions.obj
 0001:00002bd5       ?EnumObjects@CAxHostWindow@ATL@@UAGJKPAPAUIEnumUnknown@@@Z 10003bd5 f i SettingsMasterOptions.obj
 0001:00002c86       ?LockContainer@CAxHostWindow@ATL@@UAGJH@Z 10003c86 f i SettingsMasterOptions.obj
 0001:00002ca2       ?ActivateAx@CAxHostWindow@ATL@@QAEJPAUIUnknown@@_NPAUIStream@@@Z 10003ca2 f i SettingsMasterOptions.obj
 0001:00003051       ?SubclassWindow@CAxHostWindow@ATL@@QAEXPAUHWND__@@@Z 10004051 f i SettingsMasterOptions.obj
 0001:0000306b       ?ReleaseWindow@CAxHostWindow@ATL@@QAEXXZ 1000406b f i SettingsMasterOptions.obj
 0001:00003096       ?ReflectNotifications@CAxHostWindow@ATL@@QAEJIIJAAH@Z 10004096 f i SettingsMasterOptions.obj
 0001:000031aa       ?QueryService@CAxHostWindow@ATL@@UAGJABU_GUID@@0PAPAX@Z 100041aa f i SettingsMasterOptions.obj
 0001:000031e1       ??1?$CWindowImpl@VCAxHostWindow@ATL@@VCWindow@2@V?$CWinTraits@$0FGAAAAAA@$0A@@2@@ATL@@UAE@XZ 100041e1 f i SettingsMasterOptions.obj
 0001:000031e9       ??1?$CComQIPtr@UIAdviseSink@@$1?_GUID_0000010f_0000_0000_c000_000000000046@@3U__s_GUID@@B@ATL@@QAE@XZ 100041e9 f i SettingsMasterOptions.obj
 0001:000031e9       ??1?$CComQIPtr@UIOleControlSite@@$1?_GUID_b196b289_bab4_101a_b69c_00aa00341d07@@3U__s_GUID@@B@ATL@@QAE@XZ 100041e9 f i SettingsMasterOptions.obj
 0001:000031e9       ??1?$CComQIPtr@UISpecifyPropertyPages@@$1?_GUID_b196b28b_bab4_101a_b69c_00aa00341d07@@3U__s_GUID@@B@ATL@@QAE@XZ 100041e9 f i SettingsMasterOptions.obj
 0001:000031e9       ??1?$CComQIPtr@UIOleClientSite@@$1?_GUID_00000118_0000_0000_c000_000000000046@@3U__s_GUID@@B@ATL@@QAE@XZ 100041e9 f i SettingsMasterOptions.obj
 0001:000031e9       ??1?$CComQIPtr@UIPersistStreamInit@@$1?_GUID_7fd52380_4e07_101b_ae2d_08002b2ec713@@3U__s_GUID@@B@ATL@@QAE@XZ 100041e9 f i SettingsMasterOptions.obj
 0001:000031e9       ??1?$CComQIPtr@UIOleInPlaceActiveObject@@$1?_GUID_00000117_0000_0000_c000_000000000046@@3U__s_GUID@@B@ATL@@QAE@XZ 100041e9 f i SettingsMasterOptions.obj
 0001:000031e9       ??1?$CComQIPtr@UIPersistStream@@$1?_GUID_00000109_0000_0000_c000_000000000046@@3U__s_GUID@@B@ATL@@QAE@XZ 100041e9 f i SettingsMasterOptions.obj
 0001:000031e9       ??1?$CComQIPtr@UIOleControl@@$1?_GUID_b196b288_bab4_101a_b69c_00aa00341d07@@3U__s_GUID@@B@ATL@@QAE@XZ 100041e9 f i SettingsMasterOptions.obj
 0001:000031e9       ??1?$CComQIPtr@UIOleObject@@$1?_GUID_00000112_0000_0000_c000_000000000046@@3U__s_GUID@@B@ATL@@QAE@XZ 100041e9 f i SettingsMasterOptions.obj
 0001:000031e9       ??1?$CComQIPtr@UIDTToolsOptionsPage@EnvDTE@@$1?_GUID_bdcaf240_2692_4713_902a_b110b1d0f100@@3U__s_GUID@@B@ATL@@QAE@XZ 100041e9 f i SettingsMasterOptions.obj
 0001:000035d3       _AtlAxCreateControlLic@20  100045d3 f i SettingsMasterOptions.obj
 0001:000035f4       _AtlAxCreateControlLicEx@32 100045f4 f i SettingsMasterOptions.obj
 0001:000036c1       _AtlAxWinInit@0            100046c1 f i SettingsMasterOptions.obj
 0001:000037fc       _AtlAxGetControl@8         100047fc f i SettingsMasterOptions.obj
 0001:0000382e       _AtlAxGetHost@8            1000482e f i SettingsMasterOptions.obj
 0001:00003860       ?FormatWindowClassName@AtlModuleRegisterWndClassInfoParamW@ATL@@SAXPAGPAX@Z 10004860 f i SettingsMasterOptions.obj
 0001:00003877       ?AtlWinModuleRegisterClassExW@ATL@@YGGPAU_ATL_WIN_MODULE70@1@PBUtagWNDCLASSEXW@@@Z 10004877 f i SettingsMasterOptions.obj
 0001:000038ad       ?AtlCreateTargetDC@ATL@@YGPAUHDC__@@PAU2@PAUtagDVTARGETDEVICE@@@Z 100048ad f i SettingsMasterOptions.obj
 0001:0000390f       ?AtlHiMetricToPixel@ATL@@YGXPBUtagSIZE@@PAU2@@Z 1000490f f i SettingsMasterOptions.obj
 0001:00003966       ?AtlPixelToHiMetric@ATL@@YGXPBUtagSIZE@@PAU2@@Z 10004966 f i SettingsMasterOptions.obj
 0001:000039bd       ??0CComControlBase@ATL@@QAE@AAPAUHWND__@@@Z 100049bd f i SettingsMasterOptions.obj
 0001:000039f7       ??1CComControlBase@ATL@@UAE@XZ 100049f7 f i SettingsMasterOptions.obj
 0001:00003a5a       ?OnSetFocus@CComControlBase@ATL@@QAEJIIJAAH@Z 10004a5a f i SettingsMasterOptions.obj
 0001:00003b02       ?OnKillFocus@CComControlBase@ATL@@QAEJIIJAAH@Z 10004b02 f i SettingsMasterOptions.obj
 0001:00003b72       ?OnMouseActivate@CComControlBase@ATL@@QAEJIIJAAH@Z 10004b72 f i SettingsMasterOptions.obj
 0001:00003bfc       ?GetAmbientProperty@CComControlBase@ATL@@QAEJJAAUtagVARIANT@@@Z 10004bfc f i SettingsMasterOptions.obj
 0001:00003c1a       ?GetAmbientBackColor@CComControlBase@ATL@@QAEJAAK@Z 10004c1a f i SettingsMasterOptions.obj
 0001:00003c57       ?GetAmbientLocaleID@CComControlBase@ATL@@QAEJAAK@Z 10004c57 f i SettingsMasterOptions.obj
 0001:00003c94       ?GetAmbientUserMode@CComControlBase@ATL@@QAEJAAH@Z 10004c94 f i SettingsMasterOptions.obj
 0001:00003ce9       ?InternalGetSite@CComControlBase@ATL@@QAEJABU_GUID@@PAPAX@Z 10004ce9 f i SettingsMasterOptions.obj
 0001:00003d10       ?DoesVerbUIActivate@CComControlBase@ATL@@QAEHJ@Z 10004d10 f i SettingsMasterOptions.obj
 0001:00003d3b       ?DoesVerbActivate@CComControlBase@ATL@@QAEHJ@Z 10004d3b f i SettingsMasterOptions.obj
 0001:00003d54       ?IQuickActivate_QuickActivate@CComControlBase@ATL@@QAEJPAUtagQACONTAINER@@PAUtagQACONTROL@@@Z 10004d54 f i SettingsMasterOptions.obj
 0001:00003fd9       ?SetControlFocus@CComControlBase@ATL@@QAEHH@Z 10004fd9 f i SettingsMasterOptions.obj
 0001:00004068       ?DoVerbProperties@CComControlBase@ATL@@QAEJPBUtagRECT@@PAUHWND__@@@Z 10005068 f i SettingsMasterOptions.obj
 0001:000041fe       ?InPlaceActivate@CComControlBase@ATL@@QAEJJPBUtagRECT@@@Z 100051fe f i SettingsMasterOptions.obj
 0001:000044fa       ?SendOnDataChange@CComControlBase@ATL@@QAEJK@Z 100054fa f i SettingsMasterOptions.obj
 0001:0000455f       ?IOleObject_SetClientSite@CComControlBase@ATL@@QAEJPAUIOleClientSite@@@Z 1000555f f i SettingsMasterOptions.obj
 0001:00004593       ?IOleObject_GetClientSite@CComControlBase@ATL@@QAEJPAPAUIOleClientSite@@@Z 10005593 f i SettingsMasterOptions.obj
 0001:000045b4       ?IOleObject_Advise@CComControlBase@ATL@@QAEJPAUIAdviseSink@@PAK@Z 100055b4 f i SettingsMasterOptions.obj
 0001:000045de       ?IOleObject_Close@CComControlBase@ATL@@QAEJK@Z 100055de f i SettingsMasterOptions.obj
 0001:000046db       ?IOleInPlaceObject_InPlaceDeactivate@CComControlBase@ATL@@QAEJXZ 100056db f i SettingsMasterOptions.obj
 0001:00004766       ?IOleInPlaceObject_UIDeactivate@CComControlBase@ATL@@QAEJXZ 10005766 f i SettingsMasterOptions.obj
 0001:00004833       ?IOleInPlaceObject_SetObjectRects@CComControlBase@ATL@@QAEJPBUtagRECT@@0@Z 10005833 f i SettingsMasterOptions.obj
 0001:000048eb       ?IOleObject_SetExtent@CComControlBase@ATL@@QAEJKPAUtagSIZE@@@Z 100058eb f i SettingsMasterOptions.obj
 0001:000049ab       ?IViewObject_Draw@CComControlBase@ATL@@QAEJKJPAXPAUtagDVTARGETDEVICE@@PAUHDC__@@2PBU_RECTL@@3@Z 100059ab f i SettingsMasterOptions.obj
 0001:00004a52       ?IDataObject_GetData@CComControlBase@ATL@@QAEJPAUtagFORMATETC@@PAUtagSTGMEDIUM@@@Z 10005a52 f i SettingsMasterOptions.obj
 0001:00004bd2       ?FireViewChange@CComControlBase@ATL@@QAEJXZ 10005bd2 f i SettingsMasterOptions.obj
 0001:00004c1c       ?GetZoomInfo@CComControlBase@ATL@@QAEXAAUATL_DRAWINFO@@@Z 10005c1c f i SettingsMasterOptions.obj
 0001:00004cac       ?OnDrawAdvanced@CComControlBase@ATL@@UAEJAAUATL_DRAWINFO@@@Z 10005cac f i SettingsMasterOptions.obj
 0001:00004d84       ??0CSettingsMasterOptions@@QAE@XZ 10005d84 f i SettingsMasterOptions.obj
 0001:00004df5       ?UpdateRegistry@CSettingsMasterOptions@@SGJH@Z 10005df5 f i SettingsMasterOptions.obj
 0001:00004e6e       ?ProcessWindowMessage@CSettingsMasterOptions@@UAEHPAUHWND__@@IIJAAJK@Z 10005e6e f i SettingsMasterOptions.obj
 0001:00004ec6       ?_GetSinkMap@CSettingsMasterOptions@@SAPBU?$_ATL_EVENT_ENTRY@VCSettingsMasterOptions@@@ATL@@XZ 10005ec6 f i SettingsMasterOptions.obj
 0001:00004ef1       ?OnAmbientPropertyChange@CSettingsMasterOptions@@UAGJJ@Z 10005ef1 f i SettingsMasterOptions.obj
 0001:00004f15       ?InterfaceSupportsErrorInfo@CSettingsMasterOptions@@UAGJABU_GUID@@@Z 10005f15 f i SettingsMasterOptions.obj
 0001:00004f3c       ?OnAfterCreated@CSettingsMasterOptions@@UAGJPAU_DTE@EnvDTE@@@Z 10005f3c f i SettingsMasterOptions.obj
 0001:00004f9d       ?GetProperties@CSettingsMasterOptions@@UAGJPAPAUIDispatch@@@Z 10005f9d f i SettingsMasterOptions.obj
 0001:00004fee       ?OnOK@CSettingsMasterOptions@@UAGJXZ 10005fee f i SettingsMasterOptions.obj
 0001:0000503c       ?OnCancel@CSettingsMasterOptions@@UAGJXZ 1000603c f i SettingsMasterOptions.obj
 0001:0000508a       ?OnHelp@CSettingsMasterOptions@@UAGJXZ 1000608a f i SettingsMasterOptions.obj
 0001:000050d8       ??1?$CComPtr@UIDataObject@@@ATL@@QAE@XZ 100060d8 f i SettingsMasterOptions.obj
 0001:000050d8       ??1?$CComPtr@U_DTE@EnvDTE@@@ATL@@QAE@XZ 100060d8 f i SettingsMasterOptions.obj
 0001:000050d8       ??1?$CComPtr@UIProvideClassInfo2@@@ATL@@QAE@XZ 100060d8 f i SettingsMasterOptions.obj
 0001:000050d8       ??1?$CComPtr@UIOleControlSite@@@ATL@@QAE@XZ 100060d8 f i SettingsMasterOptions.obj
 0001:000050d8       ??1?$CComPtr@UIDTToolsOptionsPage@EnvDTE@@@ATL@@QAE@XZ 100060d8 f i SettingsMasterOptions.obj
 0001:000050d8       ??1?$CComPtr@UIOleControl@@@ATL@@QAE@XZ 100060d8 f i SettingsMasterOptions.obj
 0001:000050d8       ??1?$CComPtr@U_AppDomain@mscorlib@@@ATL@@QAE@XZ 100060d8 f i SettingsMasterOptions.obj
 0001:000050d8       ??1?$CComPtr@UICorRuntimeHost@@@ATL@@QAE@XZ 100060d8 f i SettingsMasterOptions.obj
 0001:000050d8       ??1?$CComPtr@UIStream@@@ATL@@QAE@XZ 100060d8 f i SettingsMasterOptions.obj
 0001:000050d8       ??1?$CComPtr@UIOleInPlaceFrame@@@ATL@@QAE@XZ 100060d8 f i SettingsMasterOptions.obj
 0001:000050d8       ??1?$CComPtr@U_ObjectHandle@mscorlib@@@ATL@@QAE@XZ 100060d8 f i SettingsMasterOptions.obj
 0001:000050d8       ??1?$CComPtr@UIOleClientSite@@@ATL@@QAE@XZ 100060d8 f i SettingsMasterOptions.obj
 0001:000050d8       ??1?$CComPtr@UITypeLib@@@ATL@@QAE@XZ 100060d8 f i SettingsMasterOptions.obj
 0001:000050d8       ??1?$CComPtr@UIConnectionPoint@@@ATL@@QAE@XZ 100060d8 f i SettingsMasterOptions.obj
 0001:000050d8       ??1?$CComPtr@UICatRegister@@@ATL@@QAE@XZ 100060d8 f i SettingsMasterShim.obj
 0001:000050d8       ??1?$CComPtr@UISpecifyPropertyPages@@@ATL@@QAE@XZ 100060d8 f i SettingsMasterOptions.obj
 0001:000050d8       ??1?$CComPtr@UIDispatch@@@ATL@@QAE@XZ 100060d8 f i SettingsMasterOptions.obj
 0001:000050d8       ??1?$CComPtr@UIWebBrowser2@@@ATL@@QAE@XZ 100060d8 f i SettingsMasterOptions.obj
 0001:000050d8       ??1?$CComPtr@UIClassFactory2@@@ATL@@QAE@XZ 100060d8 f i SettingsMasterOptions.obj
 0001:000050d8       ??1?$CComPtr@UIPersist@@@ATL@@QAE@XZ 100060d8 f i SettingsMasterOptions.obj
 0001:000050d8       ??1?$CComPtr@UIPersistStream@@@ATL@@QAE@XZ 100060d8 f i SettingsMasterOptions.obj
 0001:000050d8       ??1?$CComPtr@UIOleInPlaceUIWindow@@@ATL@@QAE@XZ 100060d8 f i SettingsMasterOptions.obj
 0001:000050d8       ??1?$CComPtr@UIPersistStreamInit@@@ATL@@QAE@XZ 100060d8 f i SettingsMasterOptions.obj
 0001:000050d8       ??1?$CComPtr@UIOleObject@@@ATL@@QAE@XZ 100060d8 f i SettingsMasterOptions.obj
 0001:000050d8       ??1?$CComPtr@UIPointerInactive@@@ATL@@QAE@XZ 100060d8 f i SettingsMasterOptions.obj
 0001:000050d8       ??1?$CComPtr@UIObjectWithSite@@@ATL@@QAE@XZ 100060d8 f i SettingsMasterOptions.obj
 0001:000050d8       ??1?$CComPtr@UIAxWinAmbientDispatch@@@ATL@@QAE@XZ 100060d8 f i SettingsMasterOptions.obj
 0001:000050d8       ??1?$CComPtr@UIConnectionPointContainer@@@ATL@@QAE@XZ 100060d8 f i SettingsMasterOptions.obj
 0001:000050d8       ??1?$CComPtr@UIUnknown@@@ATL@@QAE@XZ 100060d8 f i SettingsMasterOptions.obj
 0001:000050d8       ??1?$CComPtr@UIViewObjectEx@@@ATL@@QAE@XZ 100060d8 f i SettingsMasterOptions.obj
 0001:000050d8       ??1?$CComPtr@UITypeInfo2@@@ATL@@QAE@XZ 100060d8 f i SettingsMasterOptions.obj
 0001:000050d8       ??1?$CComPtr@UITypeInfo@@@ATL@@QAE@XZ 100060d8 f i SettingsMasterOptions.obj
 0001:000050d8       ??1?$CComPtr@UIWin32Window@@@ATL@@QAE@XZ 100060d8 f i SettingsMasterOptions.obj
 0001:000050d8       ??1?$CComPtr@UIAdviseSink@@@ATL@@QAE@XZ 100060d8 f i SettingsMasterOptions.obj
 0001:000050d8       ??1?$CComPtr@UIAxWinHostWindowLic@@@ATL@@QAE@XZ 100060d8 f i SettingsMasterOptions.obj
 0001:000050d8       ??1?$CComPtr@UIOleInPlaceObject@@@ATL@@QAE@XZ 100060d8 f i SettingsMasterOptions.obj
 0001:000050d8       ??1?$CComPtr@UIOleInPlaceActiveObject@@@ATL@@QAE@XZ 100060d8 f i SettingsMasterOptions.obj
 0001:000050e5       ??1CSettingsMasterOptions@@UAE@XZ 100060e5 f i SettingsMasterOptions.obj
 0001:00005146       ?OnShowWindow@CSettingsMasterOptions@@QAEJIIJAAH@Z 10006146 f   SettingsMasterOptions.obj
 0001:000052f2       ?OnSize@CSettingsMasterOptions@@QAEJIIJAAH@Z 100062f2 f   SettingsMasterOptions.obj
 0001:0000531b       ?Reset@CSettingsMasterOptions@@QAEXXZ 1000631b f   SettingsMasterOptions.obj
 0001:00005356       ?HostUserControl@CSettingsMasterOptions@@UAGJPAG0PAPAUIUnknown@@@Z 10006356 f   SettingsMasterOptions.obj
 0001:000054d8       ?FinalConstruct@CSettingsMasterOptions@@QAEJXZ 100064d8 f   SettingsMasterOptions.obj
 0001:00005597       ?CopyTo@?$CComPtrBase@UIDispatch@@@ATL@@QAEJPAPAUIDispatch@@@Z 10006597 f i SettingsMasterOptions.obj
 0001:00005597       ?CopyTo@?$CComPtrBase@UIFontDisp@@@ATL@@QAEJPAPAUIFontDisp@@@Z 10006597 f i SettingsMasterOptions.obj
 0001:00005597       ?CopyTo@?$CComPtrBase@UIOleInPlaceUIWindow@@@ATL@@QAEJPAPAUIOleInPlaceUIWindow@@@Z 10006597 f i SettingsMasterOptions.obj
 0001:00005597       ?CopyTo@?$CComPtrBase@UIOleInPlaceFrame@@@ATL@@QAEJPAPAUIOleInPlaceFrame@@@Z 10006597 f i SettingsMasterOptions.obj
 0001:000055b4       ?Add@?$CSimpleArray@GV?$CSimpleArrayEqualHelper@G@ATL@@@ATL@@QAEHABG@Z 100065b4 f i SettingsMasterOptions.obj
 0001:000055fa       ?Create@?$CWindowImpl@VCAxFrameWindow@ATL@@VCWindow@2@V?$CWinTraits@$0FGAAAAAA@$0A@@2@@ATL@@QAEPAUHWND__@@PAU3@V_U_RECT@2@PBGKKV_U_MENUorID@2@PAX@Z 100065fa f i SettingsMasterOptions.obj
 0001:00005654       ?GetWindowProc@?$CWindowImplBaseT@VCWindow@ATL@@V?$CWinTraits@$0FGAAAAAA@$0A@@2@@ATL@@UAEP6GJPAUHWND__@@IIJ@ZXZ 10006654 f i SettingsMasterOptions.obj
 0001:0000565a       ?DefWindowProcW@?$CWindowImplBaseT@VCWindow@ATL@@V?$CWinTraits@$0FGAAAAAA@$0A@@2@@ATL@@QAEJXZ 1000665a f i SettingsMasterOptions.obj
 0001:00005674       ?DefWindowProcW@?$CWindowImplBaseT@VCWindow@ATL@@V?$CWinTraits@$0FGAAAAAA@$0A@@2@@ATL@@QAEJIIJ@Z 10006674 f i SettingsMasterOptions.obj
 0001:0000568f       ?Create@?$CWindowImpl@VCAxUIWindow@ATL@@VCWindow@2@V?$CWinTraits@$0FGAAAAAA@$0A@@2@@ATL@@QAEPAUHWND__@@PAU3@V_U_RECT@2@PBGKKV_U_MENUorID@2@PAX@Z 1000668f f i SettingsMasterOptions.obj
 0001:000056e9       ?SetSite@?$IObjectWithSiteImpl@VCAxHostWindow@ATL@@@ATL@@UAGJPAUIUnknown@@@Z 100066e9 f i SettingsMasterOptions.obj
 0001:0000570b       ?GetSite@?$IObjectWithSiteImpl@VCAxHostWindow@ATL@@@ATL@@UAGJABU_GUID@@PAPAX@Z 1000670b f i SettingsMasterOptions.obj
 0001:00005743       ?GetTypeInfo@?$IDispatchImpl@UIAxWinAmbientDispatchEx@@$1?_GUID_b2d0778b_ac99_4c58_a5c8_e7724e5316b5@@3U__s_GUID@@B$1?m_libid@CAtlModule@ATL@@2U_GUID@@A$0PPPP@$0PPPP@VCComTypeInfoHolder@ATL@@@ATL@@UAGJIKPAPAUITypeInfo@@@Z 10006743 f i SettingsMasterOptions.obj
 0001:0000575a       ?GetIDsOfNames@?$IDispatchImpl@UIAxWinAmbientDispatchEx@@$1?_GUID_b2d0778b_ac99_4c58_a5c8_e7724e5316b5@@3U__s_GUID@@B$1?m_libid@CAtlModule@ATL@@2U_GUID@@A$0PPPP@$0PPPP@VCComTypeInfoHolder@ATL@@@ATL@@UAGJABU_GUID@@PAPAGIKPAJ@Z 1000675a f i SettingsMasterOptions.obj
 0001:00005777       ?Invoke@?$IDispatchImpl@UIAxWinAmbientDispatchEx@@$1?_GUID_b2d0778b_ac99_4c58_a5c8_e7724e5316b5@@3U__s_GUID@@B$1?m_libid@CAtlModule@ATL@@2U_GUID@@A$0PPPP@$0PPPP@VCComTypeInfoHolder@ATL@@@ATL@@UAGJJABU_GUID@@KGPAUtagDISPPARAMS@@PAUtagVARIANT@@PAUtagEXCEPINFO@@PAI@Z 10006777 f i SettingsMasterOptions.obj
 0001:000057a2       ??0?$CComQIPtr@UIOleInPlaceActiveObject@@$1?_GUID_00000117_0000_0000_c000_000000000046@@3U__s_GUID@@B@ATL@@QAE@PAUIUnknown@@@Z 100067a2 f i SettingsMasterOptions.obj
 0001:000057c4       ??0?$CComQIPtr@UIOleControl@@$1?_GUID_b196b288_bab4_101a_b69c_00aa00341d07@@3U__s_GUID@@B@ATL@@QAE@PAUIUnknown@@@Z 100067c4 f i SettingsMasterOptions.obj
 0001:000057e6       ??1?$CComObject@VCAxFrameWindow@ATL@@@ATL@@UAE@XZ 100067e6 f i SettingsMasterOptions.obj
 0001:00005816       ?QueryInterface@?$CComObject@VCAxFrameWindow@ATL@@@ATL@@UAGJABU_GUID@@PAPAX@Z 10006816 f i SettingsMasterOptions.obj
 0001:00005835       ??1?$CComObject@VCAxUIWindow@ATL@@@ATL@@UAE@XZ 10006835 f i SettingsMasterOptions.obj
 0001:00005865       ?Release@?$CComObject@VCAxUIWindow@ATL@@@ATL@@UAGKXZ 10006865 f i SettingsMasterOptions.obj
 0001:00005865       ?Release@?$CComObject@VCAxFrameWindow@ATL@@@ATL@@UAGKXZ 10006865 f i SettingsMasterOptions.obj
 0001:00005886       ?QueryInterface@?$CComObject@VCAxUIWindow@ATL@@@ATL@@UAGJABU_GUID@@PAPAX@Z 10006886 f i SettingsMasterOptions.obj
 0001:000058a5       ??0?$CComObject@V?$CComEnum@UIEnumUnknown@@$1?_GUID_00000100_0000_0000_c000_000000000046@@3U__s_GUID@@BPAUIUnknown@@V?$_CopyInterface@UIUnknown@@@ATL@@VCComSingleThreadModel@6@@ATL@@@ATL@@QAE@PAX@Z 100068a5 f i SettingsMasterOptions.obj
 0001:000058c0       ??1?$CComObject@V?$CComEnum@UIEnumUnknown@@$1?_GUID_00000100_0000_0000_c000_000000000046@@3U__s_GUID@@BPAUIUnknown@@V?$_CopyInterface@UIUnknown@@@ATL@@VCComSingleThreadModel@6@@ATL@@@ATL@@UAE@XZ 100068c0 f i SettingsMasterOptions.obj
 0001:000058e3       ?AddRef@?$CComObject@V?$CComEnum@UIEnumUnknown@@$1?_GUID_00000100_0000_0000_c000_000000000046@@3U__s_GUID@@BPAUIUnknown@@V?$_CopyInterface@UIUnknown@@@ATL@@VCComSingleThreadModel@6@@ATL@@@ATL@@UAGKXZ 100068e3 f i SettingsMasterOptions.obj
 0001:000058f0       ?Release@?$CComObject@V?$CComEnum@UIEnumUnknown@@$1?_GUID_00000100_0000_0000_c000_000000000046@@3U__s_GUID@@BPAUIUnknown@@V?$_CopyInterface@UIUnknown@@@ATL@@VCComSingleThreadModel@6@@ATL@@@ATL@@UAGKXZ 100068f0 f i SettingsMasterOptions.obj
 0001:0000590e       ?QueryInterface@?$CComObject@V?$CComEnum@UIEnumUnknown@@$1?_GUID_00000100_0000_0000_c000_000000000046@@3U__s_GUID@@BPAUIUnknown@@V?$_CopyInterface@UIUnknown@@@ATL@@VCComSingleThreadModel@6@@ATL@@@ATL@@UAGJABU_GUID@@PAPAX@Z 1000690e f i SettingsMasterOptions.obj
 0001:00005929       ?Reset@?$CComEnumImpl@UIEnumUnknown@@$1?_GUID_00000100_0000_0000_c000_000000000046@@3U__s_GUID@@BPAUIUnknown@@V?$_CopyInterface@UIUnknown@@@ATL@@@ATL@@UAGJXZ 10006929 f i SettingsMasterOptions.obj
 0001:00005938       ??0?$CComQIPtr@UIOleClientSite@@$1?_GUID_00000118_0000_0000_c000_000000000046@@3U__s_GUID@@B@ATL@@QAE@PAUIUnknown@@@Z 10006938 f i SettingsMasterOptions.obj
 0001:0000595a       ??0?$CComQIPtr@UIPersistStreamInit@@$1?_GUID_7fd52380_4e07_101b_ae2d_08002b2ec713@@3U__s_GUID@@B@ATL@@QAE@PAUIUnknown@@@Z 1000695a f i SettingsMasterOptions.obj
 0001:0000597c       ??0?$CComQIPtr@UIPersistStream@@$1?_GUID_00000109_0000_0000_c000_000000000046@@3U__s_GUID@@B@ATL@@QAE@PAUIUnknown@@@Z 1000697c f i SettingsMasterOptions.obj
 0001:0000599e       ??0?$CComQIPtr@UIAdviseSink@@$1?_GUID_0000010f_0000_0000_c000_000000000046@@3U__s_GUID@@B@ATL@@QAE@PAUIUnknown@@@Z 1000699e f i SettingsMasterOptions.obj
 0001:000059c0       ?CreateInstance@?$CComCreator@V?$CComPolyObject@VCAxHostWindow@ATL@@@ATL@@@ATL@@SGJPAXABU_GUID@@PAPAX@Z 100069c0 f i SettingsMasterOptions.obj
 0001:00005a5b       ??0?$CComQIPtr@UIOleControlSite@@$1?_GUID_b196b289_bab4_101a_b69c_00aa00341d07@@3U__s_GUID@@B@ATL@@QAE@PAUIUnknown@@@Z 10006a5b f i SettingsMasterOptions.obj
 0001:00005a7d       ?GetTypeInfoCount@?$IDispatchImpl@UIDTToolsOptionsPage@EnvDTE@@$1?IID_IDTToolsOptionsPage@2@3U_GUID@@B$1?LIBID_EnvDTE@2@3U4@B$06$0A@VCComTypeInfoHolder@ATL@@@ATL@@UAGJPAI@Z 10006a7d f i SettingsMasterOptions.obj
 0001:00005a7d       ?GetTypeInfoCount@?$IDispatchImpl@UIAxWinAmbientDispatchEx@@$1?_GUID_b2d0778b_ac99_4c58_a5c8_e7724e5316b5@@3U__s_GUID@@B$1?m_libid@CAtlModule@ATL@@2U_GUID@@A$0PPPP@$0PPPP@VCComTypeInfoHolder@ATL@@@ATL@@UAGJPAI@Z 10006a7d f i SettingsMasterOptions.obj
 0001:00005a97       ?GetTypeInfo@?$IDispatchImpl@UIDTToolsOptionsPage@EnvDTE@@$1?IID_IDTToolsOptionsPage@2@3U_GUID@@B$1?LIBID_EnvDTE@2@3U4@B$06$0A@VCComTypeInfoHolder@ATL@@@ATL@@UAGJIKPAPAUITypeInfo@@@Z 10006a97 f i SettingsMasterOptions.obj
 0001:00005aae       ?GetIDsOfNames@?$IDispatchImpl@UIDTToolsOptionsPage@EnvDTE@@$1?IID_IDTToolsOptionsPage@2@3U_GUID@@B$1?LIBID_EnvDTE@2@3U4@B$06$0A@VCComTypeInfoHolder@ATL@@@ATL@@UAGJABU_GUID@@PAPAGIKPAJ@Z 10006aae f i SettingsMasterOptions.obj
 0001:00005acb       ?Invoke@?$IDispatchImpl@UIDTToolsOptionsPage@EnvDTE@@$1?IID_IDTToolsOptionsPage@2@3U_GUID@@B$1?LIBID_EnvDTE@2@3U4@B$06$0A@VCComTypeInfoHolder@ATL@@@ATL@@UAGJJABU_GUID@@KGPAUtagDISPPARAMS@@PAUtagVARIANT@@PAUtagEXCEPINFO@@PAI@Z 10006acb f i SettingsMasterOptions.obj
 0001:00005af6       ?IsDirty@?$IPersistStreamInitImpl@VCSettingsMasterOptions@@@ATL@@UAGJXZ 10006af6 f i SettingsMasterOptions.obj
 0001:00005b13       ?Load@?$IPersistStreamInitImpl@VCSettingsMasterOptions@@@ATL@@UAGJPAUIStream@@@Z 10006b13 f i SettingsMasterOptions.obj
 0001:00005b34       ?Save@?$IPersistStreamInitImpl@VCSettingsMasterOptions@@@ATL@@UAGJPAUIStream@@H@Z 10006b34 f i SettingsMasterOptions.obj
 0001:00005b60       ?GetSizeMax@?$IPersistStreamInitImpl@VCSettingsMasterOptions@@@ATL@@UAGJPAT_ULARGE_INTEGER@@@Z 10006b60 f i SettingsMasterOptions.obj
 0001:00005c90       ?InitNew@?$IPersistStreamInitImpl@VCSettingsMasterOptions@@@ATL@@UAGJXZ 10006c90 f i SettingsMasterOptions.obj
 0001:00005ca6       ?FreezeEvents@?$IOleControlImpl@VCSettingsMasterOptions@@@ATL@@UAGJH@Z 10006ca6 f i SettingsMasterOptions.obj
 0001:00005cc7       ?SetClientSite@?$IOleObjectImpl@VCSettingsMasterOptions@@@ATL@@UAGJPAUIOleClientSite@@@Z 10006cc7 f i SettingsMasterOptions.obj
 0001:00005ce5       ?GetClientSite@?$IOleObjectImpl@VCSettingsMasterOptions@@@ATL@@UAGJPAPAUIOleClientSite@@@Z 10006ce5 f i SettingsMasterOptions.obj
 0001:00005d01       ?SetHostNames@?$IOleObjectImpl@VCSettingsMasterOptions@@@ATL@@UAGJPBG0@Z 10006d01 f i SettingsMasterOptions.obj
 0001:00005d01       ?InsertMenus@CAxFrameWindow@ATL@@UAGJPAUHMENU__@@PAUtagOleMenuGroupWidths@@@Z 10006d01 f i SettingsMasterOptions.obj
 0001:00005d06       ?Close@?$IOleObjectImpl@VCSettingsMasterOptions@@@ATL@@UAGJK@Z 10006d06 f i SettingsMasterOptions.obj
 0001:00005d24       ?DoVerb@?$IOleObjectImpl@VCSettingsMasterOptions@@@ATL@@UAGJJPAUtagMSG@@PAUIOleClientSite@@JPAUHWND__@@PBUtagRECT@@@Z 10006d24 f i SettingsMasterOptions.obj
 0001:00005deb       ?EnumVerbs@?$IOleObjectImpl@VCSettingsMasterOptions@@@ATL@@UAGJPAPAUIEnumOLEVERB@@@Z 10006deb f i SettingsMasterOptions.obj
 0001:00005e0b       ?GetUserType@?$IOleObjectImpl@VCSettingsMasterOptions@@@ATL@@UAGJKPAPAG@Z 10006e0b f i SettingsMasterOptions.obj
 0001:00005e21       ?SetExtent@?$IOleObjectImpl@VCSettingsMasterOptions@@@ATL@@UAGJKPAUtagSIZE@@@Z 10006e21 f i SettingsMasterOptions.obj
 0001:00005e46       ?GetExtent@?$IOleObjectImpl@VCSettingsMasterOptions@@@ATL@@UAGJKPAUtagSIZE@@@Z 10006e46 f i SettingsMasterOptions.obj
 0001:00005e82       ?Advise@?$IOleObjectImpl@VCSettingsMasterOptions@@@ATL@@UAGJPAUIAdviseSink@@PAK@Z 10006e82 f i SettingsMasterOptions.obj
 0001:00005ea2       ?Unadvise@?$IOleObjectImpl@VCSettingsMasterOptions@@@ATL@@UAGJK@Z 10006ea2 f i SettingsMasterOptions.obj
 0001:00005ec8       ?EnumAdvise@?$IOleObjectImpl@VCSettingsMasterOptions@@@ATL@@UAGJPAPAUIEnumSTATDATA@@@Z 10006ec8 f i SettingsMasterOptions.obj
 0001:00005efd       ?GetMiscStatus@?$IOleObjectImpl@VCSettingsMasterOptions@@@ATL@@UAGJKPAK@Z 10006efd f i SettingsMasterOptions.obj
 0001:00005f13       ?GetWindow@?$IOleInPlaceActiveObjectImpl@VCSettingsMasterOptions@@@ATL@@UAGJPAPAUHWND__@@@Z 10006f13 f i SettingsMasterOptions.obj
 0001:00005f51       ?TranslateAcceleratorW@?$IOleInPlaceActiveObjectImpl@VCSettingsMasterOptions@@@ATL@@UAGJPAUtagMSG@@@Z 10006f51 f i SettingsMasterOptions.obj
 0001:0000600f       ?OnDocWindowActivate@?$IOleInPlaceActiveObjectImpl@VCSettingsMasterOptions@@@ATL@@UAGJH@Z 1000700f f i SettingsMasterOptions.obj
 0001:00006032       ?SetMenu@CAxFrameWindow@ATL@@UAGJPAUHMENU__@@PAXPAUHWND__@@@Z 10007032 f i SettingsMasterOptions.obj
 0001:00006032       ?ResizeBorder@?$IOleInPlaceActiveObjectImpl@VCSettingsMasterOptions@@@ATL@@UAGJPBUtagRECT@@PAUIOleInPlaceUIWindow@@H@Z 10007032 f i SettingsMasterOptions.obj
 0001:00006037       ?Draw@?$IViewObjectExImpl@VCSettingsMasterOptions@@@ATL@@UAGJKJPAXPAUtagDVTARGETDEVICE@@PAUHDC__@@2PBU_RECTL@@3P6GHK@ZK@Z 10007037 f i SettingsMasterOptions.obj
 0001:0000606c       ?GetColorSet@?$IViewObjectExImpl@VCSettingsMasterOptions@@@ATL@@UAGJKJPAXPAUtagDVTARGETDEVICE@@PAUHDC__@@PAPAUtagLOGPALETTE@@@Z 1000706c f i SettingsMasterOptions.obj
 0001:00006074       ?Freeze@?$IViewObjectExImpl@VCSettingsMasterOptions@@@ATL@@UAGJKJPAXPAK@Z 10007074 f i SettingsMasterOptions.obj
 0001:00006074       ?ParseDisplayName@CAxHostWindow@ATL@@UAGJPAUIBindCtx@@PAGPAKPAPAUIMoniker@@@Z 10007074 f i SettingsMasterOptions.obj
 0001:0000607c       ?SetAdvise@?$IViewObjectExImpl@VCSettingsMasterOptions@@@ATL@@UAGJKKPAUIAdviseSink@@@Z 1000707c f i SettingsMasterOptions.obj
 0001:0000609e       ?GetAdvise@?$IViewObjectExImpl@VCSettingsMasterOptions@@@ATL@@UAGJPAK0PAPAUIAdviseSink@@@Z 1000709e f i SettingsMasterOptions.obj
 0001:000060d1       ?GetExtent@?$IViewObjectExImpl@VCSettingsMasterOptions@@@ATL@@UAGJKJPAUtagDVTARGETDEVICE@@PAUtagSIZE@@@Z 100070d1 f i SettingsMasterOptions.obj
 0001:000060ff       ?GetViewStatus@?$IViewObjectExImpl@VCSettingsMasterOptions@@@ATL@@UAGJPAK@Z 100070ff f i SettingsMasterOptions.obj
 0001:00006119       ?QueryHitPoint@?$IViewObjectExImpl@VCSettingsMasterOptions@@@ATL@@UAGJKPBUtagRECT@@UtagPOINT@@JPAK@Z 10007119 f i SettingsMasterOptions.obj
 0001:0000615a       ?QueryHitRect@?$IViewObjectExImpl@VCSettingsMasterOptions@@@ATL@@UAGJKPBUtagRECT@@0JPAK@Z 1000715a f i SettingsMasterOptions.obj
 0001:0000619f       ?GetNaturalExtent@?$IViewObjectExImpl@VCSettingsMasterOptions@@@ATL@@UAGJKJPAUtagDVTARGETDEVICE@@PAUHDC__@@PAUtagExtentInfo@@PAUtagSIZE@@@Z 1000719f f i SettingsMasterOptions.obj
 0001:000061e7       ?GetWindow@?$IOleInPlaceObjectWindowlessImpl@VCSettingsMasterOptions@@@ATL@@UAGJPAPAUHWND__@@@Z 100071e7 f i SettingsMasterOptions.obj
 0001:00006225       ?InPlaceDeactivate@?$IOleInPlaceObjectWindowlessImpl@VCSettingsMasterOptions@@@ATL@@UAGJXZ 10007225 f i SettingsMasterOptions.obj
 0001:0000623f       ?UIDeactivate@?$IOleInPlaceObjectWindowlessImpl@VCSettingsMasterOptions@@@ATL@@UAGJXZ 1000723f f i SettingsMasterOptions.obj
 0001:00006259       ?SetObjectRects@?$IOleInPlaceObjectWindowlessImpl@VCSettingsMasterOptions@@@ATL@@UAGJPBUtagRECT@@0@Z 10007259 f i SettingsMasterOptions.obj
 0001:0000627c       ?OnWindowMessage@?$IOleInPlaceObjectWindowlessImpl@VCSettingsMasterOptions@@@ATL@@UAGJIIJPAJ@Z 1000727c f i SettingsMasterOptions.obj
 0001:000062e5       ?GetClassID@?$IPersistStreamInitImpl@VCSettingsMasterOptions@@@ATL@@UAGJPAU_GUID@@@Z 100072e5 f i SettingsMasterOptions.obj
 0001:000062e5       ?GetClassID@?$IPersistStorageImpl@VCSettingsMasterOptions@@@ATL@@UAGJPAU_GUID@@@Z 100072e5 f i SettingsMasterOptions.obj
 0001:000062e5       ?GetUserClassID@?$IOleObjectImpl@VCSettingsMasterOptions@@@ATL@@UAGJPAU_GUID@@@Z 100072e5 f i SettingsMasterOptions.obj
 0001:00006306       ?IsDirty@?$IPersistStorageImpl@VCSettingsMasterOptions@@@ATL@@UAGJXZ 10007306 f i SettingsMasterOptions.obj
 0001:0000635b       ?InitNew@?$IPersistStorageImpl@VCSettingsMasterOptions@@@ATL@@UAGJPAUIStorage@@@Z 1000735b f i SettingsMasterOptions.obj
 0001:000063b0       ?Load@?$IPersistStorageImpl@VCSettingsMasterOptions@@@ATL@@UAGJPAUIStorage@@@Z 100073b0 f i SettingsMasterOptions.obj
 0001:0000644b       ?Save@?$IPersistStorageImpl@VCSettingsMasterOptions@@@ATL@@UAGJPAUIStorage@@H@Z 1000744b f i SettingsMasterOptions.obj
 0001:000064ed       ?GetPages@?$ISpecifyPropertyPagesImpl@VCSettingsMasterOptions@@@ATL@@UAGJPAUtagCAUUID@@@Z 100074ed f i SettingsMasterOptions.obj
 0001:000064fe       ?QuickActivate@?$IQuickActivateImpl@VCSettingsMasterOptions@@@ATL@@UAGJPAUtagQACONTAINER@@PAUtagQACONTROL@@@Z 100074fe f i SettingsMasterOptions.obj
 0001:0000651e       ?SetContentExtent@?$IQuickActivateImpl@VCSettingsMasterOptions@@@ATL@@UAGJPAUtagSIZE@@@Z 1000751e f i SettingsMasterOptions.obj
 0001:0000653f       ?GetContentExtent@?$IQuickActivateImpl@VCSettingsMasterOptions@@@ATL@@UAGJPAUtagSIZE@@@Z 1000753f f i SettingsMasterOptions.obj
 0001:00006560       ?GetData@?$IDataObjectImpl@VCSettingsMasterOptions@@@ATL@@UAGJPAUtagFORMATETC@@PAUtagSTGMEDIUM@@@Z 10007560 f i SettingsMasterOptions.obj
 0001:00006580       ?DAdvise@?$IDataObjectImpl@VCSettingsMasterOptions@@@ATL@@UAGJPAUtagFORMATETC@@KPAUIAdviseSink@@PAK@Z 10007580 f i SettingsMasterOptions.obj
 0001:000065c1       ?DUnadvise@?$IDataObjectImpl@VCSettingsMasterOptions@@@ATL@@UAGJK@Z 100075c1 f i SettingsMasterOptions.obj
 0001:000065e9       ?EnumDAdvise@?$IDataObjectImpl@VCSettingsMasterOptions@@@ATL@@UAGJPAPAUIEnumSTATDATA@@@Z 100075e9 f i SettingsMasterOptions.obj
 0001:00006620       ?GetClassInfoW@?$IProvideClassInfo2Impl@$1?CLSID_SettingsMasterOptions@@3U_GUID@@B$0A@$1?LIBID_SettingsMasterShimLib@@3U2@B$00$0A@VCComTypeInfoHolder@ATL@@@ATL@@UAGJPAPAUITypeInfo@@@Z 10007620 f i SettingsMasterOptions.obj
 0001:00006635       ?GetGUID@?$IProvideClassInfo2Impl@$1?CLSID_SettingsMasterOptions@@3U_GUID@@B$0A@$1?LIBID_SettingsMasterShimLib@@3U2@B$00$0A@VCComTypeInfoHolder@ATL@@@ATL@@UAGJKPAU_GUID@@@Z 10007635 f i SettingsMasterOptions.obj
 0001:00006659       ?GetCategoryMap@CComObjectRootBase@ATL@@SAPBU_ATL_CATMAP_ENTRY@2@XZ 10007659 f i SettingsMasterOptions.obj
 0001:00006659       ?GetObjectDescription@?$CComCoClass@VCSettingsMasterOptions@@$1?CLSID_SettingsMasterOptions@@3U_GUID@@B@ATL@@SGPBGXZ 10007659 f i SettingsMasterOptions.obj
 0001:0000665c       ??0?$CComCompositeControl@VCSettingsMasterOptions@@@ATL@@QAE@XZ 1000765c f i SettingsMasterOptions.obj
 0001:0000667b       ??1?$CComCompositeControl@VCSettingsMasterOptions@@@ATL@@UAE@XZ 1000767b f i SettingsMasterOptions.obj
 0001:0000669b       ?SetBackgroundColorFromAmbient@?$CComCompositeControl@VCSettingsMasterOptions@@@ATL@@QAEJXZ 1000769b f i SettingsMasterOptions.obj
 0001:000066f4       ?CalcExtent@?$CComCompositeControl@VCSettingsMasterOptions@@@ATL@@QAEHAAUtagSIZE@@@Z 100076f4 f i SettingsMasterOptions.obj
 0001:0000673f       ?CreateControlWindow@?$CComCompositeControl@VCSettingsMasterOptions@@@ATL@@UAEPAUHWND__@@PAU3@AAUtagRECT@@@Z 1000773f f i SettingsMasterOptions.obj
 0001:00006772       ?OnDraw@?$CComCompositeControl@VCSettingsMasterOptions@@@ATL@@UAEJAAUATL_DRAWINFO@@@Z 10007772 f i SettingsMasterOptions.obj
 0001:000067f4       ?ProcessWindowMessage@?$CComCompositeControl@VCSettingsMasterOptions@@@ATL@@UAEHPAUHWND__@@IIJAAJK@Z 100077f4 f i SettingsMasterOptions.obj
 0001:0000690d       ?ControlQueryInterface@?$CComControl@VCSettingsMasterOptions@@V?$CAxDialogImpl@VCSettingsMasterOptions@@VCWindow@ATL@@@ATL@@@ATL@@UAEJABU_GUID@@PAPAX@Z 1000790d f i SettingsMasterOptions.obj
 0001:00006928       ?GetDialogProc@?$CAxDialogImpl@VCSettingsMasterOptions@@VCWindow@ATL@@@ATL@@UAEP6GHPAUHWND__@@IIJ@ZXZ 10007928 f i SettingsMasterOptions.obj
 0001:0000692e       ?CreateActiveXControls@?$CAxDialogImpl@VCSettingsMasterOptions@@VCWindow@ATL@@@ATL@@UAEJI@Z 1000792e f i SettingsMasterOptions.obj
 0001:00006c60       ??0?$CComQIPtr@UIDTToolsOptionsPage@EnvDTE@@$1?_GUID_bdcaf240_2692_4713_902a_b110b1d0f100@@3U__s_GUID@@B@ATL@@QAE@PAUIUnknown@@@Z 10007c60 f i SettingsMasterOptions.obj
 0001:00006c82       ?CreateInstance@?$CComCreator@V?$CComObjectCached@VCComClassFactory@ATL@@@ATL@@@ATL@@SGJPAXABU_GUID@@PAPAX@Z 10007c82 f i SettingsMasterOptions.obj
 0001:00006d17       ?CreateInstance@?$CComCreator2@V?$CComCreator@V?$CComObject@VCSettingsMasterOptions@@@ATL@@@ATL@@V?$CComCreator@V?$CComAggObject@VCSettingsMasterOptions@@@ATL@@@2@@ATL@@SGJPAXABU_GUID@@PAPAX@Z 10007d17 f i SettingsMasterOptions.obj
 0001:00006d37       ??_G?$CComObject@VCAxFrameWindow@ATL@@@ATL@@UAEPAXI@Z 10007d37 f i SettingsMasterOptions.obj
 0001:00006d37       ??_E?$CComObject@VCAxFrameWindow@ATL@@@ATL@@UAEPAXI@Z 10007d37 f i SettingsMasterOptions.obj
 0001:00006d53       ??_E?$CComObject@VCAxUIWindow@ATL@@@ATL@@UAEPAXI@Z 10007d53 f i SettingsMasterOptions.obj
 0001:00006d53       ??_G?$CComObject@VCAxUIWindow@ATL@@@ATL@@UAEPAXI@Z 10007d53 f i SettingsMasterOptions.obj
 0001:00006d6f       ??_G?$CComObject@V?$CComEnum@UIEnumUnknown@@$1?_GUID_00000100_0000_0000_c000_000000000046@@3U__s_GUID@@BPAUIUnknown@@V?$_CopyInterface@UIUnknown@@@ATL@@VCComSingleThreadModel@6@@ATL@@@ATL@@UAEPAXI@Z 10007d6f f i SettingsMasterOptions.obj
 0001:00006d6f       ??_E?$CComObject@V?$CComEnum@UIEnumUnknown@@$1?_GUID_00000100_0000_0000_c000_000000000046@@3U__s_GUID@@BPAUIUnknown@@V?$_CopyInterface@UIUnknown@@@ATL@@VCComSingleThreadModel@6@@ATL@@@ATL@@UAEPAXI@Z 10007d6f f i SettingsMasterOptions.obj
 0001:00006d8b       ??0?$CComEnum@UIEnumUnknown@@$1?_GUID_00000100_0000_0000_c000_000000000046@@3U__s_GUID@@BPAUIUnknown@@V?$_CopyInterface@UIUnknown@@@ATL@@VCComSingleThreadModel@6@@ATL@@QAE@XZ 10007d8b f i SettingsMasterOptions.obj
 0001:00006da0       ??1?$CComEnum@UIEnumUnknown@@$1?_GUID_00000100_0000_0000_c000_000000000046@@3U__s_GUID@@BPAUIUnknown@@V?$_CopyInterface@UIUnknown@@@ATL@@VCComSingleThreadModel@6@@ATL@@UAE@XZ 10007da0 f i SettingsMasterOptions.obj
 0001:00006da5       ??_G?$CComCompositeControl@VCSettingsMasterOptions@@@ATL@@UAEPAXI@Z 10007da5 f i SettingsMasterOptions.obj
 0001:00006da5       ??_E?$CComCompositeControl@VCSettingsMasterOptions@@@ATL@@UAEPAXI@Z 10007da5 f i SettingsMasterOptions.obj
 0001:00006dc3       ??1?$CComControl@VCSettingsMasterOptions@@V?$CAxDialogImpl@VCSettingsMasterOptions@@VCWindow@ATL@@@ATL@@@ATL@@UAE@XZ 10007dc3 f i SettingsMasterOptions.obj
 0001:00006ddd       ?InternalSetAtIndex@?$CSimpleArray@GV?$CSimpleArrayEqualHelper@G@ATL@@@ATL@@QAEXHABG@Z 10007ddd f i SettingsMasterOptions.obj
 0001:00006df3       ?Create@?$CAxWindow2T@VCWindow@ATL@@@ATL@@QAEPAUHWND__@@PAU3@V_U_RECT@2@PBGKKV_U_MENUorID@2@PAX@Z 10007df3 f i SettingsMasterOptions.obj
 0001:00006e1c       ?CreateControlLic@?$CAxWindow2T@VCWindow@ATL@@@ATL@@QAEJPBGPAUIStream@@PAPAUIUnknown@@PAG@Z 10007e1c f i SettingsMasterOptions.obj
 0001:00006e3d       ?IPersistStreamInit_Load@?$IPersistStreamInitImpl@VCSettingsMasterOptions@@@ATL@@QAEJPAUIStream@@PAUATL_PROPMAP_ENTRY@2@@Z 10007e3d f i SettingsMasterOptions.obj
 0001:00006e64       ?DoVerbPrimary@?$IOleObjectImpl@VCSettingsMasterOptions@@@ATL@@QAEJPBUtagRECT@@PAUHWND__@@@Z 10007e64 f i SettingsMasterOptions.obj
 0001:00006ee4       ?DoVerbShow@?$IOleObjectImpl@VCSettingsMasterOptions@@@ATL@@QAEJPBUtagRECT@@PAUHWND__@@@Z 10007ee4 f i SettingsMasterOptions.obj
 0001:00006f04       ?DoVerbInPlaceActivate@?$IOleObjectImpl@VCSettingsMasterOptions@@@ATL@@QAEJPBUtagRECT@@PAUHWND__@@@Z 10007f04 f i SettingsMasterOptions.obj
 0001:00006f35       ?DoVerbUIActivate@?$IOleObjectImpl@VCSettingsMasterOptions@@@ATL@@QAEJPBUtagRECT@@PAUHWND__@@@Z 10007f35 f i SettingsMasterOptions.obj
 0001:00006f5d       ?DoVerbHide@?$IOleObjectImpl@VCSettingsMasterOptions@@@ATL@@QAEJPBUtagRECT@@PAUHWND__@@@Z 10007f5d f i SettingsMasterOptions.obj
 0001:00006f89       ?GetPagesHelper@?$ISpecifyPropertyPagesImpl@VCSettingsMasterOptions@@@ATL@@IAEJPAUtagCAUUID@@PAUATL_PROPMAP_ENTRY@2@@Z 10007f89 f i SettingsMasterOptions.obj
 0001:00007081       ?AdviseSinkMap@?$CComCompositeControl@VCSettingsMasterOptions@@@ATL@@QAEJ_N@Z 10008081 f i SettingsMasterOptions.obj
 0001:000070ac       ?BackgroundColorEnumProc@?$CComCompositeControl@VCSettingsMasterOptions@@@ATL@@SGHPAUHWND__@@J@Z 100080ac f i SettingsMasterOptions.obj
 0001:0000710f       ?OnDialogColor@?$CComCompositeControl@VCSettingsMasterOptions@@@ATL@@QAEJIIJAAH@Z 1000810f f i SettingsMasterOptions.obj
 0001:0000716a       ?Create@?$CComCompositeControl@VCSettingsMasterOptions@@@ATL@@QAEPAUHWND__@@PAU3@AAUtagRECT@@J@Z 1000816a f i SettingsMasterOptions.obj
 0001:00007199       ?PreTranslateAccelerator@?$CComCompositeControl@VCSettingsMasterOptions@@@ATL@@QAEHPAUtagMSG@@AAJ@Z 10008199 f i SettingsMasterOptions.obj
 0001:000074a4       ?IOleInPlaceObject_InPlaceDeactivate@?$CComCompositeControl@VCSettingsMasterOptions@@@ATL@@QAEJXZ 100084a4 f i SettingsMasterOptions.obj
 0001:000074be       ?IOleInPlaceObject_UIDeactivate@?$CComCompositeControl@VCSettingsMasterOptions@@@ATL@@QAEJXZ 100084be f i SettingsMasterOptions.obj
 0001:00007562       ?OnSetFocus@?$CComCompositeControl@VCSettingsMasterOptions@@@ATL@@QAEJIIJAAH@Z 10008562 f i SettingsMasterOptions.obj
 0001:00007612       ?OnMouseActivate@?$CComCompositeControl@VCSettingsMasterOptions@@@ATL@@QAEJIIJAAH@Z 10008612 f i SettingsMasterOptions.obj
 0001:000076eb       ??0?$CComControl@VCSettingsMasterOptions@@V?$CAxDialogImpl@VCSettingsMasterOptions@@VCWindow@ATL@@@ATL@@@ATL@@QAE@XZ 100086eb f i SettingsMasterOptions.obj
 0001:0000770a       ??0?$CComPolyObject@VCAxHostWindow@ATL@@@ATL@@QAE@PAX@Z 1000870a f i SettingsMasterOptions.obj
 0001:00007754       ??1?$CComPolyObject@VCAxHostWindow@ATL@@@ATL@@UAE@XZ 10008754 f i SettingsMasterOptions.obj
 0001:000077a0       ?AddRef@?$CComObject@VCAxFrameWindow@ATL@@@ATL@@UAGKXZ 100087a0 f i SettingsMasterOptions.obj
 0001:000077a0       ?AddRef@?$CComObject@VCAxUIWindow@ATL@@@ATL@@UAGKXZ 100087a0 f i SettingsMasterOptions.obj
 0001:000077a0       ?AddRef@?$CComAggObject@VCSettingsMasterOptions@@@ATL@@UAGKXZ 100087a0 f i SettingsMasterOptions.obj
 0001:000077a0       ?AddRef@?$CComPolyObject@VCAxHostWindow@ATL@@@ATL@@UAGKXZ 100087a0 f i SettingsMasterOptions.obj
 0001:000077ad       ?QueryInterface@?$CComPolyObject@VCAxHostWindow@ATL@@@ATL@@UAGJABU_GUID@@PAPAX@Z 100087ad f i SettingsMasterOptions.obj
 0001:000077f8       ?AddRef@?$CComContainedObject@VCAxHostWindow@ATL@@@ATL@@UAGKXZ 100087f8 f i SettingsMasterOptions.obj
 0001:00007808       ?Release@?$CComContainedObject@VCAxHostWindow@ATL@@@ATL@@UAGKXZ 10008808 f i SettingsMasterOptions.obj
 0001:00007818       ?QueryInterface@?$CComContainedObject@VCAxHostWindow@ATL@@@ATL@@UAGJABU_GUID@@PAPAX@Z 10008818 f i SettingsMasterOptions.obj
 0001:0000782f       ?GetControllingUnknown@?$CComContainedObject@VCAxHostWindow@ATL@@@ATL@@UAEPAUIUnknown@@XZ 1000882f f i SettingsMasterOptions.obj
 0001:00007833       ??0?$CComObjectCached@VCComClassFactory@ATL@@@ATL@@QAE@PAX@Z 10008833 f i SettingsMasterOptions.obj
 0001:0000786b       ??1?$CComObjectCached@VCComClassFactory@ATL@@@ATL@@UAE@XZ 1000886b f i SettingsMasterOptions.obj
 0001:00007897       ?AddRef@?$CComObjectCached@VCComClassFactory@ATL@@@ATL@@UAGKXZ 10008897 f i SettingsMasterOptions.obj
 0001:000078d3       ?Release@?$CComObjectCached@VCComClassFactory@ATL@@@ATL@@UAGKXZ 100088d3 f i SettingsMasterOptions.obj
 0001:0000791e       ?QueryInterface@?$CComObjectCached@VCComClassFactory@ATL@@@ATL@@UAGJABU_GUID@@PAPAX@Z 1000891e f i SettingsMasterOptions.obj
 0001:00007939       ?CreateInstance@?$CComCreator@V?$CComObject@VCSettingsMasterOptions@@@ATL@@@ATL@@SGJPAXABU_GUID@@PAPAX@Z 10008939 f i SettingsMasterOptions.obj
 0001:000079e4       ?CreateInstance@?$CComCreator@V?$CComAggObject@VCSettingsMasterOptions@@@ATL@@@ATL@@SGJPAXABU_GUID@@PAPAX@Z 100089e4 f i SettingsMasterOptions.obj
 0001:00007a8f       ??_G?$CComPolyObject@VCAxHostWindow@ATL@@@ATL@@UAEPAXI@Z 10008a8f f i SettingsMasterOptions.obj
 0001:00007a8f       ??_E?$CComPolyObject@VCAxHostWindow@ATL@@@ATL@@UAEPAXI@Z 10008a8f f i SettingsMasterOptions.obj
 0001:00007aab       ??1?$CComContainedObject@VCAxHostWindow@ATL@@@ATL@@UAE@XZ 10008aab f i SettingsMasterOptions.obj
 0001:00007ab0       ??_G?$CComObjectCached@VCComClassFactory@ATL@@@ATL@@UAEPAXI@Z 10008ab0 f i SettingsMasterOptions.obj
 0001:00007ab0       ??_E?$CComObjectCached@VCComClassFactory@ATL@@@ATL@@UAEPAXI@Z 10008ab0 f i SettingsMasterOptions.obj
 0001:00007acc       ??0CComClassFactory@ATL@@QAE@XZ 10008acc f i SettingsMasterOptions.obj
 0001:00007ae3       ?ExecuteDlgInit@?$CDialogImplBaseT@VCWindow@ATL@@@ATL@@QAEHH@Z 10008ae3 f i SettingsMasterOptions.obj
 0001:00007c18       ?CreateControlLicEx@?$CAxWindow2T@VCWindow@ATL@@@ATL@@QAEJPBGPAUIStream@@PAPAUIUnknown@@2ABU_GUID@@PAU4@PAG@Z 10008c18 f i SettingsMasterOptions.obj
 0001:00007cf1       ?Create@?$CAxDialogImpl@VCSettingsMasterOptions@@VCWindow@ATL@@@ATL@@QAEPAUHWND__@@PAU3@J@Z 10008cf1 f i SettingsMasterOptions.obj
 0001:00007d22       ??0?$CComContainedObject@VCAxHostWindow@ATL@@@ATL@@QAE@PAX@Z 10008d22 f i SettingsMasterOptions.obj
 0001:00007d83       ??0?$CComObject@VCSettingsMasterOptions@@@ATL@@QAE@PAX@Z 10008d83 f i SettingsMasterOptions.obj
 0001:00007dff       ??1?$CComObject@VCSettingsMasterOptions@@@ATL@@UAE@XZ 10008dff f i SettingsMasterOptions.obj
 0001:00007e87       ?AddRef@?$CComObject@VCSettingsMasterOptions@@@ATL@@UAGKXZ 10008e87 f i SettingsMasterOptions.obj
 0001:00007e97       ?Release@?$CComObject@VCSettingsMasterOptions@@@ATL@@UAGKXZ 10008e97 f i SettingsMasterOptions.obj
 0001:00007ebb       ?QueryInterface@?$CComObject@VCSettingsMasterOptions@@@ATL@@UAGJABU_GUID@@PAPAX@Z 10008ebb f i SettingsMasterOptions.obj
 0001:00007ed6       ??0?$CComAggObject@VCSettingsMasterOptions@@@ATL@@QAE@PAX@Z 10008ed6 f i SettingsMasterOptions.obj
 0001:00007f1b       ??1?$CComAggObject@VCSettingsMasterOptions@@@ATL@@UAE@XZ 10008f1b f i SettingsMasterOptions.obj
 0001:00007f61       ?Release@?$CComPolyObject@VCAxHostWindow@ATL@@@ATL@@UAGKXZ 10008f61 f i SettingsMasterOptions.obj
 0001:00007f61       ?Release@?$CComAggObject@VCSettingsMasterOptions@@@ATL@@UAGKXZ 10008f61 f i SettingsMasterOptions.obj
 0001:00007f7f       ?QueryInterface@?$CComAggObject@VCSettingsMasterOptions@@@ATL@@UAGJABU_GUID@@PAPAX@Z 10008f7f f i SettingsMasterOptions.obj
 0001:00007fca       ?AddRef@?$CComContainedObject@VCSettingsMasterOptions@@@ATL@@UAGKXZ 10008fca f i SettingsMasterOptions.obj
 0001:00007fdd       ?Release@?$CComContainedObject@VCSettingsMasterOptions@@@ATL@@UAGKXZ 10008fdd f i SettingsMasterOptions.obj
 0001:00007ff0       ?QueryInterface@?$CComContainedObject@VCSettingsMasterOptions@@@ATL@@UAGJABU_GUID@@PAPAX@Z 10008ff0 f i SettingsMasterOptions.obj
 0001:0000800a       ??_G?$CComContainedObject@VCAxHostWindow@ATL@@@ATL@@UAEPAXI@Z 1000900a f i SettingsMasterOptions.obj
 0001:0000800a       ??_E?$CComContainedObject@VCAxHostWindow@ATL@@@ATL@@UAEPAXI@Z 1000900a f i SettingsMasterOptions.obj
 0001:00008027       ??_E?$CComObject@VCSettingsMasterOptions@@@ATL@@UAEPAXI@Z 10009027 f i SettingsMasterOptions.obj
 0001:00008027       ??_G?$CComObject@VCSettingsMasterOptions@@@ATL@@UAEPAXI@Z 10009027 f i SettingsMasterOptions.obj
 0001:00008043       ??_E?$CComAggObject@VCSettingsMasterOptions@@@ATL@@UAEPAXI@Z 10009043 f i SettingsMasterOptions.obj
 0001:00008043       ??_G?$CComAggObject@VCSettingsMasterOptions@@@ATL@@UAEPAXI@Z 10009043 f i SettingsMasterOptions.obj
 0001:0000805f       ??1?$CComContainedObject@VCSettingsMasterOptions@@@ATL@@UAE@XZ 1000905f f i SettingsMasterOptions.obj
 0001:00008064       ??0?$CComContainedObject@VCSettingsMasterOptions@@@ATL@@QAE@PAX@Z 10009064 f i SettingsMasterOptions.obj
 0001:000080e1       ??_G?$CComContainedObject@VCSettingsMasterOptions@@@ATL@@UAEPAXI@Z 100090e1 f i SettingsMasterOptions.obj
 0001:000080e1       ??_E?$CComContainedObject@VCSettingsMasterOptions@@@ATL@@UAEPAXI@Z 100090e1 f i SettingsMasterOptions.obj
 0001:000080ff       ?StartDialogProc@?$CDialogImplBaseT@VCWindow@ATL@@@ATL@@SGHPAUHWND__@@IIJ@Z 100090ff f i SettingsMasterOptions.obj
 0001:00008146       ?DialogProc@?$CDialogImplBaseT@VCWindow@ATL@@@ATL@@SGHPAUHWND__@@IIJ@Z 10009146 f i SettingsMasterOptions.obj
 0001:0000820e       ?StartWindowProc@?$CWindowImplBaseT@VCWindow@ATL@@V?$CWinTraits@$0FGAAAAAA@$0A@@2@@ATL@@SGJPAUHWND__@@IIJ@Z 1000920e f i SettingsMasterOptions.obj
 0001:00008255       ?WindowProc@?$CWindowImplBaseT@VCWindow@ATL@@V?$CWinTraits@$0FGAAAAAA@$0A@@2@@ATL@@SGJPAUHWND__@@IIJ@Z 10009255 f i SettingsMasterOptions.obj
 0001:00008337       ?Create@?$CWindowImplBaseT@VCWindow@ATL@@V?$CWinTraits@$0FGAAAAAA@$0A@@2@@ATL@@QAEPAUHWND__@@PAU3@V_U_RECT@2@PBGKKV_U_MENUorID@2@GPAX@Z 10009337 f i SettingsMasterOptions.obj
 0001:000083ad       ?SubclassWindow@?$CWindowImplBaseT@VCWindow@ATL@@V?$CWinTraits@$0FGAAAAAA@$0A@@2@@ATL@@QAEHPAUHWND__@@@Z 100093ad f i SettingsMasterOptions.obj
 0001:000083d9       ?UnsubclassWindow@?$CWindowImplBaseT@VCWindow@ATL@@V?$CWinTraits@$0FGAAAAAA@$0A@@2@@ATL@@QAEPAUHWND__@@H@Z 100093d9 f i SettingsMasterOptions.obj
 0001:0000841e       ?CreateInstance@?$CComObject@VCAxFrameWindow@ATL@@@ATL@@SGJPAPAV12@@Z 1000941e f i SettingsMasterOptions.obj
 0001:00008493       ?CreateInstance@?$CComObject@VCAxUIWindow@ATL@@@ATL@@SGJPAPAV12@@Z 10009493 f i SettingsMasterOptions.obj
 0001:00008508       ??1?$CComEnumImpl@UIEnumUnknown@@$1?_GUID_00000100_0000_0000_c000_000000000046@@3U__s_GUID@@BPAUIUnknown@@V?$_CopyInterface@UIUnknown@@@ATL@@@ATL@@UAE@XZ 10009508 f i SettingsMasterOptions.obj
 0001:00008565       ?Next@?$CComEnumImpl@UIEnumUnknown@@$1?_GUID_00000100_0000_0000_c000_000000000046@@3U__s_GUID@@BPAUIUnknown@@V?$_CopyInterface@UIUnknown@@@ATL@@@ATL@@UAGJKPAPAUIUnknown@@PAK@Z 10009565 f i SettingsMasterOptions.obj
 0001:00008600       ?Skip@?$CComEnumImpl@UIEnumUnknown@@$1?_GUID_00000100_0000_0000_c000_000000000046@@3U__s_GUID@@BPAUIUnknown@@V?$_CopyInterface@UIUnknown@@@ATL@@@ATL@@UAGJK@Z 10009600 f i SettingsMasterOptions.obj
 0001:00008638       ?Clone@?$CComEnumImpl@UIEnumUnknown@@$1?_GUID_00000100_0000_0000_c000_000000000046@@3U__s_GUID@@BPAUIUnknown@@V?$_CopyInterface@UIUnknown@@@ATL@@@ATL@@UAGJPAPAUIEnumUnknown@@@Z 10009638 f i SettingsMasterOptions.obj
 0001:00008704       ?Init@?$CComEnumImpl@UIEnumUnknown@@$1?_GUID_00000100_0000_0000_c000_000000000046@@3U__s_GUID@@BPAUIUnknown@@V?$_CopyInterface@UIUnknown@@@ATL@@@ATL@@QAEJPAPAUIUnknown@@0PAU3@W4CComEnumFlags@2@@Z 10009704 f i SettingsMasterOptions.obj
 0001:000087c4       ??$AtlAxDialogCreateT@PBGV_AtlCreateDialogIndirectParamHelper@ATL@@$1?CreateDialogIndirectParamW@@YGPAUHWND__@@PAUHINSTANCE__@@PBUDLGTEMPLATE@@PAU4@P6GH2IIJ@ZJ@Z@ATL@@YAPAUHWND__@@PAUHINSTANCE__@@PBGPAU1@P6GH2IIJ@ZJ@Z 100097c4 f i SettingsMasterOptions.obj
 0001:0000888b       ??$AtlModuleRegisterWndClassInfoT@VAtlModuleRegisterWndClassInfoParamW@ATL@@@ATL@@YAGPAU_ATL_BASE_MODULE70@0@PAU_ATL_WIN_MODULE70@0@PAU_ATL_WNDCLASSINFOW@0@PAP6GJPAUHWND__@@IIJ@ZVAtlModuleRegisterWndClassInfoParamW@0@@Z 1000988b f i SettingsMasterOptions.obj
 0001:000089c9       ?IPSI_GetIPersistStreamInit@?$IPersistStorageImpl@VCSettingsMasterOptions@@@ATL@@AAEPAUIPersistStreamInit@@XZ 100099c9 f i SettingsMasterOptions.obj
 0001:00008a05       ?DialogProc@?$CAxDialogImpl@VCSettingsMasterOptions@@VCWindow@ATL@@@ATL@@SGHPAUHWND__@@IIJ@Z 10009a05 f i SettingsMasterOptions.obj
 0001:00008a54       ??$AtlAdviseSinkMap@VCSettingsMasterOptions@@@ATL@@YAJPAVCSettingsMasterOptions@@_N@Z 10009a54 f i SettingsMasterOptions.obj
 0001:00008b71       ?QueryHost@?$CAxWindowT@VCWindow@ATL@@@ATL@@QAEJABU_GUID@@PAPAX@Z 10009b71 f i SettingsMasterOptions.obj
 0001:00008bd4       ??0?$CComObject@VCAxFrameWindow@ATL@@@ATL@@QAE@PAX@Z 10009bd4 f i SettingsMasterOptions.obj
 0001:00008bf6       ??0?$CComObject@VCAxUIWindow@ATL@@@ATL@@QAE@PAX@Z 10009bf6 f i SettingsMasterOptions.obj
 0001:00008c18       ?CreateInstance@?$CComObject@V?$CComEnum@UIEnumUnknown@@$1?_GUID_00000100_0000_0000_c000_000000000046@@3U__s_GUID@@BPAUIUnknown@@V?$_CopyInterface@UIUnknown@@@ATL@@VCComSingleThreadModel@6@@ATL@@@ATL@@SGJPAPAV12@@Z 10009c18 f i SettingsMasterOptions.obj
 0001:00008c8d       ?QueryInterface@?$CComContainedObject@VCAxHostWindow@ATL@@@ATL@@W3AGJABU_GUID@@PAPAX@Z 10009c8d f i SettingsMasterOptions.obj
 0001:00008c97       ?AddRef@?$CComContainedObject@VCAxHostWindow@ATL@@@ATL@@W3AGKXZ 10009c97 f i SettingsMasterOptions.obj
 0001:00008ca1       ?Release@?$CComContainedObject@VCAxHostWindow@ATL@@@ATL@@W3AGKXZ 10009ca1 f i SettingsMasterOptions.obj
 0001:00008cab       ?QueryInterface@?$CComContainedObject@VCAxHostWindow@ATL@@@ATL@@W7AGJABU_GUID@@PAPAX@Z 10009cab f i SettingsMasterOptions.obj
 0001:00008cb5       ?AddRef@?$CComContainedObject@VCAxHostWindow@ATL@@@ATL@@W7AGKXZ 10009cb5 f i SettingsMasterOptions.obj
 0001:00008cbf       ?Release@?$CComContainedObject@VCAxHostWindow@ATL@@@ATL@@W7AGKXZ 10009cbf f i SettingsMasterOptions.obj
 0001:00008cc9       ?QueryInterface@?$CComContainedObject@VCAxHostWindow@ATL@@@ATL@@WM@AGJABU_GUID@@PAPAX@Z 10009cc9 f i SettingsMasterOptions.obj
 0001:00008cd3       ?AddRef@?$CComContainedObject@VCAxHostWindow@ATL@@@ATL@@WM@AGKXZ 10009cd3 f i SettingsMasterOptions.obj
 0001:00008cdd       ?Release@?$CComContainedObject@VCAxHostWindow@ATL@@@ATL@@WM@AGKXZ 10009cdd f i SettingsMasterOptions.obj
 0001:00008ce7       ?QueryInterface@?$CComContainedObject@VCAxHostWindow@ATL@@@ATL@@WBA@AGJABU_GUID@@PAPAX@Z 10009ce7 f i SettingsMasterOptions.obj
 0001:00008cf1       ?AddRef@?$CComContainedObject@VCAxHostWindow@ATL@@@ATL@@WBA@AGKXZ 10009cf1 f i SettingsMasterOptions.obj
 0001:00008cfb       ?Release@?$CComContainedObject@VCAxHostWindow@ATL@@@ATL@@WBA@AGKXZ 10009cfb f i SettingsMasterOptions.obj
 0001:00008d05       ?QueryInterface@?$CComContainedObject@VCAxHostWindow@ATL@@@ATL@@WBE@AGJABU_GUID@@PAPAX@Z 10009d05 f i SettingsMasterOptions.obj
 0001:00008d0f       ?AddRef@?$CComContainedObject@VCAxHostWindow@ATL@@@ATL@@WBE@AGKXZ 10009d0f f i SettingsMasterOptions.obj
 0001:00008d19       ?Release@?$CComContainedObject@VCAxHostWindow@ATL@@@ATL@@WBE@AGKXZ 10009d19 f i SettingsMasterOptions.obj
 0001:00008d23       ??_E?$CComContainedObject@VCAxHostWindow@ATL@@@ATL@@WDI@AEPAXI@Z 10009d23 f i SettingsMasterOptions.obj
 0001:00008d2b       ?QueryInterface@?$CComContainedObject@VCAxHostWindow@ATL@@@ATL@@WBM@AGJABU_GUID@@PAPAX@Z 10009d2b f i SettingsMasterOptions.obj
 0001:00008d35       ?AddRef@?$CComContainedObject@VCAxHostWindow@ATL@@@ATL@@WBM@AGKXZ 10009d35 f i SettingsMasterOptions.obj
 0001:00008d3f       ?Release@?$CComContainedObject@VCAxHostWindow@ATL@@@ATL@@WBM@AGKXZ 10009d3f f i SettingsMasterOptions.obj
 0001:00008d49       ?QueryInterface@?$CComContainedObject@VCAxHostWindow@ATL@@@ATL@@WCA@AGJABU_GUID@@PAPAX@Z 10009d49 f i SettingsMasterOptions.obj
 0001:00008d53       ?AddRef@?$CComContainedObject@VCAxHostWindow@ATL@@@ATL@@WCA@AGKXZ 10009d53 f i SettingsMasterOptions.obj
 0001:00008d5d       ?Release@?$CComContainedObject@VCAxHostWindow@ATL@@@ATL@@WCA@AGKXZ 10009d5d f i SettingsMasterOptions.obj
 0001:00008d67       ?QueryInterface@?$CComContainedObject@VCAxHostWindow@ATL@@@ATL@@WCE@AGJABU_GUID@@PAPAX@Z 10009d67 f i SettingsMasterOptions.obj
 0001:00008d71       ?AddRef@?$CComContainedObject@VCAxHostWindow@ATL@@@ATL@@WCE@AGKXZ 10009d71 f i SettingsMasterOptions.obj
 0001:00008d7b       ?Release@?$CComContainedObject@VCAxHostWindow@ATL@@@ATL@@WCE@AGKXZ 10009d7b f i SettingsMasterOptions.obj
 0001:00008d85       ?QueryInterface@?$CComContainedObject@VCAxHostWindow@ATL@@@ATL@@WCI@AGJABU_GUID@@PAPAX@Z 10009d85 f i SettingsMasterOptions.obj
 0001:00008d8f       ?AddRef@?$CComContainedObject@VCAxHostWindow@ATL@@@ATL@@WCI@AGKXZ 10009d8f f i SettingsMasterOptions.obj
 0001:00008d99       ?Release@?$CComContainedObject@VCAxHostWindow@ATL@@@ATL@@WCI@AGKXZ 10009d99 f i SettingsMasterOptions.obj
 0001:00008da3       ??_E?$CComCompositeControl@VCSettingsMasterOptions@@@ATL@@WEI@AEPAXI@Z 10009da3 f i SettingsMasterOptions.obj
 0001:00008dab       ?QueryInterface@?$CComObject@VCSettingsMasterOptions@@@ATL@@W3AGJABU_GUID@@PAPAX@Z 10009dab f i SettingsMasterOptions.obj
 0001:00008db5       ?AddRef@?$CComObject@VCSettingsMasterOptions@@@ATL@@W3AGKXZ 10009db5 f i SettingsMasterOptions.obj
 0001:00008dbf       ?Release@?$CComObject@VCSettingsMasterOptions@@@ATL@@W3AGKXZ 10009dbf f i SettingsMasterOptions.obj
 0001:00008dc9       ?QueryInterface@?$CComObject@VCSettingsMasterOptions@@@ATL@@W7AGJABU_GUID@@PAPAX@Z 10009dc9 f i SettingsMasterOptions.obj
 0001:00008dd3       ?AddRef@?$CComObject@VCSettingsMasterOptions@@@ATL@@W7AGKXZ 10009dd3 f i SettingsMasterOptions.obj
 0001:00008ddd       ?Release@?$CComObject@VCSettingsMasterOptions@@@ATL@@W7AGKXZ 10009ddd f i SettingsMasterOptions.obj
 0001:00008de7       ?QueryInterface@?$CComObject@VCSettingsMasterOptions@@@ATL@@WM@AGJABU_GUID@@PAPAX@Z 10009de7 f i SettingsMasterOptions.obj
 0001:00008df1       ?AddRef@?$CComObject@VCSettingsMasterOptions@@@ATL@@WM@AGKXZ 10009df1 f i SettingsMasterOptions.obj
 0001:00008dfb       ?Release@?$CComObject@VCSettingsMasterOptions@@@ATL@@WM@AGKXZ 10009dfb f i SettingsMasterOptions.obj
 0001:00008e05       ?QueryInterface@?$CComObject@VCSettingsMasterOptions@@@ATL@@WBA@AGJABU_GUID@@PAPAX@Z 10009e05 f i SettingsMasterOptions.obj
 0001:00008e0f       ?AddRef@?$CComObject@VCSettingsMasterOptions@@@ATL@@WBA@AGKXZ 10009e0f f i SettingsMasterOptions.obj
 0001:00008e19       ?Release@?$CComObject@VCSettingsMasterOptions@@@ATL@@WBA@AGKXZ 10009e19 f i SettingsMasterOptions.obj
 0001:00008e23       ?QueryInterface@?$CComObject@VCSettingsMasterOptions@@@ATL@@WBE@AGJABU_GUID@@PAPAX@Z 10009e23 f i SettingsMasterOptions.obj
 0001:00008e2d       ?AddRef@?$CComObject@VCSettingsMasterOptions@@@ATL@@WBE@AGKXZ 10009e2d f i SettingsMasterOptions.obj
 0001:00008e37       ?Release@?$CComObject@VCSettingsMasterOptions@@@ATL@@WBE@AGKXZ 10009e37 f i SettingsMasterOptions.obj
 0001:00008e41       ?QueryInterface@?$CComObject@VCSettingsMasterOptions@@@ATL@@WBI@AGJABU_GUID@@PAPAX@Z 10009e41 f i SettingsMasterOptions.obj
 0001:00008e4b       ?AddRef@?$CComObject@VCSettingsMasterOptions@@@ATL@@WBI@AGKXZ 10009e4b f i SettingsMasterOptions.obj
 0001:00008e55       ?Release@?$CComObject@VCSettingsMasterOptions@@@ATL@@WBI@AGKXZ 10009e55 f i SettingsMasterOptions.obj
 0001:00008e5f       ?QueryInterface@?$CComObject@VCSettingsMasterOptions@@@ATL@@WBM@AGJABU_GUID@@PAPAX@Z 10009e5f f i SettingsMasterOptions.obj
 0001:00008e69       ?AddRef@?$CComObject@VCSettingsMasterOptions@@@ATL@@WBM@AGKXZ 10009e69 f i SettingsMasterOptions.obj
 0001:00008e73       ?Release@?$CComObject@VCSettingsMasterOptions@@@ATL@@WBM@AGKXZ 10009e73 f i SettingsMasterOptions.obj
 0001:00008e7d       ?QueryInterface@?$CComObject@VCSettingsMasterOptions@@@ATL@@WCA@AGJABU_GUID@@PAPAX@Z 10009e7d f i SettingsMasterOptions.obj
 0001:00008e87       ?AddRef@?$CComObject@VCSettingsMasterOptions@@@ATL@@WCA@AGKXZ 10009e87 f i SettingsMasterOptions.obj
 0001:00008e91       ?Release@?$CComObject@VCSettingsMasterOptions@@@ATL@@WCA@AGKXZ 10009e91 f i SettingsMasterOptions.obj
 0001:00008e9b       ?QueryInterface@?$CComObject@VCSettingsMasterOptions@@@ATL@@WCE@AGJABU_GUID@@PAPAX@Z 10009e9b f i SettingsMasterOptions.obj
 0001:00008ea5       ?AddRef@?$CComObject@VCSettingsMasterOptions@@@ATL@@WCE@AGKXZ 10009ea5 f i SettingsMasterOptions.obj
 0001:00008eaf       ?Release@?$CComObject@VCSettingsMasterOptions@@@ATL@@WCE@AGKXZ 10009eaf f i SettingsMasterOptions.obj
 0001:00008eb9       ?QueryInterface@?$CComObject@VCSettingsMasterOptions@@@ATL@@WCI@AGJABU_GUID@@PAPAX@Z 10009eb9 f i SettingsMasterOptions.obj
 0001:00008ec3       ?AddRef@?$CComObject@VCSettingsMasterOptions@@@ATL@@WCI@AGKXZ 10009ec3 f i SettingsMasterOptions.obj
 0001:00008ecd       ?Release@?$CComObject@VCSettingsMasterOptions@@@ATL@@WCI@AGKXZ 10009ecd f i SettingsMasterOptions.obj
 0001:00008ed7       ?QueryInterface@?$CComObject@VCSettingsMasterOptions@@@ATL@@WCM@AGJABU_GUID@@PAPAX@Z 10009ed7 f i SettingsMasterOptions.obj
 0001:00008ee1       ?AddRef@?$CComObject@VCSettingsMasterOptions@@@ATL@@WCM@AGKXZ 10009ee1 f i SettingsMasterOptions.obj
 0001:00008eeb       ?Release@?$CComObject@VCSettingsMasterOptions@@@ATL@@WCM@AGKXZ 10009eeb f i SettingsMasterOptions.obj
 0001:00008ef5       ?QueryInterface@?$CComObject@VCSettingsMasterOptions@@@ATL@@WDA@AGJABU_GUID@@PAPAX@Z 10009ef5 f i SettingsMasterOptions.obj
 0001:00008eff       ?AddRef@?$CComObject@VCSettingsMasterOptions@@@ATL@@WDA@AGKXZ 10009eff f i SettingsMasterOptions.obj
 0001:00008f09       ?Release@?$CComObject@VCSettingsMasterOptions@@@ATL@@WDA@AGKXZ 10009f09 f i SettingsMasterOptions.obj
 0001:00008f13       ??_E?$CComObject@VCSettingsMasterOptions@@@ATL@@WDE@AEPAXI@Z 10009f13 f i SettingsMasterOptions.obj
 0001:00008f1b       ??_E?$CComObject@VCSettingsMasterOptions@@@ATL@@WHM@AEPAXI@Z 10009f1b f i SettingsMasterOptions.obj
 0001:00008f23       ?QueryInterface@?$CComContainedObject@VCSettingsMasterOptions@@@ATL@@W3AGJABU_GUID@@PAPAX@Z 10009f23 f i SettingsMasterOptions.obj
 0001:00008f2d       ?AddRef@?$CComContainedObject@VCSettingsMasterOptions@@@ATL@@W3AGKXZ 10009f2d f i SettingsMasterOptions.obj
 0001:00008f37       ?Release@?$CComContainedObject@VCSettingsMasterOptions@@@ATL@@W3AGKXZ 10009f37 f i SettingsMasterOptions.obj
 0001:00008f41       ?QueryInterface@?$CComContainedObject@VCSettingsMasterOptions@@@ATL@@W7AGJABU_GUID@@PAPAX@Z 10009f41 f i SettingsMasterOptions.obj
 0001:00008f4b       ?AddRef@?$CComContainedObject@VCSettingsMasterOptions@@@ATL@@W7AGKXZ 10009f4b f i SettingsMasterOptions.obj
 0001:00008f55       ?Release@?$CComContainedObject@VCSettingsMasterOptions@@@ATL@@W7AGKXZ 10009f55 f i SettingsMasterOptions.obj
 0001:00008f5f       ?QueryInterface@?$CComContainedObject@VCSettingsMasterOptions@@@ATL@@WM@AGJABU_GUID@@PAPAX@Z 10009f5f f i SettingsMasterOptions.obj
 0001:00008f69       ?AddRef@?$CComContainedObject@VCSettingsMasterOptions@@@ATL@@WM@AGKXZ 10009f69 f i SettingsMasterOptions.obj
 0001:00008f73       ?Release@?$CComContainedObject@VCSettingsMasterOptions@@@ATL@@WM@AGKXZ 10009f73 f i SettingsMasterOptions.obj
 0001:00008f7d       ?QueryInterface@?$CComContainedObject@VCSettingsMasterOptions@@@ATL@@WBA@AGJABU_GUID@@PAPAX@Z 10009f7d f i SettingsMasterOptions.obj
 0001:00008f87       ?AddRef@?$CComContainedObject@VCSettingsMasterOptions@@@ATL@@WBA@AGKXZ 10009f87 f i SettingsMasterOptions.obj
 0001:00008f91       ?Release@?$CComContainedObject@VCSettingsMasterOptions@@@ATL@@WBA@AGKXZ 10009f91 f i SettingsMasterOptions.obj
 0001:00008f9b       ?QueryInterface@?$CComContainedObject@VCSettingsMasterOptions@@@ATL@@WBE@AGJABU_GUID@@PAPAX@Z 10009f9b f i SettingsMasterOptions.obj
 0001:00008fa5       ?AddRef@?$CComContainedObject@VCSettingsMasterOptions@@@ATL@@WBE@AGKXZ 10009fa5 f i SettingsMasterOptions.obj
 0001:00008faf       ?Release@?$CComContainedObject@VCSettingsMasterOptions@@@ATL@@WBE@AGKXZ 10009faf f i SettingsMasterOptions.obj
 0001:00008fb9       ?QueryInterface@?$CComContainedObject@VCSettingsMasterOptions@@@ATL@@WBI@AGJABU_GUID@@PAPAX@Z 10009fb9 f i SettingsMasterOptions.obj
 0001:00008fc3       ?AddRef@?$CComContainedObject@VCSettingsMasterOptions@@@ATL@@WBI@AGKXZ 10009fc3 f i SettingsMasterOptions.obj
 0001:00008fcd       ?Release@?$CComContainedObject@VCSettingsMasterOptions@@@ATL@@WBI@AGKXZ 10009fcd f i SettingsMasterOptions.obj
 0001:00008fd7       ?QueryInterface@?$CComContainedObject@VCSettingsMasterOptions@@@ATL@@WBM@AGJABU_GUID@@PAPAX@Z 10009fd7 f i SettingsMasterOptions.obj
 0001:00008fe1       ?AddRef@?$CComContainedObject@VCSettingsMasterOptions@@@ATL@@WBM@AGKXZ 10009fe1 f i SettingsMasterOptions.obj
 0001:00008feb       ?Release@?$CComContainedObject@VCSettingsMasterOptions@@@ATL@@WBM@AGKXZ 10009feb f i SettingsMasterOptions.obj
 0001:00008ff5       ?QueryInterface@?$CComContainedObject@VCSettingsMasterOptions@@@ATL@@WCA@AGJABU_GUID@@PAPAX@Z 10009ff5 f i SettingsMasterOptions.obj
 0001:00008fff       ?AddRef@?$CComContainedObject@VCSettingsMasterOptions@@@ATL@@WCA@AGKXZ 10009fff f i SettingsMasterOptions.obj
 0001:00009009       ?Release@?$CComContainedObject@VCSettingsMasterOptions@@@ATL@@WCA@AGKXZ 1000a009 f i SettingsMasterOptions.obj
 0001:00009013       ?QueryInterface@?$CComContainedObject@VCSettingsMasterOptions@@@ATL@@WCE@AGJABU_GUID@@PAPAX@Z 1000a013 f i SettingsMasterOptions.obj
 0001:0000901d       ?AddRef@?$CComContainedObject@VCSettingsMasterOptions@@@ATL@@WCE@AGKXZ 1000a01d f i SettingsMasterOptions.obj
 0001:00009027       ?Release@?$CComContainedObject@VCSettingsMasterOptions@@@ATL@@WCE@AGKXZ 1000a027 f i SettingsMasterOptions.obj
 0001:00009031       ?QueryInterface@?$CComContainedObject@VCSettingsMasterOptions@@@ATL@@WCI@AGJABU_GUID@@PAPAX@Z 1000a031 f i SettingsMasterOptions.obj
 0001:0000903b       ?AddRef@?$CComContainedObject@VCSettingsMasterOptions@@@ATL@@WCI@AGKXZ 1000a03b f i SettingsMasterOptions.obj
 0001:00009045       ?Release@?$CComContainedObject@VCSettingsMasterOptions@@@ATL@@WCI@AGKXZ 1000a045 f i SettingsMasterOptions.obj
 0001:0000904f       ?QueryInterface@?$CComContainedObject@VCSettingsMasterOptions@@@ATL@@WCM@AGJABU_GUID@@PAPAX@Z 1000a04f f i SettingsMasterOptions.obj
 0001:00009059       ?AddRef@?$CComContainedObject@VCSettingsMasterOptions@@@ATL@@WCM@AGKXZ 1000a059 f i SettingsMasterOptions.obj
 0001:00009063       ?Release@?$CComContainedObject@VCSettingsMasterOptions@@@ATL@@WCM@AGKXZ 1000a063 f i SettingsMasterOptions.obj
 0001:0000906d       ?QueryInterface@?$CComContainedObject@VCSettingsMasterOptions@@@ATL@@WDA@AGJABU_GUID@@PAPAX@Z 1000a06d f i SettingsMasterOptions.obj
 0001:00009077       ?AddRef@?$CComContainedObject@VCSettingsMasterOptions@@@ATL@@WDA@AGKXZ 1000a077 f i SettingsMasterOptions.obj
 0001:00009081       ?Release@?$CComContainedObject@VCSettingsMasterOptions@@@ATL@@WDA@AGKXZ 1000a081 f i SettingsMasterOptions.obj
 0001:0000908b       ??_E?$CComContainedObject@VCSettingsMasterOptions@@@ATL@@WDE@AEPAXI@Z 1000a08b f i SettingsMasterOptions.obj
 0001:00009093       ??_E?$CComContainedObject@VCSettingsMasterOptions@@@ATL@@WHM@AEPAXI@Z 1000a093 f i SettingsMasterOptions.obj
 0001:0000909b       ?LockServer@CComClassFactory@ATL@@UAGJH@Z 1000a09b f i SettingsMasterOptions.obj
 0001:000090b7       ?CreateInstance@CComClassFactory@ATL@@UAGJPAUIUnknown@@ABU_GUID@@PAPAX@Z 1000a0b7 f i SettingsMasterOptions.obj
 0001:000090f5       ?AtlGetObjectSourceInterface@ATL@@YGJPAUIUnknown@@PAU_GUID@@1PAG2@Z 1000a0f5 f i SettingsMasterOptions.obj
 0001:0000939f       ?AtlWinModuleExtractCreateWndData@ATL@@YGPAXPAU_ATL_WIN_MODULE70@1@@Z 1000a39f f i SettingsMasterOptions.obj
 0001:000093ff       ?AtlWinModuleAddCreateWndData@ATL@@YGXPAU_ATL_WIN_MODULE70@1@PAU_AtlCreateWndData@1@PAX@Z 1000a3ff f i SettingsMasterOptions.obj
 0001:00009451       ?AtlA2WHelper@@YGPAGPAGPBDHI@Z 1000a451 f i SettingsMasterOptions.obj
 0001:00009483       ??_ECComClassFactory@ATL@@UAEPAXI@Z 1000a483 f i SettingsMasterOptions.obj
 0001:00009483       ??_GCComClassFactory@ATL@@UAEPAXI@Z 1000a483 f i SettingsMasterOptions.obj
 0001:0000949f       ??0CComAutoCriticalSection@ATL@@QAE@XZ 1000a49f f i SettingsMasterOptions.obj
 0001:000094ba       ??0CComCriticalSection@ATL@@QAE@XZ 1000a4ba f i SettingsMasterOptions.obj
 0001:000094ce       ?Init@CComCriticalSection@ATL@@QAEJXZ 1000a4ce f i SettingsMasterOptions.obj
 0001:0000951e       ??1CComClassFactory@ATL@@UAE@XZ 1000a51e f i SettingsMasterOptions.obj
 0001:0000952f       ?InlineIsEqualUnknown@ATL@@YGHABU_GUID@@@Z 1000a52f f i SettingsMasterOptions.obj
 0001:00009553       ?AtlIPersistStreamInit_Save@ATL@@YGJPAUIStream@@HPAUATL_PROPMAP_ENTRY@1@PAXPAUIUnknown@@@Z 1000a553 f i SettingsMasterOptions.obj
 0001:000096b6       ?WriteToStream@CComBSTR@ATL@@QAEJPAUIStream@@@Z 1000a6b6 f i SettingsMasterOptions.obj
 0001:0000970d       ?WriteToStream@CComVariant@ATL@@QAEJPAUIStream@@@Z 1000a70d f i SettingsMasterOptions.obj
 0001:0000989b       ?AtlIPersistStreamInit_Load@ATL@@YGJPAUIStream@@PAUATL_PROPMAP_ENTRY@1@PAXPAUIUnknown@@@Z 1000a89b f i SettingsMasterOptions.obj
 0001:00009a17       ?ReadFromStream@CComBSTR@ATL@@QAEJPAUIStream@@@Z 1000aa17 f i SettingsMasterOptions.obj
 0001:00009aa2       ?ReadFromStream@CComVariant@ATL@@QAEJPAUIStream@@@Z 1000aaa2 f i SettingsMasterOptions.obj
 0001:00009c26       ?PutProperty@?$CComPtr@UIDispatch@@@ATL@@SAJPAUIDispatch@@JPAUtagVARIANT@@@Z 1000ac26 f i SettingsMasterOptions.obj
 0001:00009caf       ?AtlThrow@ATL@@YGXJ@Z      1000acaf f i SettingsMasterOptions.obj
 0001:00009cc7       ??1CDynamicStdCallThunk@ATL@@QAE@XZ 1000acc7 f i SettingsMasterOptions.obj
 0001:00009cde       ?GetSize@CComVariant@ATL@@QBEKXZ 1000acde f i SettingsMasterOptions.obj
 0001:00009e30       ?AtlComQIPtrAssign@ATL@@YGPAUIUnknown@@PAPAU2@PAU2@ABU_GUID@@@Z 1000ae30 f i SettingsMasterOptions.obj
 0001:00009e5c       ??0?$CComPtr@UICatRegister@@@ATL@@QAE@XZ 1000ae5c f i SettingsMasterShim.obj
 0001:00009e5c       ??0?$CComPtr@UIPersistStreamInit@@@ATL@@QAE@XZ 1000ae5c f i SettingsMasterOptions.obj
 0001:00009e5c       ??0?$CComPtr@UIConnectionPointContainer@@@ATL@@QAE@XZ 1000ae5c f i SettingsMasterOptions.obj
 0001:00009e5c       ??0?$CComPtr@UIConnectionPoint@@@ATL@@QAE@XZ 1000ae5c f i SettingsMasterOptions.obj
 0001:00009e5c       ??0?$CComPtr@UIOleInPlaceActiveObject@@@ATL@@QAE@XZ 1000ae5c f i SettingsMasterOptions.obj
 0001:00009e5c       ??0?$CComPtr@UIOleControlSite@@@ATL@@QAE@XZ 1000ae5c f i SettingsMasterOptions.obj
 0001:00009e5c       ??0?$CComPtr@UIProvideClassInfo2@@@ATL@@QAE@XZ 1000ae5c f i SettingsMasterOptions.obj
 0001:00009e5c       ??0?$CComPtr@UIDTToolsOptionsPage@EnvDTE@@@ATL@@QAE@XZ 1000ae5c f i SettingsMasterOptions.obj
 0001:00009e5c       ??0?$CComPtr@UIUnknown@@@ATL@@QAE@XZ 1000ae5c f i SettingsMasterOptions.obj
 0001:00009e5c       ??0?$CComPtr@UIPersist@@@ATL@@QAE@XZ 1000ae5c f i SettingsMasterOptions.obj
 0001:00009e5c       ??0?$CComPtr@UIOleClientSite@@@ATL@@QAE@XZ 1000ae5c f i SettingsMasterOptions.obj
 0001:00009e5c       ??0?$CComPtr@UIAdviseSink@@@ATL@@QAE@XZ 1000ae5c f i SettingsMasterOptions.obj
 0001:00009e5c       ??0?$CComPtr@UIAxWinHostWindowLic@@@ATL@@QAE@XZ 1000ae5c f i SettingsMasterOptions.obj
 0001:00009e5c       ??0?$CComPtr@UIDispatch@@@ATL@@QAE@XZ 1000ae5c f i SettingsMasterOptions.obj
 0001:00009e5c       ??0?$CComPtr@UITypeInfo@@@ATL@@QAE@XZ 1000ae5c f i SettingsMasterOptions.obj
 0001:00009e5c       ??0?$CComPtr@UIOleControl@@@ATL@@QAE@XZ 1000ae5c f i SettingsMasterOptions.obj
 0001:00009e5c       ??0?$CComPtr@UITypeLib@@@ATL@@QAE@XZ 1000ae5c f i SettingsMasterOptions.obj
 0001:00009e5c       ??0?$CComPtr@UIPersistStream@@@ATL@@QAE@XZ 1000ae5c f i SettingsMasterOptions.obj
 0001:00009e60       ?Invoke@CComTypeInfoHolder@ATL@@QAEJPAUIDispatch@@JABU_GUID@@KGPAUtagDISPPARAMS@@PAUtagVARIANT@@PAUtagEXCEPINFO@@PAI@Z 1000ae60 f i SettingsMasterOptions.obj
 0001:00009e95       ?EnsureTI@CComTypeInfoHolder@ATL@@QAEJK@Z 1000ae95 f i SettingsMasterOptions.obj
 0001:00009eb1       ?GetTI@CComTypeInfoHolder@ATL@@QAEJK@Z 1000aeb1 f i SettingsMasterOptions.obj
 0001:0000a0d9       ?AddTermFunc@CAtlModule@ATL@@QAEJP6GXK@ZK@Z 1000b0d9 f i SettingsMasterOptions.obj
 0001:0000a0f5       ?AtlModuleAddTermFunc@ATL@@YGJPAU_ATL_MODULE70@1@P6GXK@ZK@Z 1000b0f5 f i SettingsMasterOptions.obj
 0001:0000a183       ?Cleanup@CComTypeInfoHolder@ATL@@SGXK@Z 1000b183 f i SettingsMasterOptions.obj
 0001:0000a1b5       ??_Estringdispid@CComTypeInfoHolder@ATL@@QAEPAXI@Z 1000b1b5 f i SettingsMasterOptions.obj
 0001:0000a1fc       ??1stringdispid@CComTypeInfoHolder@ATL@@QAE@XZ 1000b1fc f i SettingsMasterOptions.obj
 0001:0000a205       ?LoadNameCache@CComTypeInfoHolder@ATL@@QAEJPAUITypeInfo@@@Z 1000b205 f i SettingsMasterOptions.obj
 0001:0000a371       ??0stringdispid@CComTypeInfoHolder@ATL@@QAE@XZ 1000b371 f i SettingsMasterOptions.obj
 0001:0000a37f       ?GetIDsOfNames@CComTypeInfoHolder@ATL@@QAEJABU_GUID@@PAPAGIKPAJ@Z 1000b37f f i SettingsMasterOptions.obj
 0001:0000a417       ?GetTI@CComTypeInfoHolder@ATL@@QAEJKPAPAUITypeInfo@@@Z 1000b417 f i SettingsMasterOptions.obj
 0001:0000a44f       ?AtlComPtrAssign@ATL@@YGPAUIUnknown@@PAPAU2@PAU2@@Z 1000b44f f i SettingsMasterOptions.obj
 0001:0000a471       _InlineIsEqualGUID         1000b471 f i SettingsMasterOptions.obj
 0001:0000a496       ?UpdateRegistryFromResourceS@CAtlModule@ATL@@QAGJIHPAU_ATL_REGMAP_ENTRY@2@@Z 1000b496 f i SettingsMasterOptions.obj
 0001:0000a613       ??0CRegObject@ATL@@QAE@XZ  1000b613 f i SettingsMasterOptions.obj
 0001:0000a625       ?AddRef@CRegObject@ATL@@UAGKXZ 1000b625 f i SettingsMasterOptions.obj
 0001:0000a62b       ?ClearReplacements@CRegObject@ATL@@UAGJXZ 1000b62b f i SettingsMasterOptions.obj
 0001:0000a63a       ?ClearReplacements@CExpansionVector@ATL@@QAEJXZ 1000b63a f i SettingsMasterOptions.obj
 0001:0000a677       ?GetKeyAt@?$CSimpleMap@PAGPAGVCExpansionVectorEqualHelper@ATL@@@ATL@@QBEAAPAGH@Z 1000b677 f i SettingsMasterOptions.obj
 0001:0000a698       ?GetValueAt@?$CSimpleMap@PAGPAGVCExpansionVectorEqualHelper@ATL@@@ATL@@QBEAAPAGH@Z 1000b698 f i SettingsMasterOptions.obj
 0001:0000a6ba       ?RemoveAll@?$CSimpleMap@PAGPAGVCExpansionVectorEqualHelper@ATL@@@ATL@@QAEXXZ 1000b6ba f i SettingsMasterOptions.obj
 0001:0000a6e3       ??_ECRegObject@ATL@@UAEPAXI@Z 1000b6e3 f i SettingsMasterOptions.obj
 0001:0000a6e3       ??_GCRegObject@ATL@@UAEPAXI@Z 1000b6e3 f i SettingsMasterOptions.obj
 0001:0000a6ff       ??1?$CSimpleMap@PAGPAGVCExpansionVectorEqualHelper@ATL@@@ATL@@QAE@XZ 1000b6ff f i SettingsMasterOptions.obj
 0001:0000a704       ??1CExpansionVector@ATL@@QAE@XZ 1000b704 f i SettingsMasterOptions.obj
 0001:0000a731       ??1CRegObject@ATL@@UAE@XZ  1000b731 f i SettingsMasterOptions.obj
 0001:0000a76b       ?EscapeSingleQuote@CAtlModule@ATL@@SAXPAGPBG@Z 1000b76b f i SettingsMasterOptions.obj
 0001:0000a78d       ?AddReplacement@CRegObject@ATL@@UAGJPBG0@Z 1000b78d f i SettingsMasterOptions.obj
 0001:0000a7f7       ?Add@CExpansionVector@ATL@@QAEHPBG0@Z 1000b7f7 f i SettingsMasterOptions.obj
 0001:0000a8f6       ?Add@?$CSimpleMap@PAGPAGVCExpansionVectorEqualHelper@ATL@@@ATL@@QAEHABQAG0@Z 1000b8f6 f i SettingsMasterOptions.obj
 0001:0000a94d       ?InternalSetAtIndex@?$CSimpleMap@PAGPAGVCExpansionVectorEqualHelper@ATL@@@ATL@@QAEXHABQAG0@Z 1000b94d f i SettingsMasterOptions.obj
 0001:0000a972       ?ResourceRegister@CRegObject@ATL@@QAGJPBGI0@Z 1000b972 f i SettingsMasterOptions.obj
 0001:0000a9be       ?RegisterFromResource@CRegObject@ATL@@IAEJPBG00H@Z 1000b9be f i SettingsMasterOptions.obj
 0001:0000ab25       ??1?$CTempBuffer@E$0BAA@VCCRTAllocator@ATL@@@ATL@@QAE@XZ 1000bb25 f i SettingsMasterOptions.obj
 0001:0000ab25       ??1?$CTempBuffer@G$0EAA@VCCRTAllocator@ATL@@@ATL@@QAE@XZ 1000bb25 f i SettingsMasterOptions.obj
 0001:0000ab25       ??1?$CTempBuffer@G$0BAA@VCCRTAllocator@ATL@@@ATL@@QAE@XZ 1000bb25 f i SettingsMasterOptions.obj
 0001:0000ab32       ?AllocateBytes@?$CTempBuffer@G$0EAA@VCCRTAllocator@ATL@@@ATL@@QAEPAGI@Z 1000bb32 f i SettingsMasterOptions.obj
 0001:0000ab52       ?AllocateHeap@?$CTempBuffer@E$0BAA@VCCRTAllocator@ATL@@@ATL@@AAEXI@Z 1000bb52 f i SettingsMasterOptions.obj
 0001:0000ab52       ?AllocateHeap@?$CTempBuffer@G$0EAA@VCCRTAllocator@ATL@@@ATL@@AAEXI@Z 1000bb52 f i SettingsMasterOptions.obj
 0001:0000ab52       ?AllocateHeap@?$CTempBuffer@G$0BAA@VCCRTAllocator@ATL@@@ATL@@AAEXI@Z 1000bb52 f i SettingsMasterOptions.obj
 0001:0000ab74       ?RegisterBuffer@CRegParser@ATL@@QAEJPAGH@Z 1000bb74 f i SettingsMasterOptions.obj
 0001:0000ac86       ?PreProcessBuffer@CRegParser@ATL@@QAEJPAGPAPAG@Z 1000bc86 f i SettingsMasterOptions.obj
 0001:0000adde       ??0CParseBuffer@CRegParser@ATL@@QAE@H@Z 1000bdde f i SettingsMasterOptions.obj
 0001:0000ae05       ??1CParseBuffer@CRegParser@ATL@@QAE@XZ 1000be05 f i SettingsMasterOptions.obj
 0001:0000ae0f       ?StrChrW@CRegParser@ATL@@KAPAGPAGG@Z 1000be0f f i SettingsMasterOptions.obj
 0001:0000ae36       ?Lookup@?$CSimpleMap@PAGPAGVCExpansionVectorEqualHelper@ATL@@@ATL@@QBEPAGABQAG@Z 1000be36 f i SettingsMasterOptions.obj
 0001:0000ae58       ?FindKey@?$CSimpleMap@PAGPAGVCExpansionVectorEqualHelper@ATL@@@ATL@@QBEHABQAG@Z 1000be58 f i SettingsMasterOptions.obj
 0001:0000ae87       ?IsEqualKey@CExpansionVectorEqualHelper@ATL@@SA_NQAG0@Z 1000be87 f i SettingsMasterOptions.obj
 0001:0000ae9c       ?AddString@CParseBuffer@CRegParser@ATL@@QAEHPBG@Z 1000be9c f i SettingsMasterOptions.obj
 0001:0000aede       ?Append@CParseBuffer@CRegParser@ATL@@QAEHPBGH@Z 1000bede f i SettingsMasterOptions.obj
 0001:0000af39       ?HKeyFromString@CRegParser@ATL@@KAPAUHKEY__@@PAG@Z 1000bf39 f i SettingsMasterOptions.obj
 0001:0000af64       ?NextToken@CRegParser@ATL@@IAEJPAG@Z 1000bf64 f i SettingsMasterOptions.obj
 0001:0000b05f       ?EndOfVar@CRegParser@ATL@@IAEHXZ 1000c05f f i SettingsMasterOptions.obj
 0001:0000b07b       ?IsSpace@CRegParser@ATL@@IAEHG@Z 1000c07b f i SettingsMasterOptions.obj
 0001:0000b099       ?RegisterSubkeys@CRegParser@ATL@@IAEJPAGPAUHKEY__@@HH@Z 1000c099 f i SettingsMasterOptions.obj
 0001:0000b5c0       ?Create@CRegKey@ATL@@QAEJPAUHKEY__@@PBGPAGKKPAU_SECURITY_ATTRIBUTES@@PAK@Z 1000c5c0 f i SettingsMasterOptions.obj
 0001:0000b609       ?AddValue@CRegParser@ATL@@IAEJAAVCRegKey@2@PBGPAG@Z 1000c609 f i SettingsMasterOptions.obj
 0001:0000b904       ?VTFromRegType@CRegParser@ATL@@KAHPBGAAG@Z 1000c904 f i SettingsMasterOptions.obj
 0001:0000b996       ?SetStringValue@CRegKey@ATL@@QAEJPBG0K@Z 1000c996 f i SettingsMasterOptions.obj
 0001:0000b9c1       ?FreeHeap@?$CTempBuffer@G$0EAA@VCCRTAllocator@ATL@@@ATL@@AAEXXZ 1000c9c1 f i SettingsMasterOptions.obj
 0001:0000b9c1       ?FreeHeap@?$CTempBuffer@E$0BAA@VCCRTAllocator@ATL@@@ATL@@AAEXXZ 1000c9c1 f i SettingsMasterOptions.obj
 0001:0000b9c1       ?FreeHeap@?$CTempBuffer@G$0BAA@VCCRTAllocator@ATL@@@ATL@@AAEXXZ 1000c9c1 f i SettingsMasterOptions.obj
 0001:0000b9cb       ?SetMultiStringValue@CRegKey@ATL@@QAEJPBG0@Z 1000c9cb f i SettingsMasterOptions.obj
 0001:0000ba05       ?SetDWORDValue@CRegKey@ATL@@QAEJPBGK@Z 1000ca05 f i SettingsMasterOptions.obj
 0001:0000ba23       ?AllocateBytes@?$CTempBuffer@E$0BAA@VCCRTAllocator@ATL@@@ATL@@QAEPAEI@Z 1000ca23 f i SettingsMasterOptions.obj
 0001:0000ba23       ?AllocateBytes@?$CTempBuffer@G$0BAA@VCCRTAllocator@ATL@@@ATL@@QAEPAGI@Z 1000ca23 f i SettingsMasterOptions.obj
 0001:0000ba43       ?ChToByte@CRegParser@ATL@@KAEG@Z 1000ca43 f i SettingsMasterOptions.obj
 0001:0000ba73       ?Open@CRegKey@ATL@@QAEJPAUHKEY__@@PBGK@Z 1000ca73 f i SettingsMasterOptions.obj
 0001:0000baa6       ?SkipAssignment@CRegParser@ATL@@IAEJPAG@Z 1000caa6 f i SettingsMasterOptions.obj
 0001:0000bb07       ?HasSubKeys@CRegParser@ATL@@IAEHPAUHKEY__@@@Z 1000cb07 f i SettingsMasterOptions.obj
 0001:0000bb3c       ?CanForceRemoveKey@CRegParser@ATL@@IAEHPBG@Z 1000cb3c f i SettingsMasterOptions.obj
 0001:0000bb68       ?RecurseDeleteKey@CRegKey@ATL@@QAEJPBG@Z 1000cb68 f i SettingsMasterOptions.obj
 0001:0000bc4d       ?Close@CRegKey@ATL@@QAEJXZ 1000cc4d f i SettingsMasterOptions.obj
 0001:0000bc60       ??1CRegKey@ATL@@QAE@XZ     1000cc60 f i SettingsMasterOptions.obj
 0001:0000bc65       ?AtlHresultFromWin32@ATL@@YAJK@Z 1000cc65 f i SettingsMasterOptions.obj
 0001:0000bc74       ?SkipWhiteSpace@CRegParser@ATL@@IAEXXZ 1000cc74 f i SettingsMasterOptions.obj
 0001:0000bc8f       ?ResourceUnregister@CRegObject@ATL@@QAGJPBGI0@Z 1000cc8f f i SettingsMasterOptions.obj
 0001:0000bcda       ??1?$CAtlSafeAllocBufferManager@VCCRTAllocator@ATL@@@_ATL_SAFE_ALLOCA_IMPL@ATL@@QAE@XZ 1000ccda f i SettingsMasterOptions.obj
 0001:0000bcf0       ?GetProperty@?$CComPtr@UIDispatch@@@ATL@@SAJPAUIDispatch@@JPAUtagVARIANT@@@Z 1000ccf0 f i SettingsMasterOptions.obj
 0001:0000bd3b       ??1?$CComCritSecLock@VCComCriticalSection@ATL@@@ATL@@QAE@XZ 1000cd3b f i SettingsMasterOptions.obj
 0001:0000bd52       ??4CComBSTR@ATL@@QAEAAV01@PBG@Z 1000cd52 f i SettingsMasterOptions.obj
 0001:0000bd8a       ?AtlHresultFromLastError@ATL@@YAJXZ 1000cd8a f i SettingsMasterOptions.obj
 0001:0000bd9f       ??0CComBSTR@ATL@@QAE@PBG@Z 1000cd9f f i SettingsMasterOptions.obj
 0001:0000bdc9       ??0CComBSTR@ATL@@QAE@ABU_GUID@@@Z 1000cdc9 f i SettingsMasterOptions.obj
 0001:0000be17       ??4CComVariant@ATL@@QAEAAV01@PBG@Z 1000ce17 f i SettingsMasterOptions.obj
 0001:0000be4b       ??1CComVariant@ATL@@QAE@XZ 1000ce4b f i SettingsMasterOptions.obj
 0001:0000be53       ?AtlAdvise@ATL@@YGJPAUIUnknown@@0ABU_GUID@@PAK@Z 1000ce53 f i SettingsMasterOptions.obj
 0001:0000bec8       ?AtlUnadvise@ATL@@YGJPAUIUnknown@@ABU_GUID@@K@Z 1000cec8 f i SettingsMasterOptions.obj
 0001:0000bf3a       ?AtlInternalQueryInterface@ATL@@YGJPAXPBU_ATL_INTMAP_ENTRY@1@ABU_GUID@@PAPAX@Z 1000cf3a f i SettingsMasterOptions.obj
 0001:0000bfcf       ?FindOneOf@CAtlModule@ATL@@SAPBGPBG0@Z 1000cfcf f i SettingsMasterOptions.obj
 0001:0000c012       ?Init@CDynamicStdCallThunk@ATL@@QAEXKPAX@Z 1000d012 f i SettingsMasterOptions.obj
 0001:0000c03c       ?Init@_stdcallthunk@ATL@@QAEXKPAX@Z 1000d03c f i SettingsMasterOptions.obj
 0001:0000c062       ?_AtlGetThreadACPThunk@ATL@@YGIXZ 1000d062 f i SettingsMasterOptions.obj
 0001:0000c0c7       ?_AtlGetThreadACPReal@ATL@@YGIXZ 1000d0c7 f i SettingsMasterOptions.obj
 0001:0000c0cb       ?_AtlGetThreadACPFake@ATL@@YGIXZ 1000d0cb f i SettingsMasterOptions.obj
 0001:0000c12c       ??1CComBSTR@ATL@@QAE@XZ    1000d12c f i SettingsMasterOptions.obj
 0001:0000c135       ??0CComBSTR@ATL@@QAE@H@Z   1000d135 f i SettingsMasterOptions.obj
 0001:0000c161       ??1CAtlWinModule@ATL@@QAE@XZ 1000d161 f i SettingsMasterOptions.obj
 0001:0000c179       ?RemoveAll@?$CSimpleArray@GV?$CSimpleArrayEqualHelper@G@ATL@@@ATL@@QAEXXZ 1000d179 f i SettingsMasterOptions.obj
 0001:0000c197       ?AtlWinModuleTerm@ATL@@YGJPAU_ATL_WIN_MODULE70@1@PAUHINSTANCE__@@@Z 1000d197 f i SettingsMasterOptions.obj
 0001:0000c1f7       ??A?$CSimpleArray@GV?$CSimpleArrayEqualHelper@G@ATL@@@ATL@@QAEAAGH@Z 1000d1f7 f i SettingsMasterOptions.obj
 0001:0000c21e       ??0CAtlWinModule@ATL@@QAE@XZ 1000d21e f i SettingsMasterOptions.obj
 0001:0000c241       ??0_ATL_WIN_MODULE70@ATL@@QAE@XZ 1000d241 f i SettingsMasterOptions.obj
 0001:0000c25b       ?AtlWinModuleInit@ATL@@YGJPAU_ATL_WIN_MODULE70@1@@Z 1000d25b f i SettingsMasterOptions.obj
 0001:0000c27e       ?UpdateRegistryAppId@CSettingsMasterShimModule@@SGJH@Z 1000d27e f i SettingsMasterShim.obj
 0001:0000c2b1       ??0CSettingsMasterShimModule@@QAE@XZ 1000d2b1 f i SettingsMasterShim.obj
 0001:0000c2c0       ??1CSettingsMasterShimModule@@UAE@XZ 1000d2c0 f i SettingsMasterShim.obj
 0001:0000c2c5       ??_GCSettingsMasterShimModule@@UAEPAXI@Z 1000d2c5 f i SettingsMasterShim.obj
 0001:0000c2c5       ??_ECSettingsMasterShimModule@@UAEPAXI@Z 1000d2c5 f i SettingsMasterShim.obj
 0001:0000c2e2       _DllMain@12                1000d2e2 f   SettingsMasterShim.obj
 0001:0000c30a       _DllCanUnloadNow@0         1000d30a f   SettingsMasterShim.obj
 0001:0000c327       _DllGetClassObject@12      1000d327 f   SettingsMasterShim.obj
 0001:0000c34b       _DllRegisterServer@0       1000d34b f   SettingsMasterShim.obj
 0001:0000c369       _DllUnregisterServer@0     1000d369 f   SettingsMasterShim.obj
 0001:0000c390       ??0?$CAtlDllModuleT@VCSettingsMasterShimModule@@@ATL@@QAE@XZ 1000d390 f i SettingsMasterShim.obj
 0001:0000c3ae       ??1?$CAtlDllModuleT@VCSettingsMasterShimModule@@@ATL@@UAE@XZ 1000d3ae f i SettingsMasterShim.obj
 0001:0000c3c8       ?AddCommonRGSReplacements@?$CAtlModuleT@VCSettingsMasterShimModule@@@ATL@@UAEJPAUIRegistrarBase@@@Z 1000d3c8 f i SettingsMasterShim.obj
 0001:0000c3df       ??1?$CAtlModuleT@VCSettingsMasterShimModule@@@ATL@@UAE@XZ 1000d3df f i SettingsMasterShim.obj
 0001:0000c3e4       ??0?$CAtlModuleT@VCSettingsMasterShimModule@@@ATL@@QAE@XZ 1000d3e4 f i SettingsMasterShim.obj
 0001:0000c406       ?RegisterServer@?$CAtlModuleT@VCSettingsMasterShimModule@@@ATL@@QAEJHPBU_GUID@@@Z 1000d406 f i SettingsMasterShim.obj
 0001:0000c432       ?UnregisterServer@?$CAtlModuleT@VCSettingsMasterShimModule@@@ATL@@QAEJHPBU_GUID@@@Z 1000d432 f i SettingsMasterShim.obj
 0001:0000c458       ?GetGITPtr@CAtlModule@ATL@@UAEJPAPAUIGlobalInterfaceTable@@@Z 1000d458 f i SettingsMasterShim.obj
 0001:0000c4a1       ?GetLockCount@CAtlModule@ATL@@UAEJXZ 1000d4a1 f i SettingsMasterShim.obj
 0001:0000c4a5       ?Unlock@CAtlModule@ATL@@UAEJXZ 1000d4a5 f i SettingsMasterShim.obj
 0001:0000c4b0       ?Lock@CAtlModule@ATL@@UAEJXZ 1000d4b0 f i SettingsMasterShim.obj
 0001:0000c4bb       ?AtlComModuleUnregisterServer@ATL@@YGJPAU_ATL_COM_MODULE70@1@HPBU_GUID@@@Z 1000d4bb f i SettingsMasterShim.obj
 0001:0000c53f       _IsEqualGUID               1000d53f f i SettingsMasterShim.obj
 0001:0000c557       ?AtlRegisterClassCategoriesHelper@ATL@@YGJABU_GUID@@PBU_ATL_CATMAP_ENTRY@1@H@Z 1000d557 f i SettingsMasterShim.obj
 0001:0000c7c1       ?AtlUnRegisterTypeLib@ATL@@YGJPAUHINSTANCE__@@PBG@Z 1000d7c1 f i SettingsMasterShim.obj
 0001:0000c843       ?AtlLoadTypeLib@ATL@@YGJPAUHINSTANCE__@@PBGPAPAGPAPAUITypeLib@@@Z 1000d843 f i SettingsMasterShim.obj
 0001:0000c999       ?AtlComModuleRegisterServer@ATL@@YGJPAU_ATL_COM_MODULE70@1@HPBU_GUID@@@Z 1000d999 f i SettingsMasterShim.obj
 0001:0000ca21       ?AtlRegisterTypeLib@ATL@@YGJPAUHINSTANCE__@@PBG@Z 1000da21 f i SettingsMasterShim.obj
 0001:0000cb37       ??0CAtlModule@ATL@@QAE@XZ  1000db37 f i SettingsMasterShim.obj
 0001:0000cb71       ?AtlComModuleGetClassObject@ATL@@YGJPAU_ATL_COM_MODULE70@1@ABU_GUID@@1PAPAX@Z 1000db71 f i SettingsMasterShim.obj
 0001:0000cc46       ?Term@CAtlModule@ATL@@QAEXXZ 1000dc46 f i SettingsMasterShim.obj
 0001:0000cc7e       ?AtlCallTermFunc@ATL@@YGXPAU_ATL_MODULE70@1@@Z 1000dc7e f i SettingsMasterShim.obj
 0001:0000ccb6       ?ExecuteObjectMain@CAtlComModule@ATL@@QAEX_N@Z 1000dcb6 f i SettingsMasterShim.obj
 0001:0000ccd6       _CorBindToRuntimeEx@24     1000dcd6 f   mscoree:mscoree.dll
 0001:0000ccdc       _IUnknown_QueryInterface_Proxy@12 1000dcdc f   rpcrt4:RPCRT4.dll
 0001:0000cce2       _NdrOleFree@4              1000dce2 f   rpcrt4:RPCRT4.dll
 0001:0000cce8       _NdrStubForwardingFunction@16 1000dce8 f   rpcrt4:RPCRT4.dll
 0001:0000ccee       _NdrOleAllocate@4          1000dcee f   rpcrt4:RPCRT4.dll
 0001:0000ccf4       _IUnknown_Release_Proxy@4  1000dcf4 f   rpcrt4:RPCRT4.dll
 0001:0000ccfa       _NdrCStdStubBuffer2_Release@8 1000dcfa f   rpcrt4:RPCRT4.dll
 0001:0000cd00       _IUnknown_AddRef_Proxy@4   1000dd00 f   rpcrt4:RPCRT4.dll
 0001:0000cd06       _memcmp                    1000dd06 f   MSVCRT:MSVCR71.dll
 0001:0000cd0c       _free                      1000dd0c f   MSVCRT:MSVCR71.dll
 0001:0000cd12       ??3@YAXPAX@Z               1000dd12 f   MSVCRT:MSVCR71.dll
 0001:0000cd18       _memcpy                    1000dd18 f   MSVCRT:MSVCR71.dll
 0001:0000cd1e       __onexit                   1000dd1e f   MSVCRT:atonexit.obj
 0001:0000cd44       _atexit                    1000dd44 f   MSVCRT:atonexit.obj
 0001:0000cd56       _memset                    1000dd56 f   MSVCRT:MSVCR71.dll
 0001:0000cd5c       ??2@YAPAXI@Z               1000dd5c f   MSVCRT:MSVCR71.dll
 0001:0000cd62       ??_L@YGXPAXIHP6EX0@Z1@Z    1000dd62 f   MSVCRT:ehvecctr.obj
 0001:0000cdc4       ?__ArrayUnwind@@YGXPAXIHP6EX0@Z@Z 1000ddc4 f   MSVCRT:ehvecdtr.obj
 0001:0000ce22       ??_M@YGXPAXIHP6EX0@Z@Z     1000de22 f   MSVCRT:ehvecdtr.obj
 0001:0000ce82       ??_Etype_info@@UAEPAXI@Z   1000de82 f i MSVCRT:ti_inst.obj
 0001:0000cece       ??_U@YAPAXI@Z              1000dece f   MSVCRT:MSVCR71.dll
 0001:0000ced4       ??_V@YAXPAX@Z              1000ded4 f   MSVCRT:MSVCR71.dll
 0001:0000ceda       __CRT_INIT@12              1000deda f   MSVCRT:crtdll.obj
 0001:0000cf98       __DllMainCRTStartup@12     1000df98 f   MSVCRT:crtdll.obj
 0001:0000d07c       ___dllonexit               1000e07c f   MSVCRT:MSVCR71.dll
 0001:0000d084       __SEH_prolog               1000e084 f   MSVCRT:sehprolg.obj
 0001:0000d0bf       __SEH_epilog               1000e0bf f   MSVCRT:sehprolg.obj
 0001:0000d0d0       __except_handler3          1000e0d0 f   MSVCRT:MSVCR71.dll
 0001:0000d0d6       ?terminate@@YAXXZ          1000e0d6 f   MSVCRT:MSVCR71.dll
 0001:0000d0dc       ??1type_info@@UAE@XZ       1000e0dc f   MSVCRT:MSVCR71.dll
 0001:0000d0e2       __initterm                 1000e0e2 f   MSVCRT:MSVCR71.dll
 0001:0000d0e8       __RTC_Initialize           1000e0e8 f   MSVCRT:initsect.obj
 0001:0000d12c       __RTC_Terminate            1000e12c f   MSVCRT:initsect.obj
 0001:0000d170       ___CppXcptFilter           1000e170 f   MSVCRT:MSVCR71.dll
 0001:0000d176       ?RemoveAll@?$CSimpleArray@PAUHINSTANCE__@@V?$CSimpleArrayEqualHelper@PAUHINSTANCE__@@@ATL@@@ATL@@QAEXXZ 1000e176 f i atls:atlbase.obj
 0001:0000d193       ??0_ATL_BASE_MODULE70@ATL@@QAE@XZ 1000e193 f i atls:atlbase.obj
 0001:0000d1ad       ??1CAtlBaseModule@ATL@@QAE@XZ 1000e1ad f   atls:atlbase.obj
 0001:0000d1c3       ??0CAtlBaseModule@ATL@@QAE@XZ 1000e1c3 f   atls:atlbase.obj
 0001:0000d26e       ?Term@CAtlComModule@ATL@@QAEXXZ 1000e26e f i atls:atlcommodule.obj
 0001:0000d2b0       ??0CAtlComModule@ATL@@QAE@XZ 1000e2b0 f i atls:atlcommodule.obj
 0001:0000d321       @__security_check_cookie@4 1000e321 f   MSVCRT:secchk.obj
 0001:0000d32f       ___security_init_cookie    1000e32f f   MSVCRT:seccinit.obj
 0001:0000d396       ___security_error_handler  1000e396 f   MSVCRT:MSVCR71.dll
 0001:0000d39c       ___CxxFrameHandler         1000e39c f   MSVCRT:MSVCR71.dll
 0001:0000d3b0       __EH_prolog                1000e3b0 f   MSVCRT:ehprolog.obj
 0001:0000d3d0       __CxxThrowException@8      1000e3d0 f   MSVCRT:MSVCR71.dll
 0001:0000d3e0       __chkstk                   1000e3e0 f   MSVCRT:chkstk.obj
 0001:0000d3e0       __alloca_probe             1000e3e0     MSVCRT:chkstk.obj
 0002:00000000       __SettingsMasterShim_IID_Lookup@8 1000f000 f   dlldatax.obj
 0003:00000000       __imp__RegQueryValueExW@24 10010000     advapi32:ADVAPI32.dll
 0003:00000004       __imp__RegOpenKeyExW@20    10010004     advapi32:ADVAPI32.dll
 0003:00000008       __imp__RegDeleteValueW@8   10010008     advapi32:ADVAPI32.dll
 0003:0000000c       __imp__RegCreateKeyExW@36  1001000c     advapi32:ADVAPI32.dll
 0003:00000010       __imp__RegSetValueExW@24   10010010     advapi32:ADVAPI32.dll
 0003:00000014       __imp__RegQueryInfoKeyW@48 10010014     advapi32:ADVAPI32.dll
 0003:00000018       __imp__RegEnumKeyExW@32    10010018     advapi32:ADVAPI32.dll
 0003:0000001c       __imp__RegDeleteKeyW@8     1001001c     advapi32:ADVAPI32.dll
 0003:00000020       __imp__RegCloseKey@4       10010020     advapi32:ADVAPI32.dll
 0003:00000024       \177ADVAPI32_NULL_THUNK_DATA 10010024     advapi32:ADVAPI32.dll
 0003:00000028       __imp__GetStockObject@4    10010028     gdi32:GDI32.dll
 0003:0000002c       __imp__GetObjectW@12       1001002c     gdi32:GDI32.dll
 0003:00000030       __imp__CreateDCW@16        10010030     gdi32:GDI32.dll
 0003:00000034       __imp__CreateRectRgnIndirect@4 10010034     gdi32:GDI32.dll
 0003:00000038       __imp__CreateMetaFileW@4   10010038     gdi32:GDI32.dll
 0003:0000003c       __imp__SaveDC@4            1001003c     gdi32:GDI32.dll
 0003:00000040       __imp__SetWindowOrgEx@16   10010040     gdi32:GDI32.dll
 0003:00000044       __imp__SetWindowExtEx@16   10010044     gdi32:GDI32.dll
 0003:00000048       __imp__RestoreDC@8         10010048     gdi32:GDI32.dll
 0003:0000004c       __imp__DeleteDC@4          1001004c     gdi32:GDI32.dll
 0003:00000050       __imp__DeleteMetaFile@4    10010050     gdi32:GDI32.dll
 0003:00000054       __imp__LPtoDP@12           10010054     gdi32:GDI32.dll
 0003:00000058       __imp__SetMapMode@8        10010058     gdi32:GDI32.dll
 0003:0000005c       __imp__SetViewportOrgEx@16 1001005c     gdi32:GDI32.dll
 0003:00000060       __imp__Rectangle@20        10010060     gdi32:GDI32.dll
 0003:00000064       __imp__SetTextColor@8      10010064     gdi32:GDI32.dll
 0003:00000068       __imp__SetBkMode@8         10010068     gdi32:GDI32.dll
 0003:0000006c       __imp__SetBkColor@8        1001006c     gdi32:GDI32.dll
 0003:00000070       __imp__BitBlt@36           10010070     gdi32:GDI32.dll
 0003:00000074       __imp__CreateCompatibleBitmap@12 10010074     gdi32:GDI32.dll
 0003:00000078       __imp__CreateSolidBrush@4  10010078     gdi32:GDI32.dll
 0003:0000007c       __imp__GetDeviceCaps@8     1001007c     gdi32:GDI32.dll
 0003:00000080       __imp__CreateFontIndirectW@4 10010080     gdi32:GDI32.dll
 0003:00000084       __imp__SelectObject@8      10010084     gdi32:GDI32.dll
 0003:00000088       __imp__GetTextMetricsW@8   10010088     gdi32:GDI32.dll
 0003:0000008c       __imp__GetTextExtentPointW@16 1001008c     gdi32:GDI32.dll
 0003:00000090       __imp__CloseMetaFile@4     10010090     gdi32:GDI32.dll
 0003:00000094       __imp__CreateCompatibleDC@4 10010094     gdi32:GDI32.dll
 0003:00000098       __imp__DeleteObject@4      10010098     gdi32:GDI32.dll
 0003:0000009c       \177GDI32_NULL_THUNK_DATA  1001009c     gdi32:GDI32.dll
 0003:000000a0       __imp__GetCurrentThreadId@0 100100a0     kernel32:KERNEL32.dll
 0003:000000a4       __imp__GetLastError@0      100100a4     kernel32:KERNEL32.dll
 0003:000000a8       __imp__GlobalHandle@4      100100a8     kernel32:KERNEL32.dll
 0003:000000ac       __imp__SetLastError@4      100100ac     kernel32:KERNEL32.dll
 0003:000000b0       __imp__lstrcatW@8          100100b0     kernel32:KERNEL32.dll
 0003:000000b4       __imp__GetSystemTimeAsFileTime@4 100100b4     kernel32:KERNEL32.dll
 0003:000000b8       __imp__GetCurrentProcessId@0 100100b8     kernel32:KERNEL32.dll
 0003:000000bc       __imp__GetTickCount@0      100100bc     kernel32:KERNEL32.dll
 0003:000000c0       __imp__QueryPerformanceCounter@4 100100c0     kernel32:KERNEL32.dll
 0003:000000c4       __imp__ExitProcess@4       100100c4     kernel32:KERNEL32.dll
 0003:000000c8       __imp__HeapAlloc@12        100100c8     kernel32:KERNEL32.dll
 0003:000000cc       __imp__HeapFree@12         100100cc     kernel32:KERNEL32.dll
 0003:000000d0       __imp__GetVersionExA@4     100100d0     kernel32:KERNEL32.dll
 0003:000000d4       __imp__GlobalAlloc@8       100100d4     kernel32:KERNEL32.dll
 0003:000000d8       __imp__GlobalFree@4        100100d8     kernel32:KERNEL32.dll
 0003:000000dc       __imp__lstrlenA@4          100100dc     kernel32:KERNEL32.dll
 0003:000000e0       __imp__MultiByteToWideChar@24 100100e0     kernel32:KERNEL32.dll
 0003:000000e4       __imp__InterlockedDecrement@4 100100e4     kernel32:KERNEL32.dll
 0003:000000e8       __imp__lstrcmpW@8          100100e8     kernel32:KERNEL32.dll
 0003:000000ec       __imp__InterlockedExchange@8 100100ec     kernel32:KERNEL32.dll
 0003:000000f0       __imp__GetACP@0            100100f0     kernel32:KERNEL32.dll
 0003:000000f4       __imp__GetLocaleInfoA@16   100100f4     kernel32:KERNEL32.dll
 0003:000000f8       __imp__GetThreadLocale@0   100100f8     kernel32:KERNEL32.dll
 0003:000000fc       __imp__GetVersionExW@4     100100fc     kernel32:KERNEL32.dll
 0003:00000100       __imp__GetCurrentProcess@0 10010100     kernel32:KERNEL32.dll
 0003:00000104       __imp__FlushInstructionCache@12 10010104     kernel32:KERNEL32.dll
 0003:00000108       __imp__MulDiv@12           10010108     kernel32:KERNEL32.dll
 0003:0000010c       __imp__lstrcpynW@12        1001010c     kernel32:KERNEL32.dll
 0003:00000110       __imp__LoadLibraryW@4      10010110     kernel32:KERNEL32.dll
 0003:00000114       __imp__FindResourceW@12    10010114     kernel32:KERNEL32.dll
 0003:00000118       __imp__LoadResource@8      10010118     kernel32:KERNEL32.dll
 0003:0000011c       __imp__FreeLibrary@4       1001011c     kernel32:KERNEL32.dll
 0003:00000120       __imp__GlobalLock@4        10010120     kernel32:KERNEL32.dll
 0003:00000124       __imp__GlobalUnlock@4      10010124     kernel32:KERNEL32.dll
 0003:00000128       __imp__lstrcpyW@8          10010128     kernel32:KERNEL32.dll
 0003:0000012c       __imp__InterlockedIncrement@4 1001012c     kernel32:KERNEL32.dll
 0003:00000130       __imp__LeaveCriticalSection@4 10010130     kernel32:KERNEL32.dll
 0003:00000134       __imp__EnterCriticalSection@4 10010134     kernel32:KERNEL32.dll
 0003:00000138       __imp__DeleteCriticalSection@4 10010138     kernel32:KERNEL32.dll
 0003:0000013c       __imp__InitializeCriticalSection@4 1001013c     kernel32:KERNEL32.dll
 0003:00000140       __imp__GetProcessHeap@0    10010140     kernel32:KERNEL32.dll
 0003:00000144       __imp__LockResource@4      10010144     kernel32:KERNEL32.dll
 0003:00000148       __imp__GetModuleFileNameW@12 10010148     kernel32:KERNEL32.dll
 0003:0000014c       __imp__RaiseException@16   1001014c     kernel32:KERNEL32.dll
 0003:00000150       __imp__GetModuleHandleW@4  10010150     kernel32:KERNEL32.dll
 0003:00000154       __imp__LoadLibraryExW@12   10010154     kernel32:KERNEL32.dll
 0003:00000158       __imp__SizeofResource@8    10010158     kernel32:KERNEL32.dll
 0003:0000015c       __imp__lstrcmpiW@8         1001015c     kernel32:KERNEL32.dll
 0003:00000160       __imp__lstrlenW@4          10010160     kernel32:KERNEL32.dll
 0003:00000164       \177KERNEL32_NULL_THUNK_DATA 10010164     kernel32:KERNEL32.dll
 0003:00000168       __imp__memcmp              10010168     MSVCRT:MSVCR71.dll
 0003:0000016c       __imp__malloc              1001016c     MSVCRT:MSVCR71.dll
 0003:00000170       __imp__free                10010170     MSVCRT:MSVCR71.dll
 0003:00000174       __imp__realloc             10010174     MSVCRT:MSVCR71.dll
 0003:00000178       __imp_??3@YAXPAX@Z         10010178     MSVCRT:MSVCR71.dll
 0003:0000017c       __imp__wcslen              1001017c     MSVCRT:MSVCR71.dll
 0003:00000180       __imp__memcpy              10010180     MSVCRT:MSVCR71.dll
 0003:00000184       __imp__memset              10010184     MSVCRT:MSVCR71.dll
 0003:00000188       __imp_??2@YAPAXI@Z         10010188     MSVCRT:MSVCR71.dll
 0003:0000018c       __imp__wcsncpy             1001018c     MSVCRT:MSVCR71.dll
 0003:00000190       __imp__isupper             10010190     MSVCRT:MSVCR71.dll
 0003:00000194       __imp_??_U@YAPAXI@Z        10010194     MSVCRT:MSVCR71.dll
 0003:00000198       __imp_??_V@YAXPAX@Z        10010198     MSVCRT:MSVCR71.dll
 0003:0000019c       __imp____dllonexit         1001019c     MSVCRT:MSVCR71.dll
 0003:000001a0       __imp___onexit             100101a0     MSVCRT:MSVCR71.dll
 0003:000001a4       __imp___except_handler3    100101a4     MSVCRT:MSVCR71.dll
 0003:000001a8       __imp_?terminate@@YAXXZ    100101a8     MSVCRT:MSVCR71.dll
 0003:000001ac       __imp___CxxThrowException@8 100101ac     MSVCRT:MSVCR71.dll
 0003:000001b0       __imp___initterm           100101b0     MSVCRT:MSVCR71.dll
 0003:000001b4       __imp___adjust_fdiv        100101b4     MSVCRT:MSVCR71.dll
 0003:000001b8       __imp____CppXcptFilter     100101b8     MSVCRT:MSVCR71.dll
 0003:000001bc       __imp____security_error_handler 100101bc     MSVCRT:MSVCR71.dll
 0003:000001c0       __imp____CxxFrameHandler   100101c0     MSVCRT:MSVCR71.dll
 0003:000001c4       __imp_??1type_info@@UAE@XZ 100101c4     MSVCRT:MSVCR71.dll
 0003:000001c8       \177MSVCR71_NULL_THUNK_DATA 100101c8     MSVCRT:MSVCR71.dll
 0003:000001cc       __imp__OleCreatePropertyFrame@44 100101cc     oleaut32:OLEAUT32.dll
 0003:000001d0       __imp__SysFreeString@4     100101d0     oleaut32:OLEAUT32.dll
 0003:000001d4       __imp__SysAllocString@4    100101d4     oleaut32:OLEAUT32.dll
 0003:000001d8       __imp__VariantInit@4       100101d8     oleaut32:OLEAUT32.dll
 0003:000001dc       __imp__OleCreateFontIndirect@12 100101dc     oleaut32:OLEAUT32.dll
 0003:000001e0       __imp__VarUI4FromStr@16    100101e0     oleaut32:OLEAUT32.dll
 0003:000001e4       __imp__SysStringLen@4      100101e4     oleaut32:OLEAUT32.dll
 0003:000001e8       __imp__LoadRegTypeLib@20   100101e8     oleaut32:OLEAUT32.dll
 0003:000001ec       __imp__LoadTypeLib@8       100101ec     oleaut32:OLEAUT32.dll
 0003:000001f0       __imp__OleTranslateColor@12 100101f0     oleaut32:OLEAUT32.dll
 0003:000001f4       __imp__VariantClear@4      100101f4     oleaut32:OLEAUT32.dll
 0003:000001f8       __imp__SysAllocStringByteLen@8 100101f8     oleaut32:OLEAUT32.dll
 0003:000001fc       __imp__VariantChangeType@16 100101fc     oleaut32:OLEAUT32.dll
 0003:00000200       __imp__UnRegisterTypeLib@20 10010200     oleaut32:OLEAUT32.dll
 0003:00000204       __imp__RegisterTypeLib@12  10010204     oleaut32:OLEAUT32.dll
 0003:00000208       __imp__SysStringByteLen@4  10010208     oleaut32:OLEAUT32.dll
 0003:0000020c       __imp__SysAllocStringLen@8 1001020c     oleaut32:OLEAUT32.dll
 0003:00000210       \177OLEAUT32_NULL_THUNK_DATA 10010210     oleaut32:OLEAUT32.dll
 0003:00000214       __imp__NdrOleFree@4        10010214     rpcrt4:RPCRT4.dll
 0003:00000218       __imp__NdrStubForwardingFunction@16 10010218     rpcrt4:RPCRT4.dll
 0003:0000021c       __imp__NdrOleAllocate@4    1001021c     rpcrt4:RPCRT4.dll
 0003:00000220       __imp__NdrDllRegisterProxy@12 10010220     rpcrt4:RPCRT4.dll
 0003:00000224       __imp__NdrDllCanUnloadNow@4 10010224     rpcrt4:RPCRT4.dll
 0003:00000228       __imp__IUnknown_Release_Proxy@4 10010228     rpcrt4:RPCRT4.dll
 0003:0000022c       __imp__NdrCStdStubBuffer2_Release@8 1001022c     rpcrt4:RPCRT4.dll
 0003:00000230       __imp__IUnknown_AddRef_Proxy@4 10010230     rpcrt4:RPCRT4.dll
 0003:00000234       __imp__NdrDllGetClassObject@24 10010234     rpcrt4:RPCRT4.dll
 0003:00000238       __imp__NdrDllUnregisterProxy@12 10010238     rpcrt4:RPCRT4.dll
 0003:0000023c       __imp__IUnknown_QueryInterface_Proxy@12 1001023c     rpcrt4:RPCRT4.dll
 0003:00000240       \177RPCRT4_NULL_THUNK_DATA 10010240     rpcrt4:RPCRT4.dll
 0003:00000244       __imp__PathFindExtensionW@4 10010244     shlwapi:SHLWAPI.dll
 0003:00000248       \177SHLWAPI_NULL_THUNK_DATA 10010248     shlwapi:SHLWAPI.dll
 0003:0000024c       __imp__IsDialogMessageW@8  1001024c     user32:USER32.dll
 0003:00000250       __imp__SetWindowLongW@12   10010250     user32:USER32.dll
 0003:00000254       __imp__GetWindowLongW@8    10010254     user32:USER32.dll
 0003:00000258       __imp__CreateWindowExW@48  10010258     user32:USER32.dll
 0003:0000025c       __imp__DestroyWindow@4     1001025c     user32:USER32.dll
 0003:00000260       __imp__SetWindowRgn@12     10010260     user32:USER32.dll
 0003:00000264       __imp__SetWindowTextW@8    10010264     user32:USER32.dll
 0003:00000268       __imp__GetWindowTextW@12   10010268     user32:USER32.dll
 0003:0000026c       __imp__GetWindowTextLengthW@4 1001026c     user32:USER32.dll
 0003:00000270       __imp__GetClassNameW@12    10010270     user32:USER32.dll
 0003:00000274       __imp__SendMessageW@16     10010274     user32:USER32.dll
 0003:00000278       __imp__MoveWindow@24       10010278     user32:USER32.dll
 0003:0000027c       __imp__SetWindowPos@28     1001027c     user32:USER32.dll
 0003:00000280       __imp__GetWindowRect@8     10010280     user32:USER32.dll
 0003:00000284       __imp__GetClientRect@8     10010284     user32:USER32.dll
 0003:00000288       __imp__BeginPaint@8        10010288     user32:USER32.dll
 0003:0000028c       __imp__EndPaint@8          1001028c     user32:USER32.dll
 0003:00000290       __imp__GetDC@4             10010290     user32:USER32.dll
 0003:00000294       __imp__ReleaseDC@8         10010294     user32:USER32.dll
 0003:00000298       __imp__InvalidateRect@12   10010298     user32:USER32.dll
 0003:0000029c       __imp__InvalidateRgn@12    1001029c     user32:USER32.dll
 0003:000002a0       __imp__SystemParametersInfoW@16 100102a0     user32:USER32.dll
 0003:000002a4       __imp__GetDialogBaseUnits@0 100102a4     user32:USER32.dll
 0003:000002a8       __imp__UnregisterClassW@8  100102a8     user32:USER32.dll
 0003:000002ac       __imp__GetSysColor@4       100102ac     user32:USER32.dll
 0003:000002b0       __imp__DestroyAcceleratorTable@4 100102b0     user32:USER32.dll
 0003:000002b4       __imp__GetFocus@0          100102b4     user32:USER32.dll
 0003:000002b8       __imp__FillRect@12         100102b8     user32:USER32.dll
 0003:000002bc       __imp__GetDesktopWindow@0  100102bc     user32:USER32.dll
 0003:000002c0       __imp__CreateAcceleratorTableW@8 100102c0     user32:USER32.dll
 0003:000002c4       __imp__ReleaseCapture@0    100102c4     user32:USER32.dll
 0003:000002c8       __imp__DefWindowProcW@16   100102c8     user32:USER32.dll
 0003:000002cc       __imp__CreateDialogIndirectParamW@20 100102cc     user32:USER32.dll
 0003:000002d0       __imp__RegisterWindowMessageW@4 100102d0     user32:USER32.dll
 0003:000002d4       __imp__GetClassInfoExW@12  100102d4     user32:USER32.dll
 0003:000002d8       __imp__LoadCursorW@8       100102d8     user32:USER32.dll
 0003:000002dc       __imp__RegisterClassExW@4  100102dc     user32:USER32.dll
 0003:000002e0       __imp__wsprintfW           100102e0     user32:USER32.dll
 0003:000002e4       __imp__IntersectRect@12    100102e4     user32:USER32.dll
 0003:000002e8       __imp__EqualRect@8         100102e8     user32:USER32.dll
 0003:000002ec       __imp__OffsetRect@12       100102ec     user32:USER32.dll
 0003:000002f0       __imp__CharNextW@4         100102f0     user32:USER32.dll
 0003:000002f4       __imp__CallWindowProcW@20  100102f4     user32:USER32.dll
 0003:000002f8       __imp__GetKeyState@4       100102f8     user32:USER32.dll
 0003:000002fc       __imp__PtInRect@12         100102fc     user32:USER32.dll
 0003:00000300       __imp__UnionRect@12        10010300     user32:USER32.dll
 0003:00000304       __imp__EnumChildWindows@12 10010304     user32:USER32.dll
 0003:00000308       __imp__DrawTextW@20        10010308     user32:USER32.dll
 0003:0000030c       __imp__MapDialogRect@8     1001030c     user32:USER32.dll
 0003:00000310       __imp__CopyAcceleratorTableW@12 10010310     user32:USER32.dll
 0003:00000314       __imp__IsWindow@4          10010314     user32:USER32.dll
 0003:00000318       __imp__SetWindowContextHelpId@8 10010318     user32:USER32.dll
 0003:0000031c       __imp__GetDlgItem@8        1001031c     user32:USER32.dll
 0003:00000320       __imp__SetParent@8         10010320     user32:USER32.dll
 0003:00000324       __imp__GetParent@4         10010324     user32:USER32.dll
 0003:00000328       __imp__IsChild@8           10010328     user32:USER32.dll
 0003:0000032c       __imp__GetWindow@8         1001032c     user32:USER32.dll
 0003:00000330       __imp__SendDlgItemMessageW@20 10010330     user32:USER32.dll
 0003:00000334       __imp__GetNextDlgTabItem@12 10010334     user32:USER32.dll
 0003:00000338       __imp__SetFocus@4          10010338     user32:USER32.dll
 0003:0000033c       __imp__SetCapture@4        1001033c     user32:USER32.dll
 0003:00000340       __imp__RedrawWindow@16     10010340     user32:USER32.dll
 0003:00000344       __imp__ShowWindow@8        10010344     user32:USER32.dll
 0003:00000348       \177USER32_NULL_THUNK_DATA 10010348     user32:USER32.dll
 0003:0000034c       __imp__CorBindToRuntimeEx@24 1001034c     mscoree:mscoree.dll
 0003:00000350       \177mscoree_NULL_THUNK_DATA 10010350     mscoree:mscoree.dll
 0003:00000354       __imp__WriteClassStm@8     10010354     ole32:ole32.dll
 0003:00000358       __imp__OleLoadFromStream@12 10010358     ole32:ole32.dll
 0003:0000035c       __imp__CreateDataAdviseHolder@4 1001035c     ole32:ole32.dll
 0003:00000360       __imp__OleRegGetMiscStatus@12 10010360     ole32:ole32.dll
 0003:00000364       __imp__OleRegGetUserType@12 10010364     ole32:ole32.dll
 0003:00000368       __imp__OleRegEnumVerbs@8   10010368     ole32:ole32.dll
 0003:0000036c       __imp__CreateOleAdviseHolder@4 1001036c     ole32:ole32.dll
 0003:00000370       __imp__OleUninitialize@0   10010370     ole32:ole32.dll
 0003:00000374       __imp__OleInitialize@4     10010374     ole32:ole32.dll
 0003:00000378       __imp__OleSaveToStream@8   10010378     ole32:ole32.dll
 0003:0000037c       __imp__StringFromGUID2@12  1001037c     ole32:ole32.dll
 0003:00000380       __imp__CreateStreamOnHGlobal@12 10010380     ole32:ole32.dll
 0003:00000384       __imp__CoGetClassObject@20 10010384     ole32:ole32.dll
 0003:00000388       __imp__CLSIDFromProgID@8   10010388     ole32:ole32.dll
 0003:0000038c       __imp__CLSIDFromString@8   1001038c     ole32:ole32.dll
 0003:00000390       __imp__CoCreateInstance@20 10010390     ole32:ole32.dll
 0003:00000394       __imp__CoTaskMemRealloc@8  10010394     ole32:ole32.dll
 0003:00000398       __imp__CoTaskMemFree@4     10010398     ole32:ole32.dll
 0003:0000039c       __imp__CoTaskMemAlloc@4    1001039c     ole32:ole32.dll
 0003:000003a0       __imp__OleLockRunning@12   100103a0     ole32:ole32.dll
 0003:000003a4       \177ole32_NULL_THUNK_DATA  100103a4     ole32:ole32.dll
 0003:000003cc       _IID_IDispatch             100103cc     uuid:oaidl_i.obj
 0003:000003cc       __GUID_00020400_0000_0000_c000_000000000046 100103cc     SettingsMasterOptions.obj
 0003:000003dc       _GUID_NULL                 100103dc     uuid:cguid_i.obj
 0003:000003ec       _IID_IUnknown              100103ec     uuid:unknwn_i.obj
 0003:000003ec       __GUID_00000000_0000_0000_c000_000000000046 100103ec     SettingsMasterOptions.obj
 0003:000003fc       _CLSID_StdComponentCategoriesMgr 100103fc     uuid:ieguids.obj
 0003:00000440       ??_7type_info@@6B@         10010440     MSVCRT:ti_inst.obj
 0003:00000474       _GUID_ATLVer30             10010474     atls:atlbase.obj
 0003:00000484       _GUID_ATLVer70             10010484     atls:atlbase.obj
 0003:000004a8       _IID_ISettingsMasterOptions 100104a8     SettingsMasterShim_i.obj
 0003:00000550       __SettingsMasterShim_InterfaceNamesList 10010550     dlldatax.obj
 0003:00000558       _SettingsMasterShim_ProxyFileInfo 10010558     dlldatax.obj
 0003:00000598       _CLSID_SettingsMasterOptions 10010598     SettingsMasterShim_i.obj
 0003:000005a8       _LIBID_SettingsMasterShimLib 100105a8     SettingsMasterShim_i.obj
 0003:00000618       _IID_IWin32Window          10010618     SettingsMasterShim_i.obj
 0003:00000628       ??_C@_0BH@KFEFEFKM@ISettingsMasterOptions?$AA@ 10010628     dlldatax.obj
 0003:00000640       __GUID_05f696dc_2b29_3663_ad8b_c4389cf2a713 10010640     SettingsMasterOptions.obj
 0003:00000650       __GUID_00020412_0000_0000_c000_000000000046 10010650     SettingsMasterOptions.obj
 0003:00000660       __GUID_00020401_0000_0000_c000_000000000046 10010660     SettingsMasterOptions.obj
 0003:00000670       __GUID_9bfbbc02_eff1_101a_84ed_00aa00341d07 10010670     SettingsMasterOptions.obj
 0003:00000680       __GUID_55980ba0_35aa_11cf_b671_00aa004cd6d8 10010680     SettingsMasterOptions.obj
 0003:00000690       __GUID_bef6e003_a874_101a_8bba_00aa00300cab 10010690     SettingsMasterOptions.obj
 0003:000006a0       __GUID_00000122_0000_0000_c000_000000000046 100106a0     SettingsMasterOptions.obj
 0003:000006b0       __GUID_b196b28f_bab4_101a_b69c_00aa00341d07 100106b0     SettingsMasterOptions.obj
 0003:000006c0       __GUID_b196b284_bab4_101a_b69c_00aa00341d07 100106c0     SettingsMasterOptions.obj
 0003:000006d0       __GUID_00000109_0000_0000_c000_000000000046 100106d0     SettingsMasterOptions.obj
 0003:000006e0       ??_7CComClassFactory@ATL@@6B@ 100106e0     SettingsMasterOptions.obj
 0003:000006f8       ??_7CRegObject@ATL@@6B@    100106f8     SettingsMasterOptions.obj
 0003:00000710       ?_entries@?1??_GetEntries@CComClassFactory@ATL@@SGPBU_ATL_INTMAP_ENTRY@3@XZ@4QBU43@B 10010710     SettingsMasterOptions.obj
 0003:00000728       __GUID_00000001_0000_0000_c000_000000000046 10010728     SettingsMasterOptions.obj
 0003:00000738       ??_C@_11LOCGONAA@?$AA?$AA@ 10010738     SettingsMasterOptions.obj
 0003:0000073c       ??_C@_1BC@KAILKFFG@?$AAR?$AAE?$AAG?$AAI?$AAS?$AAT?$AAR?$AAY?$AA?$AA@ 1001073c     SettingsMasterOptions.obj
 0003:00000750       ??_C@_1BG@JBACFMF@?$AAM?$AAo?$AAd?$AAu?$AAl?$AAe?$AA_?$AAR?$AAa?$AAw?$AA?$AA@ 10010750     SettingsMasterOptions.obj
 0003:00000768       ??_C@_1O@MNLDABAF@?$AAM?$AAo?$AAd?$AAu?$AAl?$AAe?$AA?$AA@ 10010768     SettingsMasterOptions.obj
 0003:00000778       ?map@?2??HKeyFromString@CRegParser@ATL@@KAPAUHKEY__@@PAG@Z@4QBUkeymap@23@B 10010778     SettingsMasterOptions.obj
 0003:000007e8       ??_C@_1CI@BBJOACGG@?$AAH?$AAK?$AAE?$AAY?$AA_?$AAC?$AAU?$AAR?$AAR?$AAE?$AAN?$AAT?$AA_?$AAC?$AAO?$AAN?$AAF?$AAI?$AAG?$AA?$AA@ 100107e8     SettingsMasterOptions.obj
 0003:00000810       ??_C@_1BM@HAGMMHIA@?$AAH?$AAK?$AAE?$AAY?$AA_?$AAD?$AAY?$AAN?$AA_?$AAD?$AAA?$AAT?$AAA?$AA?$AA@ 10010810     SettingsMasterOptions.obj
 0003:0000082c       ??_C@_1CM@KHNNAOIC@?$AAH?$AAK?$AAE?$AAY?$AA_?$AAP?$AAE?$AAR?$AAF?$AAO?$AAR?$AAM?$AAA?$AAN?$AAC?$AAE?$AA_?$AAD?$AAA?$AAT@ 1001082c     SettingsMasterOptions.obj
 0003:00000858       ??_C@_1BG@BGODANIO@?$AAH?$AAK?$AAE?$AAY?$AA_?$AAU?$AAS?$AAE?$AAR?$AAS?$AA?$AA@ 10010858     SettingsMasterOptions.obj
 0003:00000870       ??_C@_1CG@GFBEANJL@?$AAH?$AAK?$AAE?$AAY?$AA_?$AAL?$AAO?$AAC?$AAA?$AAL?$AA_?$AAM?$AAA?$AAC?$AAH?$AAI?$AAN?$AAE?$AA?$AA@ 10010870     SettingsMasterOptions.obj
 0003:00000898       ??_C@_1CE@HLHNCBPM@?$AAH?$AAK?$AAE?$AAY?$AA_?$AAC?$AAU?$AAR?$AAR?$AAE?$AAN?$AAT?$AA_?$AAU?$AAS?$AAE?$AAR?$AA?$AA@ 10010898     SettingsMasterOptions.obj
 0003:000008bc       ??_C@_1CE@PACHPJFI@?$AAH?$AAK?$AAE?$AAY?$AA_?$AAC?$AAL?$AAA?$AAS?$AAS?$AAE?$AAS?$AA_?$AAR?$AAO?$AAO?$AAT?$AA?$AA@ 100108bc     SettingsMasterOptions.obj
 0003:000008e0       ??_C@_19OFICIBHH@?$AAH?$AAK?$AAC?$AAC?$AA?$AA@ 100108e0     SettingsMasterOptions.obj
 0003:000008ec       ??_C@_19GFFAIJHG@?$AAH?$AAK?$AAD?$AAD?$AA?$AA@ 100108ec     SettingsMasterOptions.obj
 0003:000008f8       ??_C@_19PNBHMJPL@?$AAH?$AAK?$AAP?$AAD?$AA?$AA@ 100108f8     SettingsMasterOptions.obj
 0003:00000904       ??_C@_17PJOJPMPB@?$AAH?$AAK?$AAU?$AA?$AA@ 10010904     SettingsMasterOptions.obj
 0003:0000090c       ??_C@_19PEALEEJB@?$AAH?$AAK?$AAL?$AAM?$AA?$AA@ 1001090c     SettingsMasterOptions.obj
 0003:00000918       ??_C@_19JAPAIJDE@?$AAH?$AAK?$AAC?$AAU?$AA?$AA@ 10010918     SettingsMasterOptions.obj
 0003:00000924       ??_C@_19NCHLBIN@?$AAH?$AAK?$AAC?$AAR?$AA?$AA@ 10010924     SettingsMasterOptions.obj
 0003:00000930       ?rgszNeverDelete@CRegParser@ATL@@1QBQBGB 10010930     SettingsMasterOptions.obj
 0003:00000960       ??_C@_1BA@JIHHIEDE@?$AAT?$AAy?$AAp?$AAe?$AAL?$AAi?$AAb?$AA?$AA@ 10010960     SettingsMasterOptions.obj
 0003:00000970       ??_C@_1BC@EAHCMADO@?$AAS?$AAo?$AAf?$AAt?$AAw?$AAa?$AAr?$AAe?$AA?$AA@ 10010970     SettingsMasterOptions.obj
 0003:00000984       ??_C@_1O@GBFINDKL@?$AAS?$AAY?$AAS?$AAT?$AAE?$AAM?$AA?$AA@ 10010984     SettingsMasterOptions.obj
 0003:00000994       ??_C@_1BC@IBECJAAI@?$AAS?$AAE?$AAC?$AAU?$AAR?$AAI?$AAT?$AAY?$AA?$AA@ 10010994     SettingsMasterOptions.obj
 0003:000009a8       ??_C@_17OMAOINJK@?$AAS?$AAA?$AAM?$AA?$AA@ 100109a8     SettingsMasterOptions.obj
 0003:000009b0       ??_C@_19HLLLM@?$AAM?$AAi?$AAm?$AAe?$AA?$AA@ 100109b0     SettingsMasterOptions.obj
 0003:000009bc       ??_C@_1BC@MAICEHGI@?$AAH?$AAa?$AAr?$AAd?$AAw?$AAa?$AAr?$AAe?$AA?$AA@ 100109bc     SettingsMasterOptions.obj
 0003:000009d0       ??_C@_1BE@EKPAFMCP@?$AAI?$AAn?$AAt?$AAe?$AAr?$AAf?$AAa?$AAc?$AAe?$AA?$AA@ 100109d0     SettingsMasterOptions.obj
 0003:000009e4       ??_C@_1BC@NKMMNMGL@?$AAF?$AAi?$AAl?$AAe?$AAT?$AAy?$AAp?$AAe?$AA?$AA@ 100109e4     SettingsMasterOptions.obj
 0003:000009f8       ??_C@_1CK@OEKPKBNA@?$AAC?$AAo?$AAm?$AAp?$AAo?$AAn?$AAe?$AAn?$AAt?$AA?5?$AAC?$AAa?$AAt?$AAe?$AAg?$AAo?$AAr?$AAi?$AAe?$AAs@ 100109f8     SettingsMasterOptions.obj
 0003:00000a24       ??_C@_1O@JDLOHAN@?$AAD?$AAe?$AAl?$AAe?$AAt?$AAe?$AA?$AA@ 10010a24     SettingsMasterOptions.obj
 0003:00000a34       ??_C@_1BC@GCKHIPE@?$AAN?$AAo?$AAR?$AAe?$AAm?$AAo?$AAv?$AAe?$AA?$AA@ 10010a34     SettingsMasterOptions.obj
 0003:00000a48       ??_C@_1BI@JFAIJMHL@?$AAF?$AAo?$AAr?$AAc?$AAe?$AAR?$AAe?$AAm?$AAo?$AAv?$AAe?$AA?$AA@ 10010a48     SettingsMasterOptions.obj
 0003:00000a60       ??_C@_17LLMMEOJD@?$AAV?$AAa?$AAl?$AA?$AA@ 10010a60     SettingsMasterOptions.obj
 0003:00000a68       ??_C@_13OPKGLAFF@?$AAB?$AA?$AA@ 10010a68     SettingsMasterOptions.obj
 0003:00000a6c       ??_C@_13MKMNOPIJ@?$AAD?$AA?$AA@ 10010a6c     SettingsMasterOptions.obj
 0003:00000a70       ??_C@_13LHMFKAAD@?$AAM?$AA?$AA@ 10010a70     SettingsMasterOptions.obj
 0003:00000a74       ??_C@_13HADIAKP@?$AAS?$AA?$AA@ 10010a74     SettingsMasterOptions.obj
 0003:00000a78       ??_C@_1M@EJNEECMJ@?$AAA?$AAp?$AAp?$AAI?$AAD?$AA?$AA@ 10010a78     SettingsMasterOptions.obj
 0003:00000a84       ??_C@_1M@KANJNLFF@?$AAC?$AAL?$AAS?$AAI?$AAD?$AA?$AA@ 10010a84     SettingsMasterOptions.obj
 0003:00000a90       __GUID_cb2f6722_ab3a_11d2_9c40_00c04fa30a3e 10010a90     SettingsMasterOptions.obj
 0003:00000aa0       __GUID_cb2f6723_ab3a_11d2_9c40_00c04fa30a3e 10010aa0     SettingsMasterOptions.obj
 0003:00000ab0       __GUID_d30c1661_cdaf_11d0_8a3e_00c04fc9e26e 10010ab0     SettingsMasterOptions.obj
 0003:00000ac0       __GUID_8856f961_340a_11d0_a96b_00c04fd705a2 10010ac0     SettingsMasterOptions.obj
 0003:00000ad0       __GUID_25336920_03f9_11cf_8fd0_00aa00686f13 10010ad0     SettingsMasterOptions.obj
 0003:00000ae0       ??_7?$CComContainedObject@VCSettingsMasterOptions@@@ATL@@6B?$CAxDialogImpl@VCSettingsMasterOptions@@VCWindow@ATL@@@1@@ 10010ae0     SettingsMasterOptions.obj
 0003:00000af4       ??_7?$CComContainedObject@VCSettingsMasterOptions@@@ATL@@6BCComControlBase@1@@ 10010af4     SettingsMasterOptions.obj
 0003:00000b08       ??_7?$CComContainedObject@VCSettingsMasterOptions@@@ATL@@6B?$IProvideClassInfo2Impl@$1?CLSID_SettingsMasterOptions@@3U_GUID@@B$0A@$1?LIBID_SettingsMasterShimLib@@3U2@B$00$0A@VCComTypeInfoHolder@ATL@@@1@@ 10010b08     SettingsMasterOptions.obj
 0003:00000b1c       ??_7?$CComContainedObject@VCSettingsMasterOptions@@@ATL@@6B?$IDataObjectImpl@VCSettingsMasterOptions@@@1@@ 10010b1c     SettingsMasterOptions.obj
 0003:00000b4c       ??_7?$CComContainedObject@VCSettingsMasterOptions@@@ATL@@6B?$IQuickActivateImpl@VCSettingsMasterOptions@@@1@@ 10010b4c     SettingsMasterOptions.obj
 0003:00000b64       ??_7?$CComContainedObject@VCSettingsMasterOptions@@@ATL@@6B?$ISpecifyPropertyPagesImpl@VCSettingsMasterOptions@@@1@@ 10010b64     SettingsMasterOptions.obj
 0003:00000b74       ??_7?$CComContainedObject@VCSettingsMasterOptions@@@ATL@@6B?$IPersistStorageImpl@VCSettingsMasterOptions@@@1@@ 10010b74     SettingsMasterOptions.obj
 0003:00000b9c       ??_7?$CComContainedObject@VCSettingsMasterOptions@@@ATL@@6BISupportErrorInfo@@@ 10010b9c     SettingsMasterOptions.obj
 0003:00000bac       ??_7?$CComContainedObject@VCSettingsMasterOptions@@@ATL@@6B?$IOleInPlaceObjectWindowlessImpl@VCSettingsMasterOptions@@@1@@ 10010bac     SettingsMasterOptions.obj
 0003:00000bd8       ??_7?$CComContainedObject@VCSettingsMasterOptions@@@ATL@@6B?$IViewObjectExImpl@VCSettingsMasterOptions@@@1@@ 10010bd8     SettingsMasterOptions.obj
 0003:00000c14       ??_7?$CComContainedObject@VCSettingsMasterOptions@@@ATL@@6B?$IOleInPlaceActiveObjectImpl@VCSettingsMasterOptions@@@1@@ 10010c14     SettingsMasterOptions.obj
 0003:00000c40       ??_7?$CComContainedObject@VCSettingsMasterOptions@@@ATL@@6B?$IOleObjectImpl@VCSettingsMasterOptions@@@1@@ 10010c40     SettingsMasterOptions.obj
 0003:00000ca0       ??_7?$CComContainedObject@VCSettingsMasterOptions@@@ATL@@6B?$IOleControlImpl@VCSettingsMasterOptions@@@1@@ 10010ca0     SettingsMasterOptions.obj
 0003:00000cbc       ??_7?$CComContainedObject@VCSettingsMasterOptions@@@ATL@@6B?$IPersistStreamInitImpl@VCSettingsMasterOptions@@@1@@ 10010cbc     SettingsMasterOptions.obj
 0003:00000ce0       ??_7?$CComContainedObject@VCSettingsMasterOptions@@@ATL@@6B?$IDispatchImpl@UIDTToolsOptionsPage@EnvDTE@@$1?IID_IDTToolsOptionsPage@2@3U_GUID@@B$1?LIBID_EnvDTE@2@3U4@B$06$0A@VCComTypeInfoHolder@ATL@@@1@@ 10010ce0     SettingsMasterOptions.obj
 0003:00000d14       ??_7?$CComAggObject@VCSettingsMasterOptions@@@ATL@@6B@ 10010d14     SettingsMasterOptions.obj
 0003:00000d24       ??_7IDTToolsOptionsPage@EnvDTE@@6B@ 10010d24     SettingsMasterOptions.obj
 0003:00000d54       ??_7?$CComObject@VCSettingsMasterOptions@@@ATL@@6B?$CAxDialogImpl@VCSettingsMasterOptions@@VCWindow@ATL@@@1@@ 10010d54     SettingsMasterOptions.obj
 0003:00000d68       ??_7?$CComObject@VCSettingsMasterOptions@@@ATL@@6BCComControlBase@1@@ 10010d68     SettingsMasterOptions.obj
 0003:00000d7c       ??_7?$CComObject@VCSettingsMasterOptions@@@ATL@@6B?$IProvideClassInfo2Impl@$1?CLSID_SettingsMasterOptions@@3U_GUID@@B$0A@$1?LIBID_SettingsMasterShimLib@@3U2@B$00$0A@VCComTypeInfoHolder@ATL@@@1@@ 10010d7c     SettingsMasterOptions.obj
 0003:00000d90       ??_7?$CComObject@VCSettingsMasterOptions@@@ATL@@6B?$IDataObjectImpl@VCSettingsMasterOptions@@@1@@ 10010d90     SettingsMasterOptions.obj
 0003:00000dc0       ??_7?$CComObject@VCSettingsMasterOptions@@@ATL@@6B?$IQuickActivateImpl@VCSettingsMasterOptions@@@1@@ 10010dc0     SettingsMasterOptions.obj
 0003:00000dd8       ??_7?$CComObject@VCSettingsMasterOptions@@@ATL@@6B?$ISpecifyPropertyPagesImpl@VCSettingsMasterOptions@@@1@@ 10010dd8     SettingsMasterOptions.obj
 0003:00000de8       ??_7?$CComObject@VCSettingsMasterOptions@@@ATL@@6B?$IPersistStorageImpl@VCSettingsMasterOptions@@@1@@ 10010de8     SettingsMasterOptions.obj
 0003:00000e10       ??_7?$CComObject@VCSettingsMasterOptions@@@ATL@@6BISupportErrorInfo@@@ 10010e10     SettingsMasterOptions.obj
 0003:00000e20       ??_7?$CComObject@VCSettingsMasterOptions@@@ATL@@6B?$IOleInPlaceObjectWindowlessImpl@VCSettingsMasterOptions@@@1@@ 10010e20     SettingsMasterOptions.obj
 0003:00000e4c       ??_7?$CComObject@VCSettingsMasterOptions@@@ATL@@6B?$IViewObjectExImpl@VCSettingsMasterOptions@@@1@@ 10010e4c     SettingsMasterOptions.obj
 0003:00000e88       ??_7?$CComObject@VCSettingsMasterOptions@@@ATL@@6B?$IOleInPlaceActiveObjectImpl@VCSettingsMasterOptions@@@1@@ 10010e88     SettingsMasterOptions.obj
 0003:00000eb0       ??_7?$CComObject@VCSettingsMasterOptions@@@ATL@@6B?$IOleObjectImpl@VCSettingsMasterOptions@@@1@@ 10010eb0     SettingsMasterOptions.obj
 0003:00000f10       ??_7?$CComObject@VCSettingsMasterOptions@@@ATL@@6B?$IOleControlImpl@VCSettingsMasterOptions@@@1@@ 10010f10     SettingsMasterOptions.obj
 0003:00000f2c       ??_7?$CComObject@VCSettingsMasterOptions@@@ATL@@6B?$IPersistStreamInitImpl@VCSettingsMasterOptions@@@1@@ 10010f2c     SettingsMasterOptions.obj
 0003:00000f50       ??_7?$CComObject@VCSettingsMasterOptions@@@ATL@@6B?$IDispatchImpl@UIDTToolsOptionsPage@EnvDTE@@$1?IID_IDTToolsOptionsPage@2@3U_GUID@@B$1?LIBID_EnvDTE@2@3U4@B$06$0A@VCComTypeInfoHolder@ATL@@@1@@ 10010f50     SettingsMasterOptions.obj
 0003:00000f84       ??_7?$CComPolyObject@VCAxHostWindow@ATL@@@ATL@@6B@ 10010f84     SettingsMasterOptions.obj
 0003:00000f94       ??_7?$CComObject@V?$CComEnum@UIEnumUnknown@@$1?_GUID_00000100_0000_0000_c000_000000000046@@3U__s_GUID@@BPAUIUnknown@@V?$_CopyInterface@UIUnknown@@@ATL@@VCComSingleThreadModel@6@@ATL@@@ATL@@6B@ 10010f94     SettingsMasterOptions.obj
 0003:00000fb4       ??_7?$CComObject@VCAxFrameWindow@ATL@@@ATL@@6BIOleInPlaceFrame@@@ 10010fb4     SettingsMasterOptions.obj
 0003:00000ff0       ??_7?$CComObject@VCAxFrameWindow@ATL@@@ATL@@6B?$CWindowImpl@VCAxFrameWindow@ATL@@VCWindow@2@V?$CWinTraits@$0FGAAAAAA@$0A@@2@@1@@ 10010ff0     SettingsMasterOptions.obj
 0003:00001000       ??_7?$CComCompositeControl@VCSettingsMasterOptions@@@ATL@@6B?$CAxDialogImpl@VCSettingsMasterOptions@@VCWindow@ATL@@@1@@ 10011000     SettingsMasterOptions.obj
 0003:00001014       ??_7?$CComCompositeControl@VCSettingsMasterOptions@@@ATL@@6BCComControlBase@1@@ 10011014     SettingsMasterOptions.obj
 0003:00001028       ??_7?$CComContainedObject@VCAxHostWindow@ATL@@@ATL@@6B?$IDispatchImpl@UIAxWinAmbientDispatchEx@@$1?_GUID_b2d0778b_ac99_4c58_a5c8_e7724e5316b5@@3U__s_GUID@@B$1?m_libid@CAtlModule@ATL@@2U_GUID@@A$0PPPP@$0PPPP@VCComTypeInfoHolder@ATL@@@1@@ 10011028     SettingsMasterOptions.obj
 0003:000010b8       ??_7?$CComContainedObject@VCAxHostWindow@ATL@@@ATL@@6BIDocHostUIHandler@@@ 100110b8     SettingsMasterOptions.obj
 0003:00001100       ??_7?$CComContainedObject@VCAxHostWindow@ATL@@@ATL@@6BIAdviseSink@@@ 10011100     SettingsMasterOptions.obj
 0003:00001120       ??_7?$CComContainedObject@VCAxHostWindow@ATL@@@ATL@@6BIServiceProvider@@@ 10011120     SettingsMasterOptions.obj
 0003:00001130       ??_7?$CComContainedObject@VCAxHostWindow@ATL@@@ATL@@6B?$IObjectWithSiteImpl@VCAxHostWindow@ATL@@@1@@ 10011130     SettingsMasterOptions.obj
 0003:00001148       ??_7?$CComContainedObject@VCAxHostWindow@ATL@@@ATL@@6BIOleContainer@@@ 10011148     SettingsMasterOptions.obj
 0003:00001160       ??_7?$CComContainedObject@VCAxHostWindow@ATL@@@ATL@@6BIOleControlSite@@@ 10011160     SettingsMasterOptions.obj
 0003:00001188       ??_7?$CComContainedObject@VCAxHostWindow@ATL@@@ATL@@6BIOleInPlaceSiteWindowless@@@ 10011188     SettingsMasterOptions.obj
 0003:00001200       ??_7?$CComContainedObject@VCAxHostWindow@ATL@@@ATL@@6BIOleClientSite@@@ 10011200     SettingsMasterOptions.obj
 0003:00001224       ??_7?$CComContainedObject@VCAxHostWindow@ATL@@@ATL@@6BIAxWinHostWindowLic@@@ 10011224     SettingsMasterOptions.obj
 0003:00001250       ??_7?$CComContainedObject@VCAxHostWindow@ATL@@@ATL@@6B?$CWindowImpl@VCAxHostWindow@ATL@@VCWindow@2@V?$CWinTraits@$0FGAAAAAA@$0A@@2@@1@@ 10011250     SettingsMasterOptions.obj
 0003:00001264       ??_7?$CComObject@VCAxUIWindow@ATL@@@ATL@@6BIOleInPlaceUIWindow@@@ 10011264     SettingsMasterOptions.obj
 0003:00001288       ??_7?$CComObject@VCAxUIWindow@ATL@@@ATL@@6B?$CWindowImpl@VCAxUIWindow@ATL@@VCWindow@2@V?$CWinTraits@$0FGAAAAAA@$0A@@2@@1@@ 10011288     SettingsMasterOptions.obj
 0003:00001298       ??_7?$CComObjectCached@VCComClassFactory@ATL@@@ATL@@6B@ 10011298     SettingsMasterOptions.obj
 0003:000012b0       _LIBID_EnvDTE              100112b0     SettingsMasterOptions.obj
 0003:000012c0       _IID_IDTToolsOptionsPage   100112c0     SettingsMasterOptions.obj
 0003:000012c0       __GUID_bdcaf240_2692_4713_902a_b110b1d0f100 100112c0     SettingsMasterOptions.obj
 0003:000012d0       ?_entries@?1??_GetEntries@?$CComEnum@UIEnumUnknown@@$1?_GUID_00000100_0000_0000_c000_000000000046@@3U__s_GUID@@BPAUIUnknown@@V?$_CopyInterface@UIUnknown@@@ATL@@VCComSingleThreadModel@6@@ATL@@SGPBU_ATL_INTMAP_ENTRY@3@XZ@4QBU43@B 100112d0     SettingsMasterOptions.obj
 0003:000012e8       __GUID_00000100_0000_0000_c000_000000000046 100112e8     SettingsMasterOptions.obj
 0003:000012f8       ??_C@_1CM@JLHALFCJ@?$AAA?$AAT?$AAL?$AA?5?$AAC?$AAo?$AAm?$AAp?$AAo?$AAs?$AAi?$AAt?$AAe?$AA?5?$AAC?$AAo?$AAn?$AAt?$AAr?$AAo@ 100112f8     SettingsMasterOptions.obj
 0003:00001324       ??_C@_1BC@ENICKDH@?$AAC?$AAo?$AAn?$AAt?$AAe?$AAn?$AAt?$AAs?$AA?$AA@ 10011324     SettingsMasterOptions.obj
 0003:00001338       ??_C@_1BM@PFJJOBHC@?$AAA?$AAt?$AAl?$AAA?$AAx?$AAW?$AAi?$AAn?$AAL?$AAi?$AAc?$AA7?$AA1?$AA?$AA@ 10011338     SettingsMasterOptions.obj
 0003:00001354       ??_C@_1BC@NCJMKIKC@?$AAf?$AAi?$AAl?$AAe?$AA?3?$AA?1?$AA?1?$AA?1?$AA?$AA@ 10011354     SettingsMasterOptions.obj
 0003:00001368       ??_C@_1BC@FNIEGDMB@?$AAC?$AAo?$AAd?$AAe?$AAB?$AAa?$AAs?$AAe?$AA?$AA@ 10011368     SettingsMasterOptions.obj
 0003:0000137c       ??_C@_1M@OAHBGIFG@?$AAC?$AAl?$AAa?$AAs?$AAs?$AA?$AA@ 1001137c     SettingsMasterOptions.obj
 0003:00001388       ??_C@_1HI@KEKPHIJB@?$AAC?$AAL?$AAS?$AAI?$AAD?$AA?2?$AA?$HL?$AA7?$AAE?$AA1?$AA7?$AA7?$AAB?$AAE?$AA2?$AA?9?$AA5?$AA3?$AA9?$AA1@ 10011388     SettingsMasterOptions.obj
 0003:00001400       __GUID_86385f47_62a1_489c_afbc_35bdbb6f1fb8 10011400     SettingsMasterOptions.obj
 0003:00001410       ??_C@_17IOIMFDBO@?$AA_?$AAc?$AAy?$AA?$AA@ 10011410     SettingsMasterOptions.obj
 0003:00001418       ??_C@_17DGDADEHL@?$AA_?$AAc?$AAx?$AA?$AA@ 10011418     SettingsMasterOptions.obj
 0003:00001420       ?_entries@?1??_GetEntries@CSettingsMasterOptions@@SGPBU_ATL_INTMAP_ENTRY@ATL@@XZ@4QBU34@B 10011420     SettingsMasterOptions.obj
 0003:0000151c       __GUID_a6bc3ac0_dbaa_11ce_9de3_00aa004bb851 1001151c     SettingsMasterOptions.obj
 0003:0000152c       __GUID_b196b283_bab4_101a_b69c_00aa00341d07 1001152c     SettingsMasterOptions.obj
 0003:0000153c       __GUID_0000010e_0000_0000_c000_000000000046 1001153c     SettingsMasterOptions.obj
 0003:0000154c       __GUID_0000010a_0000_0000_c000_000000000046 1001154c     SettingsMasterOptions.obj
 0003:0000155c       __GUID_cf51ed10_62fe_11cf_bf86_00a0c9034836 1001155c     SettingsMasterOptions.obj
 0003:0000156c       __GUID_b196b28b_bab4_101a_b69c_00aa00341d07 1001156c     SettingsMasterOptions.obj
 0003:0000157c       __GUID_df0b3d60_548f_101b_8e65_08002b2bd119 1001157c     SettingsMasterOptions.obj
 0003:0000158c       __GUID_0000010c_0000_0000_c000_000000000046 1001158c     SettingsMasterOptions.obj
 0003:0000159c       __GUID_7fd52380_4e07_101b_ae2d_08002b2ec713 1001159c     SettingsMasterOptions.obj
 0003:000015ac       __GUID_00000112_0000_0000_c000_000000000046 100115ac     SettingsMasterOptions.obj
 0003:000015bc       __GUID_b196b288_bab4_101a_b69c_00aa00341d07 100115bc     SettingsMasterOptions.obj
 0003:000015cc       __GUID_00000117_0000_0000_c000_000000000046 100115cc     SettingsMasterOptions.obj
 0003:000015dc       __GUID_00000113_0000_0000_c000_000000000046 100115dc     SettingsMasterOptions.obj
 0003:000015ec       __GUID_1c2056cc_5ef4_101b_8bc8_00aa003e3b29 100115ec     SettingsMasterOptions.obj
 0003:000015fc       __GUID_0000010d_0000_0000_c000_000000000046 100115fc     SettingsMasterOptions.obj
 0003:0000160c       __GUID_00000127_0000_0000_c000_000000000046 1001160c     SettingsMasterOptions.obj
 0003:0000161c       __GUID_3af24292_0c96_11ce_a0cf_00aa00600ab8 1001161c     SettingsMasterOptions.obj
 0003:0000162c       ??_C@_15KNBIKKIN@?$AA?$CF?$AAd?$AA?$AA@ 1001162c     SettingsMasterOptions.obj
 0003:00001634       ??_C@_1BA@COHBFLAK@?$AAO?$AAL?$AAE?$AAM?$AAI?$AAS?$AAC?$AA?$AA@ 10011634     SettingsMasterOptions.obj
 0003:00001644       ??_C@_1BA@PICGEGJB@?$AAD?$AAI?$AAS?$AAP?$AAL?$AAA?$AAY?$AA?$AA@ 10011644     SettingsMasterOptions.obj
 0003:00001654       ??_C@_1BE@DOFEADIM@?$AAA?$AAT?$AAL?$AA?3?$AA?$CF?$AA8?$AA?4?$AA8?$AAX?$AA?$AA@ 10011654     SettingsMasterOptions.obj
 0003:00001668       ??_C@_1CC@NLKMIAFC@?$AAW?$AAM?$AA_?$AAA?$AAT?$AAL?$AAG?$AAE?$AAT?$AAC?$AAO?$AAN?$AAT?$AAR?$AAO?$AAL?$AA?$AA@ 10011668     SettingsMasterOptions.obj
 0003:0000168c       ??_C@_1BM@JBPKDEJM@?$AAW?$AAM?$AA_?$AAA?$AAT?$AAL?$AAG?$AAE?$AAT?$AAH?$AAO?$AAS?$AAT?$AA?$AA@ 1001168c     SettingsMasterOptions.obj
 0003:000016a8       ??_C@_1M@IJFAIKMG@?$AAA?$AAX?$AAW?$AAI?$AAN?$AA?$AA@ 100116a8     SettingsMasterOptions.obj
 0003:000016b4       ??_C@_1BG@FIBFEEFK@?$AAA?$AAt?$AAl?$AAA?$AAx?$AAW?$AAi?$AAn?$AA7?$AA1?$AA?$AA@ 100116b4     SettingsMasterOptions.obj
 0003:000016d0       ?_entries@?1??_GetEntries@CAxHostWindow@ATL@@SGPBU_ATL_INTMAP_ENTRY@3@XZ@4QBU43@B 100116d0     SettingsMasterOptions.obj
 0003:0000179c       __GUID_0000010f_0000_0000_c000_000000000046 1001179c     SettingsMasterOptions.obj
 0003:000017ac       __GUID_bd3f23c0_d43e_11cf_893b_00aa00bdce1a 100117ac     SettingsMasterOptions.obj
 0003:000017bc       __GUID_b6ea2051_048a_11d1_82b9_00c04fb9942e 100117bc     SettingsMasterOptions.obj
 0003:000017cc       __GUID_b2d0778b_ac99_4c58_a5c8_e7724e5316b5 100117cc     SettingsMasterOptions.obj
 0003:000017dc       __GUID_6d5140c1_7436_11ce_8034_00aa006009fa 100117dc     SettingsMasterOptions.obj
 0003:000017ec       __GUID_fc4801a3_2ba9_11cf_a229_00aa003d7352 100117ec     SettingsMasterOptions.obj
 0003:000017fc       __GUID_0000011b_0000_0000_c000_000000000046 100117fc     SettingsMasterOptions.obj
 0003:0000180c       __GUID_b196b289_bab4_101a_b69c_00aa00341d07 1001180c     SettingsMasterOptions.obj
 0003:0000181c       __GUID_00000119_0000_0000_c000_000000000046 1001181c     SettingsMasterOptions.obj
 0003:0000182c       __GUID_9c2cad80_3424_11cf_b670_00aa004cd6d8 1001182c     SettingsMasterOptions.obj
 0003:0000183c       __GUID_922eada0_3424_11cf_b670_00aa004cd6d8 1001183c     SettingsMasterOptions.obj
 0003:0000184c       __GUID_00000118_0000_0000_c000_000000000046 1001184c     SettingsMasterOptions.obj
 0003:0000185c       __GUID_3935bda8_4ed9_495c_8650_e01fc1e38a4b 1001185c     SettingsMasterOptions.obj
 0003:0000186c       __GUID_b6ea2050_048a_11d1_82b9_00c04fb9942e 1001186c     SettingsMasterOptions.obj
 0003:0000187c       ??_C@_1CA@DCFIAPHF@?$AAA?$AAX?$AAW?$AAI?$AAN?$AA?5?$AAU?$AAI?$AA?5?$AAW?$AAi?$AAn?$AAd?$AAo?$AAw?$AA?$AA@ 1001187c     SettingsMasterOptions.obj
 0003:0000189c       ?_entries@?1??_GetEntries@CAxUIWindow@ATL@@SGPBU_ATL_INTMAP_ENTRY@3@XZ@4QBU43@B 1001189c     SettingsMasterOptions.obj
 0003:000018c0       ??_C@_1CG@HJNEDPEL@?$AAA?$AAX?$AAW?$AAI?$AAN?$AA?5?$AAF?$AAr?$AAa?$AAm?$AAe?$AA?5?$AAW?$AAi?$AAn?$AAd?$AAo?$AAw?$AA?$AA@ 100118c0     SettingsMasterOptions.obj
 0003:000018e8       ?_entries@?1??_GetEntries@CAxFrameWindow@ATL@@SGPBU_ATL_INTMAP_ENTRY@3@XZ@4QBU43@B 100118e8     SettingsMasterOptions.obj
 0003:00001918       __GUID_00000114_0000_0000_c000_000000000046 10011918     SettingsMasterOptions.obj
 0003:00001928       __GUID_00000115_0000_0000_c000_000000000046 10011928     SettingsMasterOptions.obj
 0003:00001938       __GUID_00000116_0000_0000_c000_000000000046 10011938     SettingsMasterOptions.obj
 0003:00001948       ??_C@_13EBCNDICG@?$AA?3?$AA?$AA@ 10011948     SettingsMasterOptions.obj
 0003:0000194c       ??_C@_1BK@GNOGOAOP@?$AAC?$AAO?$AAM?$AAC?$AAT?$AAL?$AA3?$AA2?$AA?4?$AAD?$AAL?$AAL?$AA?$AA@ 1001194c     SettingsMasterOptions.obj
 0003:00001968       ??_C@_1GK@BCKENLDE@?$AAA?$AAB?$AAC?$AAD?$AAE?$AAF?$AAG?$AAH?$AAI?$AAJ?$AAK?$AAL?$AAM?$AAN?$AAO?$AAP?$AAQ?$AAR?$AAS?$AAT@ 10011968     SettingsMasterOptions.obj
 0003:000019d4       ??_C@_1O@PGKMPIBK@?$AA?$CD?$AA3?$AA2?$AA7?$AA7?$AA0?$AA?$AA@ 100119d4     SettingsMasterOptions.obj
 0003:000019e4       __GUID_0002e012_0000_0000_c000_000000000046 100119e4     SettingsMasterShim.obj
 0003:000019f4       __GUID_00000146_0000_0000_c000_000000000046 100119f4     SettingsMasterShim.obj
 0003:00001a04       ??_C@_1M@PPPPCDEP@?$AAA?$AAP?$AAP?$AAI?$AAD?$AA?$AA@ 10011a04     SettingsMasterShim.obj
 0003:00001a10       ??_C@_1DA@BIHALFED@?$AA?2?$AAI?$AAm?$AAp?$AAl?$AAe?$AAm?$AAe?$AAn?$AAt?$AAe?$AAd?$AA?5?$AAC?$AAa?$AAt?$AAe?$AAg?$AAo?$AAr@ 10011a10     SettingsMasterShim.obj
 0003:00001a40       ??_C@_1CK@IFBKBFAA@?$AA?2?$AAR?$AAe?$AAq?$AAu?$AAi?$AAr?$AAe?$AAd?$AA?5?$AAC?$AAa?$AAt?$AAe?$AAg?$AAo?$AAr?$AAi?$AAe?$AAs@ 10011a40     SettingsMasterShim.obj
 0003:00001a6c       ??_C@_1O@FHBGLCIO@?$AAC?$AAL?$AAS?$AAI?$AAD?$AA?2?$AA?$AA@ 10011a6c     SettingsMasterShim.obj
 0003:00001a7c       ??_C@_19ILOCMLCJ@?$AA?4?$AAt?$AAl?$AAb?$AA?$AA@ 10011a7c     SettingsMasterShim.obj
 0003:00001a88       _CLSID_StdGlobalInterfaceTable 10011a88     SettingsMasterShim.obj
 0003:00001a98       ??_7CSettingsMasterShimModule@@6B@ 10011a98     SettingsMasterShim.obj
 0003:00001ab0       ??_C@_1EO@PKJMINLP@?$AA?$HL?$AA1?$AA7?$AA7?$AAE?$AA4?$AAC?$AA4?$AAF?$AA?9?$AA1?$AA7?$AA2?$AA8?$AA?9?$AA4?$AAE?$AA6?$AAA?$AA?9@ 10011ab0     SettingsMasterShim.obj
 0003:00001b10       __load_config_used         10011b10     MSVCRT:loadcfg.obj
 0003:00001ba4       ??_R1A@?0A@A@type_info@@8  10011ba4     MSVCRT:ti_inst.obj
 0003:00001bbc       ??_R2type_info@@8          10011bbc     MSVCRT:ti_inst.obj
 0003:00001bc4       ??_R3type_info@@8          10011bc4     MSVCRT:ti_inst.obj
 0003:00001bd4       ??_R4type_info@@6B@        10011bd4     MSVCRT:ti_inst.obj
 0003:00001bf0       ___safe_se_handler_table   10011bf0     <linker-defined>
 0003:00001cd0       ___rtc_iaa                 10011cd0     MSVCRT:initsect.obj
 0003:00001cd4       ___rtc_izz                 10011cd4     MSVCRT:initsect.obj
 0003:00001cd8       ___rtc_taa                 10011cd8     MSVCRT:initsect.obj
 0003:00001cdc       ___rtc_tzz                 10011cdc     MSVCRT:initsect.obj
 0003:00001ce0       __TI1?AVCAtlException@ATL@@ 10011ce0     SettingsMasterOptions.obj
 0003:00001cf0       __CTA1?AVCAtlException@ATL@@ 10011cf0     SettingsMasterOptions.obj
 0003:00001cf8       __CT??_R0?AVCAtlException@ATL@@@84 10011cf8     SettingsMasterOptions.obj
 0003:00002958       ___pobjMapEntryFirst       10012958     stdafx.obj
 0003:0000295c       ___pobjMap_CSettingsMasterOptions 1001295c     SettingsMasterOptions.obj
 0003:00002960       ___pobjMapEntryLast        10012960     stdafx.obj
 0003:00002964       __IMPORT_DESCRIPTOR_mscoree 10012964     mscoree:mscoree.dll
 0003:00002978       __IMPORT_DESCRIPTOR_KERNEL32 10012978     kernel32:KERNEL32.dll
 0003:0000298c       __IMPORT_DESCRIPTOR_USER32 1001298c     user32:USER32.dll
 0003:000029a0       __IMPORT_DESCRIPTOR_GDI32  100129a0     gdi32:GDI32.dll
 0003:000029b4       __IMPORT_DESCRIPTOR_ADVAPI32 100129b4     advapi32:ADVAPI32.dll
 0003:000029c8       __IMPORT_DESCRIPTOR_ole32  100129c8     ole32:ole32.dll
 0003:000029dc       __IMPORT_DESCRIPTOR_OLEAUT32 100129dc     oleaut32:OLEAUT32.dll
 0003:000029f0       __IMPORT_DESCRIPTOR_RPCRT4 100129f0     rpcrt4:RPCRT4.dll
 0003:00002a04       __IMPORT_DESCRIPTOR_MSVCR71 10012a04     MSVCRT:MSVCR71.dll
 0003:00002a18       __IMPORT_DESCRIPTOR_SHLWAPI 10012a18     shlwapi:SHLWAPI.dll
 0003:00002a2c       __NULL_IMPORT_DESCRIPTOR   10012a2c     mscoree:mscoree.dll
 0004:00000000       ___xc_a                    10014000     MSVCRT:cinitexe.obj
 0004:00000018       ___xc_z                    10014018     MSVCRT:cinitexe.obj
 0004:0000001c       ___xi_a                    1001401c     MSVCRT:cinitexe.obj
 0004:00000020       ___xi_z                    10014020     MSVCRT:cinitexe.obj
 0004:00000030       ??_R0?AVtype_info@@@8      10014030     MSVCRT:ti_inst.obj
 0004:00000048       ___security_cookie         10014048     MSVCRT:seccook.obj
 0004:0000004c       __ISettingsMasterOptionsProxyVtbl 1001404c     dlldatax.obj
 0004:00000070       __SettingsMasterShim_ProxyVtblList 10014070     dlldatax.obj
 0004:00000078       __ISettingsMasterOptionsStubVtbl 10014078     dlldatax.obj
 0004:000000b0       __SettingsMasterShim_StubVtblList 100140b0     dlldatax.obj
 0004:000000b8       __SettingsMasterShim_BaseIIDList 100140b8     dlldatax.obj
 0004:000000c0       _aProxyFileList            100140c0     dlldatax.obj
 0004:000000dc       ?k_HOSTCLSID@@3PBGB        100140dc     SettingsMasterOptions.obj
 0004:000000e0       ??_R0?AVCAtlException@ATL@@@8 100140e0     SettingsMasterOptions.obj
 0004:00000100       ?g_pfnGetThreadACP@ATL@@3P6GIXZA 10014100     SettingsMasterOptions.obj
 0004:00000104       ?_tih@?$IProvideClassInfo2Impl@$1?CLSID_SettingsMasterOptions@@3U_GUID@@B$0A@$1?LIBID_SettingsMasterShimLib@@3U2@B$00$0A@VCComTypeInfoHolder@ATL@@@ATL@@1VCComTypeInfoHolder@2@A 10014104     SettingsMasterOptions.obj
 0004:00000120       ?_tih@?$IDispatchImpl@UIDTToolsOptionsPage@EnvDTE@@$1?IID_IDTToolsOptionsPage@2@3U_GUID@@B$1?LIBID_EnvDTE@2@3U4@B$06$0A@VCComTypeInfoHolder@ATL@@@ATL@@1VCComTypeInfoHolder@2@A 10014120     SettingsMasterOptions.obj
 0004:0000013c       ?_tih@?$IDispatchImpl@UIAxWinAmbientDispatchEx@@$1?_GUID_b2d0778b_ac99_4c58_a5c8_e7724e5316b5@@3U__s_GUID@@B$1?m_libid@CAtlModule@ATL@@2U_GUID@@A$0PPPP@$0PPPP@VCComTypeInfoHolder@ATL@@@ATL@@1VCComTypeInfoHolder@2@A 1001413c     SettingsMasterOptions.obj
 0004:00000158       ?wc@?1??GetWndClassInfo@?$CWindowImpl@VCAxUIWindow@ATL@@VCWindow@2@V?$CWinTraits@$0FGAAAAAA@$0A@@2@@ATL@@SAAAU_ATL_WNDCLASSINFOW@3@XZ@4U43@A 10014158     SettingsMasterOptions.obj
 0004:000001e8       ?wc@?1??GetWndClassInfo@?$CWindowImpl@VCAxFrameWindow@ATL@@VCWindow@2@V?$CWinTraits@$0FGAAAAAA@$0A@@2@@ATL@@SAAAU_ATL_WNDCLASSINFOW@3@XZ@4U43@A 100141e8     SettingsMasterOptions.obj
 0004:00000274       ?vszContents@?6??Save@?$IPersistStorageImpl@VCSettingsMasterOptions@@@ATL@@UAGJPAUIStorage@@H@Z@4PBGB 10014274     SettingsMasterOptions.obj
 0004:00000278       ?__objMap_CSettingsMasterOptions@@3U_ATL_OBJMAP_ENTRY30@ATL@@A 10014278     SettingsMasterOptions.obj
 0004:0000029c       ?arr@?1??InterfaceSupportsErrorInfo@CSettingsMasterOptions@@UAGJABU_GUID@@@Z@4PAPBU3@A 1001429c     SettingsMasterOptions.obj
 0004:000002a0       ?pPropMap@?1??GetPropertyMap@CSettingsMasterOptions@@SAPAUATL_PROPMAP_ENTRY@ATL@@XZ@4PAU34@A 100142a0     SettingsMasterOptions.obj
 0004:000002f4       ?m_dwOleMisc@?1??_GetMiscStatus@CSettingsMasterOptions@@SAKXZ@4KA 100142f4     SettingsMasterOptions.obj
 0004:000002f8       ?rcDefault@CWindow@ATL@@2UtagRECT@@A 100142f8     SettingsMasterOptions.obj
 0004:00000314       ?_AtlBaseModule@ATL@@3VCAtlBaseModule@1@A 10014314     atls:atlbase.obj
 0004:00000350       ?_AtlComModule@ATL@@3VCAtlComModule@1@A 10014350     atls:atlcommodule.obj
 0004:00000378       _gPFactory                 10014378     dlldatax.obj
 0004:00000388       _hProxyDll                 10014388     dlldatax.obj
 0004:0000038c       ?_AtlModule@@3VCSettingsMasterShimModule@@A 1001438c     SettingsMasterShim.obj
 0004:000003b8       ?map@?2??VTFromRegType@CRegParser@ATL@@KAHPBGAAG@Z@4QBUtypemap@23@B 100143b8     SettingsMasterOptions.obj
 0004:000003d8       ?_pAtlModule@ATL@@3PAVCAtlModule@1@A 100143d8     SettingsMasterOptions.obj
 0004:000003dc       ?m_bInitFailed@CAtlBaseModule@ATL@@2_NA 100143dc     SettingsMasterOptions.obj
 0004:000003e0       ?m_libid@CAtlModule@ATL@@2U_GUID@@A 100143e0     SettingsMasterOptions.obj
 0004:000003f0       ?map@?1??_GetSinkMap@CSettingsMasterOptions@@SAPBU?$_ATL_EVENT_ENTRY@VCSettingsMasterOptions@@@ATL@@XZ@4QBU34@B 100143f0     SettingsMasterOptions.obj
 0004:00000410       ?WM_ATLGETCONTROL@ATL@@3IA 10014410     SettingsMasterOptions.obj
 0004:00000414       ?WM_ATLGETHOST@ATL@@3IA    10014414     SettingsMasterOptions.obj
 0004:00000418       ?_pPerfUnRegFunc@ATL@@3P6AJXZA 10014418     SettingsMasterShim.obj
 0004:0000041c       ?_pPerfRegFunc@ATL@@3P6AJPAUHINSTANCE__@@@ZA 1001441c     SettingsMasterShim.obj
 0004:00000420       ?$S4@?2??VTFromRegType@CRegParser@ATL@@KAHPBGAAG@Z@4IA 10014420     SettingsMasterOptions.obj
 0004:00000424       ?$S5@?1??_GetSinkMap@CSettingsMasterOptions@@SAPBU?$_ATL_EVENT_ENTRY@VCSettingsMasterOptions@@@ATL@@XZ@4IA 10014424     SettingsMasterOptions.obj
 0004:00000428       ?_AtlWinModule@ATL@@3VCAtlWinModule@1@A 10014428     SettingsMasterOptions.obj
 0004:00000454       __adjust_fdiv              10014454     <common>
 0004:00000458       __pRawDllMain              10014458     <common>
 0004:0000045c       ___onexitend               1001445c     <common>
 0004:00000460       ___onexitbegin             10014460     <common>

 entry point at        0001:0000cf98

 Static symbols

 0001:000008bf       ?CreateNormalizedObject@ATL@@YAJPBGABU_GUID@@PAPAXAA_NPAG@Z 100018bf f   SettingsMasterOptions.obj
 0001:00002c17       $L172796                   10003c17 f i  CIL library: CIL module
 0001:000031ee       ?AtlAxWindowProc@ATL@@YGJPAUHWND__@@IIJ@Z 100041ee f   SettingsMasterOptions.obj
 0001:000033ca       ?AtlAxWindowProc2@ATL@@YGJPAUHWND__@@IIJ@Z 100043ca f   SettingsMasterOptions.obj
 0001:00005a15       $L177071                   10006a15 f i  CIL library: CIL module
 0001:00006cd1       $L170287                   10007cd1 f i  CIL library: CIL module
 0001:00007986       $L179980                   10008986 f i  CIL library: CIL module
 0001:00007a3a       $L179937                   10008a3a f i  CIL library: CIL module
 0001:00008469       $L175908                   10009469 f i  CIL library: CIL module
 0001:000084de       $L178392                   100094de f i  CIL library: CIL module
 0001:0000873c       $L169878                   1000973c f i  CIL library: CIL module
 0001:00008c63       $L175593                   10009c63 f i  CIL library: CIL module
 0001:0000a12a       $L175278                   1000b12a f i  CIL library: CIL module
 0001:0000a28e       $L169106                   1000b28e f i  CIL library: CIL module
 0001:0000a845       $L164829                   1000b845 f i  CIL library: CIL module
 0001:0000a876       $L164831                   1000b876 f i  CIL library: CIL module
 0001:0000aa72       $L175168                   1000ba72 f i  CIL library: CIL module
 0001:0000b71d       $L174609                   1000c71d f i  CIL library: CIL module
 0001:0000b7f7       $L174611                   1000c7f7 f i  CIL library: CIL module
 0001:0000caf5       ?AtlGetDirLen@ATL@@YGIPBG@Z 1000daf5 f   stdafx.obj
 0001:0000d2f0       _report_failure            1000e2f0 f   MSVCRT:secchk.obj
 0001:0000d41d       __ehhandler$?Add@CExpansionVector@ATL@@QAEHPBG0@Z 1000e41d f    CIL library: CIL module
 0001:0000d427       $L168352                   1000e427 f    CIL library: CIL module
 0001:0000d42f       __ehhandler$?CreateNormalizedObject@ATL@@YAJPBGABU_GUID@@PAPAXAA_NPAG@Z 1000e42f f    CIL library: CIL module
 0001:0000d439       $L169107                   1000e439 f    CIL library: CIL module
 0001:0000d443       $L169108                   1000e443 f    CIL library: CIL module
 0001:0000d44b       __ehhandler$?LoadNameCache@CComTypeInfoHolder@ATL@@QAEJPAUITypeInfo@@@Z 1000e44b f    CIL library: CIL module
 0001:0000d455       $L169241                   1000e455 f    CIL library: CIL module
 0001:0000d45d       __ehhandler$?ReadFromStream@CComVariant@ATL@@QAEJPAUIStream@@@Z 1000e45d f    CIL library: CIL module
 0001:0000d467       $L176876                   1000e467 f    CIL library: CIL module
 0001:0000d467       $L179241                   1000e467 f    CIL library: CIL module
 0001:0000d467       $L173238                   1000e467 f    CIL library: CIL module
 0001:0000d467       $L169349                   1000e467 f    CIL library: CIL module
 0001:0000d46f       __ehhandler$?BackgroundColorEnumProc@?$CComCompositeControl@VCSettingsMasterOptions@@@ATL@@SGHPAUHWND__@@J@Z 1000e46f f    CIL library: CIL module
 0001:0000d46f       __ehhandler$?TranslateAcceleratorW@?$IOleInPlaceActiveObjectImpl@VCSettingsMasterOptions@@@ATL@@UAGJPAUtagMSG@@@Z 1000e46f f    CIL library: CIL module
 0001:0000d46f       __ehhandler$?WriteToStream@CComVariant@ATL@@QAEJPAUIStream@@@Z 1000e46f f    CIL library: CIL module
 0001:0000d46f       __ehhandler$?OnMouseActivate@CAxHostWindow@ATL@@QAEJIIJAAH@Z 1000e46f f    CIL library: CIL module
 0001:0000d479       $L173135                   1000e479 f    CIL library: CIL module
 0001:0000d479       $L173189                   1000e479 f    CIL library: CIL module
 0001:0000d479       $L170652                   1000e479 f    CIL library: CIL module
 0001:0000d479       $L177874                   1000e479 f    CIL library: CIL module
 0001:0000d479       $L176836                   1000e479 f    CIL library: CIL module
 0001:0000d479       $L167220                   1000e479 f    CIL library: CIL module
 0001:0000d479       $L176800                   1000e479 f    CIL library: CIL module
 0001:0000d479       $L169836                   1000e479 f    CIL library: CIL module
 0001:0000d479       $L173098                   1000e479 f    CIL library: CIL module
 0001:0000d479       $L171283                   1000e479 f    CIL library: CIL module
 0001:0000d479       $L171229                   1000e479 f    CIL library: CIL module
 0001:0000d479       $L170553                   1000e479 f    CIL library: CIL module
 0001:0000d479       $L172014                   1000e479 f    CIL library: CIL module
 0001:0000d479       $L169170                   1000e479 f    CIL library: CIL module
 0001:0000d481       __ehhandler$?SendOnDataChange@CComControlBase@ATL@@QAEJK@Z 1000e481 f    CIL library: CIL module
 0001:0000d481       __ehhandler$?ReleaseAll@CAxHostWindow@ATL@@QAEXXZ 1000e481 f    CIL library: CIL module
 0001:0000d481       __ehhandler$?OnSetFocus@CAxHostWindow@ATL@@QAEJIIJAAH@Z 1000e481 f    CIL library: CIL module
 0001:0000d481       __ehhandler$?IOleInPlaceObject_InPlaceDeactivate@CComControlBase@ATL@@QAEJXZ 1000e481 f    CIL library: CIL module
 0001:0000d481       __ehhandler$?FinalConstruct@CSettingsMasterOptions@@QAEJXZ 1000e481 f    CIL library: CIL module
 0001:0000d481       __ehhandler$?IOleObject_Close@CComControlBase@ATL@@QAEJK@Z 1000e481 f    CIL library: CIL module
 0001:0000d481       __ehhandler$?CreateControlLic@CAxHostWindow@ATL@@UAGJPBGPAUHWND__@@PAUIStream@@PAG@Z 1000e481 f    CIL library: CIL module
 0001:0000d481       __ehhandler$?HostUserControl@CSettingsMasterOptions@@UAGJPAG0PAPAUIUnknown@@@Z 1000e481 f    CIL library: CIL module
 0001:0000d481       __ehhandler$?QueryHost@?$CAxWindowT@VCWindow@ATL@@@ATL@@QAEJABU_GUID@@PAPAX@Z 1000e481 f    CIL library: CIL module
 0001:0000d481       __ehhandler$?CreateControl@CAxHostWindow@ATL@@UAGJPBGPAUHWND__@@PAUIStream@@@Z 1000e481 f    CIL library: CIL module
 0001:0000d481       __ehhandler$?GetSize@CComVariant@ATL@@QBEKXZ 1000e481 f    CIL library: CIL module
 0001:0000d481       __ehhandler$?OnMouseActivate@CComControlBase@ATL@@QAEJIIJAAH@Z 1000e481 f    CIL library: CIL module
 0001:0000d481       __ehhandler$?InitNew@?$IPersistStorageImpl@VCSettingsMasterOptions@@@ATL@@UAGJPAUIStorage@@@Z 1000e481 f    CIL library: CIL module
 0001:0000d481       __ehhandler$?IsDirty@?$IPersistStorageImpl@VCSettingsMasterOptions@@@ATL@@UAGJXZ 1000e481 f    CIL library: CIL module
 0001:0000d48b       __ehhandler$?Init@?$CComEnumImpl@UIEnumUnknown@@$1?_GUID_00000100_0000_0000_c000_000000000046@@3U__s_GUID@@BPAUIUnknown@@V?$_CopyInterface@UIUnknown@@@ATL@@@ATL@@QAEJPAPAUIUnknown@@0PAU3@W4CComEnumFlags@2@@Z 1000e48b f    CIL library: CIL module
 0001:0000d495       $L169912                   1000e495 f    CIL library: CIL module
 0001:0000d4a0       __ehhandler$??1?$CComEnumImpl@UIEnumUnknown@@$1?_GUID_00000100_0000_0000_c000_000000000046@@3U__s_GUID@@BPAUIUnknown@@V?$_CopyInterface@UIUnknown@@@ATL@@@ATL@@UAE@XZ 1000e4a0 f    CIL library: CIL module
 0001:0000d4aa       $L170106                   1000e4aa f    CIL library: CIL module
 0001:0000d4b2       __ehhandler$??0?$CComObjectCached@VCComClassFactory@ATL@@@ATL@@QAE@PAX@Z 1000e4b2 f    CIL library: CIL module
 0001:0000d4bc       $L170288                   1000e4bc f    CIL library: CIL module
 0001:0000d4c6       __ehhandler$?CreateInstance@?$CComCreator@V?$CComObjectCached@VCComClassFactory@ATL@@@ATL@@@ATL@@SGJPAXABU_GUID@@PAPAX@Z 1000e4c6 f    CIL library: CIL module
 0001:0000d4d0       $L170755                   1000e4d0 f    CIL library: CIL module
 0001:0000d4db       $L170756                   1000e4db f    CIL library: CIL module
 0001:0000d4e6       $L170757                   1000e4e6 f    CIL library: CIL module
 0001:0000d4f1       __ehhandler$?OnShowWindow@CSettingsMasterOptions@@QAEJIIJAAH@Z 1000e4f1 f    CIL library: CIL module
 0001:0000d4fb       $L171017                   1000e4fb f    CIL library: CIL module
 0001:0000d4fb       $L170924                   1000e4fb f    CIL library: CIL module
 0001:0000d4fb       $L171048                   1000e4fb f    CIL library: CIL module
 0001:0000d4fb       $L170955                   1000e4fb f    CIL library: CIL module
 0001:0000d4fb       $L173284                   1000e4fb f    CIL library: CIL module
 0001:0000d4fb       $L170986                   1000e4fb f    CIL library: CIL module
 0001:0000d4fb       $L172900                   1000e4fb f    CIL library: CIL module
 0001:0000d503       __ehhandler$?OnOK@CSettingsMasterOptions@@UAGJXZ 1000e503 f    CIL library: CIL module
 0001:0000d503       __ehhandler$?OnAfterCreated@CSettingsMasterOptions@@UAGJPAU_DTE@EnvDTE@@@Z 1000e503 f    CIL library: CIL module
 0001:0000d503       __ehhandler$?OnCancel@CSettingsMasterOptions@@UAGJXZ 1000e503 f    CIL library: CIL module
 0001:0000d503       __ehhandler$?OnForwardMsg@CAxHostWindow@ATL@@QAEJIIJAAH@Z 1000e503 f    CIL library: CIL module
 0001:0000d503       __ehhandler$?GetProperties@CSettingsMasterOptions@@UAGJPAPAUIDispatch@@@Z 1000e503 f    CIL library: CIL module
 0001:0000d503       __ehhandler$?FireAmbientPropertyChange@CAxHostWindow@ATL@@QAEJJ@Z 1000e503 f    CIL library: CIL module
 0001:0000d503       __ehhandler$?OnHelp@CSettingsMasterOptions@@UAGJXZ 1000e503 f    CIL library: CIL module
 0001:0000d50d       $L171377                   1000e50d f    CIL library: CIL module
 0001:0000d515       $L171378                   1000e515 f    CIL library: CIL module
 0001:0000d51d       $L171379                   1000e51d f    CIL library: CIL module
 0001:0000d525       $L171380                   1000e525 f    CIL library: CIL module
 0001:0000d52d       __ehhandler$?InPlaceActivate@CComControlBase@ATL@@QAEJJPBUtagRECT@@@Z 1000e52d f    CIL library: CIL module
 0001:0000d537       $L171694                   1000e537 f    CIL library: CIL module
 0001:0000d53f       $L171695                   1000e53f f    CIL library: CIL module
 0001:0000d547       $L171696                   1000e547 f    CIL library: CIL module
 0001:0000d54f       $L171697                   1000e54f f    CIL library: CIL module
 0001:0000d557       $L171698                   1000e557 f    CIL library: CIL module
 0001:0000d55f       $L171699                   1000e55f f    CIL library: CIL module
 0001:0000d567       $L171700                   1000e567 f    CIL library: CIL module
 0001:0000d56f       __ehhandler$?IQuickActivate_QuickActivate@CComControlBase@ATL@@QAEJPAUtagQACONTAINER@@PAUtagQACONTROL@@@Z 1000e56f f    CIL library: CIL module
 0001:0000d579       $L172056                   1000e579 f    CIL library: CIL module
 0001:0000d581       __ehhandler$?OnKillFocus@CComControlBase@ATL@@QAEJIIJAAH@Z 1000e581 f    CIL library: CIL module
 0001:0000d58b       $L172094                   1000e58b f    CIL library: CIL module
 0001:0000d593       $L172095                   1000e593 f    CIL library: CIL module
 0001:0000d59b       __ehhandler$?OnSetFocus@CComControlBase@ATL@@QAEJIIJAAH@Z 1000e59b f    CIL library: CIL module
 0001:0000d5a5       $L172473                   1000e5a5 f    CIL library: CIL module
 0001:0000d5ad       $L172474                   1000e5ad f    CIL library: CIL module
 0001:0000d5b5       $L172475                   1000e5b5 f    CIL library: CIL module
 0001:0000d5bd       $L172476                   1000e5bd f    CIL library: CIL module
 0001:0000d5c5       $L172477                   1000e5c5 f    CIL library: CIL module
 0001:0000d5cd       $L172478                   1000e5cd f    CIL library: CIL module
 0001:0000d5d5       $L172479                   1000e5d5 f    CIL library: CIL module
 0001:0000d5dd       __ehhandler$?ActivateAx@CAxHostWindow@ATL@@QAEJPAUIUnknown@@_NPAUIStream@@@Z 1000e5dd f    CIL library: CIL module
 0001:0000d5e7       __ehhandler$?EnumObjects@CAxHostWindow@ATL@@UAGJKPAPAUIEnumUnknown@@@Z 1000e5e7 f    CIL library: CIL module
 0001:0000d5f1       $L172937                   1000e5f1 f    CIL library: CIL module
 0001:0000d5f1       $L173027                   1000e5f1 f    CIL library: CIL module
 0001:0000d5f9       __ehhandler$?FilterDataObject@CAxHostWindow@ATL@@UAGJPAUIDataObject@@PAPAU3@@Z 1000e5f9 f    CIL library: CIL module
 0001:0000d5f9       __ehhandler$?GetDropTarget@CAxHostWindow@ATL@@UAGJPAUIDropTarget@@PAPAU3@@Z 1000e5f9 f    CIL library: CIL module
 0001:0000d603       $L172980                   1000e603 f    CIL library: CIL module
 0001:0000d60b       $L172981                   1000e60b f    CIL library: CIL module
 0001:0000d613       __ehhandler$?TranslateUrl@CAxHostWindow@ATL@@UAGJKPAGPAPAG@Z 1000e613 f    CIL library: CIL module
 0001:0000d61d       $L173072                   1000e61d f    CIL library: CIL module
 0001:0000d625       __ehhandler$?TranslateAcceleratorW@CAxHostWindow@ATL@@UAGJPAUtagMSG@@PBU_GUID@@K@Z 1000e625 f    CIL library: CIL module
 0001:0000d62f       $L173352                   1000e62f f    CIL library: CIL module
 0001:0000d637       __ehhandler$??1CAxHostWindow@ATL@@UAE@XZ 1000e637 f    CIL library: CIL module
 0001:0000d641       $L174327                   1000e641 f    CIL library: CIL module
 0001:0000d64c       __ehhandler$?ParseInitData@_DialogSplitHelper@ATL@@SAJPAUIStream@@PAPAG@Z 1000e64c f    CIL library: CIL module
 0001:0000d656       $L174612                   1000e656 f    CIL library: CIL module
 0001:0000d661       $L174614                   1000e661 f    CIL library: CIL module
 0001:0000d66c       __ehhandler$?AddValue@CRegParser@ATL@@IAEJAAVCRegKey@2@PBGPAG@Z 1000e66c f    CIL library: CIL module
 0001:0000d676       $L174705                   1000e676 f    CIL library: CIL module
 0001:0000d681       $L174707                   1000e681 f    CIL library: CIL module
 0001:0000d689       __ehhandler$?RegisterSubkeys@CRegParser@ATL@@IAEJPAGPAUHKEY__@@HH@Z 1000e689 f    CIL library: CIL module
 0001:0000d693       $L175077                   1000e693 f    CIL library: CIL module
 0001:0000d69b       __ehhandler$?PreProcessBuffer@CRegParser@ATL@@QAEJPAGPAPAG@Z 1000e69b f    CIL library: CIL module
 0001:0000d6a5       $L175169                   1000e6a5 f    CIL library: CIL module
 0001:0000d6b0       $L175170                   1000e6b0 f    CIL library: CIL module
 0001:0000d6bb       __ehhandler$?RegisterFromResource@CRegObject@ATL@@IAEJPBG00H@Z 1000e6bb f    CIL library: CIL module
 0001:0000d6c5       $L175242                   1000e6c5 f    CIL library: CIL module
 0001:0000d6cd       __ehhandler$??1CExpansionVector@ATL@@QAE@XZ 1000e6cd f    CIL library: CIL module
 0001:0000d6d7       $L175279                   1000e6d7 f    CIL library: CIL module
 0001:0000d6df       __ehhandler$?AtlModuleAddTermFunc@ATL@@YGJPAU_ATL_MODULE70@1@P6GXK@ZK@Z 1000e6df f    CIL library: CIL module
 0001:0000d6e9       $L175332                   1000e6e9 f    CIL library: CIL module
 0001:0000d6f4       $L175334                   1000e6f4 f    CIL library: CIL module
 0001:0000d6ff       $L175335                   1000e6ff f    CIL library: CIL module
 0001:0000d707       $L175336                   1000e707 f    CIL library: CIL module
 0001:0000d712       __ehhandler$?GetTI@CComTypeInfoHolder@ATL@@QAEJK@Z 1000e712 f    CIL library: CIL module
 0001:0000d71c       __ehhandler$?CreateInstance@?$CComObject@V?$CComEnum@UIEnumUnknown@@$1?_GUID_00000100_0000_0000_c000_000000000046@@3U__s_GUID@@BPAUIUnknown@@V?$_CopyInterface@UIUnknown@@@ATL@@VCComSingleThreadModel@6@@ATL@@@ATL@@SGJPAPAV12@@Z 1000e71c f    CIL library: CIL module
 0001:0000d726       $L175844                   1000e726 f    CIL library: CIL module
 0001:0000d73f       __ehhandler$?Clone@?$CComEnumImpl@UIEnumUnknown@@$1?_GUID_00000100_0000_0000_c000_000000000046@@3U__s_GUID@@BPAUIUnknown@@V?$_CopyInterface@UIUnknown@@@ATL@@@ATL@@UAGJPAPAUIEnumUnknown@@@Z 1000e73f f    CIL library: CIL module
 0001:0000d749       __ehhandler$?CreateInstance@?$CComObject@VCAxFrameWindow@ATL@@@ATL@@SGJPAPAV12@@Z 1000e749 f    CIL library: CIL module
 0001:0000d753       $L176149                   1000e753 f    CIL library: CIL module
 0001:0000d760       __ehhandler$??0?$CComPolyObject@VCAxHostWindow@ATL@@@ATL@@QAE@PAX@Z 1000e760 f    CIL library: CIL module
 0001:0000d76a       $L176232                   1000e76a f    CIL library: CIL module
 0001:0000d772       $L176233                   1000e772 f    CIL library: CIL module
 0001:0000d77a       __ehhandler$?OnMouseActivate@?$CComCompositeControl@VCSettingsMasterOptions@@@ATL@@QAEJIIJAAH@Z 1000e77a f    CIL library: CIL module
 0001:0000d784       $L171146                   1000e784 f    CIL library: CIL module
 0001:0000d784       $L176306                   1000e784 f    CIL library: CIL module
 0001:0000d78c       $L176307                   1000e78c f    CIL library: CIL module
 0001:0000d78c       $L171147                   1000e78c f    CIL library: CIL module
 0001:0000d794       __ehhandler$?IOleInPlaceObject_UIDeactivate@CComControlBase@ATL@@QAEJXZ 1000e794 f    CIL library: CIL module
 0001:0000d794       __ehhandler$?IOleInPlaceObject_UIDeactivate@?$CComCompositeControl@VCSettingsMasterOptions@@@ATL@@QAEJXZ 1000e794 f    CIL library: CIL module
 0001:0000d79e       $L176377                   1000e79e f    CIL library: CIL module
 0001:0000d7a6       $L176378                   1000e7a6 f    CIL library: CIL module
 0001:0000d7ae       __ehhandler$?PreTranslateAccelerator@?$CComCompositeControl@VCSettingsMasterOptions@@@ATL@@QAEHPAUtagMSG@@AAJ@Z 1000e7ae f    CIL library: CIL module
 0001:0000d7b8       $L176678                   1000e7b8 f    CIL library: CIL module
 0001:0000d7b8       $L176738                   1000e7b8 f    CIL library: CIL module
 0001:0000d7c0       $L176679                   1000e7c0 f    CIL library: CIL module
 0001:0000d7c0       $L176739                   1000e7c0 f    CIL library: CIL module
 0001:0000d7c8       __ehhandler$?Load@?$IPersistStorageImpl@VCSettingsMasterOptions@@@ATL@@UAGJPAUIStorage@@@Z 1000e7c8 f    CIL library: CIL module
 0001:0000d7c8       __ehhandler$?Save@?$IPersistStorageImpl@VCSettingsMasterOptions@@@ATL@@UAGJPAUIStorage@@H@Z 1000e7c8 f    CIL library: CIL module
 0001:0000d7d2       $L176920                   1000e7d2 f    CIL library: CIL module
 0001:0000d7da       $L176921                   1000e7da f    CIL library: CIL module
 0001:0000d7e2       __ehhandler$?GetSizeMax@?$IPersistStreamInitImpl@VCSettingsMasterOptions@@@ATL@@UAGJPAT_ULARGE_INTEGER@@@Z 1000e7e2 f    CIL library: CIL module
 0001:0000d7ec       $L177072                   1000e7ec f    CIL library: CIL module
 0001:0000d7f6       __ehhandler$?CreateInstance@?$CComCreator@V?$CComPolyObject@VCAxHostWindow@ATL@@@ATL@@@ATL@@SGJPAXABU_GUID@@PAPAX@Z 1000e7f6 f    CIL library: CIL module
 0001:0000d800       $L177255                   1000e800 f    CIL library: CIL module
 0001:0000d808       $L177256                   1000e808 f    CIL library: CIL module
 0001:0000d810       $L177257                   1000e810 f    CIL library: CIL module
 0001:0000d818       $L177258                   1000e818 f    CIL library: CIL module
 0001:0000d820       __ehhandler$?DoVerbProperties@CComControlBase@ATL@@QAEJPBUtagRECT@@PAUHWND__@@@Z 1000e820 f    CIL library: CIL module
 0001:0000d82a       $L177498                   1000e82a f    CIL library: CIL module
 0001:0000d832       $L177499                   1000e832 f    CIL library: CIL module
 0001:0000d83a       $L177500                   1000e83a f    CIL library: CIL module
 0001:0000d842       __ehhandler$?AtlAxWindowProc2@ATL@@YGJPAUHWND__@@IIJ@Z 1000e842 f    CIL library: CIL module
 0001:0000d84c       $L178472                   1000e84c f    CIL library: CIL module
 0001:0000d84c       $L177648                   1000e84c f    CIL library: CIL module
 0001:0000d854       $L178473                   1000e854 f    CIL library: CIL module
 0001:0000d854       $L177649                   1000e854 f    CIL library: CIL module
 0001:0000d85c       __ehhandler$?CreateControlLicEx@?$CAxWindow2T@VCWindow@ATL@@@ATL@@QAEJPBGPAUIStream@@PAPAUIUnknown@@2ABU_GUID@@PAU4@PAG@Z 1000e85c f    CIL library: CIL module
 0001:0000d85c       __ehhandler$?AtlAxWindowProc@ATL@@YGJPAUHWND__@@IIJ@Z 1000e85c f    CIL library: CIL module
 0001:0000d866       $L178247                   1000e866 f    CIL library: CIL module
 0001:0000d866       $L175224                   1000e866 f    CIL library: CIL module
 0001:0000d866       $L169030                   1000e866 f    CIL library: CIL module
 0001:0000d86e       __ehhandler$?ResourceUnregister@CRegObject@ATL@@QAGJPBGI0@Z 1000e86e f    CIL library: CIL module
 0001:0000d86e       __ehhandler$?AddReplacement@CRegObject@ATL@@UAGJPBG0@Z 1000e86e f    CIL library: CIL module
 0001:0000d86e       __ehhandler$?ResourceRegister@CRegObject@ATL@@QAGJPBGI0@Z 1000e86e f    CIL library: CIL module
 0001:0000d878       $L178265                   1000e878 f    CIL library: CIL module
 0001:0000d885       __ehhandler$??1CRegObject@ATL@@UAE@XZ 1000e885 f    CIL library: CIL module
 0001:0000d88f       __ehhandler$?CreateInstance@?$CComObject@VCAxUIWindow@ATL@@@ATL@@SGJPAPAV12@@Z 1000e88f f    CIL library: CIL module
 0001:0000d899       $L178427                   1000e899 f    CIL library: CIL module
 0001:0000d8a4       __ehhandler$??1?$CComAggObject@VCSettingsMasterOptions@@@ATL@@UAE@XZ 1000e8a4 f    CIL library: CIL module
 0001:0000d8ae       $L178551                   1000e8ae f    CIL library: CIL module
 0001:0000d8bb       __ehhandler$??1?$CComPolyObject@VCAxHostWindow@ATL@@@ATL@@UAE@XZ 1000e8bb f    CIL library: CIL module
 0001:0000d8c5       $L178589                   1000e8c5 f    CIL library: CIL module
 0001:0000d8cd       __ehhandler$?DoVerbPrimary@?$IOleObjectImpl@VCSettingsMasterOptions@@@ATL@@QAEJPBUtagRECT@@PAUHWND__@@@Z 1000e8cd f    CIL library: CIL module
 0001:0000d8d7       $L178908                   1000e8d7 f    CIL library: CIL module
 0001:0000d8df       $L178909                   1000e8df f    CIL library: CIL module
 0001:0000d8e7       $L178910                   1000e8e7 f    CIL library: CIL module
 0001:0000d8ef       $L178911                   1000e8ef f    CIL library: CIL module
 0001:0000d8f7       $L178912                   1000e8f7 f    CIL library: CIL module
 0001:0000d8ff       $L178913                   1000e8ff f    CIL library: CIL module
 0001:0000d907       __ehhandler$?CreateControlLicEx@CAxHostWindow@ATL@@UAGJPBGPAUHWND__@@PAUIStream@@PAPAUIUnknown@@ABU_GUID@@PAU5@PAG@Z 1000e907 f    CIL library: CIL module
 0001:0000d911       $L179323                   1000e911 f    CIL library: CIL module
 0001:0000d919       $L179324                   1000e919 f    CIL library: CIL module
 0001:0000d921       __ehhandler$?CreateActiveXControls@?$CAxDialogImpl@VCSettingsMasterOptions@@VCWindow@ATL@@@ATL@@UAEJI@Z 1000e921 f    CIL library: CIL module
 0001:0000d92b       $L179500                   1000e92b f    CIL library: CIL module
 0001:0000d936       $L179501                   1000e936 f    CIL library: CIL module
 0001:0000d943       $L179502                   1000e943 f    CIL library: CIL module
 0001:0000d950       $L179503                   1000e950 f    CIL library: CIL module
 0001:0000d95d       $L179504                   1000e95d f    CIL library: CIL module
 0001:0000d96a       $L179505                   1000e96a f    CIL library: CIL module
 0001:0000d978       __ehhandler$??0CSettingsMasterOptions@@QAE@XZ 1000e978 f    CIL library: CIL module
 0001:0000d982       $L179891                   1000e982 f    CIL library: CIL module
 0001:0000d98d       __ehhandler$??0?$CComAggObject@VCSettingsMasterOptions@@@ATL@@QAE@PAX@Z 1000e98d f    CIL library: CIL module
 0001:0000d997       $L179938                   1000e997 f    CIL library: CIL module
 0001:0000d9a1       __ehhandler$?CreateInstance@?$CComCreator@V?$CComAggObject@VCSettingsMasterOptions@@@ATL@@@ATL@@SGJPAXABU_GUID@@PAPAX@Z 1000e9a1 f    CIL library: CIL module
 0001:0000d9ab       __ehhandler$?CreateInstance@?$CComCreator@V?$CComObject@VCSettingsMasterOptions@@@ATL@@@ATL@@SGJPAXABU_GUID@@PAPAX@Z 1000e9ab f    CIL library: CIL module
 0001:0000d9b5       _$E1                       1000e9b5 f   stdafx.obj
 0001:0000d9cb       _$E5                       1000e9cb f   SettingsMasterShim.obj
 0001:0000d9e3       _$E5                       1000e9e3 f   atls:atlbase.obj
 0001:0000d9f9       _$E5                       1000e9f9 f   atls:atlcommodule.obj
 0001:0000da0f       _$E2                       1000ea0f f   stdafx.obj
 0001:0000da19       _$E6                       1000ea19 f   SettingsMasterShim.obj
 0001:0000da24       _$E6                       1000ea24 f   atls:atlbase.obj
 0001:0000da2e       _$E6                       1000ea2e f   atls:atlcommodule.obj

Line numbers for .\Release\SettingsMasterShim.obj(d:\dev\booktwo\disk\settingsmaster\settingsmastershim\settingsmastershim.cpp) segment .text

    19 0001:0000c27e    27 0001:0000c2e2    29 0001:0000c2e2    30 0001:0000c2f1
    33 0001:0000c2f3    34 0001:0000c307    39 0001:0000c30a    41 0001:0000c30a
    42 0001:0000c30f    43 0001:0000c311    45 0001:0000c313    46 0001:0000c326
    51 0001:0000c327    53 0001:0000c32a    57 0001:0000c33c    56 0001:0000c340
    57 0001:0000c345    56 0001:0000c346    62 0001:0000c34b    64 0001:0000c34b
    66 0001:0000c35f    67 0001:0000c361    68 0001:0000c363    71 0001:0000c368
    76 0001:0000c369    77 0001:0000c369    79 0001:0000c37d    80 0001:0000c37f
    81 0001:0000c381    82 0001:0000c386    83 0001:0000c388    84 0001:0000c38a
    87 0001:0000c38f    22 0001:0000d9cb

Line numbers for .\Release\SettingsMasterShim.obj(g:\vsnet\vc7\atlmfc\include\atlbase.inl) segment .text

   116 0001:0000cb71   118 0001:0000cb7a   119 0001:0000cb80   120 0001:0000cb8a
   121 0001:0000cb8e   123 0001:0000cb98   124 0001:0000cb9f   125 0001:0000cbab
   129 0001:0000cbad   131 0001:0000cbb5   134 0001:0000cbbb   129 0001:0000cbcf
   134 0001:0000cbd7   136 0001:0000cbd9   138 0001:0000cbe1   139 0001:0000cbe4
   146 0001:0000cbf2   147 0001:0000cbfb   148 0001:0000cc0a   149 0001:0000cc12
   150 0001:0000cc17   156 0001:0000cc27   157 0001:0000cc35   158 0001:0000cc3c
   159 0001:0000cc42   407 0001:0000cc7e   406 0001:0000cc7e   408 0001:0000cc82
   410 0001:0000cc92   412 0001:0000cc95   414 0001:0000cc9a   415 0001:0000cc9f
   416 0001:0000cca2   417 0001:0000ccab   419 0001:0000ccb0   420 0001:0000ccb5

Line numbers for .\Release\SettingsMasterShim.obj(g:\vsnet\vc7\platformsdk\include\guiddef.h) segment .text

   161 0001:0000c53f   160 0001:0000c53f   162 0001:0000c556

Line numbers for .\Release\SettingsMasterShim.obj(g:\vsnet\vc7\atlmfc\include\atlbase.h) segment .text

  2949 0001:0000c390  2951 0001:0000c39a  2952 0001:0000c3a6  2955 0001:0000c3ae
  2956 0001:0000c3af  2957 0001:0000c3bb  2937 0001:0000c3c8  2936 0001:0000c3c8
  2938 0001:0000c3dc  2863 0001:0000c3e4  2866 0001:0000c3ef  2873 0001:0000c406
  2881 0001:0000c406  2888 0001:0000c418  2889 0001:0000c426  2894 0001:0000c42f
  2905 0001:0000c432  2897 0001:0000c432  2906 0001:0000c43b  2912 0001:0000c43d
  2913 0001:0000c442  2919 0001:0000c455  2682 0001:0000c458  2685 0001:0000c459
  2686 0001:0000c461  2688 0001:0000c46a  2689 0001:0000c46c  2692 0001:0000c473
  2695 0001:0000c489  2698 0001:0000c48d  2699 0001:0000c491  2701 0001:0000c499
  2702 0001:0000c49e  2672 0001:0000c4a1  2673 0001:0000c4a1  2674 0001:0000c4a4
  2667 0001:0000c4a5  2668 0001:0000c4a5  2669 0001:0000c4af  2663 0001:0000c4b0
  2662 0001:0000c4b0  2664 0001:0000c4ba  6066 0001:0000c4bb  6068 0001:0000c4bf
  6069 0001:0000c4c3  6071 0001:0000c4ca  6073 0001:0000c4d0  6075 0001:0000c4d8
  6078 0001:0000c4de  6080 0001:0000c4e4  6083 0001:0000c4f4  6084 0001:0000c502
  6086 0001:0000c509  6087 0001:0000c50e  6073 0001:0000c515  6091 0001:0000c51d
  6092 0001:0000c529  6094 0001:0000c536  6095 0001:0000c53b  6099 0001:0000c557
  6100 0001:0000c56a  6105 0001:0000c577  6110 0001:0000c581  6117 0001:0000c596
  6118 0001:0000c5b0  6131 0001:0000c5b8  6168 0001:0000c5c9  6171 0001:0000c5d2
  6172 0001:0000c5e4  6177 0001:0000c5ea  6178 0001:0000c602  6179 0001:0000c618
  6185 0001:0000c626  6186 0001:0000c646  6188 0001:0000c64a  6189 0001:0000c661
  6190 0001:0000c678  6192 0001:0000c685  6196 0001:0000c693  6197 0001:0000c6a5
  6198 0001:0000c6b5  6199 0001:0000c6c3  6200 0001:0000c6d8  6202 0001:0000c6dc
  6203 0001:0000c6f3  6204 0001:0000c706  6206 0001:0000c70f  6209 0001:0000c71d
  6210 0001:0000c732  6211 0001:0000c73e  6212 0001:0000c749  6131 0001:0000c759
  6134 0001:0000c75f  6139 0001:0000c76a  6141 0001:0000c788  6145 0001:0000c78a
  6147 0001:0000c78d  6154 0001:0000c795  6156 0001:0000c798  6158 0001:0000c7a6
  6161 0001:0000c7a8  6164 0001:0000c7ab  6147 0001:0000c7bc  5980 0001:0000c7c1
  5981 0001:0000c7c6  5982 0001:0000c7cb  5983 0001:0000c7d3  5984 0001:0000c7e8
  5987 0001:0000c7ec  5988 0001:0000c7fb  5990 0001:0000c7ff  5991 0001:0000c81d
  5994 0001:0000c82b  5995 0001:0000c83f  5913 0001:0000c843  5915 0001:0000c855
  5918 0001:0000c86e  5919 0001:0000c871  5921 0001:0000c873  5925 0001:0000c87f
  5926 0001:0000c897  5927 0001:0000c89b  5928 0001:0000c8a7  5934 0001:0000c8b5
  5936 0001:0000c8c2  5943 0001:0000c8ce  5945 0001:0000c8d7  5947 0001:0000c8ea
  5954 0001:0000c8fb  5955 0001:0000c90d  5959 0001:0000c911  5962 0001:0000c937
  5968 0001:0000c947  5970 0001:0000c955  5972 0001:0000c959  5973 0001:0000c966
  5974 0001:0000c96f  5976 0001:0000c976  5916 0001:0000c986  5977 0001:0000c98b
  6028 0001:0000c999  6030 0001:0000c9a0  6031 0001:0000c9a4  6034 0001:0000c9ab
  6036 0001:0000c9b1  6038 0001:0000c9b9  6041 0001:0000c9bf  6043 0001:0000c9c5
  6046 0001:0000c9d5  6047 0001:0000c9da  6050 0001:0000c9e1  6051 0001:0000c9ef
  6036 0001:0000c9f6  6056 0001:0000c9fe  6057 0001:0000ca0a  6059 0001:0000ca17
  6060 0001:0000ca1d  5998 0001:0000ca21  5999 0001:0000ca34  6000 0001:0000ca3f
  6001 0001:0000ca47  6002 0001:0000ca5d  6005 0001:0000ca62  6006 0001:0000ca74
  6008 0001:0000ca7f  6010 0001:0000ca83  6011 0001:0000ca8f  6012 0001:0000ca94
  6013 0001:0000caa9  6015 0001:0000caac  6016 0001:0000caba  6018 0001:0000cacc
  6019 0001:0000cadd  5888 0001:0000caf5  5890 0001:0000caf5  5891 0001:0000caf9
  5905 0001:0000cafb  5895 0001:0000cafc  5897 0001:0000cb08  5899 0001:0000cb0f
  5900 0001:0000cb24  5895 0001:0000cb26  5901 0001:0000cb2a  5904 0001:0000cb2e
  5905 0001:0000cb36  2615 0001:0000cb37  2621 0001:0000cb42  2623 0001:0000cb46
  2625 0001:0000cb51  2629 0001:0000cb63  2632 0001:0000cb6a  2633 0001:0000cb6e
  2636 0001:0000cc46  2638 0001:0000cc4a  2642 0001:0000cc52  2644 0001:0000cc58
  2645 0001:0000cc5d  2648 0001:0000cc61  2649 0001:0000cc68  2651 0001:0000cc6e
  2653 0001:0000cc78  2654 0001:0000cc7d  2351 0001:0000ccb6  2352 0001:0000ccb7
  2354 0001:0000ccbc  2355 0001:0000ccc2  2352 0001:0000ccc9  2357 0001:0000ccd2

Line numbers for .\Release\SettingsMasterOptions.obj(g:\vsnet\vc7\atlmfc\include\atlalloc.h) segment .text

   226 0001:0000ab25   225 0001:0000ab25   228 0001:0000ab2c   230 0001:0000ab31
   278 0001:0000ab32   276 0001:0000ab32   280 0001:0000ab3c   282 0001:0000ab46
   284 0001:0000ab48   287 0001:0000ab4d   288 0001:0000ab4f   293 0001:0000ab52
   292 0001:0000ab52   294 0001:0000ab5c   296 0001:0000ab61   298 0001:0000ab6b
   299 0001:0000ab71   313 0001:0000b9c1   312 0001:0000b9c1   314 0001:0000b9ca
   278 0001:0000ba23   276 0001:0000ba23   280 0001:0000ba2d   282 0001:0000ba37
   284 0001:0000ba39   287 0001:0000ba3e   288 0001:0000ba40   393 0001:0000bcda
   387 0001:0000bcda   391 0001:0000bcdc   392 0001:0000bcde   393 0001:0000bce0
   389 0001:0000bcea   395 0001:0000bcef

Line numbers for .\Release\SettingsMasterOptions.obj(g:\vsnet\vc7\atlmfc\include\atlbase.inl) segment .text

   316 0001:0000939f   317 0001:000093a4   318 0001:000093a8   349 0001:000093aa
   321 0001:000093ad   322 0001:000093b1   328 0001:000093bd   329 0001:000093c0
   331 0001:000093c8   332 0001:000093ce   335 0001:000093d0   344 0001:000093d5
   345 0001:000093d7   335 0001:000093de   337 0001:000093e0   338 0001:000093e2
   339 0001:000093ea   340 0001:000093ec   341 0001:000093ef   348 0001:000093f1
   349 0001:000093fd   294 0001:000093ff   295 0001:00009404   296 0001:00009408
   299 0001:0000940a   302 0001:00009412   303 0001:00009414   304 0001:0000941d
   305 0001:00009420   311 0001:0000942a   313 0001:00009430   300 0001:00009441
   375 0001:0000a0f5   376 0001:0000a108   377 0001:0000a10f   380 0001:0000a116
   381 0001:0000a11a   382 0001:0000a136   383 0001:0000a13a   384 0001:0000a13f
   386 0001:0000a141   387 0001:0000a146   388 0001:0000a14c   389 0001:0000a152
   392 0001:0000a159   401 0001:0000a15f   402 0001:0000a170   403 0001:0000a172
    27 0001:0000be53    28 0001:0000be5b    29 0001:0000be5f    31 0001:0000be66
    32 0001:0000be6e    33 0001:0000be76    34 0001:0000be86    35 0001:0000be8a
    36 0001:0000be9c    37 0001:0000bea0    38 0001:0000beb1    39 0001:0000bec4
    42 0001:0000bec8    43 0001:0000bed0    44 0001:0000bed4    46 0001:0000bedb
    47 0001:0000bee3    48 0001:0000beeb    49 0001:0000befb    50 0001:0000beff
    51 0001:0000bf11    52 0001:0000bf15    53 0001:0000bf23    54 0001:0000bf36
   240 0001:0000bf3a   244 0001:0000bf3e   249 0001:0000bf4c   250 0001:0000bf50
   252 0001:0000bf57   267 0001:0000bf66   268 0001:0000bf6c   269 0001:0000bf72
   270 0001:0000bf74   261 0001:0000bf78   262 0001:0000bf81   264 0001:0000bf94
   275 0001:0000bf99   276 0001:0000bfa5   280 0001:0000bfb3   259 0001:0000bfb6
   282 0001:0000bfbd   245 0001:0000bfc4   283 0001:0000bfcb   352 0001:0000c25b
   353 0001:0000c25b   354 0001:0000c261   357 0001:0000c263   358 0001:0000c268
   360 0001:0000c26f   362 0001:0000c273   369 0001:0000c27b

Line numbers for .\Release\SettingsMasterOptions.obj(g:\vsnet\vc7\atlmfc\include\atlhost.h) segment .text

    63 0001:000008bf    65 0001:000008d4    66 0001:000008de    75 0001:000008e8
    79 0001:00000904    86 0001:0000090a    89 0001:00000970    93 0001:0000097e
    96 0001:00000991    97 0001:000009a5   100 0001:000009a8   103 0001:000009ad
   105 0001:000009bf   106 0001:000009c3   107 0001:000009d0   108 0001:000009d2
   110 0001:000009d8   114 0001:000009df   116 0001:000009e4   117 0001:000009e7
   118 0001:00000a00   119 0001:00000a07   120 0001:00000a1e   121 0001:00000a2f
   122 0001:00000a31   125 0001:00000a47    76 0001:00000a4c   126 0001:00000a4e
   135 0001:00000a63   137 0001:00000a80   139 0001:00000a81   140 0001:00000a84
   141 0001:00000a95   142 0001:00000a9c   143 0001:00000aa4   157 0001:00000aa5
   159 0001:00000aa6   160 0001:00000ab2   162 0001:00000ab9   163 0001:00000ac2
   164 0001:00000ae1   165 0001:00000ae6   166 0001:00000ae8   179 0001:00000aee
   180 0001:00000aee   181 0001:00000af3   222 0001:00000af6   221 0001:00000af6
   223 0001:00000af9   253 0001:00000b11   257 0001:00000b16   258 0001:00000b18
   259 0001:00000b23   260 0001:00000b42   262 0001:00000b49   282 0001:00000b52
   281 0001:00000b52   283 0001:00000b54   286 0001:00000b57   287 0001:00000b58
   288 0001:00000b6a   289 0001:00000b6d   318 0001:00000b70   330 0001:00000bba
   332 0001:00000bcd   336 0001:00000be1   344 0001:00000bee   345 0001:00000c06
   348 0001:00000c09   349 0001:00000c31   352 0001:00000c35   353 0001:00000c47
   360 0001:00000d0c   361 0001:00000d0c   362 0001:00000d17   400 0001:00000d1a
   401 0001:00000d33   402 0001:00000d59   403 0001:00000d73   404 0001:00000d9a
   405 0001:00000db3   406 0001:00000dde   407 0001:00000dfe   411 0001:00000e08
   412 0001:00000e14   414 0001:00000e1d   415 0001:00000e2d   417 0001:00000e4a
   419 0001:00000e50   432 0001:00000e7d   435 0001:00000e93   420 0001:00000ec9
   421 0001:00000edb   422 0001:00000ee8   423 0001:00000ef3   424 0001:00000f00
   425 0001:00000f0b   426 0001:00000f18   427 0001:00000f23   428 0001:00000f30
   429 0001:00000f3b   436 0001:00000f57   437 0001:00000f64   438 0001:00000f6d
   439 0001:00000f7a   440 0001:00000f83   441 0001:00000f90   442 0001:00000f9b
   443 0001:00000fb0   444 0001:00000fc5   445 0001:00000ff0   446 0001:00001008
   448 0001:0000103b   449 0001:00001060   452 0001:00001069   453 0001:00001081
   454 0001:0000108a   456 0001:00001091   457 0001:000010ad   458 0001:000010c1
   459 0001:000010d9   462 0001:000010e2   465 0001:000010ec   466 0001:00001100
   468 0001:00001108   469 0001:00001115   471 0001:0000112e   472 0001:0000113e
   489 0001:0000114c   490 0001:0000115a   492 0001:00001168   494 0001:00001172
   495 0001:0000117b   497 0001:00001185   499 0001:00001193   500 0001:000011a3
   503 0001:000011ad   505 0001:000011b4   506 0001:000011c0   507 0001:000011cb
   510 0001:000011d5   512 0001:000011dc   513 0001:000011df   514 0001:000011f0
   515 0001:000011f7   516 0001:00001201   518 0001:0000120f   519 0001:0000121f
   521 0001:00001225   522 0001:00001235   523 0001:00001245   525 0001:00001255
   526 0001:00001265   533 0001:00001275   535 0001:0000127c   537 0001:00001288
   538 0001:0000128f   540 0001:00001292   553 0001:0000129f   554 0001:000012a9
   555 0001:000012b4   557 0001:000012bd   559 0001:000012cb   560 0001:000012d1
   561 0001:000012e4   562 0001:000012eb   563 0001:00001308   565 0001:00001316
   568 0001:00001318   571 0001:00001321   573 0001:00001333   574 0001:0000133e
   575 0001:0000134c   577 0001:00001356   579 0001:0000135f   580 0001:00001365
   581 0001:0000137a   582 0001:00001381   583 0001:0000139e   584 0001:000013ac
   585 0001:000013b5   586 0001:000013b8   587 0001:000013ce   589 0001:000013e0
   591 0001:000013e3   603 0001:000013f6   599 0001:000013f6   604 0001:00001403
   606 0001:0000141d   607 0001:00001427   609 0001:0000143a   610 0001:00001441
   611 0001:0000144a   612 0001:00001453   613 0001:00001461   614 0001:0000146a
   615 0001:00001477   616 0001:0000147e   617 0001:00001480   619 0001:00001483
   620 0001:00001483   621 0001:00001490   622 0001:000014a3   623 0001:000014aa
   624 0001:000014b1   625 0001:000014b3   627 0001:000014b6   630 0001:000014ba
   631 0001:000014d3   632 0001:000014e6   633 0001:000014eb   634 0001:000014f1
   635 0001:000014f4   637 0001:000014f8   639 0001:000014fc   640 0001:00001515
   641 0001:00001528   642 0001:0000152e   643 0001:00001531   645 0001:00001535
   646 0001:00001542   649 0001:0000154c   650 0001:00001559   651 0001:0000155e
   653 0001:00001564   654 0001:00001571   655 0001:0000157f   657 0001:00001587
   658 0001:00001595   661 0001:00001596   663 0001:0000159b   666 0001:000015a8
   668 0001:000015b7   669 0001:000015bc   672 0001:000015c2   674 0001:000015cf
   675 0001:000015e4   677 0001:000015ef   678 0001:000015f8   680 0001:000015fc
   681 0001:00001606   683 0001:0000160d   684 0001:00001619   686 0001:00001620
   687 0001:0000162c   689 0001:00001635   691 0001:00001650   693 0001:00001669
   695 0001:00001673   697 0001:0000167a   699 0001:00001683   706 0001:00001690
   703 0001:00001695   704 0001:0000169a   707 0001:0000169c   711 0001:000016aa
   712 0001:000016b5   713 0001:000016ba   714 0001:000016f0   716 0001:00001701
   717 0001:00001704   718 0001:00001721   720 0001:00001725   723 0001:00001728
   727 0001:0000173a   729 0001:00001752   730 0001:0000175e   733 0001:00001765
   735 0001:00001773   737 0001:0000177c   738 0001:00001783   741 0001:00001788
   743 0001:00001799   745 0001:0000179d   747 0001:000017a4   749 0001:000017ab
   750 0001:000017b7   751 0001:000017be   755 0001:000017c5   756 0001:000017cb
   758 0001:000017ce   760 0001:000017ce   762 0001:000017db   764 0001:000017e6
   766 0001:000017f0   768 0001:000017f2   769 0001:000017f5   773 0001:000017fa
   775 0001:000017fd   776 0001:000017fe   777 0001:00001810   778 0001:00001813
   780 0001:00001816   782 0001:00001817   784 0001:00001829   785 0001:0000182c
   788 0001:0000182f   789 0001:0000183a   790 0001:0000183f   791 0001:00001876
   793 0001:00001887   795 0001:00001894   796 0001:0000189e   801 0001:000018a9
   803 0001:000018c4   805 0001:000018d5   806 0001:000018e3   809 0001:000018eb
   811 0001:000018fc   812 0001:00001902   814 0001:00001909   815 0001:00001913
   817 0001:0000191a   819 0001:00001922   820 0001:0000192c   821 0001:0000192e
   822 0001:00001930   827 0001:0000193e   829 0001:0000195a   830 0001:00001961
   834 0001:00001975   835 0001:0000199b   837 0001:000019a8   839 0001:000019b9
   840 0001:000019cf   841 0001:000019d9   843 0001:000019db   844 0001:000019e1
   845 0001:000019f1   848 0001:00001a00   850 0001:00001a15   857 0001:00001a1b
   861 0001:00001aa0   862 0001:00001aab   863 0001:00001ab9   865 0001:00001ac1
   866 0001:00001ac4   867 0001:00001acb   868 0001:00001adb   869 0001:00001ae2
   870 0001:00001aef   872 0001:00001af6   873 0001:00001af9   874 0001:00001b0e
   875 0001:00001b15   876 0001:00001b24   877 0001:00001b35   881 0001:00001b45
   894 0001:00001b48   895 0001:00001b56   898 0001:00001b63   900 0001:00001b6b
   902 0001:00001b74   903 0001:00001b82   904 0001:00001b8c   908 0001:00001b94
   909 0001:00001b99   879 0001:00001ba8   881 0001:00001baf   883 0001:00001bb1
   884 0001:00001bb4   885 0001:00001bc6   887 0001:00001bcb   888 0001:00001bd5
   889 0001:00001be6   890 0001:00001bf4   891 0001:00001c0b   892 0001:00001c1c
   917 0001:00001c35   918 0001:00001c38   919 0001:00001c41   926 0001:00001c51
   928 0001:00001c6f   932 0001:00001c73   931 0001:00001c73   933 0001:00001c7b
   935 0001:00001c82   936 0001:00001c8d   938 0001:00001c9f   939 0001:00001ca8
   941 0001:00001cb1   942 0001:00001cb3   945 0001:00001cb6   946 0001:00001cb9
   947 0001:00001cc2   954 0001:00001cd2   956 0001:00001cee   961 0001:00001cf2
   959 0001:00001cf2   962 0001:00001cff   964 0001:00001d05   969 0001:00001d08
   967 0001:00001d08   970 0001:00001d15   972 0001:00001d1b   977 0001:00001d1e
   975 0001:00001d1e   978 0001:00001d2b   980 0001:00001d3a   985 0001:00001d3d
   983 0001:00001d3d   986 0001:00001d4a   988 0001:00001d59   993 0001:00001d5c
   991 0001:00001d5c   994 0001:00001d69   996 0001:00001d78  1001 0001:00001d7b
   999 0001:00001d7b  1008 0001:00001d88  1010 0001:00001daa  1013 0001:00001dad
  1015 0001:00001db9  1023 0001:00001dcb  1025 0001:00001e04  1029 0001:00001e16
  1030 0001:00001e17  1031 0001:00001e1a  1032 0001:00001e25  1034 0001:00001e2d
  1036 0001:00001e3a  1037 0001:00001e45  1038 0001:00001e4d  1040 0001:00001e50
  1042 0001:00001e52  1044 0001:00001e5a  1045 0001:00001e6f  1046 0001:00001e7b
  1047 0001:00001e7f  1048 0001:00001e86  1049 0001:00001e93  1050 0001:00001e95
  1054 0001:00001e9a  1057 0001:00001e9d  1059 0001:00001ea8  1060 0001:00001eaf
  1061 0001:00001eb6  1064 0001:00001eb9  1066 0001:00001ec9  1067 0001:00001ed1
  1068 0001:00001ee0  1069 0001:00001ee7  1070 0001:00001ef7  1071 0001:00001f00
  1072 0001:00001f03  1073 0001:00001f11  1074 0001:00001f14  1077 0001:00001f23
  1079 0001:00001f24  1080 0001:00001f2c  1081 0001:00001f33  1084 0001:00001f36
  1086 0001:00001f41  1087 0001:00001f48  1088 0001:00001f51  1090 0001:00001f56
  1095 0001:00001f58  1096 0001:00001f62  1102 0001:00001f65  1105 0001:00001f68
  1107 0001:00001f74  1108 0001:00001f7d  1112 0001:00001f89  1114 0001:00001f9e
  1115 0001:00001fa1  1116 0001:00001fd4  1118 0001:00001fe0  1119 0001:00001fed
  1120 0001:00001ff4  1121 0001:00001ffa  1122 0001:00002006  1124 0001:00002013
  1125 0001:00002015  1126 0001:0000201c  1127 0001:00002021  1128 0001:00002026
  1132 0001:00002035  1134 0001:00002040  1135 0001:00002049  1139 0001:00002052
  1141 0001:00002061  1142 0001:00002064  1143 0001:00002074  1144 0001:0000207c
  1145 0001:0000208c  1146 0001:00002095  1147 0001:00002098  1148 0001:000020aa
  1149 0001:000020ad  1153 0001:000020bc  1155 0001:000020c6  1156 0001:000020dc
  1157 0001:000020e3  1158 0001:000020f1  1159 0001:000020ff  1167 0001:00002111
  1169 0001:00002115  1170 0001:00002136  1172 0001:0000214b  1173 0001:00002169
  1175 0001:00002173  1179 0001:00002180  1183 0001:00002184  1182 0001:00002184
  1184 0001:00002195  1185 0001:00002197  1187 0001:0000219a  1189 0001:0000219a
  1190 0001:000021a2  1192 0001:000021a9  1193 0001:000021ba  1194 0001:000021bc
  1196 0001:000021bf  1197 0001:000021bf  1198 0001:000021ce  1199 0001:000021dc
  1200 0001:000021e9  1201 0001:000021ec  1203 0001:000021ef  1205 0001:000021ef
  1206 0001:000021f7  1208 0001:000021fe  1209 0001:0000220a  1210 0001:0000220c
  1213 0001:0000220f  1212 0001:0000220f  1214 0001:0000221d  1215 0001:0000222b
  1216 0001:0000222d  1220 0001:00002230  1218 0001:00002230  1221 0001:00002238
  1223 0001:0000223f  1224 0001:0000224b  1225 0001:0000224d  1228 0001:00002250
  1227 0001:00002250  1229 0001:0000225e  1230 0001:0000226c  1231 0001:0000226e
  1233 0001:00002271  1235 0001:00002271  1236 0001:00002279  1238 0001:00002280
  1239 0001:0000228c  1240 0001:0000228e  1243 0001:00002291  1242 0001:00002291
  1244 0001:0000229f  1245 0001:000022b3  1246 0001:000022b5  1250 0001:000022b8
  1248 0001:000022b8  1251 0001:000022c0  1253 0001:000022c7  1254 0001:000022d8
  1255 0001:000022da  1257 0001:000022dd  1258 0001:000022dd  1259 0001:000022ec
  1260 0001:00002300  1261 0001:00002302  1263 0001:00002305  1265 0001:00002305
  1266 0001:0000230d  1268 0001:00002314  1269 0001:00002325  1270 0001:00002327
  1272 0001:0000232a  1273 0001:0000232b  1274 0001:00002340  1275 0001:00002350
  1276 0001:00002353  1278 0001:00002356  1280 0001:00002367  1281 0001:0000236e
  1282 0001:00002378  1284 0001:0000237e  1286 0001:00002393  1287 0001:00002399
  1288 0001:000023a3  1289 0001:000023a7  1290 0001:000023ab  1291 0001:000023af
  1293 0001:000023b9  1296 0001:000023c6  1297 0001:000023cc  1298 0001:000023d4
  1299 0001:000023dd  1300 0001:000023e4  1301 0001:000023eb  1303 0001:000023f2
  1304 0001:000023f5  1305 0001:00002406  1309 0001:0000240b  1311 0001:00002412
  1312 0001:0000241b  1313 0001:0000241d  1314 0001:0000241f  1315 0001:00002428
  1317 0001:0000242e  1319 0001:00002430  1320 0001:00002441  1321 0001:00002443
  1322 0001:00002449  1323 0001:00002452  1325 0001:0000245e  1328 0001:0000246a
  1331 0001:00002489  1332 0001:00002494  1335 0001:000024a0  1334 0001:000024a0
  1336 0001:000024af  1337 0001:000024c3  1338 0001:000024c5  1343 0001:000024c8
  1340 0001:000024c8  1344 0001:000024d0  1346 0001:000024d7  1347 0001:000024e8
  1348 0001:000024ea  1351 0001:000024ed  1350 0001:000024ed  1352 0001:000024f5
  1353 0001:000024f7  1357 0001:000024fa  1355 0001:000024fa  1358 0001:00002502
  1360 0001:00002509  1361 0001:0000250d  1362 0001:0000250f  1364 0001:00002512
  1365 0001:00002512  1366 0001:00002520  1367 0001:0000252b  1368 0001:0000252d
  1372 0001:00002530  1370 0001:00002530  1373 0001:00002538  1375 0001:0000253f
  1376 0001:0000254b  1377 0001:0000254d  1380 0001:00002550  1379 0001:00002550
  1381 0001:0000255e  1382 0001:00002560  1384 0001:00002563  1386 0001:00002563
  1387 0001:0000256b  1389 0001:00002572  1390 0001:0000257e  1391 0001:00002580
  1393 0001:00002583  1394 0001:00002583  1395 0001:00002598  1396 0001:0000259a
  1400 0001:0000259d  1398 0001:0000259d  1401 0001:000025a5  1403 0001:000025ac
  1404 0001:000025bd  1405 0001:000025bf  1407 0001:000025c2  1408 0001:000025c2
  1409 0001:000025d7  1410 0001:000025d9  1412 0001:000025dc  1414 0001:000025dc
  1415 0001:000025e4  1417 0001:000025eb  1418 0001:000025fc  1419 0001:000025fe
  1421 0001:00002601  1422 0001:00002602  1423 0001:00002615  1424 0001:00002618
  1428 0001:0000261b  1426 0001:0000261b  1429 0001:00002623  1431 0001:0000262a
  1432 0001:00002636  1433 0001:00002638  1436 0001:0000263b  1437 0001:0000263c
  1438 0001:0000264e  1439 0001:00002651  1443 0001:00002654  1444 0001:00002655
  1446 0001:00002666  1449 0001:00002671  1453 0001:00002684  1454 0001:0000268b
  1456 0001:000026a0  1457 0001:000026a4  1466 0001:000026a7  1465 0001:000026a7
  1467 0001:000026ac  1469 0001:000026af  1474 0001:000026b0  1477 0001:000026bd
  1478 0001:000026c1  1479 0001:000026d2  1480 0001:000026d9  1481 0001:000026dd
  1484 0001:000026ea  1486 0001:000026ed  1489 0001:000026ee  1490 0001:000026fe
  1491 0001:00002704  1492 0001:0000270b  1493 0001:00002713  1494 0001:0000272c
  1495 0001:00002736  1496 0001:0000273a  1498 0001:0000273d  1499 0001:0000273d
  1500 0001:00002742  1503 0001:00002745  1502 0001:00002745  1504 0001:0000274a
  1509 0001:0000274d  1508 0001:0000274d  1510 0001:0000275a  1511 0001:0000275c
  1521 0001:0000275f  1526 0001:00002760  1527 0001:00002768  1529 0001:00002775
  1530 0001:0000278a  1531 0001:0000278d  1533 0001:00002790  1535 0001:00002790
  1536 0001:00002798  1537 0001:0000279a  1539 0001:0000279d  1540 0001:000027a2
  1541 0001:000027ac  1542 0001:000027ae  1543 0001:000027b5  1544 0001:000027b7
  1550 0001:000027da  1553 0001:000027e5  1554 0001:000027ee  1557 0001:000027ff
  1560 0001:00002806  1561 0001:0000280f  1564 0001:00002820  1565 0001:0000282b
  1566 0001:00002835  1567 0001:00002843  1569 0001:0000284b  1572 0001:00002853
  1574 0001:00002870  1575 0001:00002879  1576 0001:00002885  1577 0001:00002891
  1578 0001:0000289a  1580 0001:000028a9  1547 0001:000028ae  1581 0001:000028b4
  1584 0001:000028b8  1583 0001:000028b8  1585 0001:000028bd  1589 0001:000028c0
  1587 0001:000028c0  1590 0001:000028c8  1591 0001:000028ca  1594 0001:000028cd
  1593 0001:000028cd  1595 0001:000028d5  1596 0001:000028e6  1597 0001:000028e8
  1613 0001:000028eb  1618 0001:000028ec  1619 0001:000028f5  1621 0001:00002902
  1624 0001:00002909  1626 0001:0000291e  1629 0001:00002922  1631 0001:00002937
  1632 0001:0000293d  1633 0001:0000294c  1634 0001:0000294f  1637 0001:00002952
  1636 0001:00002952  1638 0001:0000295a  1639 0001:0000296b  1640 0001:0000296d
  1652 0001:00002970  1651 0001:00002970  1653 0001:0000297f  1656 0001:00002982
  1655 0001:00002982  1657 0001:00002991  1660 0001:00002994  1659 0001:00002994
  1662 0001:0000299c  1663 0001:000029a9  1665 0001:000029ae  1667 0001:000029b0
  1668 0001:000029b6  1670 0001:000029be  1671 0001:000029c0  1674 0001:000029c3
  1673 0001:000029c3  1675 0001:000029d2  1677 0001:000029d5  1678 0001:000029d5
  1679 0001:000029e9  1680 0001:000029eb  1682 0001:000029ee  1683 0001:000029f5
  1684 0001:000029fc  1685 0001:00002a07  1686 0001:00002a10  1688 0001:00002a1a
  1689 0001:00002a23  1690 0001:00002a27  1694 0001:00002a29  1695 0001:00002a31
  1698 0001:00002a37  1699 0001:00002a44  1701 0001:00002a4b  1702 0001:00002a55
  1704 0001:00002a59  1705 0001:00002a6f  1706 0001:00002a76  1707 0001:00002a7d
  1709 0001:00002a7f  1710 0001:00002a87  1712 0001:00002a8b  1715 0001:00002a94
  1717 0001:00002a96  1718 0001:00002a9d  1719 0001:00002aa2  1725 0001:00002aa5
  1726 0001:00002aab  1727 0001:00002ab9  1728 0001:00002abd  1730 0001:00002ac1
  1731 0001:00002ac8  1732 0001:00002acb  1735 0001:00002ad5  1737 0001:00002ae2
  1738 0001:00002b0b  1739 0001:00002b14  1742 0001:00002b1c  1743 0001:00002b26
  1744 0001:00002b29  1746 0001:00002b2d  1747 0001:00002b2d  1748 0001:00002b42
  1749 0001:00002b44  1752 0001:00002b47  1751 0001:00002b47  1753 0001:00002b5c
  1754 0001:00002b5e  1756 0001:00002b61  1757 0001:00002b61  1758 0001:00002b63
  1764 0001:00002b66  1765 0001:00002b69  1766 0001:00002b82  1767 0001:00002b84
  1771 0001:00002b88  1772 0001:00002b88  1773 0001:00002b8a  1780 0001:00002b8d
  1779 0001:00002b8d  1781 0001:00002b94  1782 0001:00002b9b  1783 0001:00002bb0
  1793 0001:00002bb3  1794 0001:00002bb3  1795 0001:00002bc7  1796 0001:00002bc9
  1808 0001:00002bcc  1807 0001:00002bcc  1810 0001:00002bcf  1811 0001:00002bcf
  1817 0001:00002bd2  1816 0001:00002bd2  1825 0001:00002bd5  1826 0001:00002be2
  1827 0001:00002bf1  1831 0001:00002bf8  1832 0001:00002c24  1833 0001:00002c28
  1834 0001:00002c2f  1836 0001:00002c38  1837 0001:00002c53  1838 0001:00002c57
  1839 0001:00002c66  1840 0001:00002c6a  1841 0001:00002c73  1842 0001:00002c75
  1844 0001:00002c86  1845 0001:00002c86  1846 0001:00002c9d  1847 0001:00002c9f
  1850 0001:00002ca2  1851 0001:00002cb1  1852 0001:00002cba  1854 0001:00002cc2
  1857 0001:00002ccd  1858 0001:00002ce2  1860 0001:00002cec  1861 0001:00002cfe
  1863 0001:00002d04  1864 0001:00002d1a  1865 0001:00002d25  1867 0001:00002d36
  1869 0001:00002d40  1870 0001:00002d52  1872 0001:00002d59  1873 0001:00002d5d
  1874 0001:00002d6b  1875 0001:00002d6d  1877 0001:00002d71  1879 0001:00002d7d
  1880 0001:00002d8c  1881 0001:00002d93  1882 0001:00002da2  1884 0001:00002db0
  1887 0001:00002db6  1888 0001:00002dbf  1890 0001:00002dc9  1891 0001:00002dcd
  1892 0001:00002ddb  1894 0001:00002dec  1896 0001:00002dfd  1898 0001:00002e0b
  1900 0001:00002e14  1901 0001:00002e2d  1902 0001:00002e38  1905 0001:00002e49
  1906 0001:00002e60  1908 0001:00002e67  1909 0001:00002e74  1910 0001:00002e7b
  1911 0001:00002e85  1912 0001:00002e87  1914 0001:00002e91  1916 0001:00002e93
  1917 0001:00002ea0  1918 0001:00002ea7  1920 0001:00002eb1  1921 0001:00002ec3
  1922 0001:00002edc  1923 0001:00002ee3  1924 0001:00002ef0  1926 0001:00002eff
  1928 0001:00002f0c  1929 0001:00002f1c  1930 0001:00002f2c  1931 0001:00002f38
  1932 0001:00002f49  1933 0001:00002f5b  1934 0001:00002f67  1935 0001:00002f72
  1938 0001:00002f80  1939 0001:00002faa  1940 0001:00002fc4  1941 0001:00002fd7
  1942 0001:00002fe8  1943 0001:00002ff9  1944 0001:00002ffd  1945 0001:00003015
  1946 0001:0000301c  1948 0001:0000302f  1949 0001:00003041  2004 0001:00003051
  2005 0001:00003054  2006 0001:0000306a  2009 0001:0000306b  2010 0001:0000306f
  2012 0001:0000307a  2013 0001:00003085  2015 0001:00003088  2016 0001:0000308a
  2017 0001:00003095  2021 0001:00003096  2024 0001:0000309c  2069 0001:000030ca
  2070 0001:000030d6  2059 0001:000030d8  2062 0001:000030dd  2049 0001:000030df
  2050 0001:000030e4  2051 0001:000030e7  2052 0001:000030e9  2055 0001:000030f6
  2031 0001:000030f8  2032 0001:000030fa  2024 0001:000030fc  2034 0001:0000312c
  2035 0001:00003133  2040 0001:0000313e  2042 0001:00003140  2045 0001:00003147
  2027 0001:00003149  2028 0001:0000314d  2090 0001:0000314f  2092 0001:00003153
  2093 0001:00003159  2096 0001:0000315e  2098 0001:00003169  2099 0001:0000316d
  2100 0001:00003179  2101 0001:0000318e  2105 0001:00003193  2106 0001:000031a6
  2111 0001:000031aa  2109 0001:000031aa  2112 0001:000031b2  2113 0001:000031b9
  2121 0001:000031bc  2122 0001:000031cf  2125 0001:000031de  2129 0001:000031ee
  2130 0001:000031fb  2194 0001:00003216  2198 0001:00003220  2199 0001:0000322d
  2201 0001:0000323a  2202 0001:00003241  2203 0001:00003243  2207 0001:0000324f
  2185 0001:00003254  2186 0001:0000325f  2187 0001:00003263  2188 0001:00003269
  2190 0001:0000326f  2136 0001:00003274  2139 0001:0000327d  2140 0001:00003288
  2141 0001:0000329a  2142 0001:000032a8  2145 0001:000032b6  2146 0001:000032c8
  2148 0001:000032cb  2149 0001:000032d6  2150 0001:000032d9  2152 0001:000032e4
  2153 0001:000032eb  2156 0001:000032f2  2157 0001:000032fd  2158 0001:00003304
  2161 0001:00003311  2162 0001:00003317  2163 0001:0000331a  2164 0001:00003330
  2173 0001:00003336  2175 0001:00003348  2176 0001:00003359  2177 0001:0000335d
  2179 0001:0000337c  2181 0001:0000338a  2213 0001:000033a4  2214 0001:000033b6
  2217 0001:000033ca  2218 0001:000033d7  2298 0001:000033f2  2302 0001:000033fc
  2303 0001:00003409  2305 0001:00003416  2306 0001:0000341d  2307 0001:0000341f
  2311 0001:0000342b  2289 0001:00003430  2290 0001:0000343b  2291 0001:0000343f
  2292 0001:00003445  2294 0001:0000344b  2224 0001:00003450  2227 0001:00003459
  2228 0001:00003464  2229 0001:00003476  2230 0001:00003484  2233 0001:00003492
  2234 0001:000034a4  2248 0001:000034a7  2249 0001:000034b2  2250 0001:000034b5
  2252 0001:000034c0  2253 0001:000034c7  2256 0001:000034ce  2257 0001:000034d9
  2258 0001:000034e0  2261 0001:000034ed  2262 0001:000034f0  2263 0001:00003500
  2264 0001:00003503  2266 0001:00003505  2267 0001:0000350b  2268 0001:00003512
  2269 0001:00003526  2278 0001:0000352a  2280 0001:0000353d  2281 0001:0000354e
  2282 0001:00003552  2283 0001:0000357b  2285 0001:00003589  2317 0001:000035ad
  2318 0001:000035bf  2456 0001:000035d3  2455 0001:000035d3  2457 0001:000035f1
  2461 0001:000035f4  2462 0001:000035fc  2464 0001:00003601  2465 0001:00003609
  2467 0001:00003611  2468 0001:00003624  2470 0001:00003628  2471 0001:00003630
  2472 0001:00003641  2473 0001:0000364c  2474 0001:0000366b  2475 0001:0000367e
  2477 0001:00003682  2479 0001:00003686  2480 0001:0000368b  2482 0001:0000368e
  2483 0001:00003690  2485 0001:00003692  2487 0001:00003699  2489 0001:0000369d
  2490 0001:000036a2  2492 0001:000036a5  2493 0001:000036a7  2495 0001:000036a9
  2496 0001:000036bd  2528 0001:000036c1  2529 0001:000036c9  2530 0001:000036cf
  2536 0001:000036d9  2537 0001:000036ea  2540 0001:000036f6  2541 0001:000036fe
  2545 0001:00003717  2557 0001:0000371d  2559 0001:00003722  2565 0001:0000374e
  2568 0001:0000376b  2571 0001:0000376f  2573 0001:0000377d  2577 0001:00003797
  2588 0001:0000379b  2590 0001:000037a0  2596 0001:000037cc  2599 0001:000037ed
  2600 0001:000037fa  2605 0001:000037fc  2603 0001:000037fc  2606 0001:00003800
  2607 0001:00003807  2608 0001:0000381d  2609 0001:0000382b  2612 0001:0000382e
  2614 0001:0000382e  2615 0001:00003832  2616 0001:00003839  2617 0001:0000384f
  2618 0001:0000385d  2363 0001:000087c4  2364 0001:000087cb  2367 0001:000087d0
  2368 0001:000087e2  2370 0001:000087ee  2372 0001:000087f9  2374 0001:000087fd
  2376 0001:0000880d  2377 0001:00008811  2381 0001:00008817  2382 0001:00008821
  2384 0001:00008825  2385 0001:0000882a  2389 0001:0000882e  2391 0001:00008835
  2392 0001:00008848  2394 0001:0000884f  2396 0001:00008858  2397 0001:0000885c
  2399 0001:0000886a  2403 0001:0000886c  2405 0001:00008875  2406 0001:0000887c
  2408 0001:00008885  2409 0001:00008889

Line numbers for .\Release\SettingsMasterOptions.obj(d:\dev\booktwo\disk\settingsmaster\settingsmastershim\settingsmasteroptions.h) segment .text

    35 0001:00004d84    37 0001:00004dd6    38 0001:00004dda    39 0001:00004de2
    48 0001:00004df5    82 0001:00004e6e    83 0001:00004e77    84 0001:00004e90
    85 0001:00004ea1    86 0001:00004ec0    91 0001:00004ec6    93 0001:00004ec6
    96 0001:00004ef1    97 0001:00004ef1    99 0001:00004efc   100 0001:00004f08
   102 0001:00004f10   103 0001:00004f12   106 0001:00004f15   112 0001:00004f16
   114 0001:00004f18   117 0001:00004f33   118 0001:00004f35   115 0001:00004f38
   138 0001:00004f3c   139 0001:00004f47   140 0001:00004f5a   141 0001:00004f6d
   142 0001:00004f8a   145 0001:00004f9d   146 0001:00004fa8   147 0001:00004fbe
   148 0001:00004fdd   151 0001:00004fee   152 0001:00004ff9   153 0001:0000500f
   154 0001:0000502b   157 0001:0000503c   158 0001:00005047   159 0001:0000505d
   160 0001:00005079   163 0001:0000508a   164 0001:00005095   165 0001:000050ab
   166 0001:000050c7

Line numbers for .\Release\SettingsMasterOptions.obj(d:\dev\booktwo\disk\settingsmaster\settingsmastershim\settingsmasteroptions.cpp) segment .text

    21 0001:00005146    22 0001:0000515d    23 0001:00005168    24 0001:00005173
    31 0001:0000517a    34 0001:0000519e    45 0001:000051a7    48 0001:000051d5
    57 0001:000051dd    60 0001:00005200    63 0001:00005208    65 0001:00005217
    68 0001:00005226    70 0001:0000522a    73 0001:00005231    78 0001:0000524c
    80 0001:00005252    82 0001:00005257    76 0001:00005259    87 0001:0000525e
    92 0001:000052b7    94 0001:000052c4    95 0001:000052da    98 0001:000052f2
   100 0001:000052f2   101 0001:000052f6   102 0001:00005316   103 0001:00005318
   106 0001:0000531b   107 0001:0000531d   108 0001:0000532a   109 0001:00005335
   110 0001:00005340   111 0001:0000534d   112 0001:00005355   115 0001:00005356
   117 0001:00005366   118 0001:0000536e   119 0001:0000538d   121 0001:00005397
   122 0001:000053ad   129 0001:000053bf   130 0001:000053cc   134 0001:000053e7
   136 0001:000053ed   137 0001:000053fa   138 0001:00005410   140 0001:00005414
   141 0001:00005419   144 0001:00005431   149 0001:00005444   154 0001:00005456
   155 0001:00005465   161 0001:00005471   162 0001:0000548f   151 0001:000054a5
   152 0001:000054aa   125 0001:000054ac   126 0001:000054b1   163 0001:000054c7
   166 0001:000054d8   167 0001:000054e7   168 0001:000054ee   169 0001:0000550b
   170 0001:00005510   171 0001:00005512   172 0001:0000551a   173 0001:00005521
   174 0001:00005537   175 0001:00005545   177 0001:00005550   181 0001:00005561
   176 0001:00005578   182 0001:00005588

Line numbers for .\Release\SettingsMasterOptions.obj(g:\vsnet\vc7\atlmfc\include\atlwin.h) segment .text

   202 0001:000000b2   203 0001:000000b5   204 0001:000000bb   205 0001:000000c2
   206 0001:000000c9   207 0001:000000d0   208 0001:000000dc   209 0001:000000e2
   246 0001:000000e5   247 0001:000000e8   248 0001:00000100   377 0001:00000104
   376 0001:00000104   381 0001:00000112   383 0001:00000116   384 0001:00000119
   386 0001:0000011c   388 0001:0000011e   389 0001:00000121   397 0001:00000123
   398 0001:0000012e   399 0001:00000131   400 0001:00000133   407 0001:0000013d
   408 0001:00000144   409 0001:00000147   410 0001:00000149   413 0001:00000153
   416 0001:0000015d   421 0001:00000163   422 0001:00000167   423 0001:0000016a
   424 0001:0000016c   425 0001:0000016e   429 0001:00000178   430 0001:0000017f
   440 0001:00000180   435 0001:00000180   441 0001:00000187   442 0001:0000018a
   443 0001:0000018c   445 0001:0000018f   446 0001:00000196   447 0001:00000199
   448 0001:0000019b   450 0001:000001a5   451 0001:000001ac   452 0001:000001af
   453 0001:000001b1   459 0001:000001bb   458 0001:000001c7   459 0001:000001ce
   462 0001:000001d4   463 0001:000001de   468 0001:000001df   493 0001:000001e1
   472 0001:000001e3   473 0001:000001e6   475 0001:000001e8   476 0001:000001ed
   481 0001:000001ee   493 0001:000001fa   469 0001:000001fe   495 0001:00000202
   496 0001:00000206   483 0001:00000207   486 0001:0000020c   488 0001:0000020e
   489 0001:00000214   503 0001:00000219   499 0001:00000219   504 0001:00000228
   507 0001:0000022f   511 0001:00000230   513 0001:00000237   517 0001:00000245
   520 0001:00000256   522 0001:0000026e   532 0001:00000272   520 0001:00000279
   534 0001:0000027c   538 0001:00000286   542 0001:00000293   545 0001:00000299
   547 0001:000002a0   550 0001:000002a2   553 0001:000002ac   557 0001:000002b0
   558 0001:000002b6   561 0001:000002bd   563 0001:000002c8   564 0001:000002d6
   567 0001:000002db   569 0001:000002f3   576 0001:000002f9   580 0001:00000303
   582 0001:00000315   585 0001:0000031b   589 0001:0000031d   590 0001:00000327
   593 0001:0000032d   574 0001:0000033e   596 0001:00000341   598 0001:00000346
   599 0001:0000034b   602 0001:0000034d   603 0001:00000364   604 0001:0000036e
   605 0001:00000374   611 0001:0000037b   612 0001:00000391   613 0001:00000393
   616 0001:00000399   617 0001:000003af   618 0001:000003b1   621 0001:000003b7
   622 0001:000003cd   623 0001:000003cf   625 0001:000003d5   627 0001:000003e2
   628 0001:000003f6   630 0001:00000412   631 0001:00000424   632 0001:0000043e
   633 0001:00000444   634 0001:00000452   635 0001:00000455   640 0001:00000462
   657 0001:00000475   661 0001:00000483   644 0001:00000485   645 0001:00000498
   646 0001:0000049a   648 0001:0000049c   650 0001:000004a0   652 0001:000004a7
   653 0001:000004c6   655 0001:000004d1   662 0001:000004d4   707 0001:000004ea
   709 0001:000004ed   710 0001:000004f4   714 0001:000004f9   716 0001:00000534
  1690 0001:00000538  1693 0001:00000546  1695 0001:00000562  1696 0001:00000576
  2234 0001:00000582  2235 0001:00000583  2236 0001:00000596  4067 0001:00000599
  4072 0001:000005a8  4073 0001:000005bb  4074 0001:000005c7  4076 0001:000005ca
  4078 0001:000005d5  4080 0001:000005d7  4082 0001:000005e1  4085 0001:000005f1
  4086 0001:00000603  4089 0001:00000611  4090 0001:0000061a  4093 0001:00000622
  4094 0001:00000631  4097 0001:0000064a  4099 0001:00000667  4100 0001:00000671
  4104 0001:00000678  4105 0001:00000685  4108 0001:00000690  4109 0001:000006a2
  4110 0001:000006a8  4111 0001:000006b1  4112 0001:000006b9  4113 0001:000006be
  4114 0001:000006cd  4115 0001:000006d8  4117 0001:000006da  4121 0001:000006e2
  4122 0001:000006e8  4123 0001:000006ed  4124 0001:000006f8  4130 0001:00000707
  4133 0001:00000717  4134 0001:0000072c  4137 0001:00000736  4138 0001:00000743
  4142 0001:0000074a  4143 0001:00000758  4145 0001:0000075c  4146 0001:00000764
  4151 0001:00000768  4152 0001:00000777  4153 0001:00000782  4157 0001:00000786
  4161 0001:00000798  4162 0001:000007aa  4165 0001:000007b6  4166 0001:000007c0
  4174 0001:000007c2  4175 0001:000007d1  4176 0001:000007dd  4187 0001:000007ec
  4184 0001:000007ec  4188 0001:000007fe  4191 0001:000007ff  4192 0001:000007ff
  4195 0001:00000805  4196 0001:00000807  4197 0001:0000080a  4198 0001:0000080c
  4200 0001:0000080f  4201 0001:00000816  4202 0001:00000819  4203 0001:0000081b
  4205 0001:00000825  4206 0001:0000082c  4207 0001:0000082f  4208 0001:00000831
  4210 0001:0000083b  4213 0001:00000845  4217 0001:00000846  4216 0001:00000846
  4218 0001:0000084c  4232 0001:00000857  4221 0001:00000858  4222 0001:0000085f
  4224 0001:00000869  4226 0001:00000871  4227 0001:00000885  4229 0001:00000894
  4231 0001:00000899  4232 0001:0000089c  4235 0001:0000089d  4236 0001:0000089d
  4238 0001:000008a5  4239 0001:000008ab  4241 0001:000008af  4243 0001:000008b1
  4244 0001:000008b7  4246 0001:000008be  4323 0001:00003860  4319 0001:00003860
  4325 0001:00003876  4350 0001:00003877  4351 0001:0000387d  4353 0001:00003887
  4354 0001:00003890  4357 0001:0000389f  4352 0001:000038a5  4358 0001:000038a9
  4450 0001:000038ad  4451 0001:000038ae  4461 0001:000038b4  4468 0001:000038ba
  4470 0001:000038c1  4471 0001:000038c3  4473 0001:000038c8  4474 0001:000038cc
  4475 0001:000038d0  4478 0001:000038d8  4480 0001:000038e0  4483 0001:000038f7
  4481 0001:000038fd  4484 0001:0000390c  4490 0001:0000390f  4494 0001:00003913
  4496 0001:0000391b  4497 0001:00003928  4498 0001:00003931  4500 0001:0000393e
  4501 0001:00003952  4502 0001:00003963  4505 0001:00003966  4509 0001:0000396a
  4511 0001:00003972  4512 0001:0000397f  4513 0001:00003988  4515 0001:00003995
  4516 0001:000039a9  4517 0001:000039ba  3122 0001:000055fa  3123 0001:000055ff
  3124 0001:00005609  3125 0001:0000560f  3127 0001:0000561d  3131 0001:00005629
  3132 0001:0000562e  3135 0001:00005631  3136 0001:00005650  2943 0001:00005654
  2942 0001:00005654  2944 0001:00005659  2958 0001:0000565a  2959 0001:0000565a
  2960 0001:0000565d  2961 0001:0000565f  2962 0001:00005663  2964 0001:00005673
  2967 0001:00005674  2969 0001:00005674  2973 0001:0000568c  3122 0001:0000568f
  3123 0001:00005694  3124 0001:0000569e  3125 0001:000056a4  3127 0001:000056b2
  3131 0001:000056be  3132 0001:000056c3  3135 0001:000056c6  3136 0001:000056e5
  3416 0001:00006928  3415 0001:00006928  3417 0001:0000692d  3490 0001:0000692e
  3492 0001:0000693d  3493 0001:00006959  3495 0001:0000695d  3496 0001:00006961
  3498 0001:0000696b  3499 0001:00006974  3500 0001:00006978  3503 0001:00006982
  3504 0001:0000698d  3506 0001:00006997  3508 0001:000069a0  3510 0001:000069a8
  3511 0001:000069af  3514 0001:000069b7  3515 0001:000069c5  3518 0001:000069da
  3519 0001:000069e6  3522 0001:000069f4  3524 0001:00006a03  3525 0001:00006a11
  3528 0001:00006a24  3529 0001:00006a38  3530 0001:00006a3b  3532 0001:00006a42
  3533 0001:00006a4d  3535 0001:00006a55  3537 0001:00006a5c  3538 0001:00006a69
  3539 0001:00006a70  3548 0001:00006a7f  3549 0001:00006a82  3550 0001:00006a92
  3552 0001:00006a9e  3557 0001:00006aa6  3563 0001:00006ab3  3567 0001:00006ac4
  3571 0001:00006ad8  3575 0001:00006af1  3578 0001:00006b0a  3593 0001:00006b1a
  3595 0001:00006b69  3598 0001:00006b70  3599 0001:00006b7b  3601 0001:00006b83
  3602 0001:00006b95  3605 0001:00006ba0  3606 0001:00006ba6  3607 0001:00006ba9
  3608 0001:00006bb9  3610 0001:00006bbc  3612 0001:00006bbe  3615 0001:00006bc6
  3616 0001:00006be0  3618 0001:00006be2  3619 0001:00006be8  3621 0001:00006bf6
  3602 0001:00006c14  3544 0001:00006c16  3603 0001:00006c28  3624 0001:00006c42
  3628 0001:00006c44  3631 0001:00006c4c  2145 0001:00006df3  2146 0001:00006df6
  2147 0001:00006e18  2151 0001:00006e1c  2150 0001:00006e1c  2152 0001:00006e3a
  3222 0001:00007ae3  3225 0001:00007ae9  3226 0001:00007b0a  3228 0001:00007b12
  3229 0001:00007b1a  3231 0001:00007b22  3232 0001:00007b2b  3234 0001:00007b33
  3235 0001:00007b3c  3237 0001:00007b4d  3238 0001:00007b4f  3239 0001:00007b54
  3242 0001:00007b59  3244 0001:00007b62  3248 0001:00007b96  3252 0001:00007b9e
  3253 0001:00007ba2  3254 0001:00007bd9  3255 0001:00007bfa  3257 0001:00007bfe
  3262 0001:00007c0b  3263 0001:00007c0e  2162 0001:00007c18  2167 0001:00007c26
  2168 0001:00007c2e  2172 0001:00007c3f  2173 0001:00007c43  2176 0001:00007c6c
  2178 0001:00007c6f  2181 0001:00007c93  2183 0001:00007c97  2184 0001:00007c9e
  2186 0001:00007ca6  2188 0001:00007cab  2193 0001:00007cbd  2194 0001:00007cde
  3440 0001:00007cf1  3442 0001:00007cf3  3447 0001:00007d00  3450 0001:00007d1f
  3268 0001:000080ff  3269 0001:00008101  3271 0001:0000810b  3272 0001:00008111
  3273 0001:00008125  3274 0001:00008128  3282 0001:00008132  3283 0001:00008143
  3287 0001:00008146  3290 0001:0000814d  3291 0001:0000816a  3295 0001:0000816d
  3298 0001:00008189  3300 0001:0000818c  3302 0001:00008195  3317 0001:000081c1
  3318 0001:000081c7  3321 0001:000081c9  3325 0001:000081d6  3328 0001:000081e0
  3331 0001:000081e4  3334 0001:000081f0  3336 0001:000081f3  3338 0001:000081f9
  3340 0001:00008204  3341 0001:0000820a  2985 0001:0000820e  2986 0001:00008210
  2988 0001:0000821a  2989 0001:00008220  2990 0001:00008234  2991 0001:00008237
  2999 0001:00008241  3000 0001:00008252  3004 0001:00008255  3007 0001:0000825c
  3008 0001:00008277  3012 0001:0000827a  3017 0001:00008298  3019 0001:000082a0
  3020 0001:000082aa  3021 0001:000082bd  3024 0001:000082bf  3025 0001:000082cd
  3026 0001:000082e1  3027 0001:000082f9  3029 0001:00008307  3032 0001:0000830c
  3035 0001:00008319  3036 0001:0000831c  3037 0001:00008320  3039 0001:00008326
  3041 0001:0000832e  3042 0001:00008333  3047 0001:00008337  3050 0001:0000833a
  3051 0001:00008341  3053 0001:00008347  3055 0001:00008356  3056 0001:00008362
  3057 0001:00008365  3058 0001:0000836c  3063 0001:00008371  3067 0001:00008391
  3068 0001:000083a9  3075 0001:000083ad  3072 0001:000083ad  3077 0001:000083be
  3078 0001:000083ca  3083 0001:000083ce  3080 0001:000083cf  3082 0001:000083d2
  3083 0001:000083d8  3093 0001:000083d9  3089 0001:000083d9  3095 0001:000083eb
  3096 0001:000083ed  3098 0001:000083f7  3101 0001:0000840b  3102 0001:00008413
  3103 0001:00008416  3106 0001:0000841b  4363 0001:0000888b  4364 0001:00008893
  4371 0001:000088ac  4373 0001:000088b6  4374 0001:000088b9  4380 0001:000088c3
  4382 0001:000088d1  4385 0001:000088d8  4386 0001:000088de  4391 0001:000088e4
  4394 0001:000088fd  4397 0001:0000890f  4368 0001:00008917  4435 0001:0000891c
  4400 0001:0000891e  4401 0001:00008928  4405 0001:0000892b  4408 0001:0000893f
  4411 0001:00008958  4412 0001:0000895b  4413 0001:0000895f  4415 0001:00008968
  4416 0001:00008974  4420 0001:00008977  4421 0001:00008993  4423 0001:0000899c
  4426 0001:000089a9  4428 0001:000089b3  4432 0001:000089b8  4434 0001:000089c0
  3677 0001:00008a05  3679 0001:00008a08  3682 0001:00008a16  3684 0001:00008a25
  3685 0001:00008a2e  3686 0001:00008a3b  3689 0001:00008a3f  3690 0001:00008a50
  2063 0001:00008b71  2065 0001:00008b7c  2066 0001:00008b82  2068 0001:00008b8b
  2069 0001:00008b8d  2070 0001:00008b93  2071 0001:00008ba0  2072 0001:00008ba9
  2073 0001:00008bb4  2074 0001:00008bc6

Line numbers for .\Release\SettingsMasterOptions.obj(g:\vsnet\vc7\atlmfc\include\atlctl.h) segment .text

   193 0001:000039bd   194 0001:000039cb   196 0001:000039dd   197 0001:000039e5
   198 0001:000039e8   199 0001:000039f4   201 0001:000039f7   202 0001:000039fa
   203 0001:00003a03   205 0001:00003a0a   258 0001:00003a5a   259 0001:00003a67
   261 0001:00003a70   262 0001:00003a73   263 0001:00003a86   264 0001:00003a8d
   265 0001:00003aa4   266 0001:00003ab4   267 0001:00003ac2   268 0001:00003acd
   269 0001:00003aeb   271 0001:00003aee   273 0001:00003b02   274 0001:00003b0e
   275 0001:00003b1f   276 0001:00003b40   277 0001:00003b4a   278 0001:00003b4d
   279 0001:00003b61   281 0001:00003b72   283 0001:00003b7f   286 0001:00003b92
   288 0001:00003b9d   289 0001:00003ba0   290 0001:00003bb3   291 0001:00003bba
   292 0001:00003bd6   293 0001:00003be4   295 0001:00003be7   304 0001:00003bfc
   302 0001:00003bfc   305 0001:00003c08   307 0001:00003c17   325 0001:00003c1a
   326 0001:00003c21   327 0001:00003c2b   329 0001:00003c3c   330 0001:00003c46
   331 0001:00003c53   396 0001:00003c57   397 0001:00003c5e   398 0001:00003c68
   400 0001:00003c79   401 0001:00003c83   402 0001:00003c90   438 0001:00003c94
   439 0001:00003c9b   440 0001:00003ca5   441 0001:00003cb6   444 0001:00003cba
   446 0001:00003cc8   448 0001:00003cd8   449 0001:00003ce5   614 0001:00003ce9
   616 0001:00003ce9   617 0001:00003ced   618 0001:00003cf4   620 0001:00003cff
   621 0001:00003d01   623 0001:00003d03   624 0001:00003d0d   627 0001:00003d10
   628 0001:00003d11   629 0001:00003d13   633 0001:00003d1c   637 0001:00003d1f
   638 0001:00003d32   639 0001:00003d35   640 0001:00003d38   643 0001:00003d3b
   644 0001:00003d3b   645 0001:00003d3d   651 0001:00003d50   655 0001:00003d53
   733 0001:00003d54   736 0001:00003d61   740 0001:00003d82   741 0001:00003d84
   742 0001:00003d8d   745 0001:00003d8f   746 0001:00003d97   747 0001:00003daa
   748 0001:00003dad   749 0001:00003dc1   750 0001:00003dc4   751 0001:00003dd8
   752 0001:00003ddb   754 0001:00003def   757 0001:00003e03   759 0001:00003e0f
   762 0001:00003e16   765 0001:00003e24   766 0001:00003e28   768 0001:00003e3c
   771 0001:00003e43   772 0001:00003e4a   774 0001:00003e51   775 0001:00003e60
   776 0001:00003e64   778 0001:00003e74   780 0001:00003e85   784 0001:00003e8c
   786 0001:00003e9c   789 0001:00003ea1   790 0001:00003ea8   792 0001:00003eaf
   793 0001:00003ebd   794 0001:00003ec1   796 0001:00003ed1   800 0001:00003ee2
   801 0001:00003ee9   803 0001:00003ef5   804 0001:00003efc   806 0001:00003f06
   807 0001:00003f0d   808 0001:00003f17   755 0001:00003f70   737 0001:00003fbb
   809 0001:00003fc0   812 0001:00003fd9   813 0001:00003fdc   815 0001:00003fe4
   816 0001:00003fec   817 0001:00003ff9   819 0001:00003ffb   825 0001:0000400c
   827 0001:00004010   828 0001:00004025   829 0001:0000402f   832 0001:00004045
   833 0001:00004057   834 0001:0000405e   838 0001:00004063   839 0001:00004067
   842 0001:00004068   844 0001:00004076   845 0001:0000407f   846 0001:00004082
   848 0001:00004092   850 0001:00004099   851 0001:000040a1   852 0001:000040a5
   855 0001:000040de   856 0001:000040e1   859 0001:000040f5   860 0001:00004105
   862 0001:00004110   863 0001:0000411a   865 0001:00004125   866 0001:00004135
   870 0001:00004142   873 0001:00004151   874 0001:0000415f   877 0001:00004166
   879 0001:00004189   881 0001:00004191   883 0001:00004193   885 0001:0000419a
   888 0001:0000419f   890 0001:000041a1   893 0001:000041a8   894 0001:000041ee
   897 0001:000041fe   900 0001:0000420f   901 0001:00004216   903 0001:0000421e
   904 0001:00004221   907 0001:00004234   909 0001:0000423b   911 0001:0000423f
   913 0001:00004250   915 0001:00004259   917 0001:0000425d   920 0001:00004267
   922 0001:0000426d   924 0001:0000426f   927 0001:00004273   929 0001:00004275
   930 0001:00004283   931 0001:00004287   932 0001:0000428b   933 0001:0000428d
   938 0001:0000429b   939 0001:000042a2   941 0001:000042bd   943 0001:000042c4
   947 0001:000042c9   948 0001:000042d1   949 0001:000042dd   951 0001:000042df
   952 0001:000042e2   953 0001:000042e7   955 0001:000042e9   957 0001:000042ef
  1013 0001:000042f3   958 0001:00004304   962 0001:0000430b   964 0001:0000430d
   969 0001:00004316   976 0001:0000431a   977 0001:0000431d   980 0001:00004324
   983 0001:0000433c   985 0001:00004359   987 0001:0000435f   988 0001:0000436c
   999 0001:00004375  1002 0001:00004386  1003 0001:00004389  1006 0001:0000439d
  1008 0001:000043ae  1010 0001:000043b9  1011 0001:000043bf  1012 0001:000043ca
  1013 0001:000043ce   991 0001:00004409   994 0001:00004417   995 0001:0000441f
  1015 0001:00004449  1018 0001:00004453  1020 0001:0000445a  1021 0001:00004461
  1022 0001:0000446b  1023 0001:00004472  1026 0001:0000447c  1027 0001:00004483
  1028 0001:0000448a  1029 0001:00004491  1033 0001:0000449b  1035 0001:000044a4
  1036 0001:000044ea  1039 0001:000044fa  1040 0001:00004509  1041 0001:0000450b
  1043 0001:00004510  1044 0001:00004516  1045 0001:0000452a  1046 0001:0000453c
  1048 0001:0000454d  1051 0001:0000455f  1053 0001:00004561  1054 0001:0000456b
  1055 0001:0000457d  1058 0001:00004583  1060 0001:0000458f  1061 0001:00004592
  1066 0001:00004593  1064 0001:00004593  1067 0001:00004597  1073 0001:0000459c
  1069 0001:0000459d  1070 0001:000045a2  1071 0001:000045a8  1072 0001:000045b1
  1073 0001:000045b3  1077 0001:000045b4  1079 0001:000045b5  1080 0001:000045bf
  1081 0001:000045c6  1082 0001:000045ca  1084 0001:000045db  1087 0001:000045de
  1088 0001:000045eb  1089 0001:000045f0  1091 0001:00004603  1093 0001:0000460a
  1094 0001:00004611  1097 0001:00004618  1099 0001:0000461e  1100 0001:00004629
  1101 0001:0000462d  1104 0001:00004645  1107 0001:0000464e  1108 0001:00004659
  1109 0001:00004664  1115 0001:00004669  1117 0001:0000467a  1118 0001:00004681
  1119 0001:00004687  1122 0001:00004694  1125 0001:000046a4  1126 0001:000046a8
  1127 0001:000046b8  1128 0001:000046cb  1131 0001:000046db  1132 0001:000046e6
  1133 0001:000046f1  1136 0001:00004701  1137 0001:00004705  1138 0001:00004707
  1140 0001:00004710  1144 0001:00004714  1147 0001:0000471d  1148 0001:00004728
  1149 0001:00004733  1152 0001:00004739  1153 0001:00004740  1155 0001:00004746
  1156 0001:00004757  1159 0001:00004766  1161 0001:00004776  1162 0001:0000477b
  1164 0001:00004781  1168 0001:00004788  1170 0001:00004795  1173 0001:000047a3
  1174 0001:000047a9  1180 0001:000047ac  1181 0001:000047d4  1182 0001:000047db
  1183 0001:000047e6  1184 0001:000047ed  1185 0001:000047fb  1188 0001:00004819
  1191 0001:00004824  1194 0001:00004833  1195 0001:0000483c  1198 0001:0000484e
  1199 0001:00004856  1205 0001:00004864  1206 0001:0000486c  1207 0001:00004874
  1209 0001:00004887  1210 0001:0000489c  1213 0001:000048a8  1218 0001:000048b9
  1220 0001:000048c4  1223 0001:000048dc  1196 0001:000048e1  1224 0001:000048e7
  1227 0001:000048eb  1228 0001:000048ee  1229 0001:000048f4  1230 0001:000048fe
  1231 0001:00004902  1234 0001:0000490d  1236 0001:00004927  1237 0001:0000492d
  1239 0001:0000493f  1240 0001:00004943  1242 0001:00004956  1243 0001:00004960
  1245 0001:00004967  1247 0001:00004976  1248 0001:00004981  1251 0001:00004988
  1253 0001:00004993  1254 0001:0000499c  1256 0001:000049a3  1257 0001:000049a7
  1262 0001:000049ab  1278 0001:000049b1  1280 0001:000049b8  1281 0001:000049be
  1282 0001:000049c8  1286 0001:000049ce  1294 0001:000049de  1299 0001:000049e5
  1300 0001:000049ea  1302 0001:000049ee  1303 0001:000049f0  1304 0001:000049f9
  1307 0001:000049ff  1309 0001:00004a0b  1310 0001:00004a11  1311 0001:00004a17
  1312 0001:00004a1d  1313 0001:00004a23  1314 0001:00004a29  1315 0001:00004a2f
  1317 0001:00004a35  1318 0001:00004a4e  1322 0001:00004a52  1323 0001:00004a5b
  1324 0001:00004a66  1325 0001:00004a70  1329 0001:00004a79  1330 0001:00004a85
  1333 0001:00004a8f  1334 0001:00004a97  1335 0001:00004aa0  1336 0001:00004aa2
  1337 0001:00004aab  1338 0001:00004ab3  1339 0001:00004abe  1340 0001:00004acb
  1344 0001:00004ad1  1347 0001:00004ae9  1350 0001:00004aed  1351 0001:00004af3
  1353 0001:00004af6  1355 0001:00004b04  1359 0001:00004b21  1360 0001:00004b2b
  1361 0001:00004b37  1362 0001:00004b47  1363 0001:00004b52  1365 0001:00004b5d
  1366 0001:00004b66  1367 0001:00004b6d  1369 0001:00004b74  1371 0001:00004b83
  1373 0001:00004b87  1374 0001:00004b90  1377 0001:00004b97  1378 0001:00004b9e
  1380 0001:00004ba4  1381 0001:00004baa  1382 0001:00004bad  1384 0001:00004bbd
  1385 0001:00004bc3  1386 0001:00004bc6  1388 0001:00004bc9  1389 0001:00004bce
  1393 0001:00004bd2  1392 0001:00004bd2  1396 0001:00004bda  1397 0001:00004be3
  1398 0001:00004bee  1399 0001:00004bfc  1401 0001:00004c06  1402 0001:00004c08
  1403 0001:00004c19  1404 0001:00004c1b  1407 0001:00004c1c  1410 0001:00004c22
  1411 0001:00004c30  1412 0001:00004c36  1413 0001:00004c38  1414 0001:00004c3e
  1415 0001:00004c4a  1416 0001:00004c5d  1422 0001:00004c68  1427 0001:00004c84
  1430 0001:00004c8a  1428 0001:00004c8c  1429 0001:00004c93  1424 0001:00004c95
  1425 0001:00004ca4  1431 0001:00004caa  1434 0001:00004cac  1435 0001:00004cb2
  1436 0001:00004cb7  1438 0001:00004cc5  1439 0001:00004cd0  1441 0001:00004cde
  1442 0001:00004ce7  1443 0001:00004cfd  1445 0001:00004cff  1446 0001:00004d0e
  1447 0001:00004d17  1448 0001:00004d22  1449 0001:00004d30  1450 0001:00004d3c
  1453 0001:00004d43  1455 0001:00004d53  1456 0001:00004d5b  1457 0001:00004d63
  1458 0001:00004d6c  1459 0001:00004d70  1460 0001:00004d7b  1461 0001:00004d80
  1993 0001:00005ca6  1994 0001:00005ca6  1996 0001:00005cb3  1997 0001:00005cba
  1998 0001:00005cbd  1999 0001:00005cbf  2000 0001:00005cc2  2001 0001:00005cc4
  2054 0001:00005cc7  2055 0001:00005cc8  2057 0001:00005cd5  2058 0001:00005ce2
  2061 0001:00005ce5  2060 0001:00005ce5  2063 0001:00005cf2  2064 0001:00005cfe
  2066 0001:00005d01  2068 0001:00005d01  2069 0001:00005d03  2071 0001:00005d06
  2072 0001:00005d07  2074 0001:00005d0b  2075 0001:00005d21  2186 0001:00005d24
  2187 0001:00005d27  2192 0001:00005d33  2193 0001:00005d3b  2196 0001:00005d45
  2198 0001:00005d4c  2199 0001:00005d5a  2201 0001:00005d5f  2204 0001:00005d61
  2207 0001:00005d75  2208 0001:00005d83  2210 0001:00005d85  2211 0001:00005d90
  2213 0001:00005d92  2214 0001:00005d9d  2216 0001:00005d9f  2217 0001:00005daa
  2219 0001:00005dac  2220 0001:00005db4  2222 0001:00005db6  2223 0001:00005db8
  2228 0001:00005dbb  2232 0001:00005dc7  2237 0001:00005deb  2234 0001:00005deb
  2238 0001:00005df2  2239 0001:00005df9  2240 0001:00005e08  2263 0001:00005e0b
  2261 0001:00005e0b  2264 0001:00005e1e  2266 0001:00005e21  2267 0001:00005e21
  2269 0001:00005e2d  2270 0001:00005e43  2275 0001:00005e46  2272 0001:00005e46
  2276 0001:00005e4d  2277 0001:00005e54  2278 0001:00005e5c  2273 0001:00005e63
  2279 0001:00005e72  2280 0001:00005e7d  2281 0001:00005e7f  2283 0001:00005e82
  2284 0001:00005e82  2286 0001:00005e86  2287 0001:00005e9f  2289 0001:00005ea2
  2290 0001:00005ea2  2293 0001:00005eaf  2294 0001:00005ebb  2296 0001:00005ec5
  2298 0001:00005ec8  2299 0001:00005ec8  2302 0001:00005ecc  2303 0001:00005edd
  2304 0001:00005ee4  2306 0001:00005ee7  2307 0001:00005ef3  2309 0001:00005efa
  2311 0001:00005efd  2313 0001:00005efd  2314 0001:00005f10  3059 0001:00005f13
  3061 0001:00005f13  3064 0001:00005f20  3065 0001:00005f2b  3067 0001:00005f30
  3069 0001:00005f38  3070 0001:00005f40  3073 0001:00005f4e  3082 0001:00005f51
  3084 0001:00005f5c  3085 0001:00005f66  3086 0001:00005f6c  3087 0001:00005f82
  3088 0001:00005f87  3089 0001:00005f8f  3090 0001:00005f9d  3092 0001:00005fa1
  3095 0001:00005fa7  3096 0001:00005fb9  3097 0001:00005fba  3098 0001:00005fc3
  3099 0001:00005fc5  3100 0001:00005fce  3101 0001:00005fd1  3103 0001:00005fdf
  3104 0001:00005fe1  3106 0001:00005fe4  3107 0001:00006000  3114 0001:0000600f
  3117 0001:0000600f  3118 0001:00006024  3119 0001:0000602d  3120 0001:0000602f
  3122 0001:00006032  3124 0001:00006032  3125 0001:00006034  2835 0001:00006037
  2839 0001:0000603b  2840 0001:00006068  2843 0001:0000606c  2844 0001:0000606c
  2845 0001:00006071  2848 0001:00006074  2847 0001:00006074  2849 0001:00006079
  2855 0001:0000607c  2856 0001:0000607d  2858 0001:0000608b  2859 0001:00006098
  2860 0001:0000609b  2862 0001:0000609e  2867 0001:0000609e  2869 0001:000060ab
  2870 0001:000060b8  2871 0001:000060bd  2872 0001:000060c3  2873 0001:000060cc
  2876 0001:000060ce  2881 0001:000060d1  2884 0001:000060d1  2885 0001:000060d9
  2887 0001:000060e0  2888 0001:000060ef  2889 0001:000060fa  2890 0001:000060fc
  2903 0001:000060ff  2900 0001:000060ff  2904 0001:00006107  2907 0001:0000610e
  2908 0001:00006114  2909 0001:00006116  2911 0001:00006119  2914 0001:0000611d
  2915 0001:00006124  2917 0001:0000612b  2919 0001:00006131  2920 0001:00006149
  2922 0001:0000614d  2924 0001:00006150  2925 0001:00006156  2927 0001:0000615a
  2930 0001:00006161  2931 0001:00006168  2933 0001:0000616f  2936 0001:00006175
  2937 0001:0000618e  2939 0001:00006192  2941 0001:00006195  2942 0001:0000619b
  2948 0001:0000619f  2944 0001:0000619f  2953 0001:000061af  2955 0001:000061bb
  2957 0001:000061d0  2958 0001:000061db  2961 0001:000061dd  2949 0001:000061df
  2962 0001:000061e4  2981 0001:000061e7  2979 0001:000061e7  2984 0001:000061f4
  2985 0001:000061ff  2987 0001:00006204  2989 0001:0000620c  2990 0001:00006214
  2993 0001:00006222  3002 0001:00006225  3003 0001:00006226  3005 0001:00006233
  3006 0001:0000623c  3008 0001:0000623f  3009 0001:00006240  3011 0001:0000624d
  3012 0001:00006256  3014 0001:00006259  3015 0001:00006259  3017 0001:0000625d
  3018 0001:00006279  3027 0001:0000627c  3029 0001:00006283  3030 0001:00006287
  3031 0001:000062a6  3033 0001:000062ac  3037 0001:000062d0  3038 0001:000062e1
  2012 0001:000064fe  2013 0001:000064fe  2030 0001:00006502  2031 0001:0000651b
  2034 0001:0000651e  2033 0001:0000651e  2036 0001:00006522  2037 0001:0000653c
  2040 0001:0000653f  2039 0001:0000653f  2042 0001:00006543  2043 0001:0000655d
  3199 0001:00006560  3201 0001:00006560  3202 0001:00006564  3203 0001:0000657d
  3226 0001:00006580  3228 0001:00006585  3230 0001:00006593  3231 0001:0000659b
  3233 0001:000065a2  3234 0001:000065a6  3237 0001:000065bd  3241 0001:000065c1
  3239 0001:000065c1  3243 0001:000065ce  3244 0001:000065d5  3245 0001:000065da
  3246 0001:000065dc  3248 0001:000065e6  3253 0001:000065e9  3250 0001:000065e9
  3254 0001:000065f1  3257 0001:000065f8  3258 0001:00006608  3259 0001:0000660f
  3260 0001:00006618  3261 0001:0000661d  1553 0001:0000665c  1555 0001:00006663
  1556 0001:00006667  1557 0001:00006678  1559 0001:0000667b  1560 0001:0000667e
  1561 0001:00006694  1575 0001:0000669b  1576 0001:000066a0  1578 0001:000066a7
  1579 0001:000066ae  1582 0001:000066b3  1583 0001:000066bf  1586 0001:000066c3
  1587 0001:000066d2  1588 0001:000066db  1590 0001:000066ef  1591 0001:000066f2
  1627 0001:000066f4  1628 0001:000066f5  1630 0001:000066fc  1631 0001:00006709
  1632 0001:0000670b  1633 0001:0000670d  1634 0001:00006715  1635 0001:0000671c
  1636 0001:00006720  1637 0001:00006725  1638 0001:00006731  1639 0001:00006738
  1640 0001:0000673e  1823 0001:0000673f  1824 0001:00006742  1825 0001:0000674c
  1826 0001:0000675e  1827 0001:00006762  1828 0001:0000676b  1829 0001:0000676f
  1832 0001:00006772  1831 0001:00006772  1834 0001:0000677a  1835 0001:00006785
  1836 0001:0000678b  1837 0001:0000679d  1838 0001:000067a3  1839 0001:000067ba
  1840 0001:000067cc  1841 0001:000067d7  1843 0001:000067ef  1844 0001:000067f1
  1930 0001:000067f4  1931 0001:00006804  1932 0001:00006823  1933 0001:0000682a
  1934 0001:00006846  1935 0001:00006866  1936 0001:00006885  1937 0001:00006890
  1938 0001:0000689b  1939 0001:000068a6  1942 0001:000068be  1940 0001:000068c6
  1941 0001:000068df  1515 0001:0000690d  1513 0001:0000690d  1516 0001:00006925
  2095 0001:00006e64  2096 0001:00006e74  2098 0001:00006e7e  2101 0001:00006e8c
  2102 0001:00006e9f  2105 0001:00006eb1  2106 0001:00006ebb  2107 0001:00006ed2
  2109 0001:00006ee4  2115 0001:00006ee4  2116 0001:00006efb  2117 0001:00006eff
  2120 0001:00006f01  2122 0001:00006f04  2123 0001:00006f04  2128 0001:00006f0b
  2129 0001:00006f21  2132 0001:00006f25  2134 0001:00006f2e  2135 0001:00006f32
  2137 0001:00006f35  2138 0001:00006f35  2139 0001:00006f3e  2140 0001:00006f40
  2145 0001:00006f46  2146 0001:00006f54  2147 0001:00006f58  2151 0001:00006f5a
  2153 0001:00006f5d  2154 0001:00006f60  2159 0001:00006f69  2160 0001:00006f72
  2161 0001:00006f7c  2164 0001:00006f85  2165 0001:00006f88  1564 0001:00007081
  1563 0001:00007081  1568 0001:0000708e  1571 0001:00007092  1572 0001:000070a9
  1593 0001:000070ac  1594 0001:000070b7  1595 0001:000070c3  1596 0001:000070cb
  1597 0001:000070dc  1598 0001:000070e4  1599 0001:000070f0  1600 0001:000070fe
  1602 0001:0000710f  1604 0001:00007116  1608 0001:00007128  1610 0001:00007144
  1614 0001:00007148  1615 0001:00007156  1616 0001:00007162  1617 0001:00007166
  1619 0001:0000716a  1620 0001:0000716b  1621 0001:0000717d  1622 0001:00007182
  1623 0001:00007189  1624 0001:00007192  1625 0001:00007196  1643 0001:00007199
  1644 0001:000071a6  1647 0001:000071b1  1650 0001:000071da  1651 0001:000071e0
  1655 0001:000071fc  1657 0001:00007204  1660 0001:0000720c  1661 0001:00007222
  1664 0001:00007228  1665 0001:00007235  1668 0001:00007248  1669 0001:0000724a
  1672 0001:0000724c  1690 0001:0000726e  1692 0001:00007272  1693 0001:0000727d
  1694 0001:0000728a  1695 0001:00007296  1648 0001:0000729b  1788 0001:0000729d
  1676 0001:000072ae  1678 0001:000072b2  1679 0001:000072bd  1680 0001:000072cc
  1681 0001:000072da  1682 0001:000072dd  1712 0001:000072df  1755 0001:000072f7
  1717 0001:000072fd  1718 0001:0000730a  1720 0001:00007312  1722 0001:0000731d
  1723 0001:0000732c  1726 0001:00007334  1727 0001:0000733d  1729 0001:00007345
  1731 0001:00007354  1732 0001:00007356  1734 0001:00007368  1737 0001:0000737c
  1734 0001:0000739d  1737 0001:000073ab  1739 0001:000073ad  1743 0001:000073ba
  1745 0001:000073c3  1746 0001:000073c5  1748 0001:000073c9  1750 0001:000073cb
  1758 0001:000073d8  1760 0001:000073e2  1761 0001:000073e8  1765 0001:000073fd
  1769 0001:00007415  1771 0001:0000741d  1774 0001:00007425  1776 0001:00007443
  1777 0001:00007448  1778 0001:00007454  1780 0001:0000745b  1781 0001:0000745e
  1782 0001:00007470  1783 0001:00007474  1784 0001:0000747d  1785 0001:0000748e
  1787 0001:0000749c  1791 0001:000074a4  1790 0001:000074a4  1792 0001:000074b7
  1795 0001:000074be  1796 0001:000074cb  1798 0001:000074d3  1801 0001:000074d9
  1803 0001:000074de  1804 0001:000074ea  1806 0001:000074ef  1807 0001:000074f7
  1808 0001:00007500  1810 0001:00007507  1811 0001:0000750b  1812 0001:0000751d
  1813 0001:00007521  1814 0001:0000752a  1815 0001:0000753b  1817 0001:0000754a
  1818 0001:0000754e  1820 0001:00007555  1866 0001:00007562  1868 0001:00007566
  1871 0001:0000756c  1877 0001:00007596  1883 0001:000075b1  1884 0001:000075ce
  1886 0001:000075dc  1879 0001:000075e1  1881 0001:000075ec  1873 0001:000075ee
  1889 0001:00007608  1890 0001:0000760e  1891 0001:00007611  1894 0001:00007612
  1896 0001:0000761f  1897 0001:00007628  1899 0001:00007633  1901 0001:00007643
  1904 0001:0000764b  1906 0001:00007650  1908 0001:0000765c  1910 0001:00007661
  1911 0001:00007669  1912 0001:00007672  1914 0001:00007679  1915 0001:0000767d
  1916 0001:0000768f  1917 0001:00007693  1918 0001:0000769c  1919 0001:000076ad
  1922 0001:000076bd  1927 0001:000076c9  1928 0001:000076dd  1493 0001:000076eb

Line numbers for .\Release\SettingsMasterOptions.obj(g:\vsnet\vc7\atlmfc\include\atlcore.h) segment .text

   157 0001:0000949f   159 0001:000094a6   160 0001:000094ad   161 0001:000094b1
   162 0001:000094b7   114 0001:000094ba   116 0001:000094bb   117 0001:000094ca
   129 0001:000094ce   130 0001:000094da   131 0001:000094dc   133 0001:000094df
   136 0001:000094e8   138 0001:000094f9   143 0001:00009516   144 0001:00009518

Line numbers for .\Release\SettingsMasterOptions.obj(g:\vsnet\vc7\atlmfc\include\atlexcept.h) segment .text

    61 0001:00009caf    73 0001:00009cb2

Line numbers for .\Release\SettingsMasterOptions.obj(g:\vsnet\vc7\atlmfc\include\atlcom.h) segment .text

  3763 0001:000056e9  3765 0001:000056ea  3766 0001:000056f8  3767 0001:00005705
  3768 0001:00005708  3772 0001:0000570b  3770 0001:0000570b  3775 0001:0000570f
  3777 0001:00005725  3778 0001:0000572c  3779 0001:00005736  3781 0001:00005738
  3782 0001:0000573b  3786 0001:00005740  4398 0001:00005743  4399 0001:00005744
  4400 0001:00005757  4403 0001:0000575a  4404 0001:0000575a  4405 0001:00005774
  4409 0001:00005777  4411 0001:0000577b  4412 0001:0000579e  2496 0001:000057e6
  2498 0001:000057e9  2502 0001:00005804  2503 0001:0000580f  2516 0001:00005816
  2496 0001:00005835  2498 0001:00005838  2502 0001:00005853  2503 0001:0000585e
  2508 0001:00005865  2509 0001:00005865  2510 0001:00005870  2511 0001:00005872
  2512 0001:00005880  2513 0001:00005883  2516 0001:00005886  2489 0001:000058a5
  2491 0001:000058b2  2492 0001:000058bd  2496 0001:000058c0  2497 0001:000058c9
  2502 0001:000058d0  2503 0001:000058db  2506 0001:000058e3  2509 0001:000058f0
  2508 0001:000058f0  2510 0001:000058fb  2511 0001:000058fd  2512 0001:00005908
  2513 0001:0000590b  2516 0001:0000590e  4648 0001:00005929  1751 0001:000059c0
  1753 0001:000059d2  1754 0001:000059dc  1759 0001:000059e3  1760 0001:00005a22
  1769 0001:00005a26  1770 0001:00005a37  1771 0001:00005a3e  1773 0001:00005a47
  1774 0001:00005a4a  4391 0001:00005a7d  4392 0001:00005a7d  4393 0001:00005a85
  4394 0001:00005a8c  4395 0001:00005a92  4396 0001:00005a94  4398 0001:00005a97
  4399 0001:00005a98  4400 0001:00005aab  4403 0001:00005aae  4404 0001:00005aae
  4405 0001:00005ac8  4409 0001:00005acb  4411 0001:00005acf  4412 0001:00005af2
   514 0001:00005af6   512 0001:00005af6   515 0001:00005b05   516 0001:00005b10
   518 0001:00005b13   521 0001:00005b13   522 0001:00005b1e   523 0001:00005b31
   525 0001:00005b34   526 0001:00005b34   528 0001:00005b41   529 0001:00005b5d
   531 0001:00005b60   533 0001:00005b6e   536 0001:00005b7c   537 0001:00005b84
   544 0001:00005b8e   545 0001:00005b91   547 0001:00005b98   549 0001:00005b9e
   551 0001:00005bbd   555 0001:00005bc1   557 0001:00005bc8   558 0001:00005bce
   561 0001:00005bd0   562 0001:00005bda   564 0001:00005be6   565 0001:00005bf7
   571 0001:00005c07   574 0001:00005c0d   580 0001:00005c23   581 0001:00005c2e
   574 0001:00005c4c   578 0001:00005c4e   582 0001:00005c5f   583 0001:00005c6a
   584 0001:00005c81   590 0001:00005c90   588 0001:00005c90   591 0001:00005c9d
   592 0001:00005ca1   593 0001:00005ca3   619 0001:000062e5   621 0001:000062e6
   622 0001:000062ee   623 0001:000062f6   624 0001:000062ff   625 0001:00006303
   629 0001:00006306   631 0001:00006311   632 0001:00006317   633 0001:00006325
   634 0001:00006349   636 0001:0000635b   638 0001:00006366   639 0001:0000636c
   640 0001:0000637a   641 0001:0000639e   643 0001:000063b0   645 0001:000063bd
   646 0001:000063c6   647 0001:000063ce   648 0001:000063d1   650 0001:000063de
   652 0001:000063ec   654 0001:000063ef   655 0001:00006406   656 0001:0000640d
   657 0001:00006419   658 0001:00006429   659 0001:0000643b   661 0001:0000644b
   663 0001:00006458   664 0001:00006461   665 0001:00006469   666 0001:0000646c
   668 0001:00006479   670 0001:00006487   674 0001:0000648a   675 0001:000064a5
   676 0001:000064ac   677 0001:000064bb   678 0001:000064cb   679 0001:000064dd
  4991 0001:000064ed  4988 0001:000064ed  4992 0001:000064fb  4485 0001:00006620
  4486 0001:00006621  4487 0001:00006632  4489 0001:00006635  4490 0001:00006636
  4491 0001:0000663e  4498 0001:00006646  4499 0001:0000664f  4500 0001:00006656
  3412 0001:00006659  1751 0001:00006c82  1753 0001:00006c8f  1754 0001:00006c9e
  1759 0001:00006ca5  1760 0001:00006cde  1769 0001:00006ce2  1770 0001:00006cf3
  1771 0001:00006cfa  1773 0001:00006d03  1774 0001:00006d06  1827 0001:00006d17
  1832 0001:00006d1a  1833 0001:00006d2d  1832 0001:00006d32   596 0001:00006e3d
   597 0001:00006e40   598 0001:00006e49   599 0001:00006e58   600 0001:00006e5c
   603 0001:00006e61  4995 0001:00006f89  4996 0001:00006f8f  4997 0001:00006f97
  4999 0001:00006f99  5000 0001:00006f9d  5005 0001:00006fa9  5015 0001:00006fb7
  5008 0001:00006fbb  5011 0001:00006fc2  5012 0001:00006fd0  5005 0001:00006fd3
  5015 0001:00006fe2  5016 0001:00006ff2  5017 0001:00006ff8  5020 0001:00006fff
  5023 0001:0000700d  5026 0001:00007013  5031 0001:00007025  5033 0001:00007033
  5020 0001:0000704e  5042 0001:00007057  5046 0001:00007070  5047 0001:00007078
  5048 0001:0000707d  2950 0001:0000770a  2951 0001:00007738  2952 0001:00007743
  2971 0001:00007754  2973 0001:0000776d  2977 0001:0000777e  2978 0001:00007789
  2980 0001:000077a0  2989 0001:000077ad  2993 0001:000077b1  2994 0001:000077bb
  2998 0001:000077c2  3000 0001:000077ce  3001 0001:000077d5  3006 0001:000077db
  3007 0001:000077dd  3008 0001:000077f0  3009 0001:000077f4  2813 0001:000077f8
  2814 0001:00007808  2817 0001:00007818  2816 0001:00007818  2818 0001:0000782c
  2833 0001:0000782f  2827 0001:0000782f  2835 0001:00007832  2564 0001:00007833
  2568 0001:0000786b  2574 0001:0000786f  2578 0001:00007897  2579 0001:00007899
  2580 0001:000078a8  2581 0001:000078b2  2582 0001:000078b9  2583 0001:000078c4
  2584 0001:000078cd  2585 0001:000078d0  2587 0001:000078d3  2588 0001:000078d6
  2589 0001:000078e4  2590 0001:000078ee  2591 0001:000078f0  2592 0001:000078f7
  2593 0001:000078fb  2594 0001:00007904  2595 0001:0000790b  2596 0001:00007917
  2597 0001:0000791b  2600 0001:0000791e  1751 0001:00007939  1753 0001:00007946
  1754 0001:00007955  1757 0001:0000795c  1759 0001:00007961  1760 0001:00007996
  1763 0001:0000799a  1764 0001:000079a2  1765 0001:000079ab  1766 0001:000079af
  1767 0001:000079b1  1768 0001:000079b3  1769 0001:000079b7  1770 0001:000079c4
  1771 0001:000079c8  1773 0001:000079d1  1774 0001:000079d3  1751 0001:000079e4
  1753 0001:000079f6  1754 0001:00007a00  1757 0001:00007a07  1759 0001:00007a0c
  1760 0001:00007a4a  1764 0001:00007a4e  1765 0001:00007a58  1766 0001:00007a5c
  1768 0001:00007a5e  1769 0001:00007a62  1770 0001:00007a6f  1771 0001:00007a73
  1773 0001:00007a7c  1774 0001:00007a7e  2804 0001:00007d22  2489 0001:00007d83
  2491 0001:00007df1  2492 0001:00007dfc  2496 0001:00007dff  2497 0001:00007e6a
  2502 0001:00007e74  2503 0001:00007e7f  2506 0001:00007e87  2508 0001:00007e97
  2509 0001:00007e97  2510 0001:00007ea6  2511 0001:00007ea8  2512 0001:00007eb5
  2513 0001:00007eb8  2516 0001:00007ebb  2848 0001:00007ed6  2849 0001:00007efe
  2850 0001:00007f09  2866 0001:00007f1b  2867 0001:00007f36  2872 0001:00007f3d
  2873 0001:00007f48  2878 0001:00007f61  2877 0001:00007f61  2879 0001:00007f6c
  2880 0001:00007f6e  2881 0001:00007f79  2882 0001:00007f7c  2884 0001:00007f7f
  2886 0001:00007f83  2887 0001:00007f8d  2891 0001:00007f94  2893 0001:00007fa0
  2894 0001:00007fa7  2899 0001:00007fad  2900 0001:00007faf  2901 0001:00007fc2
  2902 0001:00007fc6  2813 0001:00007fca  2814 0001:00007fdd  2817 0001:00007ff0
  2816 0001:00007ff0  2818 0001:00008007  2804 0001:00008064  2528 0001:0000841e
  2530 0001:00008431  2531 0001:0000843a  2536 0001:00008441  2537 0001:00008475
  2543 0001:00008479  2551 0001:0000847d  2552 0001:0000847f  2553 0001:00008482
  2528 0001:00008493  2530 0001:000084a6  2531 0001:000084af  2536 0001:000084b6
  2537 0001:000084ea  2543 0001:000084ee  2551 0001:000084f2  2552 0001:000084f4
  2553 0001:000084f7  4667 0001:00008508  4668 0001:0000851d  4670 0001:00008524
  4671 0001:00008529  4670 0001:00008535  4672 0001:0000853d  4674 0001:00008547
  4679 0001:00008565  4680 0001:0000856a  4681 0001:00008573  4682 0001:00008575
  4683 0001:0000857c  4684 0001:00008583  4686 0001:00008594  4689 0001:000085aa
  4690 0001:000085b3  4691 0001:000085b7  4692 0001:000085ba  4693 0001:000085be
  4694 0001:000085c2  4696 0001:000085c4  4695 0001:000085cb  4698 0001:000085cd
  4708 0001:000085de  4710 0001:000085e8  4687 0001:000085ed  4685 0001:000085f4
  4711 0001:000085fc  4715 0001:00008600  4716 0001:00008601  4717 0001:00008609
  4719 0001:00008610  4720 0001:0000861f  4721 0001:00008625  4722 0001:0000862b
  4723 0001:00008635  4727 0001:00008638  4730 0001:00008644  4748 0001:00008649
  4738 0001:00008692  4739 0001:000086c1  4741 0001:000086c5  4742 0001:000086c8
  4744 0001:000086e0  4745 0001:000086e4  4749 0001:000086f2  4754 0001:00008704
  4755 0001:0000870f  4758 0001:00008721  4759 0001:0000874c  4760 0001:0000874f
  4761 0001:00008756  4762 0001:0000875d  4765 0001:00008764  4775 0001:00008775
  4777 0001:00008780  4779 0001:0000878f  4781 0001:00008791  4782 0001:00008797
  4784 0001:0000879a  4785 0001:000087a5  4786 0001:000087ab  4787 0001:000087b1
  4788 0001:000087b3   696 0001:000089c9   697 0001:000089d1   699 0001:000089d6
   700 0001:000089ee   701 0001:000089fe   702 0001:00008a03  4127 0001:00008a54
  4129 0001:00008a5a  4130 0001:00008a5f  4179 0001:00008a66  4132 0001:00008a68
  4135 0001:00008a74  4136 0001:00008a7c  4137 0001:00008a88  4139 0001:00008a8d
  4140 0001:00008a93  4143 0001:00008a98  4145 0001:00008aad  4147 0001:00008ab5
  4148 0001:00008ab9  4150 0001:00008ac2  4152 0001:00008acd  4154 0001:00008ad1
  4155 0001:00008ae7  4156 0001:00008aee  4158 0001:00008af0  4159 0001:00008b07
  4161 0001:00008b0e  4164 0001:00008b1b  4166 0001:00008b1d  4167 0001:00008b25
  4168 0001:00008b30  4169 0001:00008b32  4173 0001:00008b44  4174 0001:00008b4a
  4176 0001:00008b50  4133 0001:00008b57  4174 0001:00008b61  4160 0001:00008b63
  4178 0001:00008b69  4179 0001:00008b6f  2489 0001:00008bd4  2491 0001:00008be8
  2492 0001:00008bf3  2489 0001:00008bf6  2491 0001:00008c0a  2492 0001:00008c15
  2528 0001:00008c18  2530 0001:00008c2b  2531 0001:00008c34  2536 0001:00008c3b
  2537 0001:00008c6f  2543 0001:00008c73  2551 0001:00008c77  2552 0001:00008c79
  2553 0001:00008c7c  3187 0001:0000909b  3186 0001:0000909b  3188 0001:000090a0
  3189 0001:000090ad  3190 0001:000090af  3191 0001:000090b2  3192 0001:000090b4
  3166 0001:000090b7  3169 0001:000090bb  3171 0001:000090c7  3174 0001:000090ca
  3177 0001:000090dc  3179 0001:000090e1  3180 0001:000090e3  3183 0001:000090f1
  6097 0001:000090f5  6098 0001:00009102  6101 0001:00009133  6102 0001:0000913e
  6103 0001:00009147  6104 0001:0000914b  6108 0001:0000914f  6110 0001:0000915c
  6111 0001:00009164  6112 0001:00009174  6114 0001:0000917e  6115 0001:00009186
  6116 0001:00009197  6118 0001:0000919f  6119 0001:000091a7  6120 0001:000091b7
  6123 0001:000091bf  6124 0001:000091ce  6126 0001:000091d6  6127 0001:000091e3
  6128 0001:000091f0  6129 0001:000091fd  6132 0001:00009207  6133 0001:0000920f
  6134 0001:0000921d  6135 0001:00009228  6136 0001:00009235  6139 0001:0000923a
  6142 0001:00009242  6144 0001:0000924a  6145 0001:0000925a  6147 0001:00009262
  6148 0001:00009271  6150 0001:00009279  6151 0001:0000928c  6154 0001:00009294
  6155 0001:000092a4  6158 0001:000092af  6161 0001:000092bb  6162 0001:000092cb
  6164 0001:000092cf  6158 0001:000092d5  6164 0001:000092e1  6167 0001:000092e3
  6168 0001:000092f3  6170 0001:000092f7  6171 0001:000092ff  6172 0001:00009311
  6175 0001:00009315  6176 0001:00009322  6178 0001:00009327  6179 0001:00009334
  6182 0001:00009343  6187 0001:0000934b  6192 0001:00009357  6193 0001:00009367
  6195 0001:0000936f  6196 0001:00009377  6197 0001:0000937f  6198 0001:00009387
  6099 0001:0000938c  6199 0001:00009391  3161 0001:0000951e  3162 0001:00009524
  5830 0001:00009553  5832 0001:0000955e  5836 0001:00009585  5837 0001:0000959b
  5838 0001:0000959d  5840 0001:000095a3  5842 0001:000095ab  5840 0001:000095b7
  5844 0001:000095ba  5848 0001:000095c2  5850 0001:000095c9  5852 0001:000095cf
  5855 0001:000095d6  5856 0001:000095e9  5858 0001:000095f4  5859 0001:000095fd
  5860 0001:000095ff  5863 0001:0000960d  5866 0001:0000960f  5867 0001:00009619
  5869 0001:00009621  5870 0001:00009631  5876 0001:00009644  5879 0001:0000964a
  5886 0001:00009660  5889 0001:0000966d  5887 0001:00009677  5842 0001:0000967b
  5887 0001:0000968d  5883 0001:0000968f  5890 0001:0000969e  5833 0001:000096aa
  5891 0001:000096b2  5761 0001:0000989b  5763 0001:000098a6  5768 0001:000098cd
  5769 0001:000098da  5770 0001:000098df  5771 0001:000098e5  5772 0001:000098ee
  5774 0001:000098f8  5776 0001:00009900  5774 0001:0000990c  5778 0001:0000990f
  5782 0001:00009917  5784 0001:0000991e  5786 0001:00009924  5788 0001:0000992b
  5789 0001:0000992e  5790 0001:0000993c  5791 0001:0000993f  5792 0001:00009949
  5793 0001:0000994d  5794 0001:0000995c  5796 0001:00009965  5799 0001:00009967
  5801 0001:00009971  5802 0001:0000997c  5805 0001:00009983  5807 0001:0000998b
  5808 0001:0000999b  5814 0001:000099ae  5817 0001:000099b4  5823 0001:000099c5
  5817 0001:000099e5  5803 0001:000099e7  5812 0001:000099ed  5820 0001:000099f1
  5821 0001:000099f8  5824 0001:000099fe  5764 0001:00009a0b  5825 0001:00009a13
  3584 0001:00009e60  3585 0001:00009e63  3586 0001:00009e6d  3587 0001:00009e73
  3589 0001:00009e91  3520 0001:00009e95  3521 0001:00009e98  3522 0001:00009e9a
  3523 0001:00009ea4  3525 0001:00009eae  3632 0001:00009eb1  3637 0001:00009ec7
  3638 0001:00009ed6  3640 0001:00009edd  3641 0001:00009eec  3649 0001:00009ef6
  3652 0001:00009f10  3655 0001:00009f39  3656 0001:00009f52  3658 0001:00009f62
  3664 0001:00009f68  3665 0001:00009f7f  3667 0001:00009f8d  3669 0001:00009f8f
  3720 0001:00009fb4  3722 0001:00009fc0  3723 0001:00009fc6  3724 0001:00009fdf
  3726 0001:00009fed  3727 0001:0000a006  3728 0001:0000a00c  3729 0001:0000a025
  3731 0001:0000a038  3733 0001:0000a03b  3735 0001:0000a051  3736 0001:0000a076
  3737 0001:0000a082  3739 0001:0000a095  3742 0001:0000a097  3745 0001:0000a09d
  3746 0001:0000a0aa  3748 0001:0000a0b1  3749 0001:0000a0c2  3530 0001:0000a183
  3532 0001:0000a184  3536 0001:0000a18c  3537 0001:0000a193  3538 0001:0000a199
  3539 0001:0000a19e  3540 0001:0000a1ac  3541 0001:0000a1b2  3591 0001:0000a205
  3593 0001:0000a213  3594 0001:0000a228  3597 0001:0000a232  3599 0001:0000a239
  3601 0001:0000a248  3602 0001:0000a29e  3604 0001:0000a2a4  3605 0001:0000a2ad
  3608 0001:0000a2b9  3611 0001:0000a2c8  3613 0001:0000a2d9  3614 0001:0000a2de
  3616 0001:0000a2fb  3617 0001:0000a311  3618 0001:0000a319  3620 0001:0000a327
  3621 0001:0000a330  3623 0001:0000a34f  3624 0001:0000a352  3626 0001:0000a35e
  3627 0001:0000a360  3477 0001:0000a371  3549 0001:0000a37f  3550 0001:0000a383
  3551 0001:0000a38d  3557 0001:0000a393  3559 0001:0000a3a1  3560 0001:0000a3ac
  3563 0001:0000a3bb  3560 0001:0000a3e3  3575 0001:0000a3eb  3579 0001:0000a400
  3565 0001:0000a404  3566 0001:0000a413  3573 0001:0000a415  3502 0001:0000a417
  3504 0001:0000a417  3505 0001:0000a41e  3507 0001:0000a425  3508 0001:0000a427
  3509 0001:0000a42c  3510 0001:0000a435  3511 0001:0000a43a  3513 0001:0000a440
  3514 0001:0000a449  3517 0001:0000a44c

Line numbers for .\Release\SettingsMasterOptions.obj(g:\vsnet\vc7\platformsdk\include\guiddef.h) segment .text

   156 0001:0000a471   151 0001:0000a471   157 0001:0000a492   156 0001:0000a493
   157 0001:0000a495

Line numbers for .\Release\SettingsMasterOptions.obj(g:\vsnet\vc7\atlmfc\include\statreg.h) segment .text

   268 0001:0000a625   266 0001:0000a625   269 0001:0000a628   510 0001:0000a62b
   512 0001:0000a62b   515 0001:0000a637   126 0001:0000a63a   127 0001:0000a63e
   129 0001:0000a645   130 0001:0000a656   132 0001:0000a66d   133 0001:0000a673
   134 0001:0000a676    88 0001:0000a704    89 0001:0000a716    90 0001:0000a71d
   276 0001:0000a731   324 0001:0000a78d   325 0001:0000a799   328 0001:0000a7a6
   337 0001:0000a7af   339 0001:0000a7c6   326 0001:0000a7e3   340 0001:0000a7e8
    93 0001:0000a7f7    95 0001:0000a807   100 0001:0000a81e   103 0001:0000a831
   105 0001:0000a84d   107 0001:0000a85a   109 0001:0000a885   113 0001:0000a88f
   114 0001:0000a89d   115 0001:0000a8a9   120 0001:0000a8c0   121 0001:0000a8cf
   123 0001:0000a8d9    96 0001:0000a8e3   124 0001:0000a8e5   428 0001:0000a972
   429 0001:0000a97f   439 0001:0000a989   440 0001:0000a9ac   344 0001:0000a9be
   345 0001:0000a9dc   348 0001:0000a9ea   354 0001:0000a9fc   364 0001:0000aa02
   366 0001:0000aa14   369 0001:0000aa1e   370 0001:0000aa25   373 0001:0000aa2a
   375 0001:0000aa39   382 0001:0000aa3b   385 0001:0000aa3d   387 0001:0000aa45
   391 0001:0000aa4d   394 0001:0000aa4f   398 0001:0000aa59   399 0001:0000aa84
   401 0001:0000aa8c   402 0001:0000aa91   406 0001:0000aa93   408 0001:0000aab3
   409 0001:0000aab8   416 0001:0000aaba   418 0001:0000aac0   423 0001:0000aada
   424 0001:0000aae6   425 0001:0000ab0a  1092 0001:0000ab74  1097 0001:0000ab96
  1098 0001:0000aba8  1099 0001:0000abaa  1104 0001:0000abb0  1110 0001:0000abba
  1113 0001:0000abca  1120 0001:0000abdf  1123 0001:0000abef  1129 0001:0000abfa
  1132 0001:0000ac00  1133 0001:0000ac1e  1136 0001:0000ac22  1137 0001:0000ac25
  1149 0001:0000ac37  1151 0001:0000ac40  1143 0001:0000ac5a  1147 0001:0000ac6d
  1108 0001:0000ac74  1143 0001:0000ac7d  1126 0001:0000ac7f  1127 0001:0000ac84
  1014 0001:0000ac86  1018 0001:0000ac9c  1021 0001:0000acb2  1022 0001:0000acb5
  1023 0001:0000acbe  1024 0001:0000accb  1025 0001:0000acd0  1026 0001:0000ace1
  1029 0001:0000ace3  1031 0001:0000acee  1033 0001:0000acf4  1034 0001:0000acff
  1036 0001:0000ad05  1077 0001:0000ad06  1084 0001:0000ad12  1077 0001:0000ad22
  1087 0001:0000ad24  1088 0001:0000ad2f  1044 0001:0000ad40  1045 0001:0000ad49
  1051 0001:0000ad4e  1058 0001:0000ad59  1059 0001:0000ad66  1060 0001:0000ad7b
  1065 0001:0000ad7f  1067 0001:0000ad8d  1068 0001:0000ad94  1072 0001:0000ad96
  1071 0001:0000ada0  1075 0001:0000ada4  1053 0001:0000ada9  1054 0001:0000adb0
  1062 0001:0000adb5  1063 0001:0000adbc  1019 0001:0000adc1  1089 0001:0000adc6
   182 0001:0000adde   184 0001:0000adde   185 0001:0000ade3   186 0001:0000ade8
   187 0001:0000adeb   188 0001:0000adee   189 0001:0000adf7   190 0001:0000adfe
   191 0001:0000ae02   193 0001:0000ae05   194 0001:0000ae05   195 0001:0000ae0e
   718 0001:0000ae0f   719 0001:0000ae10   721 0001:0000ae12   734 0001:0000ae17
   726 0001:0000ae18   731 0001:0000ae1f   726 0001:0000ae2e   728 0001:0000ae30
   733 0001:0000ae32   734 0001:0000ae35    70 0001:0000ae87    71 0001:0000ae87
    74 0001:0000ae9b   225 0001:0000ae9c   226 0001:0000aea0   227 0001:0000aea6
   228 0001:0000aeac   234 0001:0000aeb2   235 0001:0000aeda   199 0001:0000aede
   197 0001:0000aede   202 0001:0000aee9   203 0001:0000aefb   204 0001:0000af07
   206 0001:0000af0b   208 0001:0000af0e   209 0001:0000af24   210 0001:0000af28
   211 0001:0000af30   212 0001:0000af36   686 0001:0000af39   709 0001:0000af3a
   711 0001:0000af3c   714 0001:0000af57   715 0001:0000af5a   712 0001:0000af5b
   715 0001:0000af63   763 0001:0000af64   764 0001:0000af6f   767 0001:0000af74
   768 0001:0000af7e   772 0001:0000af88   774 0001:0000af92   776 0001:0000af9f
   778 0001:0000afaa   779 0001:0000afb2   781 0001:0000afb7   782 0001:0000afb9
   784 0001:0000afbf   786 0001:0000afd1   787 0001:0000afda   776 0001:0000afea
   790 0001:0000aff2   793 0001:0000aff8   796 0001:0000affa   797 0001:0000affe
   800 0001:0000b004   785 0001:0000b006   803 0001:0000b00d   806 0001:0000b01b
   807 0001:0000b022   809 0001:0000b034   810 0001:0000b03c   803 0001:0000b04c
   813 0001:0000b054   815 0001:0000b058   816 0001:0000b05d   165 0001:0000b05f
   744 0001:0000b07b   743 0001:0000b07b   750 0001:0000b092   754 0001:0000b095
   753 0001:0000b096   754 0001:0000b098  1154 0001:0000b099  1155 0001:0000b0ae
  1159 0001:0000b0c4  1163 0001:0000b0c7  1164 0001:0000b0dd  1167 0001:0000b0e2
  1170 0001:0000b0ed  1172 0001:0000b109  1174 0001:0000b11c  1177 0001:0000b133
  1181 0001:0000b139  1184 0001:0000b14b  1186 0001:0000b155  1188 0001:0000b158
  1191 0001:0000b164  1193 0001:0000b168  1195 0001:0000b17f  1197 0001:0000b18c
  1203 0001:0000b191  1205 0001:0000b1a1  1206 0001:0000b1a7  1210 0001:0000b1be
  1214 0001:0000b1d2  1216 0001:0000b1ef  1220 0001:0000b206  1223 0001:0000b210
  1227 0001:0000b219  1228 0001:0000b223  1231 0001:0000b23c  1389 0001:0000b244
  1393 0001:0000b248  1395 0001:0000b25a  1397 0001:0000b27b  1167 0001:0000b292
  1397 0001:0000b29c  1238 0001:0000b2a1  1243 0001:0000b2ae  1244 0001:0000b2c2
  1246 0001:0000b2ca  1247 0001:0000b2db  1259 0001:0000b2e8  1260 0001:0000b2f3
  1262 0001:0000b300  1266 0001:0000b302  1269 0001:0000b314  1271 0001:0000b31f
  1272 0001:0000b333  1275 0001:0000b337  1276 0001:0000b34b  1280 0001:0000b34f
  1281 0001:0000b368  1286 0001:0000b370  1290 0001:0000b387  1292 0001:0000b391
  1296 0001:0000b3b0  1298 0001:0000b3b5  1299 0001:0000b3ba  1300 0001:0000b3d1
  1301 0001:0000b3d3  1305 0001:0000b3da  1306 0001:0000b3df  1317 0001:0000b3e6
  1319 0001:0000b3f9  1321 0001:0000b40c  1324 0001:0000b41f  1326 0001:0000b425
  1328 0001:0000b43e  1331 0001:0000b448  1341 0001:0000b45b  1345 0001:0000b46e
  1348 0001:0000b477  1383 0001:0000b483  1403 0001:0000b48a  1404 0001:0000b4a2
  1358 0001:0000b4ba  1361 0001:0000b4d1  1365 0001:0000b4f2  1367 0001:0000b504
  1370 0001:0000b509  1371 0001:0000b51d  1374 0001:0000b52b  1379 0001:0000b537
  1381 0001:0000b547  1386 0001:0000b54f  1221 0001:0000b554  1232 0001:0000b55c
  1250 0001:0000b567  1251 0001:0000b56c  1256 0001:0000b579  1257 0001:0000b57e
  1267 0001:0000b597  1282 0001:0000b5b1  1372 0001:0000b5b6   819 0001:0000b609
   827 0001:0000b625   828 0001:0000b646   829 0001:0000b64c   832 0001:0000b665
   835 0001:0000b66f   836 0001:0000b674   837 0001:0000b683   839 0001:0000b689
   850 0001:0000b6b5   851 0001:0000b6c3   852 0001:0000b6c9   853 0001:0000b6de
   858 0001:0000b6e8   860 0001:0000b6fe   861 0001:0000b701   863 0001:0000b710
   864 0001:0000b715   866 0001:0000b71b   852 0001:0000b71d   868 0001:0000b723
   877 0001:0000b726   878 0001:0000b728   858 0001:0000b72a   882 0001:0000b730
   883 0001:0000b734   885 0001:0000b747   887 0001:0000b749   889 0001:0000b74c
   890 0001:0000b769   894 0001:0000b76e   901 0001:0000b774   903 0001:0000b790
   905 0001:0000b7a1   909 0001:0000b7b3   910 0001:0000b7c0   913 0001:0000b7c8
   916 0001:0000b7ca   917 0001:0000b7e5   918 0001:0000b803   919 0001:0000b80d
   920 0001:0000b82c   921 0001:0000b83c   922 0001:0000b845   923 0001:0000b87e
   924 0001:0000b89a   843 0001:0000b8b5   928 0001:0000b8cb   931 0001:0000b8d1
   934 0001:0000b8da   935 0001:0000b8e7   937 0001:0000b8e9   938 0001:0000b8eb
   628 0001:0000b904   618 0001:0000b904   629 0001:0000b927   630 0001:0000b93a
   631 0001:0000b94d   636 0001:0000b961   638 0001:0000b963   645 0001:0000b97e
   647 0001:0000b981   640 0001:0000b982   641 0001:0000b991   647 0001:0000b995
   651 0001:0000ba43   650 0001:0000ba43   677 0001:0000ba64   683 0001:0000ba67
   670 0001:0000ba68   683 0001:0000ba6b   663 0001:0000ba6c   683 0001:0000ba6f
   681 0001:0000ba70   683 0001:0000ba72   994 0001:0000baa6   998 0001:0000bab0
  1000 0001:0000bac5  1001 0001:0000bace  1003 0001:0000bad0  1004 0001:0000bad5
  1005 0001:0000bae2  1006 0001:0000bae4  1007 0001:0000baef  1010 0001:0000baf1
  1011 0001:0000baf3   950 0001:0000bb07   951 0001:0000bb0b   955 0001:0000bb0d
   959 0001:0000bb2b   962 0001:0000bb2f   963 0001:0000bb38   941 0001:0000bb3c
   942 0001:0000bb3d   943 0001:0000bb42   946 0001:0000bb5d   947 0001:0000bb61
   944 0001:0000bb64   757 0001:0000bc74   758 0001:0000bc74   759 0001:0000bc76
   760 0001:0000bc8e   460 0001:0000bc8f   461 0001:0000bc9c   470 0001:0000bca7
   471 0001:0000bcc8

Line numbers for .\Release\SettingsMasterOptions.obj(g:\vsnet\vc7\atlmfc\include\atlbase.h) segment .text

   736 0001:0000952f   727 0001:0000952f   738 0001:0000954f   736 0001:00009550
   738 0001:00009552   628 0001:00009cc7   627 0001:00009cc7   629 0001:00009ccd
   630 0001:00009cdd  2677 0001:0000a0d9  2678 0001:0000a0d9  2679 0001:0000a0f2
  5506 0001:0000a496  5507 0001:0000a4b1  5509 0001:0000a4bd  5511 0001:0000a4c1
  5514 0001:0000a4c3  5515 0001:0000a4d0  5519 0001:0000a4d9  5520 0001:0000a4e4
  5528 0001:0000a4e8  5523 0001:0000a4ef  5525 0001:0000a4f5  5526 0001:0000a4ff
  5527 0001:0000a513  5528 0001:0000a517  5529 0001:0000a521  5540 0001:0000a52f
  5543 0001:0000a53d  5559 0001:0000a54d  5550 0001:0000a552  5551 0001:0000a56c
  5552 0001:0000a579  5553 0001:0000a57b  5555 0001:0000a58e  5562 0001:0000a5a3
  5565 0001:0000a5a7  5566 0001:0000a5b9  5571 0001:0000a5bd  5572 0001:0000a5ea
  5573 0001:0000a5fa  2766 0001:0000a76b  2765 0001:0000a76b  2768 0001:0000a76d
  2769 0001:0000a772  2770 0001:0000a778  2771 0001:0000a77f  2773 0001:0000a789
  2774 0001:0000a78c  4883 0001:0000b5c0  4886 0001:0000b5c5  4888 0001:0000b5cb
  4889 0001:0000b5ed  4890 0001:0000b5f1  4891 0001:0000b5f6  4893 0001:0000b5fa
  4894 0001:0000b5ff  4897 0001:0000b605  5179 0001:0000b996  5184 0001:0000b999
  5185 0001:0000b9bd  5188 0001:0000b9cb  5200 0001:0000b9cc  5203 0001:0000b9d3
  5204 0001:0000b9db  5205 0001:0000b9e0  5206 0001:0000b9e2  5209 0001:0000b9e7
  5210 0001:0000ba02  5167 0001:0000ba05  5169 0001:0000ba05  5170 0001:0000ba20
  4900 0001:0000ba73  4902 0001:0000ba77  4903 0001:0000ba7e  4904 0001:0000ba93
  4906 0001:0000ba97  4908 0001:0000ba9c  4911 0001:0000baa2  5246 0001:0000bb68
  5248 0001:0000bb7e  5249 0001:0000bba2  5255 0001:0000bba6  5261 0001:0000bbb8
  5263 0001:0000bbc0  5264 0001:0000bbcc  5261 0001:0000bbd3  5266 0001:0000bbe6
  5268 0001:0000bbf3  5269 0001:0000bc06  5270 0001:0000bc22  5265 0001:0000bc3a
  4844 0001:0000bc4d  4842 0001:0000bc4d  4846 0001:0000bc55  4847 0001:0000bc5c
  4850 0001:0000bc5f  4803 0001:0000bc60   303 0001:0000bd3b   304 0001:0000bd3e
   306 0001:0000bd44   308 0001:0000bd51  2779 0001:0000bfcf  2780 0001:0000bfd3
  2782 0001:0000bfe3  2783 0001:0000bfe7  2785 0001:0000bff3  2787 0001:0000bff8
  2789 0001:0000bfff  2791 0001:0000c008  2792 0001:0000c00c   634 0001:0000c012
   633 0001:0000c012   636 0001:0000c017   638 0001:0000c02a   639 0001:0000c039
   453 0001:0000c03c   457 0001:0000c03c   460 0001:0000c03e   461 0001:0000c061
  2582 0001:0000c161  2583 0001:0000c162  2584 0001:0000c170  6215 0001:0000c197
  6216 0001:0000c198  6217 0001:0000c19e  6218 0001:0000c1a0  6219 0001:0000c1a4
  6220 0001:0000c1a6  6221 0001:0000c1ab  6223 0001:0000c1b3  6224 0001:0000c1be
  6225 0001:0000c1db  6226 0001:0000c1e3  6227 0001:0000c1ed  6228 0001:0000c1f1
  6229 0001:0000c1f4  2573 0001:0000c21e  2576 0001:0000c226  2577 0001:0000c232
  2578 0001:0000c236  2579 0001:0000c23d  2602 0001:0000d9b5

Line numbers for .\Release\SettingsMasterOptions.obj(g:\vsnet\vc7\atlmfc\include\atlconv.h) segment .text

   557 0001:00009451   554 0001:00009451   563 0001:0000945d   564 0001:00009476
   569 0001:0000947c   558 0001:0000947e   570 0001:00009480   134 0001:0000c062
   139 0001:0000c07b   140 0001:0000c08c   143 0001:0000c096   147 0001:0000c09d
   149 0001:0000c0a2   151 0001:0000c0ae   152 0001:0000c0b4   127 0001:0000c0c7
   128 0001:0000c0c7   129 0001:0000c0ca   101 0001:0000c0cb   102 0001:0000c0da
   104 0001:0000c0dc   110 0001:0000c0e2   113 0001:0000c0f8   116 0001:0000c102
   120 0001:0000c113   121 0001:0000c117   124 0001:0000c11f

Line numbers for .\Release\SettingsMasterOptions.obj(g:\vsnet\vc7\atlmfc\include\atlcomcli.h) segment .text

   206 0001:00005597   204 0001:00005597   207 0001:0000559b   212 0001:000055a0
   208 0001:000055a1   209 0001:000055a5   210 0001:000055ab   211 0001:000055b1
   212 0001:000055b3   486 0001:000057a2   488 0001:000057ab   489 0001:000057af
   490 0001:000057bd   486 0001:000057c4   488 0001:000057cd   489 0001:000057d1
   490 0001:000057df   486 0001:00005938   488 0001:00005941   489 0001:00005945
   490 0001:00005953   486 0001:0000595a   488 0001:00005963   489 0001:00005967
   490 0001:00005975   486 0001:0000597c   488 0001:00005985   489 0001:00005989
   490 0001:00005997   486 0001:0000599e   488 0001:000059a7   489 0001:000059ab
   490 0001:000059b9   486 0001:00005a5b   488 0001:00005a64   489 0001:00005a68
   490 0001:00005a76   486 0001:00006c60   488 0001:00006c69   489 0001:00006c6d
   490 0001:00006c7b  1045 0001:000096b6  1047 0001:000096bb  1048 0001:000096bf
  1056 0001:000096c4  1051 0001:000096c6  1052 0001:000096de  1053 0001:000096ee
  1054 0001:000096f0  1055 0001:000096f2  1056 0001:00009707  1055 0001:00009709
  1056 0001:0000970b  2201 0001:0000970d  2202 0001:0000971b  2203 0001:00009728
  2205 0001:00009732  2206 0001:0000973c  2207 0001:0000973e  2210 0001:00009744
  2215 0001:00009761  2216 0001:00009767  2218 0001:0000976c  2219 0001:0000977d
  2221 0001:00009781  2222 0001:00009794  2223 0001:00009798  2226 0001:000097af
  2227 0001:000097b4  2228 0001:000097c0  2232 0001:000097d0  2233 0001:000097d3
  2237 0001:000097d5  2238 0001:000097d7  2245 0001:000097d9  2246 0001:000097db
  2254 0001:000097dd  2260 0001:000097e0  2263 0001:000097ee  2264 0001:000097fb
  2266 0001:00009807  2267 0001:00009818  2268 0001:0000981c  2269 0001:0000982d
  2271 0001:00009830  2272 0001:00009832  2274 0001:0000983f  2276 0001:0000984c
  2277 0001:0000985c  1058 0001:00009a17  1060 0001:00009a1d  1061 0001:00009a23
  1064 0001:00009a2a  1067 0001:00009a32  1068 0001:00009a44  1072 0001:00009a52
  1073 0001:00009a5d  1074 0001:00009a63  1075 0001:00009a6a  1076 0001:00009a6c
  1079 0001:00009a77  1083 0001:00009a7e  1086 0001:00009a8f  1087 0001:00009a95
  1088 0001:00009a9c  1089 0001:00009aa0  2281 0001:00009aa2  2283 0001:00009ab4
  2284 0001:00009abc  2287 0001:00009ac6  2288 0001:00009acd  2289 0001:00009acf
  2292 0001:00009ad5  2293 0001:00009aeb  2294 0001:00009afc  2295 0001:00009b01
  2296 0001:00009b03  2298 0001:00009b09  2300 0001:00009b0c  2305 0001:00009b2b
  2308 0001:00009b2e  2311 0001:00009b49  2312 0001:00009b54  2313 0001:00009b56
  2317 0001:00009b5b  2318 0001:00009b5e  2322 0001:00009b60  2323 0001:00009b67
  2330 0001:00009b69  2331 0001:00009b70  2339 0001:00009b72  2346 0001:00009b79
  2347 0001:00009b87  2348 0001:00009b8c  2349 0001:00009b91  2351 0001:00009b93
  2353 0001:00009b99  2354 0001:00009ba3  2360 0001:00009ba7  2361 0001:00009bb9
  2365 0001:00009bbe  2366 0001:00009bd0  2367 0001:00009bdf  2368 0001:00009be9
   425 0001:00009c26   428 0001:00009c2c   429 0001:00009c32   452 0001:00009c37
   431 0001:00009c39   432 0001:00009c3d   452 0001:00009c42   435 0001:00009c44
   436 0001:00009c48   441 0001:00009c4b   445 0001:00009c7d   446 0001:00009c91
   447 0001:00009c93   446 0001:00009c95   451 0001:00009c97   452 0001:00009cad
  2371 0001:00009cde  2375 0001:00009cee  2380 0001:00009d0f  2381 0001:00009d17
  2383 0001:00009d1c  2384 0001:00009d2d  2386 0001:00009d31  2387 0001:00009d42
  2388 0001:00009d46  2391 0001:00009d59  2394 0001:00009d60  2395 0001:00009d68
  2396 0001:00009d72  2398 0001:00009d75  2399 0001:00009d7d  2400 0001:00009d80
  2401 0001:00009d8e  2404 0001:00009d90  2405 0001:00009d92  2409 0001:00009d94
  2410 0001:00009d96  2417 0001:00009d98  2418 0001:00009d9a  2421 0001:00009d9c
  2422 0001:00009d9f  2426 0001:00009da1  2431 0001:00009da4  2434 0001:00009da9
  2435 0001:00009db3  2437 0001:00009db9  2438 0001:00009dc8  2439 0001:00009dcc
  2441 0001:00009dcf  2442 0001:00009dd1  2445 0001:00009dd4  2446 0001:00009dd8
  2447 0001:00009de4  2449 0001:00009dee    59 0001:00009e30    58 0001:00009e30
    60 0001:00009e34    62 0001:00009e39    63 0001:00009e3b    64 0001:00009e3e
    65 0001:00009e42    66 0001:00009e4c    67 0001:00009e50    68 0001:00009e56
    69 0001:00009e59   248 0001:00009e5c   250 0001:00009e5f    45 0001:0000a44f
    46 0001:0000a44f    47 0001:0000a453    55 0001:0000a455    49 0001:0000a456
    50 0001:0000a45a    51 0001:0000a460    52 0001:0000a466    53 0001:0000a46c
    54 0001:0000a46e    55 0001:0000a470    32 0001:0000bc65    33 0001:0000bc65
    34 0001:0000bc73   454 0001:0000bcf0   457 0001:0000bcf6   458 0001:0000bcfd
   468 0001:0000bd02   460 0001:0000bd04   461 0001:0000bd08   468 0001:0000bd0d
   467 0001:0000bd0f   468 0001:0000bd39   612 0001:0000bd52   611 0001:0000bd52
   614 0001:0000bd5a   615 0001:0000bd61   617 0001:0000bd68   618 0001:0000bd72
   619 0001:0000bd78   622 0001:0000bd82   624 0001:0000bd85   625 0001:0000bd87
    27 0001:0000bd8a    26 0001:0000bd8a    28 0001:0000bd90    29 0001:0000bd9e
   573 0001:0000bd9f   571 0001:0000bd9f   574 0001:0000bda6   581 0001:0000bda9
   589 0001:0000bdc9   592 0001:0000bdda   593 0001:0000bdec   594 0001:0000bdf9
   595 0001:0000bdff   596 0001:0000be09  1709 0001:0000be17  1708 0001:0000be17
  1711 0001:0000be1e  1713 0001:0000be2d  1715 0001:0000be3a  1716 0001:0000be3f
  1718 0001:0000be46  1719 0001:0000be48  1536 0001:0000be4b  1537 0001:0000be4b
  1538 0001:0000be52   628 0001:0000c12c   629 0001:0000c12c   630 0001:0000c134
   551 0001:0000c135   549 0001:0000c135   552 0001:0000c13c   559 0001:0000c13f

Line numbers for .\Release\SettingsMasterOptions.obj(g:\vsnet\vc7\atlmfc\include\atlsimpcoll.h) segment .text

   139 0001:000055b4   140 0001:000055b4   143 0001:000055bf   144 0001:000055cb
   145 0001:000055d7   147 0001:000055dd   148 0001:000055e0   150 0001:000055e2
   151 0001:000055f0   152 0001:000055f3   153 0001:000055f7   247 0001:00006ddd
   246 0001:00006ddd   248 0001:00006df0   379 0001:0000a677   377 0001:0000a677
   382 0001:0000a680   383 0001:0000a685   385 0001:0000a698   387 0001:0000a698
   390 0001:0000a6a1   391 0001:0000a6a7   332 0001:0000a6ba   333 0001:0000a6ba
   340 0001:0000a6c7   341 0001:0000a6ca   343 0001:0000a6ce   345 0001:0000a6d5
   346 0001:0000a6d8   349 0001:0000a6dd   350 0001:0000a6e2   277 0001:0000a6ff
   276 0001:0000a6ff   286 0001:0000a8f6   288 0001:0000a8f6   289 0001:0000a90c
   290 0001:0000a910   291 0001:0000a912   293 0001:0000a914   294 0001:0000a924
   295 0001:0000a92a   297 0001:0000a92e   298 0001:0000a943   299 0001:0000a946
   300 0001:0000a94a   443 0001:0000a94d   442 0001:0000a94d   444 0001:0000a960
   445 0001:0000a96f   363 0001:0000ae36   364 0001:0000ae37   365 0001:0000ae42
   366 0001:0000ae47   367 0001:0000ae4b   368 0001:0000ae55   394 0001:0000ae58
   395 0001:0000ae59   397 0001:0000ae60   400 0001:0000ae7c   401 0001:0000ae80
   398 0001:0000ae83   173 0001:0000c179   174 0001:0000c17c   178 0001:0000c182
   179 0001:0000c189   181 0001:0000c18d   182 0001:0000c191   183 0001:0000c196
   194 0001:0000c1f7   196 0001:0000c1f7   200 0001:0000c204   201 0001:0000c209

Line numbers for .\Release\dlldatax.obj(d:\dev\booktwo\disk\settingsmaster\settingsmastershim\dlldata.c) segment .text

    32 0001:00000000    32 0001:00000034    32 0001:00000040    32 0001:00000051
    32 0001:00000052    32 0001:00000064    32 0001:0000008b

Line numbers for .\Release\dlldatax.obj(d:\dev\booktwo\disk\settingsmaster\settingsmastershim\settingsmastershim_p.c) segment .orpc

   239 0002:00000000   237 0002:00000000   241 0002:0000001a   242 0002:00000021
   245 0002:00000026   246 0002:00000028

Line numbers for G:\VSNET\Vc7\lib\MSVCRT.lib(F:\VS70Builds\3036\vc\crtbld\crt\src\intel\chkstk.asm) segment .text

    69 0001:0000d3e0    65 0001:0000d3e0    70 0001:0000d3e5    72 0001:0000d3e7
    73 0001:0000d3e9    74 0001:0000d3eb    75 0001:0000d3ee    76 0001:0000d3f0
    77 0001:0000d3f1    78 0001:0000d3f3    79 0001:0000d3f4    82 0001:0000d3f5
    83 0001:0000d3f6    88 0001:0000d3fa    89 0001:0000d400    91 0001:0000d405
    93 0001:0000d407    94 0001:0000d40c    97 0001:0000d40e    98 0001:0000d410
   100 0001:0000d412   102 0001:0000d414   104 0001:0000d416   105 0001:0000d418
   107 0001:0000d41b   109 0001:0000d41c

Line numbers for G:\VSNET\Vc7\lib\MSVCRT.lib(f:\vs70builds\3036\vc\crtbld\crt\src\atonexit.c) segment .text

    81 0001:0000cd1e    76 0001:0000cd1e    90 0001:0000cd43    96 0001:0000cd44
    95 0001:0000cd44    97 0001:0000cd55

Line numbers for G:\VSNET\Vc7\lib\MSVCRT.lib(f:\vs70builds\3036\vc\crtbld\crt\src\crtdll.c) segment .text

   134 0001:0000ceda   129 0001:0000ceda   135 0001:0000cee2   136 0001:0000ceea
   158 0001:0000cef0   163 0001:0000cf03   168 0001:0000cf18   170 0001:0000cf1c
   172 0001:0000cf1f   178 0001:0000cf29   179 0001:0000cf2e   184 0001:0000cf38
   189 0001:0000cf49   192 0001:0000cf50   219 0001:0000cf56   220 0001:0000cf5f
   225 0001:0000cf61   226 0001:0000cf6d   234 0001:0000cf83   236 0001:0000cf8a
   234 0001:0000cf91   240 0001:0000cf92   241 0001:0000cf95   249 0001:0000cf98
   250 0001:0000cfa4   252 0001:0000cfaa   257 0001:0000cfaf   258 0001:0000cfbc
   260 0001:0000cfc2   262 0001:0000cfcb   263 0001:0000cfd4   265 0001:0000cfe0
   266 0001:0000cfe9   268 0001:0000cff8   269 0001:0000cffa   272 0001:0000cffc
   275 0001:0000d00c   283 0001:0000d015   286 0001:0000d01f   288 0001:0000d028
   289 0001:0000d036   291 0001:0000d039   292 0001:0000d047   298 0001:0000d055
   294 0001:0000d05a   295 0001:0000d072   299 0001:0000d074

Line numbers for G:\VSNET\Vc7\lib\MSVCRT.lib(f:\vs70builds\3036\vc\crtbld\crt\src\secchk.c) segment .text

   114 0001:0000d2f0   116 0001:0000d2fc   117 0001:0000d300   119 0001:0000d30d
   123 0001:0000d318   100 0001:0000d321   103 0001:0000d321   104 0001:0000d327
   105 0001:0000d329   107 0001:0000d32a

Line numbers for G:\VSNET\Vc7\lib\MSVCRT.lib(f:\vs70builds\3036\vc\crtbld\crt\src\seccinit.c) segment .text

    49 0001:0000d32f    58 0001:0000d335    67 0001:0000d346    70 0001:0000d350
    75 0001:0000d356    76 0001:0000d35e    77 0001:0000d366    79 0001:0000d36e
    93 0001:0000d378    94 0001:0000d393

Line numbers for G:\VSNET\Vc7\atlmfc\lib\atls.lib(f:\vs70builds\3036\vc\mfcatl\ship\atlmfc\src\atl\atls\atlbase.cpp) segment .text

    67 0001:0000d1ad    68 0001:0000d1b0    69 0001:0000d1ba    29 0001:0000d1c3
    32 0001:0000d1de    36 0001:0000d1e3    38 0001:0000d206    39 0001:0000d217
    41 0001:0000d21d    46 0001:0000d223    49 0001:0000d22b    51 0001:0000d239
    58 0001:0000d23d    62 0001:0000d257    64 0001:0000d25e   126 0001:0000d9e3

Line numbers for G:\VSNET\Vc7\atlmfc\lib\atls.lib(f:\vs70builds\3036\vc\mfcatl\ship\atlmfc\include\atlsimpcoll.h) segment .text

   173 0001:0000d176   174 0001:0000d179   178 0001:0000d17f   179 0001:0000d185
   181 0001:0000d189   182 0001:0000d18d   183 0001:0000d192

Line numbers for G:\VSNET\Vc7\atlmfc\lib\atls.lib(f:\vs70builds\3036\vc\mfcatl\ship\atlmfc\src\atl\atls\atlcommodule.cpp) segment .text

    20 0001:0000d9f9

Line numbers for G:\VSNET\Vc7\atlmfc\lib\atls.lib(f:\vs70builds\3036\vc\mfcatl\ship\atlmfc\include\atlbase.h) segment .text

  2272 0001:0000d26e  2273 0001:0000d271  2276 0001:0000d277  2278 0001:0000d280
  2281 0001:0000d286  2282 0001:0000d28d  2283 0001:0000d293  2276 0001:0000d297
  2286 0001:0000d2a0  2290 0001:0000d2aa  2291 0001:0000d2af  2248 0001:0000d2b0
  2257 0001:0000d2be  2261 0001:0000d2e4  2263 0001:0000d2ec

 Exports

  ordinal    name

        1    _DllCanUnloadNow@0
               exported name: DllCanUnloadNow
        2    _DllGetClassObject@12
               exported name: DllGetClassObject
        3    _DllRegisterServer@0
               exported name: DllRegisterServer
        4    _DllUnregisterServer@0
               exported name: DllUnregisterServer
