 SuperSaverShim

 Timestamp is 3e4e5858 (Sat Feb 15 10:10:16 2003)

 Preferred load address is 66200000

 Start         Length     Name                   Class
 0001:00000000 0000d41dH .text                   CODE
 0001:0000d41d 00000598H .text$x                 CODE
 0001:0000d9b5 0000005aH .text$yc                CODE
 0001:0000da0f 00000029H .text$yd                CODE
 0002:00000000 0000002bH .orpc                   CODE
 0003:00000000 000003a8H .idata$5                DATA
 0003:000003b0 000017b0H .rdata                  DATA
 0003:00001b60 00000047H .rdata$debug            DATA
 0003:00001ba8 00000044H .rdata$r                DATA
 0003:00001bf0 000000e0H .rdata$sxdata           DATA
 0003:00001cd0 00000004H .rtc$IAA                DATA
 0003:00001cd4 00000004H .rtc$IZZ                DATA
 0003:00001cd8 00000004H .rtc$TAA                DATA
 0003:00001cdc 00000004H .rtc$TZZ                DATA
 0003:00001ce0 00000c78H .xdata$x                DATA
 0003:00002958 00000004H ATL$__a                 DATA
 0003:0000295c 00000004H ATL$__m                 DATA
 0003:00002960 00000004H ATL$__z                 DATA
 0003:00002964 000000c8H .idata$2                DATA
 0003:00002a2c 00000014H .idata$3                DATA
 0003:00002a40 000003a8H .idata$4                DATA
 0003:00002de8 00000e80H .idata$6                DATA
 0003:00003c70 000000abH .edata                  DATA
 0004:00000000 00000004H .CRT$XCA                DATA
 0004:00000004 00000004H .CRT$XCAA               DATA
 0004:00000008 00000008H .CRT$XCL                DATA
 0004:00000010 00000008H .CRT$XCU                DATA
 0004:00000018 00000004H .CRT$XCZ                DATA
 0004:0000001c 00000004H .CRT$XIA                DATA
 0004:00000020 00000004H .CRT$XIZ                DATA
 0004:00000030 000002e0H .data                   DATA
 0004:00000310 00000154H .bss                    DATA
 0005:00000000 00000214H .rsrc$01                DATA
 0005:00000220 000011c8H .rsrc$02                DATA

  Address         Publics by Value              Rva+Base     Lib:Object

 0000:00000000       __except_list              00000000     <absolute>
 0000:00000038       ___safe_se_handler_count   00000038     <absolute>
 0000:00009876       __ldused                   00009876     <absolute>
 0000:00009876       __fltused                  00009876     <absolute>
 0000:00000000       ___ImageBase               66200000     <linker-defined>
 0001:00000000       _PrxDllGetClassObject@12   66201000 f   dlldatax.obj
 0001:00000034       _PrxDllCanUnloadNow@0      66201034 f   dlldatax.obj
 0001:00000040       _CStdStubBuffer2_Release@4 66201040 f   dlldatax.obj
 0001:00000051       __purecall                 66201051 f   dlldatax.obj
 0001:00000052       _PrxDllMain@12             66201052 f   dlldatax.obj
 0001:00000064       _PrxDllRegisterServer@0    66201064 f   dlldatax.obj
 0001:0000008b       _PrxDllUnregisterServer@0  6620108b f   dlldatax.obj
 0001:000000b2       ?_AtlGetThreadACPFake@ATL@@YGIXZ 662010b2 f i stdafx.obj
 0001:00000113       ?_AtlGetThreadACPReal@ATL@@YGIXZ 66201113 f i stdafx.obj
 0001:00000117       ?_AtlGetThreadACPThunk@ATL@@YGIXZ 66201117 f i stdafx.obj
 0001:0000017c       ??0CComCriticalSection@ATL@@QAE@XZ 6620117c f i stdafx.obj
 0001:00000190       ?Init@CComCriticalSection@ATL@@QAEJXZ 66201190 f i stdafx.obj
 0001:000001e0       ??1CComBSTR@ATL@@QAE@XZ    662011e0 f i stdafx.obj
 0001:000001e9       ??0CAtlWinModule@ATL@@QAE@XZ 662011e9 f i stdafx.obj
 0001:0000020c       ??1CAtlWinModule@ATL@@QAE@XZ 6620120c f i stdafx.obj
 0001:00000224       ??0_ATL_WIN_MODULE70@ATL@@QAE@XZ 66201224 f i stdafx.obj
 0001:0000023e       ?AtlWinModuleTerm@ATL@@YGJPAU_ATL_WIN_MODULE70@1@PAUHINSTANCE__@@@Z 6620123e f i stdafx.obj
 0001:0000029e       ?AtlWinModuleInit@ATL@@YGJPAU_ATL_WIN_MODULE70@1@@Z 6620129e f i stdafx.obj
 0001:000002c1       ??_Estringdispid@CComTypeInfoHolder@ATL@@QAEPAXI@Z 662012c1 f i stdafx.obj
 0001:00000308       ??1stringdispid@CComTypeInfoHolder@ATL@@QAE@XZ 66201308 f i stdafx.obj
 0001:00000311       ?RemoveAll@?$CSimpleArray@GV?$CSimpleArrayEqualHelper@G@ATL@@@ATL@@QAEXXZ 66201311 f i stdafx.obj
 0001:0000032f       ??A?$CSimpleArray@GV?$CSimpleArrayEqualHelper@G@ATL@@@ATL@@QAEAAGH@Z 6620132f f i stdafx.obj
 0001:00000356       ??0_ATL_MSG@ATL@@QAE@PAUHWND__@@IIJH@Z 66201356 f i SuperSaverOptionsShim.obj
 0001:00000389       ?Register@_ATL_WNDCLASSINFOW@ATL@@QAEGPAP6GJPAUHWND__@@IIJ@Z@Z 66201389 f i SuperSaverOptionsShim.obj
 0001:000003a8       ?FindFirstDlgItem@_DialogSplitHelper@ATL@@SAPAUDLGITEMTEMPLATE@@PBUDLGTEMPLATE@@@Z 662013a8 f i SuperSaverOptionsShim.obj
 0001:00000424       ?FindNextDlgItem@_DialogSplitHelper@ATL@@SAPAUDLGITEMTEMPLATE@@PAU3@H@Z 66201424 f i SuperSaverOptionsShim.obj
 0001:00000483       ?FindCreateData@_DialogSplitHelper@ATL@@SAKKPAEPAPAE@Z 66201483 f i SuperSaverOptionsShim.obj
 0001:000004bd       ?IsActiveXControl@_DialogSplitHelper@ATL@@SA_NPAUDLGITEMTEMPLATE@@H@Z 662014bd f i SuperSaverOptionsShim.obj
 0001:000004d4       ?SplitDialogTemplate@_DialogSplitHelper@ATL@@SAPAUDLGTEMPLATE@@PAU3@PAE@Z 662014d4 f i SuperSaverOptionsShim.obj
 0001:000005f1       ?ParseInitData@_DialogSplitHelper@ATL@@SAJPAUIStream@@PAPAG@Z 662015f1 f i SuperSaverOptionsShim.obj
 0001:0000078e       ?Create@CWindow@ATL@@QAEPAUHWND__@@PBGPAU3@V_U_RECT@2@0KKV_U_MENUorID@2@PAX@Z 6620178e f i SuperSaverOptionsShim.obj
 0001:000007dc       ?IsParentDialog@CWindow@ATL@@QAEHXZ 662017dc f i SuperSaverOptionsShim.obj
 0001:00000826       ?Init@CWndProcThunk@ATL@@QAEXP6GJPAUHWND__@@IIJ@ZPAX@Z 66201826 f i SuperSaverOptionsShim.obj
 0001:0000083d       ?GetDialogSize@_DialogSizeHelper@ATL@@SAXPBUDLGTEMPLATE@@PAUtagSIZE@@_N@Z 6620183d f i SuperSaverOptionsShim.obj
 0001:00000895       ?GetFontDimensions@_DialogSizeHelper@ATL@@SAXPBGGPAUtagSIZE@@PAJ@Z 66201895 f i SuperSaverOptionsShim.obj
 0001:000009ab       ?ConvertDialogUnitsToPixels@_DialogSizeHelper@ATL@@SAXPBGGPAUtagSIZE@@_N@Z 662019ab f i SuperSaverOptionsShim.obj
 0001:00000a90       ?HasFont@_DialogSizeHelper@ATL@@SAHPBUDLGTEMPLATE@@@Z 66201a90 f i SuperSaverOptionsShim.obj
 0001:00000aa3       ?GetFontSizeField@_DialogSizeHelper@ATL@@SAPAEPBUDLGTEMPLATE@@@Z 66201aa3 f i SuperSaverOptionsShim.obj
 0001:00000aea       ?GetFont@_DialogSizeHelper@ATL@@SAHPBUDLGTEMPLATE@@PAG1@Z 66201aea f i SuperSaverOptionsShim.obj
 0001:00000b41       ?GetSizeInDialogUnits@_DialogSizeHelper@ATL@@SAXPBUDLGTEMPLATE@@PAUtagSIZE@@@Z 66201b41 f i SuperSaverOptionsShim.obj
 0001:00000d07       ?FinalRelease@CAxFrameWindow@ATL@@QAEXXZ 66201d07 f i SuperSaverOptionsShim.obj
 0001:00000d07       ?FinalRelease@CAxUIWindow@ATL@@QAEXXZ 66201d07 f i SuperSaverOptionsShim.obj
 0001:00000d2b       ?GetWindow@CAxFrameWindow@ATL@@UAGJPAPAUHWND__@@@Z 66201d2b f i SuperSaverOptionsShim.obj
 0001:00000d74       ?InsertMenus@CAxFrameWindow@ATL@@UAGJPAUHMENU__@@PAUtagOleMenuGroupWidths@@@Z 66201d74 f i SuperSaverOptionsShim.obj
 0001:00000d74       ?SetHostNames@?$IOleObjectImpl@VCSuperSaverOptionsShim@@@ATL@@UAGJPBG0@Z 66201d74 f i SuperSaverOptionsShim.obj
 0001:00000d79       ?ResizeBorder@?$IOleInPlaceActiveObjectImpl@VCSuperSaverOptionsShim@@@ATL@@UAGJPBUtagRECT@@PAUIOleInPlaceUIWindow@@H@Z 66201d79 f i SuperSaverOptionsShim.obj
 0001:00000d79       ?SetMenu@CAxFrameWindow@ATL@@UAGJPAUHMENU__@@PAXPAUHWND__@@@Z 66201d79 f i SuperSaverOptionsShim.obj
 0001:00000d7e       ?SaveCompleted@?$IPersistStorageImpl@VCSuperSaverOptionsShim@@@ATL@@UAGJPAUIStorage@@@Z 66201d7e f i SuperSaverOptionsShim.obj
 0001:00000d7e       ?EnableModeless@?$IOleInPlaceActiveObjectImpl@VCSuperSaverOptionsShim@@@ATL@@UAGJH@Z 66201d7e f i SuperSaverOptionsShim.obj
 0001:00000d7e       ?LockInPlaceActive@CAxHostWindow@ATL@@UAGJH@Z 66201d7e f i SuperSaverOptionsShim.obj
 0001:00000d7e       ?SetBorderSpace@CAxFrameWindow@ATL@@UAGJPBUtagRECT@@@Z 66201d7e f i SuperSaverOptionsShim.obj
 0001:00000d7e       ?OnFrameWindowActivate@?$IOleInPlaceActiveObjectImpl@VCSuperSaverOptionsShim@@@ATL@@UAGJH@Z 66201d7e f i SuperSaverOptionsShim.obj
 0001:00000d7e       ?GetBorder@CAxUIWindow@ATL@@UAGJPAUtagRECT@@@Z 66201d7e f i SuperSaverOptionsShim.obj
 0001:00000d7e       ?SetBorderSpace@CAxUIWindow@ATL@@UAGJPBUtagRECT@@@Z 66201d7e f i SuperSaverOptionsShim.obj
 0001:00000d7e       ?EnableModeless@CAxFrameWindow@ATL@@UAGJH@Z 66201d7e f i SuperSaverOptionsShim.obj
 0001:00000d7e       ?GetBorder@CAxFrameWindow@ATL@@UAGJPAUtagRECT@@@Z 66201d7e f i SuperSaverOptionsShim.obj
 0001:00000d7e       ?RemoveMenus@CAxFrameWindow@ATL@@UAGJPAUHMENU__@@@Z 66201d7e f i SuperSaverOptionsShim.obj
 0001:00000d7e       ?ContextSensitiveHelp@CAxUIWindow@ATL@@UAGJH@Z 66201d7e f i SuperSaverOptionsShim.obj
 0001:00000d7e       ?AdjustRect@CAxHostWindow@ATL@@UAGJPAUtagRECT@@@Z 66201d7e f i SuperSaverOptionsShim.obj
 0001:00000d7e       ?SetStatusText@CAxFrameWindow@ATL@@UAGJPBG@Z 66201d7e f i SuperSaverOptionsShim.obj
 0001:00000d7e       ?ContextSensitiveHelp@CAxFrameWindow@ATL@@UAGJH@Z 66201d7e f i SuperSaverOptionsShim.obj
 0001:00000d83       ??1CAxUIWindow@ATL@@UAE@XZ 66201d83 f i SuperSaverOptionsShim.obj
 0001:00000d83       ??1CAxFrameWindow@ATL@@UAE@XZ 66201d83 f i SuperSaverOptionsShim.obj
 0001:00000d98       ??0CAxUIWindow@ATL@@QAE@XZ 66201d98 f i SuperSaverOptionsShim.obj
 0001:00000d98       ??0CAxFrameWindow@ATL@@QAE@XZ 66201d98 f i SuperSaverOptionsShim.obj
 0001:00000db6       ?ProcessWindowMessage@CAxUIWindow@ATL@@UAEHPAUHWND__@@IIJAAJK@Z 66201db6 f i SuperSaverOptionsShim.obj
 0001:00000db6       ?ProcessWindowMessage@CAxFrameWindow@ATL@@UAEHPAUHWND__@@IIJAAJK@Z 66201db6 f i SuperSaverOptionsShim.obj
 0001:00000dbb       ?GetWindow@CAxUIWindow@ATL@@UAGJPAPAUHWND__@@@Z 66201dbb f i SuperSaverOptionsShim.obj
 0001:00000df7       ?RequestBorderSpace@CAxUIWindow@ATL@@UAGJPBUtagRECT@@@Z 66201df7 f i SuperSaverOptionsShim.obj
 0001:00000df7       ?RequestBorderSpace@CAxFrameWindow@ATL@@UAGJPBUtagRECT@@@Z 66201df7 f i SuperSaverOptionsShim.obj
 0001:00000dff       ?SetActiveObject@CAxFrameWindow@ATL@@UAGJPAUIOleInPlaceActiveObject@@PBG@Z 66201dff f i SuperSaverOptionsShim.obj
 0001:00000dff       ?SetActiveObject@CAxUIWindow@ATL@@UAGJPAUIOleInPlaceActiveObject@@PBG@Z 66201dff f i SuperSaverOptionsShim.obj
 0001:00000e18       ??0CAxHostWindow@ATL@@QAE@XZ 66201e18 f i SuperSaverOptionsShim.obj
 0001:00000edd       ??1CAxHostWindow@ATL@@UAE@XZ 66201edd f i SuperSaverOptionsShim.obj
 0001:00000fb4       ?OnFinalMessage@CAxHostWindow@ATL@@UAEXPAUHWND__@@@Z 66201fb4 f i SuperSaverOptionsShim.obj
 0001:00000fc2       ?ProcessWindowMessage@CAxHostWindow@ATL@@UAEHPAUHWND__@@IIJAAJK@Z 66201fc2 f i SuperSaverOptionsShim.obj
 0001:0000138a       ?OnForwardMsg@CAxHostWindow@ATL@@QAEJIIJAAH@Z 6620238a f i SuperSaverOptionsShim.obj
 0001:000013f4       ?ReleaseAll@CAxHostWindow@ATL@@QAEXXZ 662023f4 f i SuperSaverOptionsShim.obj
 0001:00001547       ?OnMouseActivate@CAxHostWindow@ATL@@QAEJIIJAAH@Z 66202547 f i SuperSaverOptionsShim.obj
 0001:000015db       ?OnSetFocus@CAxHostWindow@ATL@@QAEJIIJAAH@Z 662025db f i SuperSaverOptionsShim.obj
 0001:0000169e       ?OnSize@CAxHostWindow@ATL@@QAEJIIJAAH@Z 6620269e f i SuperSaverOptionsShim.obj
 0001:0000172b       ?OnDestroy@CAxHostWindow@ATL@@QAEJIIJAAH@Z 6620272b f i SuperSaverOptionsShim.obj
 0001:0000175e       ?OnWindowMessage@CAxHostWindow@ATL@@QAEJIIJAAH@Z 6620275e f i SuperSaverOptionsShim.obj
 0001:000017a0       ?OnWindowlessMouseMessage@CAxHostWindow@ATL@@QAEJIIJAAH@Z 662027a0 f i SuperSaverOptionsShim.obj
 0001:000017dd       ?OnPaint@CAxHostWindow@ATL@@QAEJIIJAAH@Z 662027dd f i SuperSaverOptionsShim.obj
 0001:00001952       ?CreateControl@CAxHostWindow@ATL@@UAGJPBGPAUHWND__@@PAUIStream@@@Z 66202952 f i SuperSaverOptionsShim.obj
 0001:000019a9       ?CreateControlEx@CAxHostWindow@ATL@@UAGJPBGPAUHWND__@@PAUIStream@@PAPAUIUnknown@@ABU_GUID@@PAU5@@Z 662029a9 f i SuperSaverOptionsShim.obj
 0001:000019cd       ?AttachControl@CAxHostWindow@ATL@@UAGJPAUIUnknown@@PAUHWND__@@@Z 662029cd f i SuperSaverOptionsShim.obj
 0001:00001a76       ?QueryControl@CAxHostWindow@ATL@@UAGJABU_GUID@@PAPAX@Z 66202a76 f i SuperSaverOptionsShim.obj
 0001:00001aa5       ?SetExternalDispatch@CAxHostWindow@ATL@@UAGJPAUIDispatch@@@Z 66202aa5 f i SuperSaverOptionsShim.obj
 0001:00001abe       ?SetExternalUIHandler@CAxHostWindow@ATL@@UAGJPAUIDocHostUIHandlerDispatch@@@Z 66202abe f i SuperSaverOptionsShim.obj
 0001:00001ad7       ?CreateControlLic@CAxHostWindow@ATL@@UAGJPBGPAUHWND__@@PAUIStream@@PAG@Z 66202ad7 f i SuperSaverOptionsShim.obj
 0001:00001b2f       ?CreateControlLicEx@CAxHostWindow@ATL@@UAGJPBGPAUHWND__@@PAUIStream@@PAPAUIUnknown@@ABU_GUID@@PAU5@PAG@Z 66202b2f f i SuperSaverOptionsShim.obj
 0001:00001edd       ?ShowContextMenu@CAxHostWindow@ATL@@UAGJKPAUtagPOINT@@PAUIUnknown@@PAUIDispatch@@@Z 66202edd f i SuperSaverOptionsShim.obj
 0001:00001f1b       ?GetHostInfo@CAxHostWindow@ATL@@UAGJPAU_DOCHOSTUIINFO@@@Z 66202f1b f i SuperSaverOptionsShim.obj
 0001:00001f5e       ?ShowUI@CAxHostWindow@ATL@@UAGJKPAUIOleInPlaceActiveObject@@PAUIOleCommandTarget@@PAUIOleInPlaceFrame@@PAUIOleInPlaceUIWindow@@@Z 66202f5e f i SuperSaverOptionsShim.obj
 0001:00001f9a       ?HideUI@CAxHostWindow@ATL@@UAGJXZ 66202f9a f i SuperSaverOptionsShim.obj
 0001:00001fb0       ?UpdateUI@CAxHostWindow@ATL@@UAGJXZ 66202fb0 f i SuperSaverOptionsShim.obj
 0001:00001fc6       ?EnableModeless@CAxHostWindow@ATL@@UAGJH@Z 66202fc6 f i SuperSaverOptionsShim.obj
 0001:00001fe5       ?OnDocWindowActivate@CAxHostWindow@ATL@@UAGJH@Z 66202fe5 f i SuperSaverOptionsShim.obj
 0001:00002004       ?OnFrameWindowActivate@CAxHostWindow@ATL@@UAGJH@Z 66203004 f i SuperSaverOptionsShim.obj
 0001:00002023       ?ResizeBorder@CAxHostWindow@ATL@@UAGJPBUtagRECT@@PAUIOleInPlaceUIWindow@@H@Z 66203023 f i SuperSaverOptionsShim.obj
 0001:00002055       ?TranslateAcceleratorW@CAxHostWindow@ATL@@UAGJPAUtagMSG@@PBU_GUID@@K@Z 66203055 f i SuperSaverOptionsShim.obj
 0001:000020be       ?GetOptionKeyPath@CAxHostWindow@ATL@@UAGJPAPAGK@Z 662030be f i SuperSaverOptionsShim.obj
 0001:00002145       ?GetDropTarget@CAxHostWindow@ATL@@UAGJPAUIDropTarget@@PAPAU3@@Z 66203145 f i SuperSaverOptionsShim.obj
 0001:000021cb       ?GetExternal@CAxHostWindow@ATL@@UAGJPAPAUIDispatch@@@Z 662031cb f i SuperSaverOptionsShim.obj
 0001:00002210       ?TranslateUrl@CAxHostWindow@ATL@@UAGJKPAGPAPAG@Z 66203210 f i SuperSaverOptionsShim.obj
 0001:000022dd       ?FilterDataObject@CAxHostWindow@ATL@@UAGJPAUIDataObject@@PAPAU3@@Z 662032dd f i SuperSaverOptionsShim.obj
 0001:00002364       ?FireAmbientPropertyChange@CAxHostWindow@ATL@@QAEJJ@Z 66203364 f i SuperSaverOptionsShim.obj
 0001:000023b9       ?Invoke@CAxHostWindow@ATL@@UAGJJABU_GUID@@KGPAUtagDISPPARAMS@@PAUtagVARIANT@@PAUtagEXCEPINFO@@PAI@Z 662033b9 f i SuperSaverOptionsShim.obj
 0001:0000242c       ?put_AllowWindowlessActivation@CAxHostWindow@ATL@@UAGJF@Z 6620342c f i SuperSaverOptionsShim.obj
 0001:00002442       ?get_AllowWindowlessActivation@CAxHostWindow@ATL@@UAGJPAF@Z 66203442 f i SuperSaverOptionsShim.obj
 0001:00002467       ?put_BackColor@CAxHostWindow@ATL@@UAGJK@Z 66203467 f i SuperSaverOptionsShim.obj
 0001:00002497       ?get_BackColor@CAxHostWindow@ATL@@UAGJPAK@Z 66203497 f i SuperSaverOptionsShim.obj
 0001:000024b7       ?put_ForeColor@CAxHostWindow@ATL@@UAGJK@Z 662034b7 f i SuperSaverOptionsShim.obj
 0001:000024d8       ?get_ForeColor@CAxHostWindow@ATL@@UAGJPAK@Z 662034d8 f i SuperSaverOptionsShim.obj
 0001:000024f8       ?put_LocaleID@CAxHostWindow@ATL@@UAGJK@Z 662034f8 f i SuperSaverOptionsShim.obj
 0001:00002519       ?get_LocaleID@CAxHostWindow@ATL@@UAGJPAK@Z 66203519 f i SuperSaverOptionsShim.obj
 0001:00002539       ?put_UserMode@CAxHostWindow@ATL@@UAGJF@Z 66203539 f i SuperSaverOptionsShim.obj
 0001:00002560       ?get_UserMode@CAxHostWindow@ATL@@UAGJPAF@Z 66203560 f i SuperSaverOptionsShim.obj
 0001:00002585       ?put_DisplayAsDefault@CAxHostWindow@ATL@@UAGJF@Z 66203585 f i SuperSaverOptionsShim.obj
 0001:000025ad       ?get_DisplayAsDefault@CAxHostWindow@ATL@@UAGJPAF@Z 662035ad f i SuperSaverOptionsShim.obj
 0001:000025d2       ?put_Font@CAxHostWindow@ATL@@UAGJPAUIFontDisp@@@Z 662035d2 f i SuperSaverOptionsShim.obj
 0001:000025fe       ?get_Font@CAxHostWindow@ATL@@UAGJPAPAUIFontDisp@@@Z 662035fe f i SuperSaverOptionsShim.obj
 0001:00002748       ?put_MessageReflect@CAxHostWindow@ATL@@UAGJF@Z 66203748 f i SuperSaverOptionsShim.obj
 0001:00002770       ?get_MessageReflect@CAxHostWindow@ATL@@UAGJPAF@Z 66203770 f i SuperSaverOptionsShim.obj
 0001:00002795       ?get_ShowGrabHandles@CAxHostWindow@ATL@@UAGJPAF@Z 66203795 f i SuperSaverOptionsShim.obj
 0001:000027a2       ?get_ShowHatching@CAxHostWindow@ATL@@UAGJPAF@Z 662037a2 f i SuperSaverOptionsShim.obj
 0001:000027ba       ?put_DocHostFlags@CAxHostWindow@ATL@@UAGJK@Z 662037ba f i SuperSaverOptionsShim.obj
 0001:000027d8       ?get_DocHostFlags@CAxHostWindow@ATL@@UAGJPAK@Z 662037d8 f i SuperSaverOptionsShim.obj
 0001:000027f8       ?put_DocHostDoubleClickFlags@CAxHostWindow@ATL@@UAGJK@Z 662037f8 f i SuperSaverOptionsShim.obj
 0001:0000280b       ?get_DocHostDoubleClickFlags@CAxHostWindow@ATL@@UAGJPAK@Z 6620380b f i SuperSaverOptionsShim.obj
 0001:0000282b       ?put_AllowContextMenu@CAxHostWindow@ATL@@UAGJF@Z 6620382b f i SuperSaverOptionsShim.obj
 0001:00002845       ?get_AllowContextMenu@CAxHostWindow@ATL@@UAGJPAF@Z 66203845 f i SuperSaverOptionsShim.obj
 0001:0000286a       ?put_AllowShowUI@CAxHostWindow@ATL@@UAGJF@Z 6620386a f i SuperSaverOptionsShim.obj
 0001:00002884       ?get_AllowShowUI@CAxHostWindow@ATL@@UAGJPAF@Z 66203884 f i SuperSaverOptionsShim.obj
 0001:000028a9       ?put_OptionKeyPath@CAxHostWindow@ATL@@UAGJPAG@Z 662038a9 f i SuperSaverOptionsShim.obj
 0001:000028c3       ?get_OptionKeyPath@CAxHostWindow@ATL@@UAGJPAPAG@Z 662038c3 f i SuperSaverOptionsShim.obj
 0001:000028e3       ?SetAmbientDispatch@CAxHostWindow@ATL@@UAGJPAUIDispatch@@@Z 662038e3 f i SuperSaverOptionsShim.obj
 0001:000028fc       ?SetSite@CAxHostWindow@ATL@@UAGJPAUIUnknown@@@Z 662038fc f i SuperSaverOptionsShim.obj
 0001:0000294f       ?GetContainer@CAxHostWindow@ATL@@UAGJPAPAUIOleContainer@@@Z 6620394f f i SuperSaverOptionsShim.obj
 0001:0000298d       ?ShowObject@CAxHostWindow@ATL@@UAGJXZ 6620398d f i SuperSaverOptionsShim.obj
 0001:000029dd       ?GetWindow@CAxHostWindow@ATL@@UAGJPAPAUHWND__@@@Z 662039dd f i SuperSaverOptionsShim.obj
 0001:000029ef       ?QueryGetData@?$IDataObjectImpl@VCSuperSaverOptionsShim@@@ATL@@UAGJPAUtagFORMATETC@@@Z 662039ef f i SuperSaverOptionsShim.obj
 0001:000029ef       ?OnMnemonic@?$IOleControlImpl@VCSuperSaverOptionsShim@@@ATL@@UAGJPAUtagMSG@@@Z 662039ef f i SuperSaverOptionsShim.obj
 0001:000029ef       ?ContextSensitiveHelp@?$IOleInPlaceObjectWindowlessImpl@VCSuperSaverOptionsShim@@@ATL@@UAGJH@Z 662039ef f i SuperSaverOptionsShim.obj
 0001:000029ef       ?ContextSensitiveHelp@?$IOleInPlaceActiveObjectImpl@VCSuperSaverOptionsShim@@@ATL@@UAGJH@Z 662039ef f i SuperSaverOptionsShim.obj
 0001:000029ef       ?GetControlInfo@?$IOleControlImpl@VCSuperSaverOptionsShim@@@ATL@@UAGJPAUtagCONTROLINFO@@@Z 662039ef f i SuperSaverOptionsShim.obj
 0001:000029ef       ?OnPosRectChange@CAxHostWindow@ATL@@UAGJPBUtagRECT@@@Z 662039ef f i SuperSaverOptionsShim.obj
 0001:000029ef       ?GetDropTarget@?$IOleInPlaceObjectWindowlessImpl@VCSuperSaverOptionsShim@@@ATL@@UAGJPAPAUIDropTarget@@@Z 662039ef f i SuperSaverOptionsShim.obj
 0001:000029ef       ?OnShowWindow@CAxHostWindow@ATL@@UAGJH@Z 662039ef f i SuperSaverOptionsShim.obj
 0001:000029ef       ?SetColorScheme@?$IOleObjectImpl@VCSuperSaverOptionsShim@@@ATL@@UAGJPAUtagLOGPALETTE@@@Z 662039ef f i SuperSaverOptionsShim.obj
 0001:000029ef       ?Unfreeze@?$IViewObjectExImpl@VCSuperSaverOptionsShim@@@ATL@@UAGJK@Z 662039ef f i SuperSaverOptionsShim.obj
 0001:000029ef       ?ContextSensitiveHelp@CAxHostWindow@ATL@@UAGJH@Z 662039ef f i SuperSaverOptionsShim.obj
 0001:000029f7       ?OnInPlaceActivate@CAxHostWindow@ATL@@UAGJXZ 662039f7 f i SuperSaverOptionsShim.obj
 0001:00002a28       ?OnUIActivate@CAxHostWindow@ATL@@UAGJXZ 66203a28 f i SuperSaverOptionsShim.obj
 0001:00002a35       ?GetWindowContext@CAxHostWindow@ATL@@UAGJPAPAUIOleInPlaceFrame@@PAPAUIOleInPlaceUIWindow@@PAUtagRECT@@2PAUtagOIFI@@@Z 66203a35 f i SuperSaverOptionsShim.obj
 0001:00002b50       ?GetDataHere@?$IDataObjectImpl@VCSuperSaverOptionsShim@@@ATL@@UAGJPAUtagFORMATETC@@PAUtagSTGMEDIUM@@@Z 66203b50 f i SuperSaverOptionsShim.obj
 0001:00002b50       ?EnumFormatEtc@?$IDataObjectImpl@VCSuperSaverOptionsShim@@@ATL@@UAGJKPAPAUIEnumFORMATETC@@@Z 66203b50 f i SuperSaverOptionsShim.obj
 0001:00002b50       ?QueryInterface@CRegObject@ATL@@UAGJABU_GUID@@PAPAX@Z 66203b50 f i SuperSaverOptionsShim.obj
 0001:00002b50       ?Scroll@CAxHostWindow@ATL@@UAGJUtagSIZE@@@Z 66203b50 f i SuperSaverOptionsShim.obj
 0001:00002b50       ?GetRect@?$IViewObjectExImpl@VCSuperSaverOptionsShim@@@ATL@@UAGJKPAU_RECTL@@@Z 66203b50 f i SuperSaverOptionsShim.obj
 0001:00002b50       ?SetMoniker@?$IOleObjectImpl@VCSuperSaverOptionsShim@@@ATL@@UAGJKPAUIMoniker@@@Z 66203b50 f i SuperSaverOptionsShim.obj
 0001:00002b50       ?GetCanonicalFormatEtc@?$IDataObjectImpl@VCSuperSaverOptionsShim@@@ATL@@UAGJPAUtagFORMATETC@@0@Z 66203b50 f i SuperSaverOptionsShim.obj
 0001:00002b50       ?GetClipboardData@?$IOleObjectImpl@VCSuperSaverOptionsShim@@@ATL@@UAGJKPAPAUIDataObject@@@Z 66203b50 f i SuperSaverOptionsShim.obj
 0001:00002b58       ?OnUIDeactivate@CAxHostWindow@ATL@@UAGJH@Z 66203b58 f i SuperSaverOptionsShim.obj
 0001:00002b65       ?OnInPlaceDeactivate@CAxHostWindow@ATL@@UAGJXZ 66203b65 f i SuperSaverOptionsShim.obj
 0001:00002b83       ?DeactivateAndUndo@CAxHostWindow@ATL@@UAGJXZ 66203b83 f i SuperSaverOptionsShim.obj
 0001:00002b83       ?DiscardUndoState@CAxHostWindow@ATL@@UAGJXZ 66203b83 f i SuperSaverOptionsShim.obj
 0001:00002b83       ?SaveObject@CAxHostWindow@ATL@@UAGJXZ 66203b83 f i SuperSaverOptionsShim.obj
 0001:00002b83       ?RequestNewObjectLayout@CAxHostWindow@ATL@@UAGJXZ 66203b83 f i SuperSaverOptionsShim.obj
 0001:00002b83       ?ReactivateAndUndo@?$IOleInPlaceObjectWindowlessImpl@VCSuperSaverOptionsShim@@@ATL@@UAGJXZ 66203b83 f i SuperSaverOptionsShim.obj
 0001:00002b83       ?ShowPropertyFrame@CAxHostWindow@ATL@@UAGJXZ 66203b83 f i SuperSaverOptionsShim.obj
 0001:00002b8b       ?OnInPlaceActivateEx@CAxHostWindow@ATL@@UAGJPAHK@Z 66203b8b f i SuperSaverOptionsShim.obj
 0001:00002bf2       ?OnInPlaceDeactivateEx@CAxHostWindow@ATL@@UAGJH@Z 66203bf2 f i SuperSaverOptionsShim.obj
 0001:00002c10       ?CanWindowlessActivate@CAxHostWindow@ATL@@UAGJXZ 66203c10 f i SuperSaverOptionsShim.obj
 0001:00002c22       ?GetCapture@CAxHostWindow@ATL@@UAGJXZ 66203c22 f i SuperSaverOptionsShim.obj
 0001:00002c34       ?SetCapture@CAxHostWindow@ATL@@UAGJH@Z 66203c34 f i SuperSaverOptionsShim.obj
 0001:00002c63       ?GetFocus@CAxHostWindow@ATL@@UAGJXZ 66203c63 f i SuperSaverOptionsShim.obj
 0001:00002c75       ?SetFocus@CAxHostWindow@ATL@@UAGJH@Z 66203c75 f i SuperSaverOptionsShim.obj
 0001:00002c8e       ?GetDC@CAxHostWindow@ATL@@UAGJPBUtagRECT@@KPAPAUHDC__@@@Z 66203c8e f i SuperSaverOptionsShim.obj
 0001:00002d61       ?ReleaseDC@CAxHostWindow@ATL@@UAGJPAUHDC__@@@Z 66203d61 f i SuperSaverOptionsShim.obj
 0001:00002dcd       ?InvalidateRect@CAxHostWindow@ATL@@UAGJPBUtagRECT@@H@Z 66203dcd f i SuperSaverOptionsShim.obj
 0001:00002de7       ?InvalidateRgn@CAxHostWindow@ATL@@UAGJPAUHRGN__@@H@Z 66203de7 f i SuperSaverOptionsShim.obj
 0001:00002e01       ?ScrollRect@CAxHostWindow@ATL@@UAGJHHPBUtagRECT@@0@Z 66203e01 f i SuperSaverOptionsShim.obj
 0001:00002e06       ?OnDefWindowMessage@CAxHostWindow@ATL@@UAGJIIJPAJ@Z 66203e06 f i SuperSaverOptionsShim.obj
 0001:00002e28       ?GetExtendedControl@CAxHostWindow@ATL@@UAGJPAPAUIDispatch@@@Z 66203e28 f i SuperSaverOptionsShim.obj
 0001:00002e4e       ?TranslateAcceleratorW@CAxHostWindow@ATL@@UAGJPAUtagMSG@@K@Z 66203e4e f i SuperSaverOptionsShim.obj
 0001:00002e4e       ?TranslateAcceleratorW@CAxFrameWindow@ATL@@UAGJPAUtagMSG@@G@Z 66203e4e f i SuperSaverOptionsShim.obj
 0001:00002e54       ?OnFocus@CAxHostWindow@ATL@@UAGJH@Z 66203e54 f i SuperSaverOptionsShim.obj
 0001:00002e6d       ?OnViewChange@CAxHostWindow@ATL@@UAGXKJ@Z 66203e6d f i SuperSaverOptionsShim.obj
 0001:00002e6d       ?OnDataChange@CAxHostWindow@ATL@@UAGXPAUtagFORMATETC@@PAUtagSTGMEDIUM@@@Z 66203e6d f i SuperSaverOptionsShim.obj
 0001:00002e70       ?OnRename@CAxHostWindow@ATL@@UAGXPAUIMoniker@@@Z 66203e70 f i SuperSaverOptionsShim.obj
 0001:00002e73       ?ParseDisplayName@CAxHostWindow@ATL@@UAGJPAUIBindCtx@@PAGPAKPAPAUIMoniker@@@Z 66203e73 f i SuperSaverOptionsShim.obj
 0001:00002e73       ?Freeze@?$IViewObjectExImpl@VCSuperSaverOptionsShim@@@ATL@@UAGJKJPAXPAK@Z 66203e73 f i SuperSaverOptionsShim.obj
 0001:00002e7b       ?EnumObjects@CAxHostWindow@ATL@@UAGJKPAPAUIEnumUnknown@@@Z 66203e7b f i SuperSaverOptionsShim.obj
 0001:00002f2c       ?LockContainer@CAxHostWindow@ATL@@UAGJH@Z 66203f2c f i SuperSaverOptionsShim.obj
 0001:00002f48       ?ActivateAx@CAxHostWindow@ATL@@QAEJPAUIUnknown@@_NPAUIStream@@@Z 66203f48 f i SuperSaverOptionsShim.obj
 0001:000032f7       ?SubclassWindow@CAxHostWindow@ATL@@QAEXPAUHWND__@@@Z 662042f7 f i SuperSaverOptionsShim.obj
 0001:00003311       ?ReleaseWindow@CAxHostWindow@ATL@@QAEXXZ 66204311 f i SuperSaverOptionsShim.obj
 0001:0000333c       ?ReflectNotifications@CAxHostWindow@ATL@@QAEJIIJAAH@Z 6620433c f i SuperSaverOptionsShim.obj
 0001:00003450       ?QueryService@CAxHostWindow@ATL@@UAGJABU_GUID@@0PAPAX@Z 66204450 f i SuperSaverOptionsShim.obj
 0001:00003487       ??1?$CWindowImpl@VCAxHostWindow@ATL@@VCWindow@2@V?$CWinTraits@$0FGAAAAAA@$0A@@2@@ATL@@UAE@XZ 66204487 f i SuperSaverOptionsShim.obj
 0001:00003874       _AtlAxCreateControlLic@20  66204874 f i SuperSaverOptionsShim.obj
 0001:00003895       _AtlAxCreateControlLicEx@32 66204895 f i SuperSaverOptionsShim.obj
 0001:00003962       _AtlAxWinInit@0            66204962 f i SuperSaverOptionsShim.obj
 0001:00003a9d       _AtlAxGetControl@8         66204a9d f i SuperSaverOptionsShim.obj
 0001:00003acf       _AtlAxGetHost@8            66204acf f i SuperSaverOptionsShim.obj
 0001:00003b01       ?FormatWindowClassName@AtlModuleRegisterWndClassInfoParamW@ATL@@SAXPAGPAX@Z 66204b01 f i SuperSaverOptionsShim.obj
 0001:00003b18       ?AtlWinModuleRegisterClassExW@ATL@@YGGPAU_ATL_WIN_MODULE70@1@PBUtagWNDCLASSEXW@@@Z 66204b18 f i SuperSaverOptionsShim.obj
 0001:00003b4e       ?AtlCreateTargetDC@ATL@@YGPAUHDC__@@PAU2@PAUtagDVTARGETDEVICE@@@Z 66204b4e f i SuperSaverOptionsShim.obj
 0001:00003bb0       ?AtlHiMetricToPixel@ATL@@YGXPBUtagSIZE@@PAU2@@Z 66204bb0 f i SuperSaverOptionsShim.obj
 0001:00003c07       ?AtlPixelToHiMetric@ATL@@YGXPBUtagSIZE@@PAU2@@Z 66204c07 f i SuperSaverOptionsShim.obj
 0001:00003c5e       ??0CComControlBase@ATL@@QAE@AAPAUHWND__@@@Z 66204c5e f i SuperSaverOptionsShim.obj
 0001:00003c98       ??1CComControlBase@ATL@@UAE@XZ 66204c98 f i SuperSaverOptionsShim.obj
 0001:00003cfb       ?OnSetFocus@CComControlBase@ATL@@QAEJIIJAAH@Z 66204cfb f i SuperSaverOptionsShim.obj
 0001:00003da3       ?OnKillFocus@CComControlBase@ATL@@QAEJIIJAAH@Z 66204da3 f i SuperSaverOptionsShim.obj
 0001:00003e13       ?OnMouseActivate@CComControlBase@ATL@@QAEJIIJAAH@Z 66204e13 f i SuperSaverOptionsShim.obj
 0001:00003e9d       ?GetAmbientProperty@CComControlBase@ATL@@QAEJJAAUtagVARIANT@@@Z 66204e9d f i SuperSaverOptionsShim.obj
 0001:00003ebb       ?GetAmbientBackColor@CComControlBase@ATL@@QAEJAAK@Z 66204ebb f i SuperSaverOptionsShim.obj
 0001:00003ef8       ?GetAmbientLocaleID@CComControlBase@ATL@@QAEJAAK@Z 66204ef8 f i SuperSaverOptionsShim.obj
 0001:00003f35       ?GetAmbientUserMode@CComControlBase@ATL@@QAEJAAH@Z 66204f35 f i SuperSaverOptionsShim.obj
 0001:00003f8a       ?InternalGetSite@CComControlBase@ATL@@QAEJABU_GUID@@PAPAX@Z 66204f8a f i SuperSaverOptionsShim.obj
 0001:00003fb1       ?DoesVerbUIActivate@CComControlBase@ATL@@QAEHJ@Z 66204fb1 f i SuperSaverOptionsShim.obj
 0001:00003fdc       ?DoesVerbActivate@CComControlBase@ATL@@QAEHJ@Z 66204fdc f i SuperSaverOptionsShim.obj
 0001:00003ff5       ?IQuickActivate_QuickActivate@CComControlBase@ATL@@QAEJPAUtagQACONTAINER@@PAUtagQACONTROL@@@Z 66204ff5 f i SuperSaverOptionsShim.obj
 0001:0000427a       ?SetControlFocus@CComControlBase@ATL@@QAEHH@Z 6620527a f i SuperSaverOptionsShim.obj
 0001:00004309       ?DoVerbProperties@CComControlBase@ATL@@QAEJPBUtagRECT@@PAUHWND__@@@Z 66205309 f i SuperSaverOptionsShim.obj
 0001:0000449f       ??1?$CComQIPtr@UIAdviseSink@@$1?_GUID_0000010f_0000_0000_c000_000000000046@@3U__s_GUID@@B@ATL@@QAE@XZ 6620549f f i SuperSaverOptionsShim.obj
 0001:0000449f       ??1?$CComQIPtr@UIPersistStream@@$1?_GUID_00000109_0000_0000_c000_000000000046@@3U__s_GUID@@B@ATL@@QAE@XZ 6620549f f i SuperSaverOptionsShim.obj
 0001:0000449f       ??1?$CComQIPtr@UIOleControlSite@@$1?_GUID_b196b289_bab4_101a_b69c_00aa00341d07@@3U__s_GUID@@B@ATL@@QAE@XZ 6620549f f i SuperSaverOptionsShim.obj
 0001:0000449f       ??1?$CComQIPtr@UIOleInPlaceActiveObject@@$1?_GUID_00000117_0000_0000_c000_000000000046@@3U__s_GUID@@B@ATL@@QAE@XZ 6620549f f i SuperSaverOptionsShim.obj
 0001:0000449f       ??1?$CComQIPtr@UIOleObject@@$1?_GUID_00000112_0000_0000_c000_000000000046@@3U__s_GUID@@B@ATL@@QAE@XZ 6620549f f i SuperSaverOptionsShim.obj
 0001:0000449f       ??1?$CComQIPtr@UIOleClientSite@@$1?_GUID_00000118_0000_0000_c000_000000000046@@3U__s_GUID@@B@ATL@@QAE@XZ 6620549f f i SuperSaverOptionsShim.obj
 0001:0000449f       ??1?$CComQIPtr@UISpecifyPropertyPages@@$1?_GUID_b196b28b_bab4_101a_b69c_00aa00341d07@@3U__s_GUID@@B@ATL@@QAE@XZ 6620549f f i SuperSaverOptionsShim.obj
 0001:0000449f       ??1?$CComQIPtr@UIPersistStreamInit@@$1?_GUID_7fd52380_4e07_101b_ae2d_08002b2ec713@@3U__s_GUID@@B@ATL@@QAE@XZ 6620549f f i SuperSaverOptionsShim.obj
 0001:0000449f       ??1?$CComQIPtr@UIDTToolsOptionsPage@EnvDTE@@$1?_GUID_bdcaf240_2692_4713_902a_b110b1d0f100@@3U__s_GUID@@B@ATL@@QAE@XZ 6620549f f i SuperSaverOptionsShim.obj
 0001:0000449f       ??1?$CComQIPtr@UIOleControl@@$1?_GUID_b196b288_bab4_101a_b69c_00aa00341d07@@3U__s_GUID@@B@ATL@@QAE@XZ 6620549f f i SuperSaverOptionsShim.obj
 0001:000044a4       ?InPlaceActivate@CComControlBase@ATL@@QAEJJPBUtagRECT@@@Z 662054a4 f i SuperSaverOptionsShim.obj
 0001:000047a0       ?SendOnDataChange@CComControlBase@ATL@@QAEJK@Z 662057a0 f i SuperSaverOptionsShim.obj
 0001:00004805       ?IOleObject_SetClientSite@CComControlBase@ATL@@QAEJPAUIOleClientSite@@@Z 66205805 f i SuperSaverOptionsShim.obj
 0001:00004839       ?IOleObject_GetClientSite@CComControlBase@ATL@@QAEJPAPAUIOleClientSite@@@Z 66205839 f i SuperSaverOptionsShim.obj
 0001:0000485a       ?IOleObject_Advise@CComControlBase@ATL@@QAEJPAUIAdviseSink@@PAK@Z 6620585a f i SuperSaverOptionsShim.obj
 0001:00004884       ?IOleObject_Close@CComControlBase@ATL@@QAEJK@Z 66205884 f i SuperSaverOptionsShim.obj
 0001:00004981       ?IOleInPlaceObject_InPlaceDeactivate@CComControlBase@ATL@@QAEJXZ 66205981 f i SuperSaverOptionsShim.obj
 0001:00004a0c       ?IOleInPlaceObject_UIDeactivate@CComControlBase@ATL@@QAEJXZ 66205a0c f i SuperSaverOptionsShim.obj
 0001:00004ad9       ?IOleInPlaceObject_SetObjectRects@CComControlBase@ATL@@QAEJPBUtagRECT@@0@Z 66205ad9 f i SuperSaverOptionsShim.obj
 0001:00004b91       ?IOleObject_SetExtent@CComControlBase@ATL@@QAEJKPAUtagSIZE@@@Z 66205b91 f i SuperSaverOptionsShim.obj
 0001:00004c51       ?IViewObject_Draw@CComControlBase@ATL@@QAEJKJPAXPAUtagDVTARGETDEVICE@@PAUHDC__@@2PBU_RECTL@@3@Z 66205c51 f i SuperSaverOptionsShim.obj
 0001:00004cf8       ?IDataObject_GetData@CComControlBase@ATL@@QAEJPAUtagFORMATETC@@PAUtagSTGMEDIUM@@@Z 66205cf8 f i SuperSaverOptionsShim.obj
 0001:00004e78       ?FireViewChange@CComControlBase@ATL@@QAEJXZ 66205e78 f i SuperSaverOptionsShim.obj
 0001:00004ec2       ?GetZoomInfo@CComControlBase@ATL@@QAEXAAUATL_DRAWINFO@@@Z 66205ec2 f i SuperSaverOptionsShim.obj
 0001:00004f52       ?OnDrawAdvanced@CComControlBase@ATL@@UAEJAAUATL_DRAWINFO@@@Z 66205f52 f i SuperSaverOptionsShim.obj
 0001:0000502a       ??0CSuperSaverOptionsShim@@QAE@XZ 6620602a f i SuperSaverOptionsShim.obj
 0001:0000509b       ?UpdateRegistry@CSuperSaverOptionsShim@@SGJH@Z 6620609b f i SuperSaverOptionsShim.obj
 0001:00005114       ?ProcessWindowMessage@CSuperSaverOptionsShim@@UAEHPAUHWND__@@IIJAAJK@Z 66206114 f i SuperSaverOptionsShim.obj
 0001:0000516c       ?_GetSinkMap@CSuperSaverOptionsShim@@SAPBU?$_ATL_EVENT_ENTRY@VCSuperSaverOptionsShim@@@ATL@@XZ 6620616c f i SuperSaverOptionsShim.obj
 0001:00005197       ?OnAmbientPropertyChange@CSuperSaverOptionsShim@@UAGJJ@Z 66206197 f i SuperSaverOptionsShim.obj
 0001:000051bb       ?InterfaceSupportsErrorInfo@CSuperSaverOptionsShim@@UAGJABU_GUID@@@Z 662061bb f i SuperSaverOptionsShim.obj
 0001:000051e2       ?OnAfterCreated@CSuperSaverOptionsShim@@UAGJPAU_DTE@EnvDTE@@@Z 662061e2 f i SuperSaverOptionsShim.obj
 0001:00005243       ?GetProperties@CSuperSaverOptionsShim@@UAGJPAPAUIDispatch@@@Z 66206243 f i SuperSaverOptionsShim.obj
 0001:00005294       ?OnOK@CSuperSaverOptionsShim@@UAGJXZ 66206294 f i SuperSaverOptionsShim.obj
 0001:000052e2       ?OnCancel@CSuperSaverOptionsShim@@UAGJXZ 662062e2 f i SuperSaverOptionsShim.obj
 0001:00005330       ?OnHelp@CSuperSaverOptionsShim@@UAGJXZ 66206330 f i SuperSaverOptionsShim.obj
 0001:0000537e       ??1?$CComPtr@UIAxWinAmbientDispatch@@@ATL@@QAE@XZ 6620637e f i SuperSaverOptionsShim.obj
 0001:0000537e       ??1?$CComPtr@UICorRuntimeHost@@@ATL@@QAE@XZ 6620637e f i SuperSaverOptionsShim.obj
 0001:0000537e       ??1?$CComPtr@UISpecifyPropertyPages@@@ATL@@QAE@XZ 6620637e f i SuperSaverOptionsShim.obj
 0001:0000537e       ??1?$CComPtr@UIConnectionPoint@@@ATL@@QAE@XZ 6620637e f i SuperSaverOptionsShim.obj
 0001:0000537e       ??1?$CComPtr@UIDataObject@@@ATL@@QAE@XZ 6620637e f i SuperSaverOptionsShim.obj
 0001:0000537e       ??1?$CComPtr@UIPointerInactive@@@ATL@@QAE@XZ 6620637e f i SuperSaverOptionsShim.obj
 0001:0000537e       ??1?$CComPtr@UIWin32Window@@@ATL@@QAE@XZ 6620637e f i SuperSaverOptionsShim.obj
 0001:0000537e       ??1?$CComPtr@UIConnectionPointContainer@@@ATL@@QAE@XZ 6620637e f i SuperSaverOptionsShim.obj
 0001:0000537e       ??1?$CComPtr@UITypeInfo2@@@ATL@@QAE@XZ 6620637e f i SuperSaverOptionsShim.obj
 0001:0000537e       ??1?$CComPtr@UIViewObjectEx@@@ATL@@QAE@XZ 6620637e f i SuperSaverOptionsShim.obj
 0001:0000537e       ??1?$CComPtr@UIObjectWithSite@@@ATL@@QAE@XZ 6620637e f i SuperSaverOptionsShim.obj
 0001:0000537e       ??1?$CComPtr@UIOleControlSite@@@ATL@@QAE@XZ 6620637e f i SuperSaverOptionsShim.obj
 0001:0000537e       ??1?$CComPtr@UIPersistStream@@@ATL@@QAE@XZ 6620637e f i SuperSaverOptionsShim.obj
 0001:0000537e       ??1?$CComPtr@UIWebBrowser2@@@ATL@@QAE@XZ 6620637e f i SuperSaverOptionsShim.obj
 0001:0000537e       ??1?$CComPtr@UIOleInPlaceUIWindow@@@ATL@@QAE@XZ 6620637e f i SuperSaverOptionsShim.obj
 0001:0000537e       ??1?$CComPtr@UIOleObject@@@ATL@@QAE@XZ 6620637e f i SuperSaverOptionsShim.obj
 0001:0000537e       ??1?$CComPtr@UITypeLib@@@ATL@@QAE@XZ 6620637e f i SuperSaverOptionsShim.obj
 0001:0000537e       ??1?$CComPtr@UIOleClientSite@@@ATL@@QAE@XZ 6620637e f i SuperSaverOptionsShim.obj
 0001:0000537e       ??1?$CComPtr@UICatRegister@@@ATL@@QAE@XZ 6620637e f i SuperSaverShim.obj
 0001:0000537e       ??1?$CComPtr@UITypeInfo@@@ATL@@QAE@XZ 6620637e f i SuperSaverOptionsShim.obj
 0001:0000537e       ??1?$CComPtr@U_ObjectHandle@mscorlib@@@ATL@@QAE@XZ 6620637e f i SuperSaverOptionsShim.obj
 0001:0000537e       ??1?$CComPtr@UIUnknown@@@ATL@@QAE@XZ 6620637e f i SuperSaverOptionsShim.obj
 0001:0000537e       ??1?$CComPtr@UIAdviseSink@@@ATL@@QAE@XZ 6620637e f i SuperSaverOptionsShim.obj
 0001:0000537e       ??1?$CComPtr@UIAxWinHostWindowLic@@@ATL@@QAE@XZ 6620637e f i SuperSaverOptionsShim.obj
 0001:0000537e       ??1?$CComPtr@UIOleInPlaceActiveObject@@@ATL@@QAE@XZ 6620637e f i SuperSaverOptionsShim.obj
 0001:0000537e       ??1?$CComPtr@UIProvideClassInfo2@@@ATL@@QAE@XZ 6620637e f i SuperSaverOptionsShim.obj
 0001:0000537e       ??1?$CComPtr@UIOleInPlaceFrame@@@ATL@@QAE@XZ 6620637e f i SuperSaverOptionsShim.obj
 0001:0000537e       ??1?$CComPtr@UIDispatch@@@ATL@@QAE@XZ 6620637e f i SuperSaverOptionsShim.obj
 0001:0000537e       ??1?$CComPtr@UIPersistStreamInit@@@ATL@@QAE@XZ 6620637e f i SuperSaverOptionsShim.obj
 0001:0000537e       ??1?$CComPtr@UIOleInPlaceObject@@@ATL@@QAE@XZ 6620637e f i SuperSaverOptionsShim.obj
 0001:0000537e       ??1?$CComPtr@UIClassFactory2@@@ATL@@QAE@XZ 6620637e f i SuperSaverOptionsShim.obj
 0001:0000537e       ??1?$CComPtr@UIOleControl@@@ATL@@QAE@XZ 6620637e f i SuperSaverOptionsShim.obj
 0001:0000537e       ??1?$CComPtr@U_AppDomain@mscorlib@@@ATL@@QAE@XZ 6620637e f i SuperSaverOptionsShim.obj
 0001:0000537e       ??1?$CComPtr@U_DTE@EnvDTE@@@ATL@@QAE@XZ 6620637e f i SuperSaverOptionsShim.obj
 0001:0000537e       ??1?$CComPtr@UIStream@@@ATL@@QAE@XZ 6620637e f i SuperSaverOptionsShim.obj
 0001:0000537e       ??1?$CComPtr@UIPersist@@@ATL@@QAE@XZ 6620637e f i SuperSaverOptionsShim.obj
 0001:0000537e       ??1?$CComPtr@UIDTToolsOptionsPage@EnvDTE@@@ATL@@QAE@XZ 6620637e f i SuperSaverOptionsShim.obj
 0001:0000538b       ??1CSuperSaverOptionsShim@@UAE@XZ 6620638b f i SuperSaverOptionsShim.obj
 0001:000053ec       ?OnShowWindow@CSuperSaverOptionsShim@@QAEJIIJAAH@Z 662063ec f   SuperSaverOptionsShim.obj
 0001:00005598       ?OnSize@CSuperSaverOptionsShim@@QAEJIIJAAH@Z 66206598 f   SuperSaverOptionsShim.obj
 0001:000055c1       ?Reset@CSuperSaverOptionsShim@@QAEXXZ 662065c1 f   SuperSaverOptionsShim.obj
 0001:000055fc       ?HostUserControl@CSuperSaverOptionsShim@@UAGJPAG0PAPAUIUnknown@@@Z 662065fc f   SuperSaverOptionsShim.obj
 0001:0000577e       ?FinalConstruct@CSuperSaverOptionsShim@@QAEJXZ 6620677e f   SuperSaverOptionsShim.obj
 0001:0000583d       ?Add@?$CSimpleArray@GV?$CSimpleArrayEqualHelper@G@ATL@@@ATL@@QAEHABG@Z 6620683d f i SuperSaverOptionsShim.obj
 0001:00005883       ?Create@?$CWindowImpl@VCAxFrameWindow@ATL@@VCWindow@2@V?$CWinTraits@$0FGAAAAAA@$0A@@2@@ATL@@QAEPAUHWND__@@PAU3@V_U_RECT@2@PBGKKV_U_MENUorID@2@PAX@Z 66206883 f i SuperSaverOptionsShim.obj
 0001:000058dd       ?GetWindowProc@?$CWindowImplBaseT@VCWindow@ATL@@V?$CWinTraits@$0FGAAAAAA@$0A@@2@@ATL@@UAEP6GJPAUHWND__@@IIJ@ZXZ 662068dd f i SuperSaverOptionsShim.obj
 0001:000058e3       ?DefWindowProcW@?$CWindowImplBaseT@VCWindow@ATL@@V?$CWinTraits@$0FGAAAAAA@$0A@@2@@ATL@@QAEJXZ 662068e3 f i SuperSaverOptionsShim.obj
 0001:000058fd       ?DefWindowProcW@?$CWindowImplBaseT@VCWindow@ATL@@V?$CWinTraits@$0FGAAAAAA@$0A@@2@@ATL@@QAEJIIJ@Z 662068fd f i SuperSaverOptionsShim.obj
 0001:00005918       ?OnFinalMessage@?$CDialogImplBaseT@VCWindow@ATL@@@ATL@@UAEXPAUHWND__@@@Z 66206918 f i SuperSaverOptionsShim.obj
 0001:00005918       ?ObjectMain@CComObjectRootBase@ATL@@SGX_N@Z 66206918 f i SuperSaverOptionsShim.obj
 0001:00005918       ?OnClose@CAxHostWindow@ATL@@UAGXXZ 66206918 f i SuperSaverOptionsShim.obj
 0001:00005918       ?OnSave@CAxHostWindow@ATL@@UAGXXZ 66206918 f i SuperSaverOptionsShim.obj
 0001:00005918       ?OnFinalMessage@?$CWindowImplBaseT@VCWindow@ATL@@V?$CWinTraits@$0FGAAAAAA@$0A@@2@@ATL@@UAEXPAUHWND__@@@Z 66206918 f i SuperSaverOptionsShim.obj
 0001:0000591b       ?Create@?$CWindowImpl@VCAxUIWindow@ATL@@VCWindow@2@V?$CWinTraits@$0FGAAAAAA@$0A@@2@@ATL@@QAEPAUHWND__@@PAU3@V_U_RECT@2@PBGKKV_U_MENUorID@2@PAX@Z 6620691b f i SuperSaverOptionsShim.obj
 0001:00005975       ?SetSite@?$IObjectWithSiteImpl@VCAxHostWindow@ATL@@@ATL@@UAGJPAUIUnknown@@@Z 66206975 f i SuperSaverOptionsShim.obj
 0001:00005997       ?GetSite@?$IObjectWithSiteImpl@VCAxHostWindow@ATL@@@ATL@@UAGJABU_GUID@@PAPAX@Z 66206997 f i SuperSaverOptionsShim.obj
 0001:000059cf       ?GetTypeInfo@?$IDispatchImpl@UIAxWinAmbientDispatchEx@@$1?_GUID_b2d0778b_ac99_4c58_a5c8_e7724e5316b5@@3U__s_GUID@@B$1?m_libid@CAtlModule@ATL@@2U_GUID@@A$0PPPP@$0PPPP@VCComTypeInfoHolder@ATL@@@ATL@@UAGJIKPAPAUITypeInfo@@@Z 662069cf f i SuperSaverOptionsShim.obj
 0001:000059e6       ?GetIDsOfNames@?$IDispatchImpl@UIAxWinAmbientDispatchEx@@$1?_GUID_b2d0778b_ac99_4c58_a5c8_e7724e5316b5@@3U__s_GUID@@B$1?m_libid@CAtlModule@ATL@@2U_GUID@@A$0PPPP@$0PPPP@VCComTypeInfoHolder@ATL@@@ATL@@UAGJABU_GUID@@PAPAGIKPAJ@Z 662069e6 f i SuperSaverOptionsShim.obj
 0001:00005a03       ?Invoke@?$IDispatchImpl@UIAxWinAmbientDispatchEx@@$1?_GUID_b2d0778b_ac99_4c58_a5c8_e7724e5316b5@@3U__s_GUID@@B$1?m_libid@CAtlModule@ATL@@2U_GUID@@A$0PPPP@$0PPPP@VCComTypeInfoHolder@ATL@@@ATL@@UAGJJABU_GUID@@KGPAUtagDISPPARAMS@@PAUtagVARIANT@@PAUtagEXCEPINFO@@PAI@Z 66206a03 f i SuperSaverOptionsShim.obj
 0001:00005a2e       ?CopyTo@?$CComPtrBase@UIFontDisp@@@ATL@@QAEJPAPAUIFontDisp@@@Z 66206a2e f i SuperSaverOptionsShim.obj
 0001:00005a2e       ?CopyTo@?$CComPtrBase@UIDispatch@@@ATL@@QAEJPAPAUIDispatch@@@Z 66206a2e f i SuperSaverOptionsShim.obj
 0001:00005a2e       ?CopyTo@?$CComPtrBase@UIOleInPlaceUIWindow@@@ATL@@QAEJPAPAUIOleInPlaceUIWindow@@@Z 66206a2e f i SuperSaverOptionsShim.obj
 0001:00005a2e       ?CopyTo@?$CComPtrBase@UIOleInPlaceFrame@@@ATL@@QAEJPAPAUIOleInPlaceFrame@@@Z 66206a2e f i SuperSaverOptionsShim.obj
 0001:00005a4b       ??0?$CComQIPtr@UIOleInPlaceActiveObject@@$1?_GUID_00000117_0000_0000_c000_000000000046@@3U__s_GUID@@B@ATL@@QAE@PAUIUnknown@@@Z 66206a4b f i SuperSaverOptionsShim.obj
 0001:00005a6d       ??0?$CComQIPtr@UIOleControl@@$1?_GUID_b196b288_bab4_101a_b69c_00aa00341d07@@3U__s_GUID@@B@ATL@@QAE@PAUIUnknown@@@Z 66206a6d f i SuperSaverOptionsShim.obj
 0001:00005a8f       ??1?$CComObject@VCAxFrameWindow@ATL@@@ATL@@UAE@XZ 66206a8f f i SuperSaverOptionsShim.obj
 0001:00005abf       ?Release@?$CComObject@VCAxFrameWindow@ATL@@@ATL@@UAGKXZ 66206abf f i SuperSaverOptionsShim.obj
 0001:00005abf       ?Release@?$CComObject@VCAxUIWindow@ATL@@@ATL@@UAGKXZ 66206abf f i SuperSaverOptionsShim.obj
 0001:00005ae0       ?QueryInterface@?$CComObject@VCAxFrameWindow@ATL@@@ATL@@UAGJABU_GUID@@PAPAX@Z 66206ae0 f i SuperSaverOptionsShim.obj
 0001:00005aff       ??1?$CComObject@VCAxUIWindow@ATL@@@ATL@@UAE@XZ 66206aff f i SuperSaverOptionsShim.obj
 0001:00005b2f       ?AddRef@?$CComObject@VCAxFrameWindow@ATL@@@ATL@@UAGKXZ 66206b2f f i SuperSaverOptionsShim.obj
 0001:00005b2f       ?AddRef@?$CComObject@VCAxUIWindow@ATL@@@ATL@@UAGKXZ 66206b2f f i SuperSaverOptionsShim.obj
 0001:00005b2f       ?AddRef@?$CComAggObject@VCSuperSaverOptionsShim@@@ATL@@UAGKXZ 66206b2f f i SuperSaverOptionsShim.obj
 0001:00005b2f       ?AddRef@?$CComPolyObject@VCAxHostWindow@ATL@@@ATL@@UAGKXZ 66206b2f f i SuperSaverOptionsShim.obj
 0001:00005b3c       ?QueryInterface@?$CComObject@VCAxUIWindow@ATL@@@ATL@@UAGJABU_GUID@@PAPAX@Z 66206b3c f i SuperSaverOptionsShim.obj
 0001:00005b5b       ??0?$CComObject@V?$CComEnum@UIEnumUnknown@@$1?_GUID_00000100_0000_0000_c000_000000000046@@3U__s_GUID@@BPAUIUnknown@@V?$_CopyInterface@UIUnknown@@@ATL@@VCComSingleThreadModel@6@@ATL@@@ATL@@QAE@PAX@Z 66206b5b f i SuperSaverOptionsShim.obj
 0001:00005b76       ??1?$CComObject@V?$CComEnum@UIEnumUnknown@@$1?_GUID_00000100_0000_0000_c000_000000000046@@3U__s_GUID@@BPAUIUnknown@@V?$_CopyInterface@UIUnknown@@@ATL@@VCComSingleThreadModel@6@@ATL@@@ATL@@UAE@XZ 66206b76 f i SuperSaverOptionsShim.obj
 0001:00005b99       ?AddRef@?$CComObject@V?$CComEnum@UIEnumUnknown@@$1?_GUID_00000100_0000_0000_c000_000000000046@@3U__s_GUID@@BPAUIUnknown@@V?$_CopyInterface@UIUnknown@@@ATL@@VCComSingleThreadModel@6@@ATL@@@ATL@@UAGKXZ 66206b99 f i SuperSaverOptionsShim.obj
 0001:00005ba6       ?Release@?$CComObject@V?$CComEnum@UIEnumUnknown@@$1?_GUID_00000100_0000_0000_c000_000000000046@@3U__s_GUID@@BPAUIUnknown@@V?$_CopyInterface@UIUnknown@@@ATL@@VCComSingleThreadModel@6@@ATL@@@ATL@@UAGKXZ 66206ba6 f i SuperSaverOptionsShim.obj
 0001:00005bc4       ?QueryInterface@?$CComObject@V?$CComEnum@UIEnumUnknown@@$1?_GUID_00000100_0000_0000_c000_000000000046@@3U__s_GUID@@BPAUIUnknown@@V?$_CopyInterface@UIUnknown@@@ATL@@VCComSingleThreadModel@6@@ATL@@@ATL@@UAGJABU_GUID@@PAPAX@Z 66206bc4 f i SuperSaverOptionsShim.obj
 0001:00005bdf       ?Reset@?$CComEnumImpl@UIEnumUnknown@@$1?_GUID_00000100_0000_0000_c000_000000000046@@3U__s_GUID@@BPAUIUnknown@@V?$_CopyInterface@UIUnknown@@@ATL@@@ATL@@UAGJXZ 66206bdf f i SuperSaverOptionsShim.obj
 0001:00005bee       ??0?$CComQIPtr@UIOleClientSite@@$1?_GUID_00000118_0000_0000_c000_000000000046@@3U__s_GUID@@B@ATL@@QAE@PAUIUnknown@@@Z 66206bee f i SuperSaverOptionsShim.obj
 0001:00005c10       ??0?$CComQIPtr@UIPersistStreamInit@@$1?_GUID_7fd52380_4e07_101b_ae2d_08002b2ec713@@3U__s_GUID@@B@ATL@@QAE@PAUIUnknown@@@Z 66206c10 f i SuperSaverOptionsShim.obj
 0001:00005c32       ??0?$CComQIPtr@UIPersistStream@@$1?_GUID_00000109_0000_0000_c000_000000000046@@3U__s_GUID@@B@ATL@@QAE@PAUIUnknown@@@Z 66206c32 f i SuperSaverOptionsShim.obj
 0001:00005c54       ??0?$CComQIPtr@UIAdviseSink@@$1?_GUID_0000010f_0000_0000_c000_000000000046@@3U__s_GUID@@B@ATL@@QAE@PAUIUnknown@@@Z 66206c54 f i SuperSaverOptionsShim.obj
 0001:00005c76       ?CreateInstance@?$CComCreator@V?$CComPolyObject@VCAxHostWindow@ATL@@@ATL@@@ATL@@SGJPAXABU_GUID@@PAPAX@Z 66206c76 f i SuperSaverOptionsShim.obj
 0001:00005d11       ??0?$CComQIPtr@UIOleControlSite@@$1?_GUID_b196b289_bab4_101a_b69c_00aa00341d07@@3U__s_GUID@@B@ATL@@QAE@PAUIUnknown@@@Z 66206d11 f i SuperSaverOptionsShim.obj
 0001:00005d33       ?GetTypeInfoCount@?$IDispatchImpl@UIAxWinAmbientDispatchEx@@$1?_GUID_b2d0778b_ac99_4c58_a5c8_e7724e5316b5@@3U__s_GUID@@B$1?m_libid@CAtlModule@ATL@@2U_GUID@@A$0PPPP@$0PPPP@VCComTypeInfoHolder@ATL@@@ATL@@UAGJPAI@Z 66206d33 f i SuperSaverOptionsShim.obj
 0001:00005d33       ?GetTypeInfoCount@?$IDispatchImpl@UIDTToolsOptionsPage@EnvDTE@@$1?IID_IDTToolsOptionsPage@2@3U_GUID@@B$1?LIBID_EnvDTE@2@3U4@B$06$0A@VCComTypeInfoHolder@ATL@@@ATL@@UAGJPAI@Z 66206d33 f i SuperSaverOptionsShim.obj
 0001:00005d4d       ?GetTypeInfo@?$IDispatchImpl@UIDTToolsOptionsPage@EnvDTE@@$1?IID_IDTToolsOptionsPage@2@3U_GUID@@B$1?LIBID_EnvDTE@2@3U4@B$06$0A@VCComTypeInfoHolder@ATL@@@ATL@@UAGJIKPAPAUITypeInfo@@@Z 66206d4d f i SuperSaverOptionsShim.obj
 0001:00005d64       ?GetIDsOfNames@?$IDispatchImpl@UIDTToolsOptionsPage@EnvDTE@@$1?IID_IDTToolsOptionsPage@2@3U_GUID@@B$1?LIBID_EnvDTE@2@3U4@B$06$0A@VCComTypeInfoHolder@ATL@@@ATL@@UAGJABU_GUID@@PAPAGIKPAJ@Z 66206d64 f i SuperSaverOptionsShim.obj
 0001:00005d81       ?Invoke@?$IDispatchImpl@UIDTToolsOptionsPage@EnvDTE@@$1?IID_IDTToolsOptionsPage@2@3U_GUID@@B$1?LIBID_EnvDTE@2@3U4@B$06$0A@VCComTypeInfoHolder@ATL@@@ATL@@UAGJJABU_GUID@@KGPAUtagDISPPARAMS@@PAUtagVARIANT@@PAUtagEXCEPINFO@@PAI@Z 66206d81 f i SuperSaverOptionsShim.obj
 0001:00005dac       ?GetClassID@?$IPersistStorageImpl@VCSuperSaverOptionsShim@@@ATL@@UAGJPAU_GUID@@@Z 66206dac f i SuperSaverOptionsShim.obj
 0001:00005dac       ?GetClassID@?$IPersistStreamInitImpl@VCSuperSaverOptionsShim@@@ATL@@UAGJPAU_GUID@@@Z 66206dac f i SuperSaverOptionsShim.obj
 0001:00005dac       ?GetUserClassID@?$IOleObjectImpl@VCSuperSaverOptionsShim@@@ATL@@UAGJPAU_GUID@@@Z 66206dac f i SuperSaverOptionsShim.obj
 0001:00005dcd       ?IsDirty@?$IPersistStreamInitImpl@VCSuperSaverOptionsShim@@@ATL@@UAGJXZ 66206dcd f i SuperSaverOptionsShim.obj
 0001:00005dea       ?Load@?$IPersistStreamInitImpl@VCSuperSaverOptionsShim@@@ATL@@UAGJPAUIStream@@@Z 66206dea f i SuperSaverOptionsShim.obj
 0001:00005e0b       ?Save@?$IPersistStreamInitImpl@VCSuperSaverOptionsShim@@@ATL@@UAGJPAUIStream@@H@Z 66206e0b f i SuperSaverOptionsShim.obj
 0001:00005e37       ?GetSizeMax@?$IPersistStreamInitImpl@VCSuperSaverOptionsShim@@@ATL@@UAGJPAT_ULARGE_INTEGER@@@Z 66206e37 f i SuperSaverOptionsShim.obj
 0001:00005f67       ?InitNew@?$IPersistStreamInitImpl@VCSuperSaverOptionsShim@@@ATL@@UAGJXZ 66206f67 f i SuperSaverOptionsShim.obj
 0001:00005f7d       ?FreezeEvents@?$IOleControlImpl@VCSuperSaverOptionsShim@@@ATL@@UAGJH@Z 66206f7d f i SuperSaverOptionsShim.obj
 0001:00005f9e       ?SetClientSite@?$IOleObjectImpl@VCSuperSaverOptionsShim@@@ATL@@UAGJPAUIOleClientSite@@@Z 66206f9e f i SuperSaverOptionsShim.obj
 0001:00005fbc       ?GetClientSite@?$IOleObjectImpl@VCSuperSaverOptionsShim@@@ATL@@UAGJPAPAUIOleClientSite@@@Z 66206fbc f i SuperSaverOptionsShim.obj
 0001:00005fd8       ?Close@?$IOleObjectImpl@VCSuperSaverOptionsShim@@@ATL@@UAGJK@Z 66206fd8 f i SuperSaverOptionsShim.obj
 0001:00005ff6       ?DoVerb@?$IOleObjectImpl@VCSuperSaverOptionsShim@@@ATL@@UAGJJPAUtagMSG@@PAUIOleClientSite@@JPAUHWND__@@PBUtagRECT@@@Z 66206ff6 f i SuperSaverOptionsShim.obj
 0001:000060bd       ?EnumVerbs@?$IOleObjectImpl@VCSuperSaverOptionsShim@@@ATL@@UAGJPAPAUIEnumOLEVERB@@@Z 662070bd f i SuperSaverOptionsShim.obj
 0001:000060dd       ?RequestUIActivate@CAxHostWindow@ATL@@UAGJXZ 662070dd f i SuperSaverOptionsShim.obj
 0001:000060dd       ?CanInPlaceActivate@CAxHostWindow@ATL@@UAGJXZ 662070dd f i SuperSaverOptionsShim.obj
 0001:000060dd       ?Update@?$IOleObjectImpl@VCSuperSaverOptionsShim@@@ATL@@UAGJXZ 662070dd f i SuperSaverOptionsShim.obj
 0001:000060dd       ?IsUpToDate@?$IOleObjectImpl@VCSuperSaverOptionsShim@@@ATL@@UAGJXZ 662070dd f i SuperSaverOptionsShim.obj
 0001:000060dd       ?HandsOffStorage@?$IPersistStorageImpl@VCSuperSaverOptionsShim@@@ATL@@UAGJXZ 662070dd f i SuperSaverOptionsShim.obj
 0001:000060dd       ?Release@CRegObject@ATL@@UAGKXZ 662070dd f i SuperSaverOptionsShim.obj
 0001:000060dd       ?OnControlInfoChanged@CAxHostWindow@ATL@@UAGJXZ 662070dd f i SuperSaverOptionsShim.obj
 0001:000060e2       ?GetUserType@?$IOleObjectImpl@VCSuperSaverOptionsShim@@@ATL@@UAGJKPAPAG@Z 662070e2 f i SuperSaverOptionsShim.obj
 0001:000060f8       ?SetExtent@?$IOleObjectImpl@VCSuperSaverOptionsShim@@@ATL@@UAGJKPAUtagSIZE@@@Z 662070f8 f i SuperSaverOptionsShim.obj
 0001:0000611d       ?GetExtent@?$IOleObjectImpl@VCSuperSaverOptionsShim@@@ATL@@UAGJKPAUtagSIZE@@@Z 6620711d f i SuperSaverOptionsShim.obj
 0001:00006159       ?Advise@?$IOleObjectImpl@VCSuperSaverOptionsShim@@@ATL@@UAGJPAUIAdviseSink@@PAK@Z 66207159 f i SuperSaverOptionsShim.obj
 0001:00006179       ?Unadvise@?$IOleObjectImpl@VCSuperSaverOptionsShim@@@ATL@@UAGJK@Z 66207179 f i SuperSaverOptionsShim.obj
 0001:0000619f       ?EnumAdvise@?$IOleObjectImpl@VCSuperSaverOptionsShim@@@ATL@@UAGJPAPAUIEnumSTATDATA@@@Z 6620719f f i SuperSaverOptionsShim.obj
 0001:000061d4       ?GetMiscStatus@?$IOleObjectImpl@VCSuperSaverOptionsShim@@@ATL@@UAGJKPAK@Z 662071d4 f i SuperSaverOptionsShim.obj
 0001:000061ea       ?GetWindow@?$IOleInPlaceActiveObjectImpl@VCSuperSaverOptionsShim@@@ATL@@UAGJPAPAUHWND__@@@Z 662071ea f i SuperSaverOptionsShim.obj
 0001:00006228       ?TranslateAcceleratorW@?$IOleInPlaceActiveObjectImpl@VCSuperSaverOptionsShim@@@ATL@@UAGJPAUtagMSG@@@Z 66207228 f i SuperSaverOptionsShim.obj
 0001:000062e6       ?OnDocWindowActivate@?$IOleInPlaceActiveObjectImpl@VCSuperSaverOptionsShim@@@ATL@@UAGJH@Z 662072e6 f i SuperSaverOptionsShim.obj
 0001:00006309       ?Draw@?$IViewObjectExImpl@VCSuperSaverOptionsShim@@@ATL@@UAGJKJPAXPAUtagDVTARGETDEVICE@@PAUHDC__@@2PBU_RECTL@@3P6GHK@ZK@Z 66207309 f i SuperSaverOptionsShim.obj
 0001:0000633e       ?GetColorSet@?$IViewObjectExImpl@VCSuperSaverOptionsShim@@@ATL@@UAGJKJPAXPAUtagDVTARGETDEVICE@@PAUHDC__@@PAPAUtagLOGPALETTE@@@Z 6620733e f i SuperSaverOptionsShim.obj
 0001:00006346       ?SetAdvise@?$IViewObjectExImpl@VCSuperSaverOptionsShim@@@ATL@@UAGJKKPAUIAdviseSink@@@Z 66207346 f i SuperSaverOptionsShim.obj
 0001:00006368       ?GetAdvise@?$IViewObjectExImpl@VCSuperSaverOptionsShim@@@ATL@@UAGJPAK0PAPAUIAdviseSink@@@Z 66207368 f i SuperSaverOptionsShim.obj
 0001:0000639b       ?GetExtent@?$IViewObjectExImpl@VCSuperSaverOptionsShim@@@ATL@@UAGJKJPAUtagDVTARGETDEVICE@@PAUtagSIZE@@@Z 6620739b f i SuperSaverOptionsShim.obj
 0001:000063c9       ?GetViewStatus@?$IViewObjectExImpl@VCSuperSaverOptionsShim@@@ATL@@UAGJPAK@Z 662073c9 f i SuperSaverOptionsShim.obj
 0001:000063e3       ?QueryHitPoint@?$IViewObjectExImpl@VCSuperSaverOptionsShim@@@ATL@@UAGJKPBUtagRECT@@UtagPOINT@@JPAK@Z 662073e3 f i SuperSaverOptionsShim.obj
 0001:00006424       ?QueryHitRect@?$IViewObjectExImpl@VCSuperSaverOptionsShim@@@ATL@@UAGJKPBUtagRECT@@0JPAK@Z 66207424 f i SuperSaverOptionsShim.obj
 0001:00006469       ?GetNaturalExtent@?$IViewObjectExImpl@VCSuperSaverOptionsShim@@@ATL@@UAGJKJPAUtagDVTARGETDEVICE@@PAUHDC__@@PAUtagExtentInfo@@PAUtagSIZE@@@Z 66207469 f i SuperSaverOptionsShim.obj
 0001:000064b1       ?GetWindow@?$IOleInPlaceObjectWindowlessImpl@VCSuperSaverOptionsShim@@@ATL@@UAGJPAPAUHWND__@@@Z 662074b1 f i SuperSaverOptionsShim.obj
 0001:000064ef       ?InPlaceDeactivate@?$IOleInPlaceObjectWindowlessImpl@VCSuperSaverOptionsShim@@@ATL@@UAGJXZ 662074ef f i SuperSaverOptionsShim.obj
 0001:00006509       ?UIDeactivate@?$IOleInPlaceObjectWindowlessImpl@VCSuperSaverOptionsShim@@@ATL@@UAGJXZ 66207509 f i SuperSaverOptionsShim.obj
 0001:00006523       ?SetObjectRects@?$IOleInPlaceObjectWindowlessImpl@VCSuperSaverOptionsShim@@@ATL@@UAGJPBUtagRECT@@0@Z 66207523 f i SuperSaverOptionsShim.obj
 0001:00006546       ?OnWindowMessage@?$IOleInPlaceObjectWindowlessImpl@VCSuperSaverOptionsShim@@@ATL@@UAGJIIJPAJ@Z 66207546 f i SuperSaverOptionsShim.obj
 0001:000065af       ?IsDirty@?$IPersistStorageImpl@VCSuperSaverOptionsShim@@@ATL@@UAGJXZ 662075af f i SuperSaverOptionsShim.obj
 0001:00006604       ?InitNew@?$IPersistStorageImpl@VCSuperSaverOptionsShim@@@ATL@@UAGJPAUIStorage@@@Z 66207604 f i SuperSaverOptionsShim.obj
 0001:00006659       ?Load@?$IPersistStorageImpl@VCSuperSaverOptionsShim@@@ATL@@UAGJPAUIStorage@@@Z 66207659 f i SuperSaverOptionsShim.obj
 0001:000066f4       ?Save@?$IPersistStorageImpl@VCSuperSaverOptionsShim@@@ATL@@UAGJPAUIStorage@@H@Z 662076f4 f i SuperSaverOptionsShim.obj
 0001:00006796       ?GetPages@?$ISpecifyPropertyPagesImpl@VCSuperSaverOptionsShim@@@ATL@@UAGJPAUtagCAUUID@@@Z 66207796 f i SuperSaverOptionsShim.obj
 0001:000067a7       ?QuickActivate@?$IQuickActivateImpl@VCSuperSaverOptionsShim@@@ATL@@UAGJPAUtagQACONTAINER@@PAUtagQACONTROL@@@Z 662077a7 f i SuperSaverOptionsShim.obj
 0001:000067c7       ?SetContentExtent@?$IQuickActivateImpl@VCSuperSaverOptionsShim@@@ATL@@UAGJPAUtagSIZE@@@Z 662077c7 f i SuperSaverOptionsShim.obj
 0001:000067e8       ?GetContentExtent@?$IQuickActivateImpl@VCSuperSaverOptionsShim@@@ATL@@UAGJPAUtagSIZE@@@Z 662077e8 f i SuperSaverOptionsShim.obj
 0001:00006809       ?GetData@?$IDataObjectImpl@VCSuperSaverOptionsShim@@@ATL@@UAGJPAUtagFORMATETC@@PAUtagSTGMEDIUM@@@Z 66207809 f i SuperSaverOptionsShim.obj
 0001:00006829       ?GetMoniker@CAxHostWindow@ATL@@UAGJKKPAPAUIMoniker@@@Z 66207829 f i SuperSaverOptionsShim.obj
 0001:00006829       ?GetMoniker@?$IOleObjectImpl@VCSuperSaverOptionsShim@@@ATL@@UAGJKKPAPAUIMoniker@@@Z 66207829 f i SuperSaverOptionsShim.obj
 0001:00006829       ?InitFromData@?$IOleObjectImpl@VCSuperSaverOptionsShim@@@ATL@@UAGJPAUIDataObject@@HK@Z 66207829 f i SuperSaverOptionsShim.obj
 0001:00006829       ?TransformCoords@CAxHostWindow@ATL@@UAGJPAU_POINTL@@PAUtagPOINTF@@K@Z 66207829 f i SuperSaverOptionsShim.obj
 0001:00006829       ?SetData@?$IDataObjectImpl@VCSuperSaverOptionsShim@@@ATL@@UAGJPAUtagFORMATETC@@PAUtagSTGMEDIUM@@H@Z 66207829 f i SuperSaverOptionsShim.obj
 0001:00006831       ?DAdvise@?$IDataObjectImpl@VCSuperSaverOptionsShim@@@ATL@@UAGJPAUtagFORMATETC@@KPAUIAdviseSink@@PAK@Z 66207831 f i SuperSaverOptionsShim.obj
 0001:00006872       ?DUnadvise@?$IDataObjectImpl@VCSuperSaverOptionsShim@@@ATL@@UAGJK@Z 66207872 f i SuperSaverOptionsShim.obj
 0001:0000689a       ?EnumDAdvise@?$IDataObjectImpl@VCSuperSaverOptionsShim@@@ATL@@UAGJPAPAUIEnumSTATDATA@@@Z 6620789a f i SuperSaverOptionsShim.obj
 0001:000068d1       ?GetClassInfoW@?$IProvideClassInfo2Impl@$1?CLSID_SuperSaverOptionsShim@@3U_GUID@@B$0A@$1?LIBID_SuperSaverShimLib@@3U2@B$00$0A@VCComTypeInfoHolder@ATL@@@ATL@@UAGJPAPAUITypeInfo@@@Z 662078d1 f i SuperSaverOptionsShim.obj
 0001:000068e6       ?GetGUID@?$IProvideClassInfo2Impl@$1?CLSID_SuperSaverOptionsShim@@3U_GUID@@B$0A@$1?LIBID_SuperSaverShimLib@@3U2@B$00$0A@VCComTypeInfoHolder@ATL@@@ATL@@UAGJKPAU_GUID@@@Z 662078e6 f i SuperSaverOptionsShim.obj
 0001:0000690a       ?GetObjectDescription@?$CComCoClass@VCSuperSaverOptionsShim@@$1?CLSID_SuperSaverOptionsShim@@3U_GUID@@B@ATL@@SGPBGXZ 6620790a f i SuperSaverOptionsShim.obj
 0001:0000690a       ?GetCategoryMap@CComObjectRootBase@ATL@@SAPBU_ATL_CATMAP_ENTRY@2@XZ 6620790a f i SuperSaverOptionsShim.obj
 0001:0000690d       ??0?$CComCompositeControl@VCSuperSaverOptionsShim@@@ATL@@QAE@XZ 6620790d f i SuperSaverOptionsShim.obj
 0001:0000692c       ??1?$CComCompositeControl@VCSuperSaverOptionsShim@@@ATL@@UAE@XZ 6620792c f i SuperSaverOptionsShim.obj
 0001:0000694c       ?SetBackgroundColorFromAmbient@?$CComCompositeControl@VCSuperSaverOptionsShim@@@ATL@@QAEJXZ 6620794c f i SuperSaverOptionsShim.obj
 0001:000069a5       ?CalcExtent@?$CComCompositeControl@VCSuperSaverOptionsShim@@@ATL@@QAEHAAUtagSIZE@@@Z 662079a5 f i SuperSaverOptionsShim.obj
 0001:000069f0       ?CreateControlWindow@?$CComCompositeControl@VCSuperSaverOptionsShim@@@ATL@@UAEPAUHWND__@@PAU3@AAUtagRECT@@@Z 662079f0 f i SuperSaverOptionsShim.obj
 0001:00006a23       ?OnDraw@?$CComCompositeControl@VCSuperSaverOptionsShim@@@ATL@@UAEJAAUATL_DRAWINFO@@@Z 66207a23 f i SuperSaverOptionsShim.obj
 0001:00006aa5       ?ProcessWindowMessage@?$CComCompositeControl@VCSuperSaverOptionsShim@@@ATL@@UAEHPAUHWND__@@IIJAAJK@Z 66207aa5 f i SuperSaverOptionsShim.obj
 0001:00006bbe       ?ControlQueryInterface@?$CComControl@VCSuperSaverOptionsShim@@V?$CAxDialogImpl@VCSuperSaverOptionsShim@@VCWindow@ATL@@@ATL@@@ATL@@UAEJABU_GUID@@PAPAX@Z 66207bbe f i SuperSaverOptionsShim.obj
 0001:00006bd9       ?GetDialogProc@?$CAxDialogImpl@VCSuperSaverOptionsShim@@VCWindow@ATL@@@ATL@@UAEP6GHPAUHWND__@@IIJ@ZXZ 66207bd9 f i SuperSaverOptionsShim.obj
 0001:00006bdf       ?CreateActiveXControls@?$CAxDialogImpl@VCSuperSaverOptionsShim@@VCWindow@ATL@@@ATL@@UAEJI@Z 66207bdf f i SuperSaverOptionsShim.obj
 0001:00006f11       ??0?$CComQIPtr@UIDTToolsOptionsPage@EnvDTE@@$1?_GUID_bdcaf240_2692_4713_902a_b110b1d0f100@@3U__s_GUID@@B@ATL@@QAE@PAUIUnknown@@@Z 66207f11 f i SuperSaverOptionsShim.obj
 0001:00006f33       ?CreateInstance@?$CComCreator@V?$CComObjectCached@VCComClassFactory@ATL@@@ATL@@@ATL@@SGJPAXABU_GUID@@PAPAX@Z 66207f33 f i SuperSaverOptionsShim.obj
 0001:00006fc8       ?CreateInstance@?$CComCreator2@V?$CComCreator@V?$CComObject@VCSuperSaverOptionsShim@@@ATL@@@ATL@@V?$CComCreator@V?$CComAggObject@VCSuperSaverOptionsShim@@@ATL@@@2@@ATL@@SGJPAXABU_GUID@@PAPAX@Z 66207fc8 f i SuperSaverOptionsShim.obj
 0001:00006fe8       ??_E?$CComObject@VCAxFrameWindow@ATL@@@ATL@@UAEPAXI@Z 66207fe8 f i SuperSaverOptionsShim.obj
 0001:00006fe8       ??_G?$CComObject@VCAxFrameWindow@ATL@@@ATL@@UAEPAXI@Z 66207fe8 f i SuperSaverOptionsShim.obj
 0001:00007004       ??_E?$CComObject@VCAxUIWindow@ATL@@@ATL@@UAEPAXI@Z 66208004 f i SuperSaverOptionsShim.obj
 0001:00007004       ??_G?$CComObject@VCAxUIWindow@ATL@@@ATL@@UAEPAXI@Z 66208004 f i SuperSaverOptionsShim.obj
 0001:00007020       ??_G?$CComObject@V?$CComEnum@UIEnumUnknown@@$1?_GUID_00000100_0000_0000_c000_000000000046@@3U__s_GUID@@BPAUIUnknown@@V?$_CopyInterface@UIUnknown@@@ATL@@VCComSingleThreadModel@6@@ATL@@@ATL@@UAEPAXI@Z 66208020 f i SuperSaverOptionsShim.obj
 0001:00007020       ??_E?$CComObject@V?$CComEnum@UIEnumUnknown@@$1?_GUID_00000100_0000_0000_c000_000000000046@@3U__s_GUID@@BPAUIUnknown@@V?$_CopyInterface@UIUnknown@@@ATL@@VCComSingleThreadModel@6@@ATL@@@ATL@@UAEPAXI@Z 66208020 f i SuperSaverOptionsShim.obj
 0001:0000703c       ??0?$CComEnum@UIEnumUnknown@@$1?_GUID_00000100_0000_0000_c000_000000000046@@3U__s_GUID@@BPAUIUnknown@@V?$_CopyInterface@UIUnknown@@@ATL@@VCComSingleThreadModel@6@@ATL@@QAE@XZ 6620803c f i SuperSaverOptionsShim.obj
 0001:00007051       ??1?$CComEnum@UIEnumUnknown@@$1?_GUID_00000100_0000_0000_c000_000000000046@@3U__s_GUID@@BPAUIUnknown@@V?$_CopyInterface@UIUnknown@@@ATL@@VCComSingleThreadModel@6@@ATL@@UAE@XZ 66208051 f i SuperSaverOptionsShim.obj
 0001:00007056       ??_G?$CComCompositeControl@VCSuperSaverOptionsShim@@@ATL@@UAEPAXI@Z 66208056 f i SuperSaverOptionsShim.obj
 0001:00007056       ??_E?$CComCompositeControl@VCSuperSaverOptionsShim@@@ATL@@UAEPAXI@Z 66208056 f i SuperSaverOptionsShim.obj
 0001:00007074       ??1?$CComControl@VCSuperSaverOptionsShim@@V?$CAxDialogImpl@VCSuperSaverOptionsShim@@VCWindow@ATL@@@ATL@@@ATL@@UAE@XZ 66208074 f i SuperSaverOptionsShim.obj
 0001:0000708e       ?InternalSetAtIndex@?$CSimpleArray@GV?$CSimpleArrayEqualHelper@G@ATL@@@ATL@@QAEXHABG@Z 6620808e f i SuperSaverOptionsShim.obj
 0001:000070a4       ?Create@?$CAxWindow2T@VCWindow@ATL@@@ATL@@QAEPAUHWND__@@PAU3@V_U_RECT@2@PBGKKV_U_MENUorID@2@PAX@Z 662080a4 f i SuperSaverOptionsShim.obj
 0001:000070cd       ?CreateControlLic@?$CAxWindow2T@VCWindow@ATL@@@ATL@@QAEJPBGPAUIStream@@PAPAUIUnknown@@PAG@Z 662080cd f i SuperSaverOptionsShim.obj
 0001:000070ee       ?IPersistStreamInit_Load@?$IPersistStreamInitImpl@VCSuperSaverOptionsShim@@@ATL@@QAEJPAUIStream@@PAUATL_PROPMAP_ENTRY@2@@Z 662080ee f i SuperSaverOptionsShim.obj
 0001:00007115       ?DoVerbPrimary@?$IOleObjectImpl@VCSuperSaverOptionsShim@@@ATL@@QAEJPBUtagRECT@@PAUHWND__@@@Z 66208115 f i SuperSaverOptionsShim.obj
 0001:00007195       ?DoVerbShow@?$IOleObjectImpl@VCSuperSaverOptionsShim@@@ATL@@QAEJPBUtagRECT@@PAUHWND__@@@Z 66208195 f i SuperSaverOptionsShim.obj
 0001:000071b5       ?DoVerbInPlaceActivate@?$IOleObjectImpl@VCSuperSaverOptionsShim@@@ATL@@QAEJPBUtagRECT@@PAUHWND__@@@Z 662081b5 f i SuperSaverOptionsShim.obj
 0001:000071e6       ?DoVerbUIActivate@?$IOleObjectImpl@VCSuperSaverOptionsShim@@@ATL@@QAEJPBUtagRECT@@PAUHWND__@@@Z 662081e6 f i SuperSaverOptionsShim.obj
 0001:0000720e       ?DoVerbHide@?$IOleObjectImpl@VCSuperSaverOptionsShim@@@ATL@@QAEJPBUtagRECT@@PAUHWND__@@@Z 6620820e f i SuperSaverOptionsShim.obj
 0001:0000723a       ?GetPagesHelper@?$ISpecifyPropertyPagesImpl@VCSuperSaverOptionsShim@@@ATL@@IAEJPAUtagCAUUID@@PAUATL_PROPMAP_ENTRY@2@@Z 6620823a f i SuperSaverOptionsShim.obj
 0001:00007332       ?AdviseSinkMap@?$CComCompositeControl@VCSuperSaverOptionsShim@@@ATL@@QAEJ_N@Z 66208332 f i SuperSaverOptionsShim.obj
 0001:0000735d       ?BackgroundColorEnumProc@?$CComCompositeControl@VCSuperSaverOptionsShim@@@ATL@@SGHPAUHWND__@@J@Z 6620835d f i SuperSaverOptionsShim.obj
 0001:000073c0       ?OnDialogColor@?$CComCompositeControl@VCSuperSaverOptionsShim@@@ATL@@QAEJIIJAAH@Z 662083c0 f i SuperSaverOptionsShim.obj
 0001:0000741b       ?Create@?$CComCompositeControl@VCSuperSaverOptionsShim@@@ATL@@QAEPAUHWND__@@PAU3@AAUtagRECT@@J@Z 6620841b f i SuperSaverOptionsShim.obj
 0001:0000744a       ?PreTranslateAccelerator@?$CComCompositeControl@VCSuperSaverOptionsShim@@@ATL@@QAEHPAUtagMSG@@AAJ@Z 6620844a f i SuperSaverOptionsShim.obj
 0001:00007755       ?IOleInPlaceObject_InPlaceDeactivate@?$CComCompositeControl@VCSuperSaverOptionsShim@@@ATL@@QAEJXZ 66208755 f i SuperSaverOptionsShim.obj
 0001:0000776f       ?IOleInPlaceObject_UIDeactivate@?$CComCompositeControl@VCSuperSaverOptionsShim@@@ATL@@QAEJXZ 6620876f f i SuperSaverOptionsShim.obj
 0001:00007813       ?OnSetFocus@?$CComCompositeControl@VCSuperSaverOptionsShim@@@ATL@@QAEJIIJAAH@Z 66208813 f i SuperSaverOptionsShim.obj
 0001:000078c3       ?OnMouseActivate@?$CComCompositeControl@VCSuperSaverOptionsShim@@@ATL@@QAEJIIJAAH@Z 662088c3 f i SuperSaverOptionsShim.obj
 0001:0000799c       ??0?$CComControl@VCSuperSaverOptionsShim@@V?$CAxDialogImpl@VCSuperSaverOptionsShim@@VCWindow@ATL@@@ATL@@@ATL@@QAE@XZ 6620899c f i SuperSaverOptionsShim.obj
 0001:000079bb       ??0?$CComPolyObject@VCAxHostWindow@ATL@@@ATL@@QAE@PAX@Z 662089bb f i SuperSaverOptionsShim.obj
 0001:00007a05       ??1?$CComPolyObject@VCAxHostWindow@ATL@@@ATL@@UAE@XZ 66208a05 f i SuperSaverOptionsShim.obj
 0001:00007a51       ?Release@?$CComPolyObject@VCAxHostWindow@ATL@@@ATL@@UAGKXZ 66208a51 f i SuperSaverOptionsShim.obj
 0001:00007a51       ?Release@?$CComAggObject@VCSuperSaverOptionsShim@@@ATL@@UAGKXZ 66208a51 f i SuperSaverOptionsShim.obj
 0001:00007a6f       ?QueryInterface@?$CComPolyObject@VCAxHostWindow@ATL@@@ATL@@UAGJABU_GUID@@PAPAX@Z 66208a6f f i SuperSaverOptionsShim.obj
 0001:00007aba       ?AddRef@?$CComContainedObject@VCAxHostWindow@ATL@@@ATL@@UAGKXZ 66208aba f i SuperSaverOptionsShim.obj
 0001:00007aca       ?Release@?$CComContainedObject@VCAxHostWindow@ATL@@@ATL@@UAGKXZ 66208aca f i SuperSaverOptionsShim.obj
 0001:00007ada       ?QueryInterface@?$CComContainedObject@VCAxHostWindow@ATL@@@ATL@@UAGJABU_GUID@@PAPAX@Z 66208ada f i SuperSaverOptionsShim.obj
 0001:00007af1       ?GetControllingUnknown@?$CComContainedObject@VCAxHostWindow@ATL@@@ATL@@UAEPAUIUnknown@@XZ 66208af1 f i SuperSaverOptionsShim.obj
 0001:00007af5       ??0?$CComObjectCached@VCComClassFactory@ATL@@@ATL@@QAE@PAX@Z 66208af5 f i SuperSaverOptionsShim.obj
 0001:00007b2d       ??1?$CComObjectCached@VCComClassFactory@ATL@@@ATL@@UAE@XZ 66208b2d f i SuperSaverOptionsShim.obj
 0001:00007b59       ?AddRef@?$CComObjectCached@VCComClassFactory@ATL@@@ATL@@UAGKXZ 66208b59 f i SuperSaverOptionsShim.obj
 0001:00007b95       ?Release@?$CComObjectCached@VCComClassFactory@ATL@@@ATL@@UAGKXZ 66208b95 f i SuperSaverOptionsShim.obj
 0001:00007be0       ?QueryInterface@?$CComObjectCached@VCComClassFactory@ATL@@@ATL@@UAGJABU_GUID@@PAPAX@Z 66208be0 f i SuperSaverOptionsShim.obj
 0001:00007bfb       ?CreateInstance@?$CComCreator@V?$CComObject@VCSuperSaverOptionsShim@@@ATL@@@ATL@@SGJPAXABU_GUID@@PAPAX@Z 66208bfb f i SuperSaverOptionsShim.obj
 0001:00007ca6       ?CreateInstance@?$CComCreator@V?$CComAggObject@VCSuperSaverOptionsShim@@@ATL@@@ATL@@SGJPAXABU_GUID@@PAPAX@Z 66208ca6 f i SuperSaverOptionsShim.obj
 0001:00007d51       ??_G?$CComPolyObject@VCAxHostWindow@ATL@@@ATL@@UAEPAXI@Z 66208d51 f i SuperSaverOptionsShim.obj
 0001:00007d51       ??_E?$CComPolyObject@VCAxHostWindow@ATL@@@ATL@@UAEPAXI@Z 66208d51 f i SuperSaverOptionsShim.obj
 0001:00007d6d       ??1?$CComContainedObject@VCAxHostWindow@ATL@@@ATL@@UAE@XZ 66208d6d f i SuperSaverOptionsShim.obj
 0001:00007d72       ??_G?$CComObjectCached@VCComClassFactory@ATL@@@ATL@@UAEPAXI@Z 66208d72 f i SuperSaverOptionsShim.obj
 0001:00007d72       ??_E?$CComObjectCached@VCComClassFactory@ATL@@@ATL@@UAEPAXI@Z 66208d72 f i SuperSaverOptionsShim.obj
 0001:00007d8e       ??0CComClassFactory@ATL@@QAE@XZ 66208d8e f i SuperSaverOptionsShim.obj
 0001:00007da5       ?ExecuteDlgInit@?$CDialogImplBaseT@VCWindow@ATL@@@ATL@@QAEHH@Z 66208da5 f i SuperSaverOptionsShim.obj
 0001:00007eda       ?CreateControlLicEx@?$CAxWindow2T@VCWindow@ATL@@@ATL@@QAEJPBGPAUIStream@@PAPAUIUnknown@@2ABU_GUID@@PAU4@PAG@Z 66208eda f i SuperSaverOptionsShim.obj
 0001:00007fb3       ?Create@?$CAxDialogImpl@VCSuperSaverOptionsShim@@VCWindow@ATL@@@ATL@@QAEPAUHWND__@@PAU3@J@Z 66208fb3 f i SuperSaverOptionsShim.obj
 0001:00007fe4       ??0?$CComContainedObject@VCAxHostWindow@ATL@@@ATL@@QAE@PAX@Z 66208fe4 f i SuperSaverOptionsShim.obj
 0001:00008045       ??0?$CComObject@VCSuperSaverOptionsShim@@@ATL@@QAE@PAX@Z 66209045 f i SuperSaverOptionsShim.obj
 0001:000080c1       ??1?$CComObject@VCSuperSaverOptionsShim@@@ATL@@UAE@XZ 662090c1 f i SuperSaverOptionsShim.obj
 0001:00008149       ?AddRef@?$CComObject@VCSuperSaverOptionsShim@@@ATL@@UAGKXZ 66209149 f i SuperSaverOptionsShim.obj
 0001:00008159       ?Release@?$CComObject@VCSuperSaverOptionsShim@@@ATL@@UAGKXZ 66209159 f i SuperSaverOptionsShim.obj
 0001:0000817d       ?QueryInterface@?$CComObject@VCSuperSaverOptionsShim@@@ATL@@UAGJABU_GUID@@PAPAX@Z 6620917d f i SuperSaverOptionsShim.obj
 0001:00008198       ??0?$CComAggObject@VCSuperSaverOptionsShim@@@ATL@@QAE@PAX@Z 66209198 f i SuperSaverOptionsShim.obj
 0001:000081dd       ??1?$CComAggObject@VCSuperSaverOptionsShim@@@ATL@@UAE@XZ 662091dd f i SuperSaverOptionsShim.obj
 0001:00008223       ?QueryInterface@?$CComAggObject@VCSuperSaverOptionsShim@@@ATL@@UAGJABU_GUID@@PAPAX@Z 66209223 f i SuperSaverOptionsShim.obj
 0001:0000826e       ?AddRef@?$CComContainedObject@VCSuperSaverOptionsShim@@@ATL@@UAGKXZ 6620926e f i SuperSaverOptionsShim.obj
 0001:00008281       ?Release@?$CComContainedObject@VCSuperSaverOptionsShim@@@ATL@@UAGKXZ 66209281 f i SuperSaverOptionsShim.obj
 0001:00008294       ?QueryInterface@?$CComContainedObject@VCSuperSaverOptionsShim@@@ATL@@UAGJABU_GUID@@PAPAX@Z 66209294 f i SuperSaverOptionsShim.obj
 0001:000082ae       ??_E?$CComContainedObject@VCAxHostWindow@ATL@@@ATL@@UAEPAXI@Z 662092ae f i SuperSaverOptionsShim.obj
 0001:000082ae       ??_G?$CComContainedObject@VCAxHostWindow@ATL@@@ATL@@UAEPAXI@Z 662092ae f i SuperSaverOptionsShim.obj
 0001:000082cb       ??_G?$CComObject@VCSuperSaverOptionsShim@@@ATL@@UAEPAXI@Z 662092cb f i SuperSaverOptionsShim.obj
 0001:000082cb       ??_E?$CComObject@VCSuperSaverOptionsShim@@@ATL@@UAEPAXI@Z 662092cb f i SuperSaverOptionsShim.obj
 0001:000082e7       ??_G?$CComAggObject@VCSuperSaverOptionsShim@@@ATL@@UAEPAXI@Z 662092e7 f i SuperSaverOptionsShim.obj
 0001:000082e7       ??_E?$CComAggObject@VCSuperSaverOptionsShim@@@ATL@@UAEPAXI@Z 662092e7 f i SuperSaverOptionsShim.obj
 0001:00008303       ??1?$CComContainedObject@VCSuperSaverOptionsShim@@@ATL@@UAE@XZ 66209303 f i SuperSaverOptionsShim.obj
 0001:00008308       ??0?$CComContainedObject@VCSuperSaverOptionsShim@@@ATL@@QAE@PAX@Z 66209308 f i SuperSaverOptionsShim.obj
 0001:00008385       ??_E?$CComContainedObject@VCSuperSaverOptionsShim@@@ATL@@UAEPAXI@Z 66209385 f i SuperSaverOptionsShim.obj
 0001:00008385       ??_G?$CComContainedObject@VCSuperSaverOptionsShim@@@ATL@@UAEPAXI@Z 66209385 f i SuperSaverOptionsShim.obj
 0001:000083a3       ?StartDialogProc@?$CDialogImplBaseT@VCWindow@ATL@@@ATL@@SGHPAUHWND__@@IIJ@Z 662093a3 f i SuperSaverOptionsShim.obj
 0001:000083ea       ?DialogProc@?$CDialogImplBaseT@VCWindow@ATL@@@ATL@@SGHPAUHWND__@@IIJ@Z 662093ea f i SuperSaverOptionsShim.obj
 0001:000084b2       ?StartWindowProc@?$CWindowImplBaseT@VCWindow@ATL@@V?$CWinTraits@$0FGAAAAAA@$0A@@2@@ATL@@SGJPAUHWND__@@IIJ@Z 662094b2 f i SuperSaverOptionsShim.obj
 0001:000084f9       ?WindowProc@?$CWindowImplBaseT@VCWindow@ATL@@V?$CWinTraits@$0FGAAAAAA@$0A@@2@@ATL@@SGJPAUHWND__@@IIJ@Z 662094f9 f i SuperSaverOptionsShim.obj
 0001:000085db       ?Create@?$CWindowImplBaseT@VCWindow@ATL@@V?$CWinTraits@$0FGAAAAAA@$0A@@2@@ATL@@QAEPAUHWND__@@PAU3@V_U_RECT@2@PBGKKV_U_MENUorID@2@GPAX@Z 662095db f i SuperSaverOptionsShim.obj
 0001:00008651       ?SubclassWindow@?$CWindowImplBaseT@VCWindow@ATL@@V?$CWinTraits@$0FGAAAAAA@$0A@@2@@ATL@@QAEHPAUHWND__@@@Z 66209651 f i SuperSaverOptionsShim.obj
 0001:0000867d       ?UnsubclassWindow@?$CWindowImplBaseT@VCWindow@ATL@@V?$CWinTraits@$0FGAAAAAA@$0A@@2@@ATL@@QAEPAUHWND__@@H@Z 6620967d f i SuperSaverOptionsShim.obj
 0001:000086c2       ?CreateInstance@?$CComObject@VCAxFrameWindow@ATL@@@ATL@@SGJPAPAV12@@Z 662096c2 f i SuperSaverOptionsShim.obj
 0001:00008737       ?CreateInstance@?$CComObject@VCAxUIWindow@ATL@@@ATL@@SGJPAPAV12@@Z 66209737 f i SuperSaverOptionsShim.obj
 0001:000087ac       ??1?$CComEnumImpl@UIEnumUnknown@@$1?_GUID_00000100_0000_0000_c000_000000000046@@3U__s_GUID@@BPAUIUnknown@@V?$_CopyInterface@UIUnknown@@@ATL@@@ATL@@UAE@XZ 662097ac f i SuperSaverOptionsShim.obj
 0001:00008809       ?Next@?$CComEnumImpl@UIEnumUnknown@@$1?_GUID_00000100_0000_0000_c000_000000000046@@3U__s_GUID@@BPAUIUnknown@@V?$_CopyInterface@UIUnknown@@@ATL@@@ATL@@UAGJKPAPAUIUnknown@@PAK@Z 66209809 f i SuperSaverOptionsShim.obj
 0001:000088a4       ?Skip@?$CComEnumImpl@UIEnumUnknown@@$1?_GUID_00000100_0000_0000_c000_000000000046@@3U__s_GUID@@BPAUIUnknown@@V?$_CopyInterface@UIUnknown@@@ATL@@@ATL@@UAGJK@Z 662098a4 f i SuperSaverOptionsShim.obj
 0001:000088dc       ?Clone@?$CComEnumImpl@UIEnumUnknown@@$1?_GUID_00000100_0000_0000_c000_000000000046@@3U__s_GUID@@BPAUIUnknown@@V?$_CopyInterface@UIUnknown@@@ATL@@@ATL@@UAGJPAPAUIEnumUnknown@@@Z 662098dc f i SuperSaverOptionsShim.obj
 0001:000089a8       ?Init@?$CComEnumImpl@UIEnumUnknown@@$1?_GUID_00000100_0000_0000_c000_000000000046@@3U__s_GUID@@BPAUIUnknown@@V?$_CopyInterface@UIUnknown@@@ATL@@@ATL@@QAEJPAPAUIUnknown@@0PAU3@W4CComEnumFlags@2@@Z 662099a8 f i SuperSaverOptionsShim.obj
 0001:00008a68       ??$AtlAxDialogCreateT@PBGV_AtlCreateDialogIndirectParamHelper@ATL@@$1?CreateDialogIndirectParamW@@YGPAUHWND__@@PAUHINSTANCE__@@PBUDLGTEMPLATE@@PAU4@P6GH2IIJ@ZJ@Z@ATL@@YAPAUHWND__@@PAUHINSTANCE__@@PBGPAU1@P6GH2IIJ@ZJ@Z 66209a68 f i SuperSaverOptionsShim.obj
 0001:00008b2f       ??$AtlModuleRegisterWndClassInfoT@VAtlModuleRegisterWndClassInfoParamW@ATL@@@ATL@@YAGPAU_ATL_BASE_MODULE70@0@PAU_ATL_WIN_MODULE70@0@PAU_ATL_WNDCLASSINFOW@0@PAP6GJPAUHWND__@@IIJ@ZVAtlModuleRegisterWndClassInfoParamW@0@@Z 66209b2f f i SuperSaverOptionsShim.obj
 0001:00008c6d       ?IPSI_GetIPersistStreamInit@?$IPersistStorageImpl@VCSuperSaverOptionsShim@@@ATL@@AAEPAUIPersistStreamInit@@XZ 66209c6d f i SuperSaverOptionsShim.obj
 0001:00008ca9       ?DialogProc@?$CAxDialogImpl@VCSuperSaverOptionsShim@@VCWindow@ATL@@@ATL@@SGHPAUHWND__@@IIJ@Z 66209ca9 f i SuperSaverOptionsShim.obj
 0001:00008cf8       ??$AtlAdviseSinkMap@VCSuperSaverOptionsShim@@@ATL@@YAJPAVCSuperSaverOptionsShim@@_N@Z 66209cf8 f i SuperSaverOptionsShim.obj
 0001:00008e15       ?QueryHost@?$CAxWindowT@VCWindow@ATL@@@ATL@@QAEJABU_GUID@@PAPAX@Z 66209e15 f i SuperSaverOptionsShim.obj
 0001:00008e78       ??0?$CComObject@VCAxFrameWindow@ATL@@@ATL@@QAE@PAX@Z 66209e78 f i SuperSaverOptionsShim.obj
 0001:00008e9a       ??0?$CComObject@VCAxUIWindow@ATL@@@ATL@@QAE@PAX@Z 66209e9a f i SuperSaverOptionsShim.obj
 0001:00008ebc       ?CreateInstance@?$CComObject@V?$CComEnum@UIEnumUnknown@@$1?_GUID_00000100_0000_0000_c000_000000000046@@3U__s_GUID@@BPAUIUnknown@@V?$_CopyInterface@UIUnknown@@@ATL@@VCComSingleThreadModel@6@@ATL@@@ATL@@SGJPAPAV12@@Z 66209ebc f i SuperSaverOptionsShim.obj
 0001:00008f31       ?QueryInterface@?$CComContainedObject@VCSuperSaverOptionsShim@@@ATL@@W3AGJABU_GUID@@PAPAX@Z 66209f31 f i SuperSaverOptionsShim.obj
 0001:00008f3b       ?AddRef@?$CComContainedObject@VCSuperSaverOptionsShim@@@ATL@@W3AGKXZ 66209f3b f i SuperSaverOptionsShim.obj
 0001:00008f45       ?Release@?$CComContainedObject@VCSuperSaverOptionsShim@@@ATL@@W3AGKXZ 66209f45 f i SuperSaverOptionsShim.obj
 0001:00008f4f       ?QueryInterface@?$CComContainedObject@VCSuperSaverOptionsShim@@@ATL@@W7AGJABU_GUID@@PAPAX@Z 66209f4f f i SuperSaverOptionsShim.obj
 0001:00008f59       ?AddRef@?$CComContainedObject@VCSuperSaverOptionsShim@@@ATL@@W7AGKXZ 66209f59 f i SuperSaverOptionsShim.obj
 0001:00008f63       ?Release@?$CComContainedObject@VCSuperSaverOptionsShim@@@ATL@@W7AGKXZ 66209f63 f i SuperSaverOptionsShim.obj
 0001:00008f6d       ?QueryInterface@?$CComContainedObject@VCSuperSaverOptionsShim@@@ATL@@WM@AGJABU_GUID@@PAPAX@Z 66209f6d f i SuperSaverOptionsShim.obj
 0001:00008f77       ?AddRef@?$CComContainedObject@VCSuperSaverOptionsShim@@@ATL@@WM@AGKXZ 66209f77 f i SuperSaverOptionsShim.obj
 0001:00008f81       ?Release@?$CComContainedObject@VCSuperSaverOptionsShim@@@ATL@@WM@AGKXZ 66209f81 f i SuperSaverOptionsShim.obj
 0001:00008f8b       ?QueryInterface@?$CComContainedObject@VCSuperSaverOptionsShim@@@ATL@@WBA@AGJABU_GUID@@PAPAX@Z 66209f8b f i SuperSaverOptionsShim.obj
 0001:00008f95       ?AddRef@?$CComContainedObject@VCSuperSaverOptionsShim@@@ATL@@WBA@AGKXZ 66209f95 f i SuperSaverOptionsShim.obj
 0001:00008f9f       ?Release@?$CComContainedObject@VCSuperSaverOptionsShim@@@ATL@@WBA@AGKXZ 66209f9f f i SuperSaverOptionsShim.obj
 0001:00008fa9       ?QueryInterface@?$CComContainedObject@VCSuperSaverOptionsShim@@@ATL@@WBE@AGJABU_GUID@@PAPAX@Z 66209fa9 f i SuperSaverOptionsShim.obj
 0001:00008fb3       ?AddRef@?$CComContainedObject@VCSuperSaverOptionsShim@@@ATL@@WBE@AGKXZ 66209fb3 f i SuperSaverOptionsShim.obj
 0001:00008fbd       ?Release@?$CComContainedObject@VCSuperSaverOptionsShim@@@ATL@@WBE@AGKXZ 66209fbd f i SuperSaverOptionsShim.obj
 0001:00008fc7       ?QueryInterface@?$CComContainedObject@VCSuperSaverOptionsShim@@@ATL@@WBI@AGJABU_GUID@@PAPAX@Z 66209fc7 f i SuperSaverOptionsShim.obj
 0001:00008fd1       ?AddRef@?$CComContainedObject@VCSuperSaverOptionsShim@@@ATL@@WBI@AGKXZ 66209fd1 f i SuperSaverOptionsShim.obj
 0001:00008fdb       ?Release@?$CComContainedObject@VCSuperSaverOptionsShim@@@ATL@@WBI@AGKXZ 66209fdb f i SuperSaverOptionsShim.obj
 0001:00008fe5       ?QueryInterface@?$CComContainedObject@VCSuperSaverOptionsShim@@@ATL@@WBM@AGJABU_GUID@@PAPAX@Z 66209fe5 f i SuperSaverOptionsShim.obj
 0001:00008fef       ?AddRef@?$CComContainedObject@VCSuperSaverOptionsShim@@@ATL@@WBM@AGKXZ 66209fef f i SuperSaverOptionsShim.obj
 0001:00008ff9       ?Release@?$CComContainedObject@VCSuperSaverOptionsShim@@@ATL@@WBM@AGKXZ 66209ff9 f i SuperSaverOptionsShim.obj
 0001:00009003       ?QueryInterface@?$CComContainedObject@VCSuperSaverOptionsShim@@@ATL@@WCA@AGJABU_GUID@@PAPAX@Z 6620a003 f i SuperSaverOptionsShim.obj
 0001:0000900d       ?AddRef@?$CComContainedObject@VCSuperSaverOptionsShim@@@ATL@@WCA@AGKXZ 6620a00d f i SuperSaverOptionsShim.obj
 0001:00009017       ?Release@?$CComContainedObject@VCSuperSaverOptionsShim@@@ATL@@WCA@AGKXZ 6620a017 f i SuperSaverOptionsShim.obj
 0001:00009021       ?QueryInterface@?$CComContainedObject@VCSuperSaverOptionsShim@@@ATL@@WCE@AGJABU_GUID@@PAPAX@Z 6620a021 f i SuperSaverOptionsShim.obj
 0001:0000902b       ?AddRef@?$CComContainedObject@VCSuperSaverOptionsShim@@@ATL@@WCE@AGKXZ 6620a02b f i SuperSaverOptionsShim.obj
 0001:00009035       ?Release@?$CComContainedObject@VCSuperSaverOptionsShim@@@ATL@@WCE@AGKXZ 6620a035 f i SuperSaverOptionsShim.obj
 0001:0000903f       ?QueryInterface@?$CComContainedObject@VCSuperSaverOptionsShim@@@ATL@@WCI@AGJABU_GUID@@PAPAX@Z 6620a03f f i SuperSaverOptionsShim.obj
 0001:00009049       ?AddRef@?$CComContainedObject@VCSuperSaverOptionsShim@@@ATL@@WCI@AGKXZ 6620a049 f i SuperSaverOptionsShim.obj
 0001:00009053       ?Release@?$CComContainedObject@VCSuperSaverOptionsShim@@@ATL@@WCI@AGKXZ 6620a053 f i SuperSaverOptionsShim.obj
 0001:0000905d       ?QueryInterface@?$CComContainedObject@VCSuperSaverOptionsShim@@@ATL@@WCM@AGJABU_GUID@@PAPAX@Z 6620a05d f i SuperSaverOptionsShim.obj
 0001:00009067       ?AddRef@?$CComContainedObject@VCSuperSaverOptionsShim@@@ATL@@WCM@AGKXZ 6620a067 f i SuperSaverOptionsShim.obj
 0001:00009071       ?Release@?$CComContainedObject@VCSuperSaverOptionsShim@@@ATL@@WCM@AGKXZ 6620a071 f i SuperSaverOptionsShim.obj
 0001:0000907b       ?QueryInterface@?$CComContainedObject@VCSuperSaverOptionsShim@@@ATL@@WDA@AGJABU_GUID@@PAPAX@Z 6620a07b f i SuperSaverOptionsShim.obj
 0001:00009085       ?AddRef@?$CComContainedObject@VCSuperSaverOptionsShim@@@ATL@@WDA@AGKXZ 6620a085 f i SuperSaverOptionsShim.obj
 0001:0000908f       ?Release@?$CComContainedObject@VCSuperSaverOptionsShim@@@ATL@@WDA@AGKXZ 6620a08f f i SuperSaverOptionsShim.obj
 0001:00009099       ??_E?$CComContainedObject@VCSuperSaverOptionsShim@@@ATL@@WDE@AEPAXI@Z 6620a099 f i SuperSaverOptionsShim.obj
 0001:000090a1       ??_E?$CComContainedObject@VCSuperSaverOptionsShim@@@ATL@@WHM@AEPAXI@Z 6620a0a1 f i SuperSaverOptionsShim.obj
 0001:000090a9       ??_E?$CComCompositeControl@VCSuperSaverOptionsShim@@@ATL@@WEI@AEPAXI@Z 6620a0a9 f i SuperSaverOptionsShim.obj
 0001:000090b1       ?QueryInterface@?$CComObject@VCSuperSaverOptionsShim@@@ATL@@W3AGJABU_GUID@@PAPAX@Z 6620a0b1 f i SuperSaverOptionsShim.obj
 0001:000090bb       ?AddRef@?$CComObject@VCSuperSaverOptionsShim@@@ATL@@W3AGKXZ 6620a0bb f i SuperSaverOptionsShim.obj
 0001:000090c5       ?Release@?$CComObject@VCSuperSaverOptionsShim@@@ATL@@W3AGKXZ 6620a0c5 f i SuperSaverOptionsShim.obj
 0001:000090cf       ?QueryInterface@?$CComObject@VCSuperSaverOptionsShim@@@ATL@@W7AGJABU_GUID@@PAPAX@Z 6620a0cf f i SuperSaverOptionsShim.obj
 0001:000090d9       ?AddRef@?$CComObject@VCSuperSaverOptionsShim@@@ATL@@W7AGKXZ 6620a0d9 f i SuperSaverOptionsShim.obj
 0001:000090e3       ?Release@?$CComObject@VCSuperSaverOptionsShim@@@ATL@@W7AGKXZ 6620a0e3 f i SuperSaverOptionsShim.obj
 0001:000090ed       ?QueryInterface@?$CComObject@VCSuperSaverOptionsShim@@@ATL@@WM@AGJABU_GUID@@PAPAX@Z 6620a0ed f i SuperSaverOptionsShim.obj
 0001:000090f7       ?AddRef@?$CComObject@VCSuperSaverOptionsShim@@@ATL@@WM@AGKXZ 6620a0f7 f i SuperSaverOptionsShim.obj
 0001:00009101       ?Release@?$CComObject@VCSuperSaverOptionsShim@@@ATL@@WM@AGKXZ 6620a101 f i SuperSaverOptionsShim.obj
 0001:0000910b       ?QueryInterface@?$CComObject@VCSuperSaverOptionsShim@@@ATL@@WBA@AGJABU_GUID@@PAPAX@Z 6620a10b f i SuperSaverOptionsShim.obj
 0001:00009115       ?AddRef@?$CComObject@VCSuperSaverOptionsShim@@@ATL@@WBA@AGKXZ 6620a115 f i SuperSaverOptionsShim.obj
 0001:0000911f       ?Release@?$CComObject@VCSuperSaverOptionsShim@@@ATL@@WBA@AGKXZ 6620a11f f i SuperSaverOptionsShim.obj
 0001:00009129       ?QueryInterface@?$CComObject@VCSuperSaverOptionsShim@@@ATL@@WBE@AGJABU_GUID@@PAPAX@Z 6620a129 f i SuperSaverOptionsShim.obj
 0001:00009133       ?AddRef@?$CComObject@VCSuperSaverOptionsShim@@@ATL@@WBE@AGKXZ 6620a133 f i SuperSaverOptionsShim.obj
 0001:0000913d       ?Release@?$CComObject@VCSuperSaverOptionsShim@@@ATL@@WBE@AGKXZ 6620a13d f i SuperSaverOptionsShim.obj
 0001:00009147       ?QueryInterface@?$CComObject@VCSuperSaverOptionsShim@@@ATL@@WBI@AGJABU_GUID@@PAPAX@Z 6620a147 f i SuperSaverOptionsShim.obj
 0001:00009151       ?AddRef@?$CComObject@VCSuperSaverOptionsShim@@@ATL@@WBI@AGKXZ 6620a151 f i SuperSaverOptionsShim.obj
 0001:0000915b       ?Release@?$CComObject@VCSuperSaverOptionsShim@@@ATL@@WBI@AGKXZ 6620a15b f i SuperSaverOptionsShim.obj
 0001:00009165       ?QueryInterface@?$CComObject@VCSuperSaverOptionsShim@@@ATL@@WBM@AGJABU_GUID@@PAPAX@Z 6620a165 f i SuperSaverOptionsShim.obj
 0001:0000916f       ?AddRef@?$CComObject@VCSuperSaverOptionsShim@@@ATL@@WBM@AGKXZ 6620a16f f i SuperSaverOptionsShim.obj
 0001:00009179       ?Release@?$CComObject@VCSuperSaverOptionsShim@@@ATL@@WBM@AGKXZ 6620a179 f i SuperSaverOptionsShim.obj
 0001:00009183       ?QueryInterface@?$CComObject@VCSuperSaverOptionsShim@@@ATL@@WCA@AGJABU_GUID@@PAPAX@Z 6620a183 f i SuperSaverOptionsShim.obj
 0001:0000918d       ?AddRef@?$CComObject@VCSuperSaverOptionsShim@@@ATL@@WCA@AGKXZ 6620a18d f i SuperSaverOptionsShim.obj
 0001:00009197       ?Release@?$CComObject@VCSuperSaverOptionsShim@@@ATL@@WCA@AGKXZ 6620a197 f i SuperSaverOptionsShim.obj
 0001:000091a1       ?QueryInterface@?$CComObject@VCSuperSaverOptionsShim@@@ATL@@WCE@AGJABU_GUID@@PAPAX@Z 6620a1a1 f i SuperSaverOptionsShim.obj
 0001:000091ab       ?AddRef@?$CComObject@VCSuperSaverOptionsShim@@@ATL@@WCE@AGKXZ 6620a1ab f i SuperSaverOptionsShim.obj
 0001:000091b5       ?Release@?$CComObject@VCSuperSaverOptionsShim@@@ATL@@WCE@AGKXZ 6620a1b5 f i SuperSaverOptionsShim.obj
 0001:000091bf       ?QueryInterface@?$CComObject@VCSuperSaverOptionsShim@@@ATL@@WCI@AGJABU_GUID@@PAPAX@Z 6620a1bf f i SuperSaverOptionsShim.obj
 0001:000091c9       ?AddRef@?$CComObject@VCSuperSaverOptionsShim@@@ATL@@WCI@AGKXZ 6620a1c9 f i SuperSaverOptionsShim.obj
 0001:000091d3       ?Release@?$CComObject@VCSuperSaverOptionsShim@@@ATL@@WCI@AGKXZ 6620a1d3 f i SuperSaverOptionsShim.obj
 0001:000091dd       ?QueryInterface@?$CComObject@VCSuperSaverOptionsShim@@@ATL@@WCM@AGJABU_GUID@@PAPAX@Z 6620a1dd f i SuperSaverOptionsShim.obj
 0001:000091e7       ?AddRef@?$CComObject@VCSuperSaverOptionsShim@@@ATL@@WCM@AGKXZ 6620a1e7 f i SuperSaverOptionsShim.obj
 0001:000091f1       ?Release@?$CComObject@VCSuperSaverOptionsShim@@@ATL@@WCM@AGKXZ 6620a1f1 f i SuperSaverOptionsShim.obj
 0001:000091fb       ?QueryInterface@?$CComObject@VCSuperSaverOptionsShim@@@ATL@@WDA@AGJABU_GUID@@PAPAX@Z 6620a1fb f i SuperSaverOptionsShim.obj
 0001:00009205       ?AddRef@?$CComObject@VCSuperSaverOptionsShim@@@ATL@@WDA@AGKXZ 6620a205 f i SuperSaverOptionsShim.obj
 0001:0000920f       ?Release@?$CComObject@VCSuperSaverOptionsShim@@@ATL@@WDA@AGKXZ 6620a20f f i SuperSaverOptionsShim.obj
 0001:00009219       ??_E?$CComObject@VCSuperSaverOptionsShim@@@ATL@@WDE@AEPAXI@Z 6620a219 f i SuperSaverOptionsShim.obj
 0001:00009221       ??_E?$CComObject@VCSuperSaverOptionsShim@@@ATL@@WHM@AEPAXI@Z 6620a221 f i SuperSaverOptionsShim.obj
 0001:00009229       ?QueryInterface@?$CComContainedObject@VCAxHostWindow@ATL@@@ATL@@W3AGJABU_GUID@@PAPAX@Z 6620a229 f i SuperSaverOptionsShim.obj
 0001:00009233       ?AddRef@?$CComContainedObject@VCAxHostWindow@ATL@@@ATL@@W3AGKXZ 6620a233 f i SuperSaverOptionsShim.obj
 0001:0000923d       ?Release@?$CComContainedObject@VCAxHostWindow@ATL@@@ATL@@W3AGKXZ 6620a23d f i SuperSaverOptionsShim.obj
 0001:00009247       ?QueryInterface@?$CComContainedObject@VCAxHostWindow@ATL@@@ATL@@W7AGJABU_GUID@@PAPAX@Z 6620a247 f i SuperSaverOptionsShim.obj
 0001:00009251       ?AddRef@?$CComContainedObject@VCAxHostWindow@ATL@@@ATL@@W7AGKXZ 6620a251 f i SuperSaverOptionsShim.obj
 0001:0000925b       ?Release@?$CComContainedObject@VCAxHostWindow@ATL@@@ATL@@W7AGKXZ 6620a25b f i SuperSaverOptionsShim.obj
 0001:00009265       ?QueryInterface@?$CComContainedObject@VCAxHostWindow@ATL@@@ATL@@WM@AGJABU_GUID@@PAPAX@Z 6620a265 f i SuperSaverOptionsShim.obj
 0001:0000926f       ?AddRef@?$CComContainedObject@VCAxHostWindow@ATL@@@ATL@@WM@AGKXZ 6620a26f f i SuperSaverOptionsShim.obj
 0001:00009279       ?Release@?$CComContainedObject@VCAxHostWindow@ATL@@@ATL@@WM@AGKXZ 6620a279 f i SuperSaverOptionsShim.obj
 0001:00009283       ?QueryInterface@?$CComContainedObject@VCAxHostWindow@ATL@@@ATL@@WBA@AGJABU_GUID@@PAPAX@Z 6620a283 f i SuperSaverOptionsShim.obj
 0001:0000928d       ?AddRef@?$CComContainedObject@VCAxHostWindow@ATL@@@ATL@@WBA@AGKXZ 6620a28d f i SuperSaverOptionsShim.obj
 0001:00009297       ?Release@?$CComContainedObject@VCAxHostWindow@ATL@@@ATL@@WBA@AGKXZ 6620a297 f i SuperSaverOptionsShim.obj
 0001:000092a1       ?QueryInterface@?$CComContainedObject@VCAxHostWindow@ATL@@@ATL@@WBE@AGJABU_GUID@@PAPAX@Z 6620a2a1 f i SuperSaverOptionsShim.obj
 0001:000092ab       ?AddRef@?$CComContainedObject@VCAxHostWindow@ATL@@@ATL@@WBE@AGKXZ 6620a2ab f i SuperSaverOptionsShim.obj
 0001:000092b5       ?Release@?$CComContainedObject@VCAxHostWindow@ATL@@@ATL@@WBE@AGKXZ 6620a2b5 f i SuperSaverOptionsShim.obj
 0001:000092bf       ??_E?$CComContainedObject@VCAxHostWindow@ATL@@@ATL@@WDI@AEPAXI@Z 6620a2bf f i SuperSaverOptionsShim.obj
 0001:000092c7       ?QueryInterface@?$CComContainedObject@VCAxHostWindow@ATL@@@ATL@@WBM@AGJABU_GUID@@PAPAX@Z 6620a2c7 f i SuperSaverOptionsShim.obj
 0001:000092d1       ?AddRef@?$CComContainedObject@VCAxHostWindow@ATL@@@ATL@@WBM@AGKXZ 6620a2d1 f i SuperSaverOptionsShim.obj
 0001:000092db       ?Release@?$CComContainedObject@VCAxHostWindow@ATL@@@ATL@@WBM@AGKXZ 6620a2db f i SuperSaverOptionsShim.obj
 0001:000092e5       ?QueryInterface@?$CComContainedObject@VCAxHostWindow@ATL@@@ATL@@WCA@AGJABU_GUID@@PAPAX@Z 6620a2e5 f i SuperSaverOptionsShim.obj
 0001:000092ef       ?AddRef@?$CComContainedObject@VCAxHostWindow@ATL@@@ATL@@WCA@AGKXZ 6620a2ef f i SuperSaverOptionsShim.obj
 0001:000092f9       ?Release@?$CComContainedObject@VCAxHostWindow@ATL@@@ATL@@WCA@AGKXZ 6620a2f9 f i SuperSaverOptionsShim.obj
 0001:00009303       ?QueryInterface@?$CComContainedObject@VCAxHostWindow@ATL@@@ATL@@WCE@AGJABU_GUID@@PAPAX@Z 6620a303 f i SuperSaverOptionsShim.obj
 0001:0000930d       ?AddRef@?$CComContainedObject@VCAxHostWindow@ATL@@@ATL@@WCE@AGKXZ 6620a30d f i SuperSaverOptionsShim.obj
 0001:00009317       ?Release@?$CComContainedObject@VCAxHostWindow@ATL@@@ATL@@WCE@AGKXZ 6620a317 f i SuperSaverOptionsShim.obj
 0001:00009321       ?QueryInterface@?$CComContainedObject@VCAxHostWindow@ATL@@@ATL@@WCI@AGJABU_GUID@@PAPAX@Z 6620a321 f i SuperSaverOptionsShim.obj
 0001:0000932b       ?AddRef@?$CComContainedObject@VCAxHostWindow@ATL@@@ATL@@WCI@AGKXZ 6620a32b f i SuperSaverOptionsShim.obj
 0001:00009335       ?Release@?$CComContainedObject@VCAxHostWindow@ATL@@@ATL@@WCI@AGKXZ 6620a335 f i SuperSaverOptionsShim.obj
 0001:0000933f       ?LockServer@CComClassFactory@ATL@@UAGJH@Z 6620a33f f i SuperSaverOptionsShim.obj
 0001:0000935b       ?CreateInstance@CComClassFactory@ATL@@UAGJPAUIUnknown@@ABU_GUID@@PAPAX@Z 6620a35b f i SuperSaverOptionsShim.obj
 0001:00009399       ?AtlGetObjectSourceInterface@ATL@@YGJPAUIUnknown@@PAU_GUID@@1PAG2@Z 6620a399 f i SuperSaverOptionsShim.obj
 0001:00009643       ?AtlWinModuleExtractCreateWndData@ATL@@YGPAXPAU_ATL_WIN_MODULE70@1@@Z 6620a643 f i SuperSaverOptionsShim.obj
 0001:000096a3       ?AtlWinModuleAddCreateWndData@ATL@@YGXPAU_ATL_WIN_MODULE70@1@PAU_AtlCreateWndData@1@PAX@Z 6620a6a3 f i SuperSaverOptionsShim.obj
 0001:000096f5       ?AtlA2WHelper@@YGPAGPAGPBDHI@Z 6620a6f5 f i SuperSaverOptionsShim.obj
 0001:00009727       ??_ECComClassFactory@ATL@@UAEPAXI@Z 6620a727 f i SuperSaverOptionsShim.obj
 0001:00009727       ??_GCComClassFactory@ATL@@UAEPAXI@Z 6620a727 f i SuperSaverOptionsShim.obj
 0001:00009743       ??0CComAutoCriticalSection@ATL@@QAE@XZ 6620a743 f i SuperSaverOptionsShim.obj
 0001:0000975e       ??1CComClassFactory@ATL@@UAE@XZ 6620a75e f i SuperSaverOptionsShim.obj
 0001:0000976f       ?InlineIsEqualUnknown@ATL@@YGHABU_GUID@@@Z 6620a76f f i SuperSaverOptionsShim.obj
 0001:00009793       ?AtlIPersistStreamInit_Save@ATL@@YGJPAUIStream@@HPAUATL_PROPMAP_ENTRY@1@PAXPAUIUnknown@@@Z 6620a793 f i SuperSaverOptionsShim.obj
 0001:000098f6       ?WriteToStream@CComBSTR@ATL@@QAEJPAUIStream@@@Z 6620a8f6 f i SuperSaverOptionsShim.obj
 0001:0000994d       ?WriteToStream@CComVariant@ATL@@QAEJPAUIStream@@@Z 6620a94d f i SuperSaverOptionsShim.obj
 0001:00009adb       ?AtlIPersistStreamInit_Load@ATL@@YGJPAUIStream@@PAUATL_PROPMAP_ENTRY@1@PAXPAUIUnknown@@@Z 6620aadb f i SuperSaverOptionsShim.obj
 0001:00009c57       ?ReadFromStream@CComBSTR@ATL@@QAEJPAUIStream@@@Z 6620ac57 f i SuperSaverOptionsShim.obj
 0001:00009ce2       ?ReadFromStream@CComVariant@ATL@@QAEJPAUIStream@@@Z 6620ace2 f i SuperSaverOptionsShim.obj
 0001:00009e66       ?PutProperty@?$CComPtr@UIDispatch@@@ATL@@SAJPAUIDispatch@@JPAUtagVARIANT@@@Z 6620ae66 f i SuperSaverOptionsShim.obj
 0001:00009eef       ?AtlThrow@ATL@@YGXJ@Z      6620aeef f i SuperSaverOptionsShim.obj
 0001:00009f07       ??1CDynamicStdCallThunk@ATL@@QAE@XZ 6620af07 f i SuperSaverOptionsShim.obj
 0001:00009f1e       ?GetSize@CComVariant@ATL@@QBEKXZ 6620af1e f i SuperSaverOptionsShim.obj
 0001:0000a070       ?AtlComQIPtrAssign@ATL@@YGPAUIUnknown@@PAPAU2@PAU2@ABU_GUID@@@Z 6620b070 f i SuperSaverOptionsShim.obj
 0001:0000a09c       ?Invoke@CComTypeInfoHolder@ATL@@QAEJPAUIDispatch@@JABU_GUID@@KGPAUtagDISPPARAMS@@PAUtagVARIANT@@PAUtagEXCEPINFO@@PAI@Z 6620b09c f i SuperSaverOptionsShim.obj
 0001:0000a0d1       ?EnsureTI@CComTypeInfoHolder@ATL@@QAEJK@Z 6620b0d1 f i SuperSaverOptionsShim.obj
 0001:0000a0ed       ?GetTI@CComTypeInfoHolder@ATL@@QAEJK@Z 6620b0ed f i SuperSaverOptionsShim.obj
 0001:0000a315       ?AddTermFunc@CAtlModule@ATL@@QAEJP6GXK@ZK@Z 6620b315 f i SuperSaverOptionsShim.obj
 0001:0000a331       ?AtlModuleAddTermFunc@ATL@@YGJPAU_ATL_MODULE70@1@P6GXK@ZK@Z 6620b331 f i SuperSaverOptionsShim.obj
 0001:0000a3bf       ?Cleanup@CComTypeInfoHolder@ATL@@SGXK@Z 6620b3bf f i SuperSaverOptionsShim.obj
 0001:0000a3f1       ?LoadNameCache@CComTypeInfoHolder@ATL@@QAEJPAUITypeInfo@@@Z 6620b3f1 f i SuperSaverOptionsShim.obj
 0001:0000a55d       ??0stringdispid@CComTypeInfoHolder@ATL@@QAE@XZ 6620b55d f i SuperSaverOptionsShim.obj
 0001:0000a56b       ?GetIDsOfNames@CComTypeInfoHolder@ATL@@QAEJABU_GUID@@PAPAGIKPAJ@Z 6620b56b f i SuperSaverOptionsShim.obj
 0001:0000a603       ?GetTI@CComTypeInfoHolder@ATL@@QAEJKPAPAUITypeInfo@@@Z 6620b603 f i SuperSaverOptionsShim.obj
 0001:0000a63b       ?AtlComPtrAssign@ATL@@YGPAUIUnknown@@PAPAU2@PAU2@@Z 6620b63b f i SuperSaverOptionsShim.obj
 0001:0000a65d       _InlineIsEqualGUID         6620b65d f i SuperSaverOptionsShim.obj
 0001:0000a682       ?UpdateRegistryFromResourceS@CAtlModule@ATL@@QAGJIHPAU_ATL_REGMAP_ENTRY@2@@Z 6620b682 f i SuperSaverOptionsShim.obj
 0001:0000a7ff       ??0CRegObject@ATL@@QAE@XZ  6620b7ff f i SuperSaverOptionsShim.obj
 0001:0000a811       ?AddRef@CRegObject@ATL@@UAGKXZ 6620b811 f i SuperSaverOptionsShim.obj
 0001:0000a817       ?ClearReplacements@CRegObject@ATL@@UAGJXZ 6620b817 f i SuperSaverOptionsShim.obj
 0001:0000a826       ?ClearReplacements@CExpansionVector@ATL@@QAEJXZ 6620b826 f i SuperSaverOptionsShim.obj
 0001:0000a863       ?GetKeyAt@?$CSimpleMap@PAGPAGVCExpansionVectorEqualHelper@ATL@@@ATL@@QBEAAPAGH@Z 6620b863 f i SuperSaverOptionsShim.obj
 0001:0000a884       ?GetValueAt@?$CSimpleMap@PAGPAGVCExpansionVectorEqualHelper@ATL@@@ATL@@QBEAAPAGH@Z 6620b884 f i SuperSaverOptionsShim.obj
 0001:0000a8a6       ?RemoveAll@?$CSimpleMap@PAGPAGVCExpansionVectorEqualHelper@ATL@@@ATL@@QAEXXZ 6620b8a6 f i SuperSaverOptionsShim.obj
 0001:0000a8cf       ??_GCRegObject@ATL@@UAEPAXI@Z 6620b8cf f i SuperSaverOptionsShim.obj
 0001:0000a8cf       ??_ECRegObject@ATL@@UAEPAXI@Z 6620b8cf f i SuperSaverOptionsShim.obj
 0001:0000a8eb       ??1?$CSimpleMap@PAGPAGVCExpansionVectorEqualHelper@ATL@@@ATL@@QAE@XZ 6620b8eb f i SuperSaverOptionsShim.obj
 0001:0000a8f0       ??1CExpansionVector@ATL@@QAE@XZ 6620b8f0 f i SuperSaverOptionsShim.obj
 0001:0000a91d       ??1CRegObject@ATL@@UAE@XZ  6620b91d f i SuperSaverOptionsShim.obj
 0001:0000a957       ?EscapeSingleQuote@CAtlModule@ATL@@SAXPAGPBG@Z 6620b957 f i SuperSaverOptionsShim.obj
 0001:0000a979       ?AddReplacement@CRegObject@ATL@@UAGJPBG0@Z 6620b979 f i SuperSaverOptionsShim.obj
 0001:0000a9e3       ?Add@CExpansionVector@ATL@@QAEHPBG0@Z 6620b9e3 f i SuperSaverOptionsShim.obj
 0001:0000aae2       ?Add@?$CSimpleMap@PAGPAGVCExpansionVectorEqualHelper@ATL@@@ATL@@QAEHABQAG0@Z 6620bae2 f i SuperSaverOptionsShim.obj
 0001:0000ab39       ?InternalSetAtIndex@?$CSimpleMap@PAGPAGVCExpansionVectorEqualHelper@ATL@@@ATL@@QAEXHABQAG0@Z 6620bb39 f i SuperSaverOptionsShim.obj
 0001:0000ab5e       ?ResourceRegister@CRegObject@ATL@@QAGJPBGI0@Z 6620bb5e f i SuperSaverOptionsShim.obj
 0001:0000abaa       ?RegisterFromResource@CRegObject@ATL@@IAEJPBG00H@Z 6620bbaa f i SuperSaverOptionsShim.obj
 0001:0000ad11       ??1?$CTempBuffer@G$0BAA@VCCRTAllocator@ATL@@@ATL@@QAE@XZ 6620bd11 f i SuperSaverOptionsShim.obj
 0001:0000ad11       ??1?$CTempBuffer@G$0EAA@VCCRTAllocator@ATL@@@ATL@@QAE@XZ 6620bd11 f i SuperSaverOptionsShim.obj
 0001:0000ad11       ??1?$CTempBuffer@E$0BAA@VCCRTAllocator@ATL@@@ATL@@QAE@XZ 6620bd11 f i SuperSaverOptionsShim.obj
 0001:0000ad1e       ?AllocateBytes@?$CTempBuffer@G$0EAA@VCCRTAllocator@ATL@@@ATL@@QAEPAGI@Z 6620bd1e f i SuperSaverOptionsShim.obj
 0001:0000ad3e       ?RegisterBuffer@CRegParser@ATL@@QAEJPAGH@Z 6620bd3e f i SuperSaverOptionsShim.obj
 0001:0000ae50       ?PreProcessBuffer@CRegParser@ATL@@QAEJPAGPAPAG@Z 6620be50 f i SuperSaverOptionsShim.obj
 0001:0000afa8       ??0CParseBuffer@CRegParser@ATL@@QAE@H@Z 6620bfa8 f i SuperSaverOptionsShim.obj
 0001:0000afcf       ??1CParseBuffer@CRegParser@ATL@@QAE@XZ 6620bfcf f i SuperSaverOptionsShim.obj
 0001:0000afd9       ?StrChrW@CRegParser@ATL@@KAPAGPAGG@Z 6620bfd9 f i SuperSaverOptionsShim.obj
 0001:0000b000       ?Lookup@?$CSimpleMap@PAGPAGVCExpansionVectorEqualHelper@ATL@@@ATL@@QBEPAGABQAG@Z 6620c000 f i SuperSaverOptionsShim.obj
 0001:0000b022       ?FindKey@?$CSimpleMap@PAGPAGVCExpansionVectorEqualHelper@ATL@@@ATL@@QBEHABQAG@Z 6620c022 f i SuperSaverOptionsShim.obj
 0001:0000b051       ?IsEqualKey@CExpansionVectorEqualHelper@ATL@@SA_NQAG0@Z 6620c051 f i SuperSaverOptionsShim.obj
 0001:0000b066       ?AddString@CParseBuffer@CRegParser@ATL@@QAEHPBG@Z 6620c066 f i SuperSaverOptionsShim.obj
 0001:0000b0a8       ?Append@CParseBuffer@CRegParser@ATL@@QAEHPBGH@Z 6620c0a8 f i SuperSaverOptionsShim.obj
 0001:0000b103       ?HKeyFromString@CRegParser@ATL@@KAPAUHKEY__@@PAG@Z 6620c103 f i SuperSaverOptionsShim.obj
 0001:0000b12e       ?NextToken@CRegParser@ATL@@IAEJPAG@Z 6620c12e f i SuperSaverOptionsShim.obj
 0001:0000b229       ?EndOfVar@CRegParser@ATL@@IAEHXZ 6620c229 f i SuperSaverOptionsShim.obj
 0001:0000b245       ?IsSpace@CRegParser@ATL@@IAEHG@Z 6620c245 f i SuperSaverOptionsShim.obj
 0001:0000b263       ?RegisterSubkeys@CRegParser@ATL@@IAEJPAGPAUHKEY__@@HH@Z 6620c263 f i SuperSaverOptionsShim.obj
 0001:0000b78a       ?Create@CRegKey@ATL@@QAEJPAUHKEY__@@PBGPAGKKPAU_SECURITY_ATTRIBUTES@@PAK@Z 6620c78a f i SuperSaverOptionsShim.obj
 0001:0000b7d3       ?AddValue@CRegParser@ATL@@IAEJAAVCRegKey@2@PBGPAG@Z 6620c7d3 f i SuperSaverOptionsShim.obj
 0001:0000bace       ?VTFromRegType@CRegParser@ATL@@KAHPBGAAG@Z 6620cace f i SuperSaverOptionsShim.obj
 0001:0000bb60       ?SetStringValue@CRegKey@ATL@@QAEJPBG0K@Z 6620cb60 f i SuperSaverOptionsShim.obj
 0001:0000bb8b       ?AllocateBytes@?$CTempBuffer@G$0BAA@VCCRTAllocator@ATL@@@ATL@@QAEPAGI@Z 6620cb8b f i SuperSaverOptionsShim.obj
 0001:0000bb8b       ?AllocateBytes@?$CTempBuffer@E$0BAA@VCCRTAllocator@ATL@@@ATL@@QAEPAEI@Z 6620cb8b f i SuperSaverOptionsShim.obj
 0001:0000bbab       ?SetMultiStringValue@CRegKey@ATL@@QAEJPBG0@Z 6620cbab f i SuperSaverOptionsShim.obj
 0001:0000bbe5       ?SetDWORDValue@CRegKey@ATL@@QAEJPBGK@Z 6620cbe5 f i SuperSaverOptionsShim.obj
 0001:0000bc03       ?FreeHeap@?$CTempBuffer@E$0BAA@VCCRTAllocator@ATL@@@ATL@@AAEXXZ 6620cc03 f i SuperSaverOptionsShim.obj
 0001:0000bc03       ?FreeHeap@?$CTempBuffer@G$0BAA@VCCRTAllocator@ATL@@@ATL@@AAEXXZ 6620cc03 f i SuperSaverOptionsShim.obj
 0001:0000bc03       ?FreeHeap@?$CTempBuffer@G$0EAA@VCCRTAllocator@ATL@@@ATL@@AAEXXZ 6620cc03 f i SuperSaverOptionsShim.obj
 0001:0000bc0d       ?AllocateHeap@?$CTempBuffer@G$0BAA@VCCRTAllocator@ATL@@@ATL@@AAEXI@Z 6620cc0d f i SuperSaverOptionsShim.obj
 0001:0000bc0d       ?AllocateHeap@?$CTempBuffer@G$0EAA@VCCRTAllocator@ATL@@@ATL@@AAEXI@Z 6620cc0d f i SuperSaverOptionsShim.obj
 0001:0000bc0d       ?AllocateHeap@?$CTempBuffer@E$0BAA@VCCRTAllocator@ATL@@@ATL@@AAEXI@Z 6620cc0d f i SuperSaverOptionsShim.obj
 0001:0000bc2f       ?ChToByte@CRegParser@ATL@@KAEG@Z 6620cc2f f i SuperSaverOptionsShim.obj
 0001:0000bc5f       ?Open@CRegKey@ATL@@QAEJPAUHKEY__@@PBGK@Z 6620cc5f f i SuperSaverOptionsShim.obj
 0001:0000bc92       ?SkipAssignment@CRegParser@ATL@@IAEJPAG@Z 6620cc92 f i SuperSaverOptionsShim.obj
 0001:0000bcf3       ?HasSubKeys@CRegParser@ATL@@IAEHPAUHKEY__@@@Z 6620ccf3 f i SuperSaverOptionsShim.obj
 0001:0000bd28       ?CanForceRemoveKey@CRegParser@ATL@@IAEHPBG@Z 6620cd28 f i SuperSaverOptionsShim.obj
 0001:0000bd54       ?RecurseDeleteKey@CRegKey@ATL@@QAEJPBG@Z 6620cd54 f i SuperSaverOptionsShim.obj
 0001:0000be39       ?Close@CRegKey@ATL@@QAEJXZ 6620ce39 f i SuperSaverOptionsShim.obj
 0001:0000be4c       ??1CRegKey@ATL@@QAE@XZ     6620ce4c f i SuperSaverOptionsShim.obj
 0001:0000be51       ?AtlHresultFromWin32@ATL@@YAJK@Z 6620ce51 f i SuperSaverOptionsShim.obj
 0001:0000be60       ?SkipWhiteSpace@CRegParser@ATL@@IAEXXZ 6620ce60 f i SuperSaverOptionsShim.obj
 0001:0000be7b       ?ResourceUnregister@CRegObject@ATL@@QAGJPBGI0@Z 6620ce7b f i SuperSaverOptionsShim.obj
 0001:0000bec6       ??1?$CAtlSafeAllocBufferManager@VCCRTAllocator@ATL@@@_ATL_SAFE_ALLOCA_IMPL@ATL@@QAE@XZ 6620cec6 f i SuperSaverOptionsShim.obj
 0001:0000bedc       ??0?$CComPtr@UIDispatch@@@ATL@@QAE@XZ 6620cedc f i SuperSaverOptionsShim.obj
 0001:0000bedc       ??0?$CComPtr@UIConnectionPointContainer@@@ATL@@QAE@XZ 6620cedc f i SuperSaverOptionsShim.obj
 0001:0000bedc       ??0?$CComPtr@UIAxWinHostWindowLic@@@ATL@@QAE@XZ 6620cedc f i SuperSaverOptionsShim.obj
 0001:0000bedc       ??0?$CComPtr@UIAdviseSink@@@ATL@@QAE@XZ 6620cedc f i SuperSaverOptionsShim.obj
 0001:0000bedc       ??0?$CComPtr@UIPersist@@@ATL@@QAE@XZ 6620cedc f i SuperSaverOptionsShim.obj
 0001:0000bedc       ??0?$CComPtr@UIOleControlSite@@@ATL@@QAE@XZ 6620cedc f i SuperSaverOptionsShim.obj
 0001:0000bedc       ??0?$CComPtr@UIOleControl@@@ATL@@QAE@XZ 6620cedc f i SuperSaverOptionsShim.obj
 0001:0000bedc       ??0?$CComPtr@UIPersistStreamInit@@@ATL@@QAE@XZ 6620cedc f i SuperSaverOptionsShim.obj
 0001:0000bedc       ??0?$CComPtr@UIProvideClassInfo2@@@ATL@@QAE@XZ 6620cedc f i SuperSaverOptionsShim.obj
 0001:0000bedc       ??0?$CComPtr@UIOleClientSite@@@ATL@@QAE@XZ 6620cedc f i SuperSaverOptionsShim.obj
 0001:0000bedc       ??0?$CComPtr@UIPersistStream@@@ATL@@QAE@XZ 6620cedc f i SuperSaverOptionsShim.obj
 0001:0000bedc       ??0?$CComPtr@UIOleInPlaceActiveObject@@@ATL@@QAE@XZ 6620cedc f i SuperSaverOptionsShim.obj
 0001:0000bedc       ??0?$CComPtr@UITypeInfo@@@ATL@@QAE@XZ 6620cedc f i SuperSaverOptionsShim.obj
 0001:0000bedc       ??0?$CComPtr@UICatRegister@@@ATL@@QAE@XZ 6620cedc f i SuperSaverShim.obj
 0001:0000bedc       ??0?$CComPtr@UITypeLib@@@ATL@@QAE@XZ 6620cedc f i SuperSaverOptionsShim.obj
 0001:0000bedc       ??0?$CComPtr@UIDTToolsOptionsPage@EnvDTE@@@ATL@@QAE@XZ 6620cedc f i SuperSaverOptionsShim.obj
 0001:0000bedc       ??0?$CComPtr@UIUnknown@@@ATL@@QAE@XZ 6620cedc f i SuperSaverOptionsShim.obj
 0001:0000bedc       ??0?$CComPtr@UIConnectionPoint@@@ATL@@QAE@XZ 6620cedc f i SuperSaverOptionsShim.obj
 0001:0000bee0       ?GetProperty@?$CComPtr@UIDispatch@@@ATL@@SAJPAUIDispatch@@JPAUtagVARIANT@@@Z 6620cee0 f i SuperSaverOptionsShim.obj
 0001:0000bf2b       ??1?$CComCritSecLock@VCComCriticalSection@ATL@@@ATL@@QAE@XZ 6620cf2b f i SuperSaverOptionsShim.obj
 0001:0000bf42       ??4CComBSTR@ATL@@QAEAAV01@PBG@Z 6620cf42 f i SuperSaverOptionsShim.obj
 0001:0000bf7a       ?AtlHresultFromLastError@ATL@@YAJXZ 6620cf7a f i SuperSaverOptionsShim.obj
 0001:0000bf8f       ??0CComBSTR@ATL@@QAE@PBG@Z 6620cf8f f i SuperSaverOptionsShim.obj
 0001:0000bfb9       ??0CComBSTR@ATL@@QAE@ABU_GUID@@@Z 6620cfb9 f i SuperSaverOptionsShim.obj
 0001:0000c007       ??4CComVariant@ATL@@QAEAAV01@PBG@Z 6620d007 f i SuperSaverOptionsShim.obj
 0001:0000c03b       ??1CComVariant@ATL@@QAE@XZ 6620d03b f i SuperSaverOptionsShim.obj
 0001:0000c043       ?AtlAdvise@ATL@@YGJPAUIUnknown@@0ABU_GUID@@PAK@Z 6620d043 f i SuperSaverOptionsShim.obj
 0001:0000c0b8       ?AtlUnadvise@ATL@@YGJPAUIUnknown@@ABU_GUID@@K@Z 6620d0b8 f i SuperSaverOptionsShim.obj
 0001:0000c12a       ?AtlInternalQueryInterface@ATL@@YGJPAXPBU_ATL_INTMAP_ENTRY@1@ABU_GUID@@PAPAX@Z 6620d12a f i SuperSaverOptionsShim.obj
 0001:0000c1bf       ?FindOneOf@CAtlModule@ATL@@SAPBGPBG0@Z 6620d1bf f i SuperSaverOptionsShim.obj
 0001:0000c202       ?Init@CDynamicStdCallThunk@ATL@@QAEXKPAX@Z 6620d202 f i SuperSaverOptionsShim.obj
 0001:0000c22c       ?Init@_stdcallthunk@ATL@@QAEXKPAX@Z 6620d22c f i SuperSaverOptionsShim.obj
 0001:0000c252       ??0CComBSTR@ATL@@QAE@H@Z   6620d252 f i SuperSaverOptionsShim.obj
 0001:0000c27e       ?UpdateRegistryAppId@CSuperSaverShimModule@@SGJH@Z 6620d27e f i SuperSaverShim.obj
 0001:0000c2b1       ??0CSuperSaverShimModule@@QAE@XZ 6620d2b1 f i SuperSaverShim.obj
 0001:0000c2c0       ??1CSuperSaverShimModule@@UAE@XZ 6620d2c0 f i SuperSaverShim.obj
 0001:0000c2c5       ??_GCSuperSaverShimModule@@UAEPAXI@Z 6620d2c5 f i SuperSaverShim.obj
 0001:0000c2c5       ??_ECSuperSaverShimModule@@UAEPAXI@Z 6620d2c5 f i SuperSaverShim.obj
 0001:0000c2e2       _DllMain@12                6620d2e2 f   SuperSaverShim.obj
 0001:0000c30a       _DllCanUnloadNow@0         6620d30a f   SuperSaverShim.obj
 0001:0000c327       _DllGetClassObject@12      6620d327 f   SuperSaverShim.obj
 0001:0000c34b       _DllRegisterServer@0       6620d34b f   SuperSaverShim.obj
 0001:0000c369       _DllUnregisterServer@0     6620d369 f   SuperSaverShim.obj
 0001:0000c390       ??0?$CAtlDllModuleT@VCSuperSaverShimModule@@@ATL@@QAE@XZ 6620d390 f i SuperSaverShim.obj
 0001:0000c3ae       ??1?$CAtlDllModuleT@VCSuperSaverShimModule@@@ATL@@UAE@XZ 6620d3ae f i SuperSaverShim.obj
 0001:0000c3c8       ?AddCommonRGSReplacements@?$CAtlModuleT@VCSuperSaverShimModule@@@ATL@@UAEJPAUIRegistrarBase@@@Z 6620d3c8 f i SuperSaverShim.obj
 0001:0000c3df       ??1?$CAtlModuleT@VCSuperSaverShimModule@@@ATL@@UAE@XZ 6620d3df f i SuperSaverShim.obj
 0001:0000c3e4       ??0?$CAtlModuleT@VCSuperSaverShimModule@@@ATL@@QAE@XZ 6620d3e4 f i SuperSaverShim.obj
 0001:0000c406       ?RegisterServer@?$CAtlModuleT@VCSuperSaverShimModule@@@ATL@@QAEJHPBU_GUID@@@Z 6620d406 f i SuperSaverShim.obj
 0001:0000c432       ?UnregisterServer@?$CAtlModuleT@VCSuperSaverShimModule@@@ATL@@QAEJHPBU_GUID@@@Z 6620d432 f i SuperSaverShim.obj
 0001:0000c458       ?GetGITPtr@CAtlModule@ATL@@UAEJPAPAUIGlobalInterfaceTable@@@Z 6620d458 f i SuperSaverShim.obj
 0001:0000c4a1       ?GetLockCount@CAtlModule@ATL@@UAEJXZ 6620d4a1 f i SuperSaverShim.obj
 0001:0000c4a5       ?Unlock@CAtlModule@ATL@@UAEJXZ 6620d4a5 f i SuperSaverShim.obj
 0001:0000c4b0       ?Lock@CAtlModule@ATL@@UAEJXZ 6620d4b0 f i SuperSaverShim.obj
 0001:0000c4bb       ?AtlComModuleUnregisterServer@ATL@@YGJPAU_ATL_COM_MODULE70@1@HPBU_GUID@@@Z 6620d4bb f i SuperSaverShim.obj
 0001:0000c53f       _IsEqualGUID               6620d53f f i SuperSaverShim.obj
 0001:0000c557       ?AtlRegisterClassCategoriesHelper@ATL@@YGJABU_GUID@@PBU_ATL_CATMAP_ENTRY@1@H@Z 6620d557 f i SuperSaverShim.obj
 0001:0000c7c1       ?AtlUnRegisterTypeLib@ATL@@YGJPAUHINSTANCE__@@PBG@Z 6620d7c1 f i SuperSaverShim.obj
 0001:0000c843       ?AtlLoadTypeLib@ATL@@YGJPAUHINSTANCE__@@PBGPAPAGPAPAUITypeLib@@@Z 6620d843 f i SuperSaverShim.obj
 0001:0000c999       ?AtlComModuleRegisterServer@ATL@@YGJPAU_ATL_COM_MODULE70@1@HPBU_GUID@@@Z 6620d999 f i SuperSaverShim.obj
 0001:0000ca21       ?AtlRegisterTypeLib@ATL@@YGJPAUHINSTANCE__@@PBG@Z 6620da21 f i SuperSaverShim.obj
 0001:0000cb37       ??0CAtlModule@ATL@@QAE@XZ  6620db37 f i SuperSaverShim.obj
 0001:0000cb71       ?AtlComModuleGetClassObject@ATL@@YGJPAU_ATL_COM_MODULE70@1@ABU_GUID@@1PAPAX@Z 6620db71 f i SuperSaverShim.obj
 0001:0000cc46       ?Term@CAtlModule@ATL@@QAEXXZ 6620dc46 f i SuperSaverShim.obj
 0001:0000cc7e       ?AtlCallTermFunc@ATL@@YGXPAU_ATL_MODULE70@1@@Z 6620dc7e f i SuperSaverShim.obj
 0001:0000ccb6       ?ExecuteObjectMain@CAtlComModule@ATL@@QAEX_N@Z 6620dcb6 f i SuperSaverShim.obj
 0001:0000ccd6       _CorBindToRuntimeEx@24     6620dcd6 f   mscoree:mscoree.dll
 0001:0000ccdc       _IUnknown_QueryInterface_Proxy@12 6620dcdc f   rpcrt4:RPCRT4.dll
 0001:0000cce2       _NdrOleFree@4              6620dce2 f   rpcrt4:RPCRT4.dll
 0001:0000cce8       _NdrStubForwardingFunction@16 6620dce8 f   rpcrt4:RPCRT4.dll
 0001:0000ccee       _NdrOleAllocate@4          6620dcee f   rpcrt4:RPCRT4.dll
 0001:0000ccf4       _IUnknown_Release_Proxy@4  6620dcf4 f   rpcrt4:RPCRT4.dll
 0001:0000ccfa       _NdrCStdStubBuffer2_Release@8 6620dcfa f   rpcrt4:RPCRT4.dll
 0001:0000cd00       _IUnknown_AddRef_Proxy@4   6620dd00 f   rpcrt4:RPCRT4.dll
 0001:0000cd06       _memcmp                    6620dd06 f   MSVCRT:MSVCR71.dll
 0001:0000cd0c       _free                      6620dd0c f   MSVCRT:MSVCR71.dll
 0001:0000cd12       ?__ArrayUnwind@@YGXPAXIHP6EX0@Z@Z 6620dd12 f   MSVCRT:ehvecdtr.obj
 0001:0000cd70       ??_M@YGXPAXIHP6EX0@Z@Z     6620dd70 f   MSVCRT:ehvecdtr.obj
 0001:0000cdd0       __onexit                   6620ddd0 f   MSVCRT:atonexit.obj
 0001:0000cdf6       _atexit                    6620ddf6 f   MSVCRT:atonexit.obj
 0001:0000ce08       _memset                    6620de08 f   MSVCRT:MSVCR71.dll
 0001:0000ce0e       ??_V@YAXPAX@Z              6620de0e f   MSVCRT:MSVCR71.dll
 0001:0000ce14       ??3@YAXPAX@Z               6620de14 f   MSVCRT:MSVCR71.dll
 0001:0000ce1a       _memcpy                    6620de1a f   MSVCRT:MSVCR71.dll
 0001:0000ce20       ??2@YAPAXI@Z               6620de20 f   MSVCRT:MSVCR71.dll
 0001:0000ce26       ??_L@YGXPAXIHP6EX0@Z1@Z    6620de26 f   MSVCRT:ehvecctr.obj
 0001:0000ce88       ??_Etype_info@@UAEPAXI@Z   6620de88 f i MSVCRT:ti_inst.obj
 0001:0000ced4       ??_U@YAPAXI@Z              6620ded4 f   MSVCRT:MSVCR71.dll
 0001:0000ceda       __CRT_INIT@12              6620deda f   MSVCRT:crtdll.obj
 0001:0000cf98       __DllMainCRTStartup@12     6620df98 f   MSVCRT:crtdll.obj
 0001:0000d07c       ?terminate@@YAXXZ          6620e07c f   MSVCRT:MSVCR71.dll
 0001:0000d084       __SEH_prolog               6620e084 f   MSVCRT:sehprolg.obj
 0001:0000d0bf       __SEH_epilog               6620e0bf f   MSVCRT:sehprolg.obj
 0001:0000d0d0       __except_handler3          6620e0d0 f   MSVCRT:MSVCR71.dll
 0001:0000d0d6       ___dllonexit               6620e0d6 f   MSVCRT:MSVCR71.dll
 0001:0000d0dc       ??1type_info@@UAE@XZ       6620e0dc f   MSVCRT:MSVCR71.dll
 0001:0000d0e2       __initterm                 6620e0e2 f   MSVCRT:MSVCR71.dll
 0001:0000d0e8       __RTC_Initialize           6620e0e8 f   MSVCRT:initsect.obj
 0001:0000d12c       __RTC_Terminate            6620e12c f   MSVCRT:initsect.obj
 0001:0000d170       ___CppXcptFilter           6620e170 f   MSVCRT:MSVCR71.dll
 0001:0000d176       ?RemoveAll@?$CSimpleArray@PAUHINSTANCE__@@V?$CSimpleArrayEqualHelper@PAUHINSTANCE__@@@ATL@@@ATL@@QAEXXZ 6620e176 f i atls:atlbase.obj
 0001:0000d193       ??0_ATL_BASE_MODULE70@ATL@@QAE@XZ 6620e193 f i atls:atlbase.obj
 0001:0000d1ad       ??1CAtlBaseModule@ATL@@QAE@XZ 6620e1ad f   atls:atlbase.obj
 0001:0000d1c3       ??0CAtlBaseModule@ATL@@QAE@XZ 6620e1c3 f   atls:atlbase.obj
 0001:0000d26e       ?Term@CAtlComModule@ATL@@QAEXXZ 6620e26e f i atls:atlcommodule.obj
 0001:0000d2b0       ??0CAtlComModule@ATL@@QAE@XZ 6620e2b0 f i atls:atlcommodule.obj
 0001:0000d321       @__security_check_cookie@4 6620e321 f   MSVCRT:secchk.obj
 0001:0000d32f       ___security_init_cookie    6620e32f f   MSVCRT:seccinit.obj
 0001:0000d396       ___security_error_handler  6620e396 f   MSVCRT:MSVCR71.dll
 0001:0000d39c       ___CxxFrameHandler         6620e39c f   MSVCRT:MSVCR71.dll
 0001:0000d3b0       __EH_prolog                6620e3b0 f   MSVCRT:ehprolog.obj
 0001:0000d3d0       __CxxThrowException@8      6620e3d0 f   MSVCRT:MSVCR71.dll
 0001:0000d3e0       __alloca_probe             6620e3e0     MSVCRT:chkstk.obj
 0001:0000d3e0       __chkstk                   6620e3e0 f   MSVCRT:chkstk.obj
 0002:00000000       __SuperSaverShim_IID_Lookup@8 6620f000 f   dlldatax.obj
 0003:00000000       __imp__RegQueryValueExW@24 66210000     advapi32:ADVAPI32.dll
 0003:00000004       __imp__RegOpenKeyExW@20    66210004     advapi32:ADVAPI32.dll
 0003:00000008       __imp__RegDeleteValueW@8   66210008     advapi32:ADVAPI32.dll
 0003:0000000c       __imp__RegCreateKeyExW@36  6621000c     advapi32:ADVAPI32.dll
 0003:00000010       __imp__RegSetValueExW@24   66210010     advapi32:ADVAPI32.dll
 0003:00000014       __imp__RegQueryInfoKeyW@48 66210014     advapi32:ADVAPI32.dll
 0003:00000018       __imp__RegEnumKeyExW@32    66210018     advapi32:ADVAPI32.dll
 0003:0000001c       __imp__RegDeleteKeyW@8     6621001c     advapi32:ADVAPI32.dll
 0003:00000020       __imp__RegCloseKey@4       66210020     advapi32:ADVAPI32.dll
 0003:00000024       \177ADVAPI32_NULL_THUNK_DATA 66210024     advapi32:ADVAPI32.dll
 0003:00000028       __imp__GetStockObject@4    66210028     gdi32:GDI32.dll
 0003:0000002c       __imp__GetObjectW@12       6621002c     gdi32:GDI32.dll
 0003:00000030       __imp__CreateDCW@16        66210030     gdi32:GDI32.dll
 0003:00000034       __imp__CreateRectRgnIndirect@4 66210034     gdi32:GDI32.dll
 0003:00000038       __imp__CreateMetaFileW@4   66210038     gdi32:GDI32.dll
 0003:0000003c       __imp__SaveDC@4            6621003c     gdi32:GDI32.dll
 0003:00000040       __imp__SetWindowOrgEx@16   66210040     gdi32:GDI32.dll
 0003:00000044       __imp__SetWindowExtEx@16   66210044     gdi32:GDI32.dll
 0003:00000048       __imp__RestoreDC@8         66210048     gdi32:GDI32.dll
 0003:0000004c       __imp__DeleteDC@4          6621004c     gdi32:GDI32.dll
 0003:00000050       __imp__DeleteMetaFile@4    66210050     gdi32:GDI32.dll
 0003:00000054       __imp__LPtoDP@12           66210054     gdi32:GDI32.dll
 0003:00000058       __imp__SetMapMode@8        66210058     gdi32:GDI32.dll
 0003:0000005c       __imp__SetViewportOrgEx@16 6621005c     gdi32:GDI32.dll
 0003:00000060       __imp__Rectangle@20        66210060     gdi32:GDI32.dll
 0003:00000064       __imp__SetTextColor@8      66210064     gdi32:GDI32.dll
 0003:00000068       __imp__SetBkMode@8         66210068     gdi32:GDI32.dll
 0003:0000006c       __imp__SetBkColor@8        6621006c     gdi32:GDI32.dll
 0003:00000070       __imp__BitBlt@36           66210070     gdi32:GDI32.dll
 0003:00000074       __imp__CreateCompatibleBitmap@12 66210074     gdi32:GDI32.dll
 0003:00000078       __imp__CreateSolidBrush@4  66210078     gdi32:GDI32.dll
 0003:0000007c       __imp__GetDeviceCaps@8     6621007c     gdi32:GDI32.dll
 0003:00000080       __imp__CreateFontIndirectW@4 66210080     gdi32:GDI32.dll
 0003:00000084       __imp__SelectObject@8      66210084     gdi32:GDI32.dll
 0003:00000088       __imp__GetTextMetricsW@8   66210088     gdi32:GDI32.dll
 0003:0000008c       __imp__GetTextExtentPointW@16 6621008c     gdi32:GDI32.dll
 0003:00000090       __imp__CloseMetaFile@4     66210090     gdi32:GDI32.dll
 0003:00000094       __imp__CreateCompatibleDC@4 66210094     gdi32:GDI32.dll
 0003:00000098       __imp__DeleteObject@4      66210098     gdi32:GDI32.dll
 0003:0000009c       \177GDI32_NULL_THUNK_DATA  6621009c     gdi32:GDI32.dll
 0003:000000a0       __imp__GetCurrentThreadId@0 662100a0     kernel32:KERNEL32.dll
 0003:000000a4       __imp__GetLastError@0      662100a4     kernel32:KERNEL32.dll
 0003:000000a8       __imp__GlobalHandle@4      662100a8     kernel32:KERNEL32.dll
 0003:000000ac       __imp__SetLastError@4      662100ac     kernel32:KERNEL32.dll
 0003:000000b0       __imp__lstrcatW@8          662100b0     kernel32:KERNEL32.dll
 0003:000000b4       __imp__GetSystemTimeAsFileTime@4 662100b4     kernel32:KERNEL32.dll
 0003:000000b8       __imp__GetCurrentProcessId@0 662100b8     kernel32:KERNEL32.dll
 0003:000000bc       __imp__GetTickCount@0      662100bc     kernel32:KERNEL32.dll
 0003:000000c0       __imp__QueryPerformanceCounter@4 662100c0     kernel32:KERNEL32.dll
 0003:000000c4       __imp__ExitProcess@4       662100c4     kernel32:KERNEL32.dll
 0003:000000c8       __imp__GetLocaleInfoA@16   662100c8     kernel32:KERNEL32.dll
 0003:000000cc       __imp__InitializeCriticalSection@4 662100cc     kernel32:KERNEL32.dll
 0003:000000d0       __imp__GetVersionExA@4     662100d0     kernel32:KERNEL32.dll
 0003:000000d4       __imp__GetVersionExW@4     662100d4     kernel32:KERNEL32.dll
 0003:000000d8       __imp__GetACP@0            662100d8     kernel32:KERNEL32.dll
 0003:000000dc       __imp__RaiseException@16   662100dc     kernel32:KERNEL32.dll
 0003:000000e0       __imp__InterlockedExchange@8 662100e0     kernel32:KERNEL32.dll
 0003:000000e4       __imp__InterlockedDecrement@4 662100e4     kernel32:KERNEL32.dll
 0003:000000e8       __imp__GetThreadLocale@0   662100e8     kernel32:KERNEL32.dll
 0003:000000ec       __imp__DeleteCriticalSection@4 662100ec     kernel32:KERNEL32.dll
 0003:000000f0       __imp__HeapAlloc@12        662100f0     kernel32:KERNEL32.dll
 0003:000000f4       __imp__HeapFree@12         662100f4     kernel32:KERNEL32.dll
 0003:000000f8       __imp__GlobalAlloc@8       662100f8     kernel32:KERNEL32.dll
 0003:000000fc       __imp__GlobalFree@4        662100fc     kernel32:KERNEL32.dll
 0003:00000100       __imp__lstrlenA@4          66210100     kernel32:KERNEL32.dll
 0003:00000104       __imp__MultiByteToWideChar@24 66210104     kernel32:KERNEL32.dll
 0003:00000108       __imp__lstrcmpW@8          66210108     kernel32:KERNEL32.dll
 0003:0000010c       __imp__GetCurrentProcess@0 6621010c     kernel32:KERNEL32.dll
 0003:00000110       __imp__FlushInstructionCache@12 66210110     kernel32:KERNEL32.dll
 0003:00000114       __imp__MulDiv@12           66210114     kernel32:KERNEL32.dll
 0003:00000118       __imp__lstrcpynW@12        66210118     kernel32:KERNEL32.dll
 0003:0000011c       __imp__LoadLibraryW@4      6621011c     kernel32:KERNEL32.dll
 0003:00000120       __imp__FindResourceW@12    66210120     kernel32:KERNEL32.dll
 0003:00000124       __imp__LoadResource@8      66210124     kernel32:KERNEL32.dll
 0003:00000128       __imp__FreeLibrary@4       66210128     kernel32:KERNEL32.dll
 0003:0000012c       __imp__InterlockedIncrement@4 6621012c     kernel32:KERNEL32.dll
 0003:00000130       __imp__LeaveCriticalSection@4 66210130     kernel32:KERNEL32.dll
 0003:00000134       __imp__EnterCriticalSection@4 66210134     kernel32:KERNEL32.dll
 0003:00000138       __imp__GetProcessHeap@0    66210138     kernel32:KERNEL32.dll
 0003:0000013c       __imp__LockResource@4      6621013c     kernel32:KERNEL32.dll
 0003:00000140       __imp__GetModuleFileNameW@12 66210140     kernel32:KERNEL32.dll
 0003:00000144       __imp__GetModuleHandleW@4  66210144     kernel32:KERNEL32.dll
 0003:00000148       __imp__LoadLibraryExW@12   66210148     kernel32:KERNEL32.dll
 0003:0000014c       __imp__SizeofResource@8    6621014c     kernel32:KERNEL32.dll
 0003:00000150       __imp__lstrcmpiW@8         66210150     kernel32:KERNEL32.dll
 0003:00000154       __imp__lstrlenW@4          66210154     kernel32:KERNEL32.dll
 0003:00000158       __imp__lstrcpyW@8          66210158     kernel32:KERNEL32.dll
 0003:0000015c       __imp__GlobalUnlock@4      6621015c     kernel32:KERNEL32.dll
 0003:00000160       __imp__GlobalLock@4        66210160     kernel32:KERNEL32.dll
 0003:00000164       \177KERNEL32_NULL_THUNK_DATA 66210164     kernel32:KERNEL32.dll
 0003:00000168       __imp__memcmp              66210168     MSVCRT:MSVCR71.dll
 0003:0000016c       __imp__free                6621016c     MSVCRT:MSVCR71.dll
 0003:00000170       __imp__memset              66210170     MSVCRT:MSVCR71.dll
 0003:00000174       __imp_??_V@YAXPAX@Z        66210174     MSVCRT:MSVCR71.dll
 0003:00000178       __imp_??3@YAXPAX@Z         66210178     MSVCRT:MSVCR71.dll
 0003:0000017c       __imp__malloc              6621017c     MSVCRT:MSVCR71.dll
 0003:00000180       __imp__realloc             66210180     MSVCRT:MSVCR71.dll
 0003:00000184       __imp__wcslen              66210184     MSVCRT:MSVCR71.dll
 0003:00000188       __imp__memcpy              66210188     MSVCRT:MSVCR71.dll
 0003:0000018c       __imp_??2@YAPAXI@Z         6621018c     MSVCRT:MSVCR71.dll
 0003:00000190       __imp__wcsncpy             66210190     MSVCRT:MSVCR71.dll
 0003:00000194       __imp__isupper             66210194     MSVCRT:MSVCR71.dll
 0003:00000198       __imp_??_U@YAPAXI@Z        66210198     MSVCRT:MSVCR71.dll
 0003:0000019c       __imp_?terminate@@YAXXZ    6621019c     MSVCRT:MSVCR71.dll
 0003:000001a0       __imp___except_handler3    662101a0     MSVCRT:MSVCR71.dll
 0003:000001a4       __imp____dllonexit         662101a4     MSVCRT:MSVCR71.dll
 0003:000001a8       __imp___onexit             662101a8     MSVCRT:MSVCR71.dll
 0003:000001ac       __imp___CxxThrowException@8 662101ac     MSVCRT:MSVCR71.dll
 0003:000001b0       __imp___initterm           662101b0     MSVCRT:MSVCR71.dll
 0003:000001b4       __imp___adjust_fdiv        662101b4     MSVCRT:MSVCR71.dll
 0003:000001b8       __imp____CppXcptFilter     662101b8     MSVCRT:MSVCR71.dll
 0003:000001bc       __imp____security_error_handler 662101bc     MSVCRT:MSVCR71.dll
 0003:000001c0       __imp____CxxFrameHandler   662101c0     MSVCRT:MSVCR71.dll
 0003:000001c4       __imp_??1type_info@@UAE@XZ 662101c4     MSVCRT:MSVCR71.dll
 0003:000001c8       \177MSVCR71_NULL_THUNK_DATA 662101c8     MSVCRT:MSVCR71.dll
 0003:000001cc       __imp__OleCreatePropertyFrame@44 662101cc     oleaut32:OLEAUT32.dll
 0003:000001d0       __imp__SysAllocStringLen@8 662101d0     oleaut32:OLEAUT32.dll
 0003:000001d4       __imp__SysAllocString@4    662101d4     oleaut32:OLEAUT32.dll
 0003:000001d8       __imp__VariantInit@4       662101d8     oleaut32:OLEAUT32.dll
 0003:000001dc       __imp__OleCreateFontIndirect@12 662101dc     oleaut32:OLEAUT32.dll
 0003:000001e0       __imp__VarUI4FromStr@16    662101e0     oleaut32:OLEAUT32.dll
 0003:000001e4       __imp__SysStringLen@4      662101e4     oleaut32:OLEAUT32.dll
 0003:000001e8       __imp__LoadRegTypeLib@20   662101e8     oleaut32:OLEAUT32.dll
 0003:000001ec       __imp__LoadTypeLib@8       662101ec     oleaut32:OLEAUT32.dll
 0003:000001f0       __imp__OleTranslateColor@12 662101f0     oleaut32:OLEAUT32.dll
 0003:000001f4       __imp__VariantClear@4      662101f4     oleaut32:OLEAUT32.dll
 0003:000001f8       __imp__SysAllocStringByteLen@8 662101f8     oleaut32:OLEAUT32.dll
 0003:000001fc       __imp__VariantChangeType@16 662101fc     oleaut32:OLEAUT32.dll
 0003:00000200       __imp__UnRegisterTypeLib@20 66210200     oleaut32:OLEAUT32.dll
 0003:00000204       __imp__RegisterTypeLib@12  66210204     oleaut32:OLEAUT32.dll
 0003:00000208       __imp__SysStringByteLen@4  66210208     oleaut32:OLEAUT32.dll
 0003:0000020c       __imp__SysFreeString@4     6621020c     oleaut32:OLEAUT32.dll
 0003:00000210       \177OLEAUT32_NULL_THUNK_DATA 66210210     oleaut32:OLEAUT32.dll
 0003:00000214       __imp__NdrOleFree@4        66210214     rpcrt4:RPCRT4.dll
 0003:00000218       __imp__NdrStubForwardingFunction@16 66210218     rpcrt4:RPCRT4.dll
 0003:0000021c       __imp__NdrOleAllocate@4    6621021c     rpcrt4:RPCRT4.dll
 0003:00000220       __imp__NdrDllRegisterProxy@12 66210220     rpcrt4:RPCRT4.dll
 0003:00000224       __imp__NdrDllCanUnloadNow@4 66210224     rpcrt4:RPCRT4.dll
 0003:00000228       __imp__IUnknown_Release_Proxy@4 66210228     rpcrt4:RPCRT4.dll
 0003:0000022c       __imp__NdrCStdStubBuffer2_Release@8 6621022c     rpcrt4:RPCRT4.dll
 0003:00000230       __imp__IUnknown_AddRef_Proxy@4 66210230     rpcrt4:RPCRT4.dll
 0003:00000234       __imp__NdrDllGetClassObject@24 66210234     rpcrt4:RPCRT4.dll
 0003:00000238       __imp__NdrDllUnregisterProxy@12 66210238     rpcrt4:RPCRT4.dll
 0003:0000023c       __imp__IUnknown_QueryInterface_Proxy@12 6621023c     rpcrt4:RPCRT4.dll
 0003:00000240       \177RPCRT4_NULL_THUNK_DATA 66210240     rpcrt4:RPCRT4.dll
 0003:00000244       __imp__PathFindExtensionW@4 66210244     shlwapi:SHLWAPI.dll
 0003:00000248       \177SHLWAPI_NULL_THUNK_DATA 66210248     shlwapi:SHLWAPI.dll
 0003:0000024c       __imp__SetWindowContextHelpId@8 6621024c     user32:USER32.dll
 0003:00000250       __imp__UnregisterClassW@8  66210250     user32:USER32.dll
 0003:00000254       __imp__SetWindowLongW@12   66210254     user32:USER32.dll
 0003:00000258       __imp__GetWindowLongW@8    66210258     user32:USER32.dll
 0003:0000025c       __imp__CreateWindowExW@48  6621025c     user32:USER32.dll
 0003:00000260       __imp__IsDialogMessageW@8  66210260     user32:USER32.dll
 0003:00000264       __imp__SendMessageW@16     66210264     user32:USER32.dll
 0003:00000268       __imp__SetWindowTextW@8    66210268     user32:USER32.dll
 0003:0000026c       __imp__GetWindowTextW@12   6621026c     user32:USER32.dll
 0003:00000270       __imp__IsWindow@4          66210270     user32:USER32.dll
 0003:00000274       __imp__DestroyWindow@4     66210274     user32:USER32.dll
 0003:00000278       __imp__GetWindowTextLengthW@4 66210278     user32:USER32.dll
 0003:0000027c       __imp__MoveWindow@24       6621027c     user32:USER32.dll
 0003:00000280       __imp__SetWindowPos@28     66210280     user32:USER32.dll
 0003:00000284       __imp__GetWindowRect@8     66210284     user32:USER32.dll
 0003:00000288       __imp__GetClientRect@8     66210288     user32:USER32.dll
 0003:0000028c       __imp__BeginPaint@8        6621028c     user32:USER32.dll
 0003:00000290       __imp__EndPaint@8          66210290     user32:USER32.dll
 0003:00000294       __imp__GetDC@4             66210294     user32:USER32.dll
 0003:00000298       __imp__ReleaseDC@8         66210298     user32:USER32.dll
 0003:0000029c       __imp__InvalidateRect@12   6621029c     user32:USER32.dll
 0003:000002a0       __imp__GetClassNameW@12    662102a0     user32:USER32.dll
 0003:000002a4       __imp__SystemParametersInfoW@16 662102a4     user32:USER32.dll
 0003:000002a8       __imp__GetDialogBaseUnits@0 662102a8     user32:USER32.dll
 0003:000002ac       __imp__GetSysColor@4       662102ac     user32:USER32.dll
 0003:000002b0       __imp__DestroyAcceleratorTable@4 662102b0     user32:USER32.dll
 0003:000002b4       __imp__GetFocus@0          662102b4     user32:USER32.dll
 0003:000002b8       __imp__FillRect@12         662102b8     user32:USER32.dll
 0003:000002bc       __imp__GetDesktopWindow@0  662102bc     user32:USER32.dll
 0003:000002c0       __imp__CreateAcceleratorTableW@8 662102c0     user32:USER32.dll
 0003:000002c4       __imp__ReleaseCapture@0    662102c4     user32:USER32.dll
 0003:000002c8       __imp__DefWindowProcW@16   662102c8     user32:USER32.dll
 0003:000002cc       __imp__CreateDialogIndirectParamW@20 662102cc     user32:USER32.dll
 0003:000002d0       __imp__RegisterWindowMessageW@4 662102d0     user32:USER32.dll
 0003:000002d4       __imp__GetClassInfoExW@12  662102d4     user32:USER32.dll
 0003:000002d8       __imp__LoadCursorW@8       662102d8     user32:USER32.dll
 0003:000002dc       __imp__RegisterClassExW@4  662102dc     user32:USER32.dll
 0003:000002e0       __imp__wsprintfW           662102e0     user32:USER32.dll
 0003:000002e4       __imp__IntersectRect@12    662102e4     user32:USER32.dll
 0003:000002e8       __imp__EqualRect@8         662102e8     user32:USER32.dll
 0003:000002ec       __imp__OffsetRect@12       662102ec     user32:USER32.dll
 0003:000002f0       __imp__CharNextW@4         662102f0     user32:USER32.dll
 0003:000002f4       __imp__CallWindowProcW@20  662102f4     user32:USER32.dll
 0003:000002f8       __imp__GetKeyState@4       662102f8     user32:USER32.dll
 0003:000002fc       __imp__PtInRect@12         662102fc     user32:USER32.dll
 0003:00000300       __imp__UnionRect@12        66210300     user32:USER32.dll
 0003:00000304       __imp__EnumChildWindows@12 66210304     user32:USER32.dll
 0003:00000308       __imp__DrawTextW@20        66210308     user32:USER32.dll
 0003:0000030c       __imp__MapDialogRect@8     6621030c     user32:USER32.dll
 0003:00000310       __imp__CopyAcceleratorTableW@12 66210310     user32:USER32.dll
 0003:00000314       __imp__SetWindowRgn@12     66210314     user32:USER32.dll
 0003:00000318       __imp__GetDlgItem@8        66210318     user32:USER32.dll
 0003:0000031c       __imp__SetParent@8         6621031c     user32:USER32.dll
 0003:00000320       __imp__GetParent@4         66210320     user32:USER32.dll
 0003:00000324       __imp__IsChild@8           66210324     user32:USER32.dll
 0003:00000328       __imp__GetWindow@8         66210328     user32:USER32.dll
 0003:0000032c       __imp__SendDlgItemMessageW@20 6621032c     user32:USER32.dll
 0003:00000330       __imp__GetNextDlgTabItem@12 66210330     user32:USER32.dll
 0003:00000334       __imp__SetFocus@4          66210334     user32:USER32.dll
 0003:00000338       __imp__SetCapture@4        66210338     user32:USER32.dll
 0003:0000033c       __imp__RedrawWindow@16     6621033c     user32:USER32.dll
 0003:00000340       __imp__ShowWindow@8        66210340     user32:USER32.dll
 0003:00000344       __imp__InvalidateRgn@12    66210344     user32:USER32.dll
 0003:00000348       \177USER32_NULL_THUNK_DATA 66210348     user32:USER32.dll
 0003:0000034c       __imp__CorBindToRuntimeEx@24 6621034c     mscoree:mscoree.dll
 0003:00000350       \177mscoree_NULL_THUNK_DATA 66210350     mscoree:mscoree.dll
 0003:00000354       __imp__WriteClassStm@8     66210354     ole32:ole32.dll
 0003:00000358       __imp__OleLoadFromStream@12 66210358     ole32:ole32.dll
 0003:0000035c       __imp__CreateDataAdviseHolder@4 6621035c     ole32:ole32.dll
 0003:00000360       __imp__OleRegGetMiscStatus@12 66210360     ole32:ole32.dll
 0003:00000364       __imp__OleRegGetUserType@12 66210364     ole32:ole32.dll
 0003:00000368       __imp__OleRegEnumVerbs@8   66210368     ole32:ole32.dll
 0003:0000036c       __imp__CreateOleAdviseHolder@4 6621036c     ole32:ole32.dll
 0003:00000370       __imp__OleUninitialize@0   66210370     ole32:ole32.dll
 0003:00000374       __imp__OleInitialize@4     66210374     ole32:ole32.dll
 0003:00000378       __imp__OleSaveToStream@8   66210378     ole32:ole32.dll
 0003:0000037c       __imp__StringFromGUID2@12  6621037c     ole32:ole32.dll
 0003:00000380       __imp__CreateStreamOnHGlobal@12 66210380     ole32:ole32.dll
 0003:00000384       __imp__CoGetClassObject@20 66210384     ole32:ole32.dll
 0003:00000388       __imp__CLSIDFromProgID@8   66210388     ole32:ole32.dll
 0003:0000038c       __imp__CLSIDFromString@8   6621038c     ole32:ole32.dll
 0003:00000390       __imp__CoCreateInstance@20 66210390     ole32:ole32.dll
 0003:00000394       __imp__CoTaskMemRealloc@8  66210394     ole32:ole32.dll
 0003:00000398       __imp__CoTaskMemFree@4     66210398     ole32:ole32.dll
 0003:0000039c       __imp__CoTaskMemAlloc@4    6621039c     ole32:ole32.dll
 0003:000003a0       __imp__OleLockRunning@12   662103a0     ole32:ole32.dll
 0003:000003a4       \177ole32_NULL_THUNK_DATA  662103a4     ole32:ole32.dll
 0003:000003cc       _GUID_NULL                 662103cc     uuid:cguid_i.obj
 0003:000003dc       _IID_IUnknown              662103dc     uuid:unknwn_i.obj
 0003:000003dc       __GUID_00000000_0000_0000_c000_000000000046 662103dc     SuperSaverOptionsShim.obj
 0003:000003ec       _CLSID_StdComponentCategoriesMgr 662103ec     uuid:ieguids.obj
 0003:00000430       ??_7type_info@@6B@         66210430     MSVCRT:ti_inst.obj
 0003:00000464       _GUID_ATLVer30             66210464     atls:atlbase.obj
 0003:00000474       _GUID_ATLVer70             66210474     atls:atlbase.obj
 0003:00000498       _IID_ISuperSaverOptionsShim 66210498     SuperSaverShim_i.obj
 0003:00000540       __SuperSaverShim_InterfaceNamesList 66210540     dlldatax.obj
 0003:00000548       _SuperSaverShim_ProxyFileInfo 66210548     dlldatax.obj
 0003:000005a8       _CLSID_SuperSaverOptionsShim 662105a8     SuperSaverShim_i.obj
 0003:000005b8       _LIBID_SuperSaverShimLib   662105b8     SuperSaverShim_i.obj
 0003:00000608       _IID_IWin32Window          66210608     SuperSaverShim_i.obj
 0003:00000618       ??_C@_0BH@DIOLGBPJ@ISuperSaverOptionsShim?$AA@ 66210618     dlldatax.obj
 0003:00000630       __GUID_bdcaf240_2692_4713_902a_b110b1d0f100 66210630     SuperSaverOptionsShim.obj
 0003:00000630       _IID_IDTToolsOptionsPage   66210630     stdafx.obj
 0003:00000640       _LIBID_EnvDTE              66210640     stdafx.obj
 0003:00000650       ?rgszNeverDelete@CRegParser@ATL@@1QBQBGB 66210650     stdafx.obj
 0003:00000680       ??_C@_1BA@JIHHIEDE@?$AAT?$AAy?$AAp?$AAe?$AAL?$AAi?$AAb?$AA?$AA@ 66210680     stdafx.obj
 0003:00000690       ??_C@_1BC@EAHCMADO@?$AAS?$AAo?$AAf?$AAt?$AAw?$AAa?$AAr?$AAe?$AA?$AA@ 66210690     stdafx.obj
 0003:000006a4       ??_C@_1O@GBFINDKL@?$AAS?$AAY?$AAS?$AAT?$AAE?$AAM?$AA?$AA@ 662106a4     stdafx.obj
 0003:000006b4       ??_C@_1BC@IBECJAAI@?$AAS?$AAE?$AAC?$AAU?$AAR?$AAI?$AAT?$AAY?$AA?$AA@ 662106b4     stdafx.obj
 0003:000006c8       ??_C@_17OMAOINJK@?$AAS?$AAA?$AAM?$AA?$AA@ 662106c8     stdafx.obj
 0003:000006d0       ??_C@_19HLLLM@?$AAM?$AAi?$AAm?$AAe?$AA?$AA@ 662106d0     stdafx.obj
 0003:000006dc       ??_C@_1BC@MAICEHGI@?$AAH?$AAa?$AAr?$AAd?$AAw?$AAa?$AAr?$AAe?$AA?$AA@ 662106dc     stdafx.obj
 0003:000006f0       ??_C@_1BE@EKPAFMCP@?$AAI?$AAn?$AAt?$AAe?$AAr?$AAf?$AAa?$AAc?$AAe?$AA?$AA@ 662106f0     stdafx.obj
 0003:00000704       ??_C@_1BC@NKMMNMGL@?$AAF?$AAi?$AAl?$AAe?$AAT?$AAy?$AAp?$AAe?$AA?$AA@ 66210704     stdafx.obj
 0003:00000718       ??_C@_1CK@OEKPKBNA@?$AAC?$AAo?$AAm?$AAp?$AAo?$AAn?$AAe?$AAn?$AAt?$AA?5?$AAC?$AAa?$AAt?$AAe?$AAg?$AAo?$AAr?$AAi?$AAe?$AAs@ 66210718     stdafx.obj
 0003:00000744       ??_C@_1O@JDLOHAN@?$AAD?$AAe?$AAl?$AAe?$AAt?$AAe?$AA?$AA@ 66210744     stdafx.obj
 0003:00000754       ??_C@_1BC@GCKHIPE@?$AAN?$AAo?$AAR?$AAe?$AAm?$AAo?$AAv?$AAe?$AA?$AA@ 66210754     stdafx.obj
 0003:00000768       ??_C@_1BI@JFAIJMHL@?$AAF?$AAo?$AAr?$AAc?$AAe?$AAR?$AAe?$AAm?$AAo?$AAv?$AAe?$AA?$AA@ 66210768     stdafx.obj
 0003:00000780       ??_C@_17LLMMEOJD@?$AAV?$AAa?$AAl?$AA?$AA@ 66210780     stdafx.obj
 0003:00000788       ??_C@_13OPKGLAFF@?$AAB?$AA?$AA@ 66210788     stdafx.obj
 0003:0000078c       ??_C@_13MKMNOPIJ@?$AAD?$AA?$AA@ 6621078c     stdafx.obj
 0003:00000790       ??_C@_13LHMFKAAD@?$AAM?$AA?$AA@ 66210790     stdafx.obj
 0003:00000794       ??_C@_13HADIAKP@?$AAS?$AA?$AA@ 66210794     stdafx.obj
 0003:00000798       ??_C@_1M@EJNEECMJ@?$AAA?$AAp?$AAp?$AAI?$AAD?$AA?$AA@ 66210798     stdafx.obj
 0003:000007a4       ??_C@_1M@KANJNLFF@?$AAC?$AAL?$AAS?$AAI?$AAD?$AA?$AA@ 662107a4     stdafx.obj
 0003:000007b0       _CLSID_StdGlobalInterfaceTable 662107b0     stdafx.obj
 0003:000007c0       __GUID_05f696dc_2b29_3663_ad8b_c4389cf2a713 662107c0     SuperSaverOptionsShim.obj
 0003:000007d0       __GUID_00020412_0000_0000_c000_000000000046 662107d0     SuperSaverOptionsShim.obj
 0003:000007e0       __GUID_00020401_0000_0000_c000_000000000046 662107e0     SuperSaverOptionsShim.obj
 0003:000007f0       __GUID_9bfbbc02_eff1_101a_84ed_00aa00341d07 662107f0     SuperSaverOptionsShim.obj
 0003:00000800       __GUID_55980ba0_35aa_11cf_b671_00aa004cd6d8 66210800     SuperSaverOptionsShim.obj
 0003:00000810       __GUID_bef6e003_a874_101a_8bba_00aa00300cab 66210810     SuperSaverOptionsShim.obj
 0003:00000820       __GUID_00000122_0000_0000_c000_000000000046 66210820     SuperSaverOptionsShim.obj
 0003:00000830       __GUID_b196b28f_bab4_101a_b69c_00aa00341d07 66210830     SuperSaverOptionsShim.obj
 0003:00000840       __GUID_b196b284_bab4_101a_b69c_00aa00341d07 66210840     SuperSaverOptionsShim.obj
 0003:00000850       __GUID_00000109_0000_0000_c000_000000000046 66210850     SuperSaverOptionsShim.obj
 0003:00000860       ??_7CRegObject@ATL@@6B@    66210860     SuperSaverOptionsShim.obj
 0003:00000878       ??_7CComClassFactory@ATL@@6B@ 66210878     SuperSaverOptionsShim.obj
 0003:00000890       ?_entries@?1??_GetEntries@CComClassFactory@ATL@@SGPBU_ATL_INTMAP_ENTRY@3@XZ@4QBU43@B 66210890     SuperSaverOptionsShim.obj
 0003:000008a8       __GUID_00000001_0000_0000_c000_000000000046 662108a8     SuperSaverOptionsShim.obj
 0003:000008b8       ??_C@_11LOCGONAA@?$AA?$AA@ 662108b8     SuperSaverOptionsShim.obj
 0003:000008bc       ??_C@_1BC@KAILKFFG@?$AAR?$AAE?$AAG?$AAI?$AAS?$AAT?$AAR?$AAY?$AA?$AA@ 662108bc     SuperSaverOptionsShim.obj
 0003:000008d0       ??_C@_1BG@JBACFMF@?$AAM?$AAo?$AAd?$AAu?$AAl?$AAe?$AA_?$AAR?$AAa?$AAw?$AA?$AA@ 662108d0     SuperSaverOptionsShim.obj
 0003:000008e8       ??_C@_1O@MNLDABAF@?$AAM?$AAo?$AAd?$AAu?$AAl?$AAe?$AA?$AA@ 662108e8     SuperSaverOptionsShim.obj
 0003:000008f8       ?map@?2??HKeyFromString@CRegParser@ATL@@KAPAUHKEY__@@PAG@Z@4QBUkeymap@23@B 662108f8     SuperSaverOptionsShim.obj
 0003:00000968       ??_C@_1CI@BBJOACGG@?$AAH?$AAK?$AAE?$AAY?$AA_?$AAC?$AAU?$AAR?$AAR?$AAE?$AAN?$AAT?$AA_?$AAC?$AAO?$AAN?$AAF?$AAI?$AAG?$AA?$AA@ 66210968     SuperSaverOptionsShim.obj
 0003:00000990       ??_C@_1BM@HAGMMHIA@?$AAH?$AAK?$AAE?$AAY?$AA_?$AAD?$AAY?$AAN?$AA_?$AAD?$AAA?$AAT?$AAA?$AA?$AA@ 66210990     SuperSaverOptionsShim.obj
 0003:000009ac       ??_C@_1CM@KHNNAOIC@?$AAH?$AAK?$AAE?$AAY?$AA_?$AAP?$AAE?$AAR?$AAF?$AAO?$AAR?$AAM?$AAA?$AAN?$AAC?$AAE?$AA_?$AAD?$AAA?$AAT@ 662109ac     SuperSaverOptionsShim.obj
 0003:000009d8       ??_C@_1BG@BGODANIO@?$AAH?$AAK?$AAE?$AAY?$AA_?$AAU?$AAS?$AAE?$AAR?$AAS?$AA?$AA@ 662109d8     SuperSaverOptionsShim.obj
 0003:000009f0       ??_C@_1CG@GFBEANJL@?$AAH?$AAK?$AAE?$AAY?$AA_?$AAL?$AAO?$AAC?$AAA?$AAL?$AA_?$AAM?$AAA?$AAC?$AAH?$AAI?$AAN?$AAE?$AA?$AA@ 662109f0     SuperSaverOptionsShim.obj
 0003:00000a18       ??_C@_1CE@HLHNCBPM@?$AAH?$AAK?$AAE?$AAY?$AA_?$AAC?$AAU?$AAR?$AAR?$AAE?$AAN?$AAT?$AA_?$AAU?$AAS?$AAE?$AAR?$AA?$AA@ 66210a18     SuperSaverOptionsShim.obj
 0003:00000a3c       ??_C@_1CE@PACHPJFI@?$AAH?$AAK?$AAE?$AAY?$AA_?$AAC?$AAL?$AAA?$AAS?$AAS?$AAE?$AAS?$AA_?$AAR?$AAO?$AAO?$AAT?$AA?$AA@ 66210a3c     SuperSaverOptionsShim.obj
 0003:00000a60       ??_C@_19OFICIBHH@?$AAH?$AAK?$AAC?$AAC?$AA?$AA@ 66210a60     SuperSaverOptionsShim.obj
 0003:00000a6c       ??_C@_19GFFAIJHG@?$AAH?$AAK?$AAD?$AAD?$AA?$AA@ 66210a6c     SuperSaverOptionsShim.obj
 0003:00000a78       ??_C@_19PNBHMJPL@?$AAH?$AAK?$AAP?$AAD?$AA?$AA@ 66210a78     SuperSaverOptionsShim.obj
 0003:00000a84       ??_C@_17PJOJPMPB@?$AAH?$AAK?$AAU?$AA?$AA@ 66210a84     SuperSaverOptionsShim.obj
 0003:00000a8c       ??_C@_19PEALEEJB@?$AAH?$AAK?$AAL?$AAM?$AA?$AA@ 66210a8c     SuperSaverOptionsShim.obj
 0003:00000a98       ??_C@_19JAPAIJDE@?$AAH?$AAK?$AAC?$AAU?$AA?$AA@ 66210a98     SuperSaverOptionsShim.obj
 0003:00000aa4       ??_C@_19NCHLBIN@?$AAH?$AAK?$AAC?$AAR?$AA?$AA@ 66210aa4     SuperSaverOptionsShim.obj
 0003:00000ab0       __GUID_cb2f6722_ab3a_11d2_9c40_00c04fa30a3e 66210ab0     SuperSaverOptionsShim.obj
 0003:00000ac0       __GUID_cb2f6723_ab3a_11d2_9c40_00c04fa30a3e 66210ac0     SuperSaverOptionsShim.obj
 0003:00000ad0       __GUID_d30c1661_cdaf_11d0_8a3e_00c04fc9e26e 66210ad0     SuperSaverOptionsShim.obj
 0003:00000ae0       __GUID_8856f961_340a_11d0_a96b_00c04fd705a2 66210ae0     SuperSaverOptionsShim.obj
 0003:00000af0       __GUID_25336920_03f9_11cf_8fd0_00aa00686f13 66210af0     SuperSaverOptionsShim.obj
 0003:00000b00       ??_7?$CComObject@VCAxFrameWindow@ATL@@@ATL@@6BIOleInPlaceFrame@@@ 66210b00     SuperSaverOptionsShim.obj
 0003:00000b3c       ??_7?$CComObject@VCAxFrameWindow@ATL@@@ATL@@6B?$CWindowImpl@VCAxFrameWindow@ATL@@VCWindow@2@V?$CWinTraits@$0FGAAAAAA@$0A@@2@@1@@ 66210b3c     SuperSaverOptionsShim.obj
 0003:00000b4c       ??_7?$CComObjectCached@VCComClassFactory@ATL@@@ATL@@6B@ 66210b4c     SuperSaverOptionsShim.obj
 0003:00000b64       ??_7?$CComPolyObject@VCAxHostWindow@ATL@@@ATL@@6B@ 66210b64     SuperSaverOptionsShim.obj
 0003:00000b78       ??_7?$CComContainedObject@VCAxHostWindow@ATL@@@ATL@@6B?$IDispatchImpl@UIAxWinAmbientDispatchEx@@$1?_GUID_b2d0778b_ac99_4c58_a5c8_e7724e5316b5@@3U__s_GUID@@B$1?m_libid@CAtlModule@ATL@@2U_GUID@@A$0PPPP@$0PPPP@VCComTypeInfoHolder@ATL@@@1@@ 66210b78     SuperSaverOptionsShim.obj
 0003:00000c08       ??_7?$CComContainedObject@VCAxHostWindow@ATL@@@ATL@@6BIDocHostUIHandler@@@ 66210c08     SuperSaverOptionsShim.obj
 0003:00000c50       ??_7?$CComContainedObject@VCAxHostWindow@ATL@@@ATL@@6BIAdviseSink@@@ 66210c50     SuperSaverOptionsShim.obj
 0003:00000c70       ??_7?$CComContainedObject@VCAxHostWindow@ATL@@@ATL@@6BIServiceProvider@@@ 66210c70     SuperSaverOptionsShim.obj
 0003:00000c80       ??_7?$CComContainedObject@VCAxHostWindow@ATL@@@ATL@@6B?$IObjectWithSiteImpl@VCAxHostWindow@ATL@@@1@@ 66210c80     SuperSaverOptionsShim.obj
 0003:00000c98       ??_7?$CComContainedObject@VCAxHostWindow@ATL@@@ATL@@6BIOleContainer@@@ 66210c98     SuperSaverOptionsShim.obj
 0003:00000cb0       ??_7?$CComContainedObject@VCAxHostWindow@ATL@@@ATL@@6BIOleControlSite@@@ 66210cb0     SuperSaverOptionsShim.obj
 0003:00000cd8       ??_7?$CComContainedObject@VCAxHostWindow@ATL@@@ATL@@6BIOleInPlaceSiteWindowless@@@ 66210cd8     SuperSaverOptionsShim.obj
 0003:00000d50       ??_7?$CComContainedObject@VCAxHostWindow@ATL@@@ATL@@6BIOleClientSite@@@ 66210d50     SuperSaverOptionsShim.obj
 0003:00000d74       ??_7?$CComContainedObject@VCAxHostWindow@ATL@@@ATL@@6BIAxWinHostWindowLic@@@ 66210d74     SuperSaverOptionsShim.obj
 0003:00000da0       ??_7?$CComContainedObject@VCAxHostWindow@ATL@@@ATL@@6B?$CWindowImpl@VCAxHostWindow@ATL@@VCWindow@2@V?$CWinTraits@$0FGAAAAAA@$0A@@2@@1@@ 66210da0     SuperSaverOptionsShim.obj
 0003:00000db4       ??_7?$CComObject@V?$CComEnum@UIEnumUnknown@@$1?_GUID_00000100_0000_0000_c000_000000000046@@3U__s_GUID@@BPAUIUnknown@@V?$_CopyInterface@UIUnknown@@@ATL@@VCComSingleThreadModel@6@@ATL@@@ATL@@6B@ 66210db4     SuperSaverOptionsShim.obj
 0003:00000dd4       ??_7IDTToolsOptionsPage@EnvDTE@@6B@ 66210dd4     SuperSaverOptionsShim.obj
 0003:00000e04       ??_7?$CComAggObject@VCSuperSaverOptionsShim@@@ATL@@6B@ 66210e04     SuperSaverOptionsShim.obj
 0003:00000e14       ??_7?$CComObject@VCSuperSaverOptionsShim@@@ATL@@6B?$CAxDialogImpl@VCSuperSaverOptionsShim@@VCWindow@ATL@@@1@@ 66210e14     SuperSaverOptionsShim.obj
 0003:00000e28       ??_7?$CComObject@VCSuperSaverOptionsShim@@@ATL@@6BCComControlBase@1@@ 66210e28     SuperSaverOptionsShim.obj
 0003:00000e3c       ??_7?$CComObject@VCSuperSaverOptionsShim@@@ATL@@6B?$IProvideClassInfo2Impl@$1?CLSID_SuperSaverOptionsShim@@3U_GUID@@B$0A@$1?LIBID_SuperSaverShimLib@@3U2@B$00$0A@VCComTypeInfoHolder@ATL@@@1@@ 66210e3c     SuperSaverOptionsShim.obj
 0003:00000e50       ??_7?$CComObject@VCSuperSaverOptionsShim@@@ATL@@6B?$IDataObjectImpl@VCSuperSaverOptionsShim@@@1@@ 66210e50     SuperSaverOptionsShim.obj
 0003:00000e80       ??_7?$CComObject@VCSuperSaverOptionsShim@@@ATL@@6B?$IQuickActivateImpl@VCSuperSaverOptionsShim@@@1@@ 66210e80     SuperSaverOptionsShim.obj
 0003:00000e98       ??_7?$CComObject@VCSuperSaverOptionsShim@@@ATL@@6B?$ISpecifyPropertyPagesImpl@VCSuperSaverOptionsShim@@@1@@ 66210e98     SuperSaverOptionsShim.obj
 0003:00000ea8       ??_7?$CComObject@VCSuperSaverOptionsShim@@@ATL@@6B?$IPersistStorageImpl@VCSuperSaverOptionsShim@@@1@@ 66210ea8     SuperSaverOptionsShim.obj
 0003:00000ed0       ??_7?$CComObject@VCSuperSaverOptionsShim@@@ATL@@6BISupportErrorInfo@@@ 66210ed0     SuperSaverOptionsShim.obj
 0003:00000ee0       ??_7?$CComObject@VCSuperSaverOptionsShim@@@ATL@@6B?$IOleInPlaceObjectWindowlessImpl@VCSuperSaverOptionsShim@@@1@@ 66210ee0     SuperSaverOptionsShim.obj
 0003:00000f0c       ??_7?$CComObject@VCSuperSaverOptionsShim@@@ATL@@6B?$IViewObjectExImpl@VCSuperSaverOptionsShim@@@1@@ 66210f0c     SuperSaverOptionsShim.obj
 0003:00000f48       ??_7?$CComObject@VCSuperSaverOptionsShim@@@ATL@@6B?$IOleInPlaceActiveObjectImpl@VCSuperSaverOptionsShim@@@1@@ 66210f48     SuperSaverOptionsShim.obj
 0003:00000f70       ??_7?$CComObject@VCSuperSaverOptionsShim@@@ATL@@6B?$IOleObjectImpl@VCSuperSaverOptionsShim@@@1@@ 66210f70     SuperSaverOptionsShim.obj
 0003:00000fd0       ??_7?$CComObject@VCSuperSaverOptionsShim@@@ATL@@6B?$IOleControlImpl@VCSuperSaverOptionsShim@@@1@@ 66210fd0     SuperSaverOptionsShim.obj
 0003:00000fec       ??_7?$CComObject@VCSuperSaverOptionsShim@@@ATL@@6B?$IPersistStreamInitImpl@VCSuperSaverOptionsShim@@@1@@ 66210fec     SuperSaverOptionsShim.obj
 0003:00001010       ??_7?$CComObject@VCSuperSaverOptionsShim@@@ATL@@6B?$IDispatchImpl@UIDTToolsOptionsPage@EnvDTE@@$1?IID_IDTToolsOptionsPage@2@3U_GUID@@B$1?LIBID_EnvDTE@2@3U4@B$06$0A@VCComTypeInfoHolder@ATL@@@1@@ 66211010     SuperSaverOptionsShim.obj
 0003:00001044       ??_7?$CComObject@VCAxUIWindow@ATL@@@ATL@@6BIOleInPlaceUIWindow@@@ 66211044     SuperSaverOptionsShim.obj
 0003:00001068       ??_7?$CComObject@VCAxUIWindow@ATL@@@ATL@@6B?$CWindowImpl@VCAxUIWindow@ATL@@VCWindow@2@V?$CWinTraits@$0FGAAAAAA@$0A@@2@@1@@ 66211068     SuperSaverOptionsShim.obj
 0003:00001078       ??_7?$CComCompositeControl@VCSuperSaverOptionsShim@@@ATL@@6B?$CAxDialogImpl@VCSuperSaverOptionsShim@@VCWindow@ATL@@@1@@ 66211078     SuperSaverOptionsShim.obj
 0003:0000108c       ??_7?$CComCompositeControl@VCSuperSaverOptionsShim@@@ATL@@6BCComControlBase@1@@ 6621108c     SuperSaverOptionsShim.obj
 0003:000010a0       ??_7?$CComContainedObject@VCSuperSaverOptionsShim@@@ATL@@6B?$CAxDialogImpl@VCSuperSaverOptionsShim@@VCWindow@ATL@@@1@@ 662110a0     SuperSaverOptionsShim.obj
 0003:000010b4       ??_7?$CComContainedObject@VCSuperSaverOptionsShim@@@ATL@@6BCComControlBase@1@@ 662110b4     SuperSaverOptionsShim.obj
 0003:000010c8       ??_7?$CComContainedObject@VCSuperSaverOptionsShim@@@ATL@@6B?$IProvideClassInfo2Impl@$1?CLSID_SuperSaverOptionsShim@@3U_GUID@@B$0A@$1?LIBID_SuperSaverShimLib@@3U2@B$00$0A@VCComTypeInfoHolder@ATL@@@1@@ 662110c8     SuperSaverOptionsShim.obj
 0003:000010dc       ??_7?$CComContainedObject@VCSuperSaverOptionsShim@@@ATL@@6B?$IDataObjectImpl@VCSuperSaverOptionsShim@@@1@@ 662110dc     SuperSaverOptionsShim.obj
 0003:0000110c       ??_7?$CComContainedObject@VCSuperSaverOptionsShim@@@ATL@@6B?$IQuickActivateImpl@VCSuperSaverOptionsShim@@@1@@ 6621110c     SuperSaverOptionsShim.obj
 0003:00001124       ??_7?$CComContainedObject@VCSuperSaverOptionsShim@@@ATL@@6B?$ISpecifyPropertyPagesImpl@VCSuperSaverOptionsShim@@@1@@ 66211124     SuperSaverOptionsShim.obj
 0003:00001134       ??_7?$CComContainedObject@VCSuperSaverOptionsShim@@@ATL@@6B?$IPersistStorageImpl@VCSuperSaverOptionsShim@@@1@@ 66211134     SuperSaverOptionsShim.obj
 0003:0000115c       ??_7?$CComContainedObject@VCSuperSaverOptionsShim@@@ATL@@6BISupportErrorInfo@@@ 6621115c     SuperSaverOptionsShim.obj
 0003:0000116c       ??_7?$CComContainedObject@VCSuperSaverOptionsShim@@@ATL@@6B?$IOleInPlaceObjectWindowlessImpl@VCSuperSaverOptionsShim@@@1@@ 6621116c     SuperSaverOptionsShim.obj
 0003:00001198       ??_7?$CComContainedObject@VCSuperSaverOptionsShim@@@ATL@@6B?$IViewObjectExImpl@VCSuperSaverOptionsShim@@@1@@ 66211198     SuperSaverOptionsShim.obj
 0003:000011d4       ??_7?$CComContainedObject@VCSuperSaverOptionsShim@@@ATL@@6B?$IOleInPlaceActiveObjectImpl@VCSuperSaverOptionsShim@@@1@@ 662111d4     SuperSaverOptionsShim.obj
 0003:00001200       ??_7?$CComContainedObject@VCSuperSaverOptionsShim@@@ATL@@6B?$IOleObjectImpl@VCSuperSaverOptionsShim@@@1@@ 66211200     SuperSaverOptionsShim.obj
 0003:00001260       ??_7?$CComContainedObject@VCSuperSaverOptionsShim@@@ATL@@6B?$IOleControlImpl@VCSuperSaverOptionsShim@@@1@@ 66211260     SuperSaverOptionsShim.obj
 0003:0000127c       ??_7?$CComContainedObject@VCSuperSaverOptionsShim@@@ATL@@6B?$IPersistStreamInitImpl@VCSuperSaverOptionsShim@@@1@@ 6621127c     SuperSaverOptionsShim.obj
 0003:000012a0       ??_7?$CComContainedObject@VCSuperSaverOptionsShim@@@ATL@@6B?$IDispatchImpl@UIDTToolsOptionsPage@EnvDTE@@$1?IID_IDTToolsOptionsPage@2@3U_GUID@@B$1?LIBID_EnvDTE@2@3U4@B$06$0A@VCComTypeInfoHolder@ATL@@@1@@ 662112a0     SuperSaverOptionsShim.obj
 0003:000012d4       ?_entries@?1??_GetEntries@?$CComEnum@UIEnumUnknown@@$1?_GUID_00000100_0000_0000_c000_000000000046@@3U__s_GUID@@BPAUIUnknown@@V?$_CopyInterface@UIUnknown@@@ATL@@VCComSingleThreadModel@6@@ATL@@SGPBU_ATL_INTMAP_ENTRY@3@XZ@4QBU43@B 662112d4     SuperSaverOptionsShim.obj
 0003:000012ec       __GUID_00000100_0000_0000_c000_000000000046 662112ec     SuperSaverOptionsShim.obj
 0003:000012fc       ??_C@_1CM@JLHALFCJ@?$AAA?$AAT?$AAL?$AA?5?$AAC?$AAo?$AAm?$AAp?$AAo?$AAs?$AAi?$AAt?$AAe?$AA?5?$AAC?$AAo?$AAn?$AAt?$AAr?$AAo@ 662112fc     SuperSaverOptionsShim.obj
 0003:00001328       ??_C@_1BC@ENICKDH@?$AAC?$AAo?$AAn?$AAt?$AAe?$AAn?$AAt?$AAs?$AA?$AA@ 66211328     SuperSaverOptionsShim.obj
 0003:0000133c       ??_C@_1BM@PFJJOBHC@?$AAA?$AAt?$AAl?$AAA?$AAx?$AAW?$AAi?$AAn?$AAL?$AAi?$AAc?$AA7?$AA1?$AA?$AA@ 6621133c     SuperSaverOptionsShim.obj
 0003:00001358       ??_C@_1BC@NCJMKIKC@?$AAf?$AAi?$AAl?$AAe?$AA?3?$AA?1?$AA?1?$AA?1?$AA?$AA@ 66211358     SuperSaverOptionsShim.obj
 0003:0000136c       ??_C@_1BC@FNIEGDMB@?$AAC?$AAo?$AAd?$AAe?$AAB?$AAa?$AAs?$AAe?$AA?$AA@ 6621136c     SuperSaverOptionsShim.obj
 0003:00001380       ??_C@_1M@OAHBGIFG@?$AAC?$AAl?$AAa?$AAs?$AAs?$AA?$AA@ 66211380     SuperSaverOptionsShim.obj
 0003:00001390       ??_C@_1HI@KCOGDPIO@?$AAC?$AAL?$AAS?$AAI?$AAD?$AA?2?$AA?$HL?$AA0?$AAB?$AA4?$AAF?$AA0?$AA8?$AAD?$AA8?$AA?9?$AAE?$AAA?$AA8?$AA9@ 66211390     SuperSaverOptionsShim.obj
 0003:00001408       __GUID_4608fa89_1b8c_4ae0_9940_f2f35c834480 66211408     SuperSaverOptionsShim.obj
 0003:00001418       ??_C@_17IOIMFDBO@?$AA_?$AAc?$AAy?$AA?$AA@ 66211418     SuperSaverOptionsShim.obj
 0003:00001420       ??_C@_17DGDADEHL@?$AA_?$AAc?$AAx?$AA?$AA@ 66211420     SuperSaverOptionsShim.obj
 0003:00001428       ?_entries@?1??_GetEntries@CSuperSaverOptionsShim@@SGPBU_ATL_INTMAP_ENTRY@ATL@@XZ@4QBU34@B 66211428     SuperSaverOptionsShim.obj
 0003:00001524       __GUID_a6bc3ac0_dbaa_11ce_9de3_00aa004bb851 66211524     SuperSaverOptionsShim.obj
 0003:00001534       __GUID_b196b283_bab4_101a_b69c_00aa00341d07 66211534     SuperSaverOptionsShim.obj
 0003:00001544       __GUID_0000010e_0000_0000_c000_000000000046 66211544     SuperSaverOptionsShim.obj
 0003:00001554       __GUID_0000010a_0000_0000_c000_000000000046 66211554     SuperSaverOptionsShim.obj
 0003:00001564       __GUID_cf51ed10_62fe_11cf_bf86_00a0c9034836 66211564     SuperSaverOptionsShim.obj
 0003:00001574       __GUID_b196b28b_bab4_101a_b69c_00aa00341d07 66211574     SuperSaverOptionsShim.obj
 0003:00001584       __GUID_df0b3d60_548f_101b_8e65_08002b2bd119 66211584     SuperSaverOptionsShim.obj
 0003:00001594       __GUID_0000010c_0000_0000_c000_000000000046 66211594     SuperSaverOptionsShim.obj
 0003:000015a4       __GUID_7fd52380_4e07_101b_ae2d_08002b2ec713 662115a4     SuperSaverOptionsShim.obj
 0003:000015b4       __GUID_00000112_0000_0000_c000_000000000046 662115b4     SuperSaverOptionsShim.obj
 0003:000015c4       __GUID_b196b288_bab4_101a_b69c_00aa00341d07 662115c4     SuperSaverOptionsShim.obj
 0003:000015d4       __GUID_00000117_0000_0000_c000_000000000046 662115d4     SuperSaverOptionsShim.obj
 0003:000015e4       __GUID_00000113_0000_0000_c000_000000000046 662115e4     SuperSaverOptionsShim.obj
 0003:000015f4       __GUID_1c2056cc_5ef4_101b_8bc8_00aa003e3b29 662115f4     SuperSaverOptionsShim.obj
 0003:00001604       __GUID_0000010d_0000_0000_c000_000000000046 66211604     SuperSaverOptionsShim.obj
 0003:00001614       __GUID_00000127_0000_0000_c000_000000000046 66211614     SuperSaverOptionsShim.obj
 0003:00001624       __GUID_3af24292_0c96_11ce_a0cf_00aa00600ab8 66211624     SuperSaverOptionsShim.obj
 0003:00001634       ??_C@_15KNBIKKIN@?$AA?$CF?$AAd?$AA?$AA@ 66211634     SuperSaverOptionsShim.obj
 0003:0000163c       ??_C@_1BA@COHBFLAK@?$AAO?$AAL?$AAE?$AAM?$AAI?$AAS?$AAC?$AA?$AA@ 6621163c     SuperSaverOptionsShim.obj
 0003:0000164c       ??_C@_1BA@PICGEGJB@?$AAD?$AAI?$AAS?$AAP?$AAL?$AAA?$AAY?$AA?$AA@ 6621164c     SuperSaverOptionsShim.obj
 0003:0000165c       ??_C@_1BE@DOFEADIM@?$AAA?$AAT?$AAL?$AA?3?$AA?$CF?$AA8?$AA?4?$AA8?$AAX?$AA?$AA@ 6621165c     SuperSaverOptionsShim.obj
 0003:00001670       ??_C@_1CC@NLKMIAFC@?$AAW?$AAM?$AA_?$AAA?$AAT?$AAL?$AAG?$AAE?$AAT?$AAC?$AAO?$AAN?$AAT?$AAR?$AAO?$AAL?$AA?$AA@ 66211670     SuperSaverOptionsShim.obj
 0003:00001694       ??_C@_1BM@JBPKDEJM@?$AAW?$AAM?$AA_?$AAA?$AAT?$AAL?$AAG?$AAE?$AAT?$AAH?$AAO?$AAS?$AAT?$AA?$AA@ 66211694     SuperSaverOptionsShim.obj
 0003:000016b0       ??_C@_1M@IJFAIKMG@?$AAA?$AAX?$AAW?$AAI?$AAN?$AA?$AA@ 662116b0     SuperSaverOptionsShim.obj
 0003:000016bc       ??_C@_1BG@FIBFEEFK@?$AAA?$AAt?$AAl?$AAA?$AAx?$AAW?$AAi?$AAn?$AA7?$AA1?$AA?$AA@ 662116bc     SuperSaverOptionsShim.obj
 0003:000016d8       ?_entries@?1??_GetEntries@CAxHostWindow@ATL@@SGPBU_ATL_INTMAP_ENTRY@3@XZ@4QBU43@B 662116d8     SuperSaverOptionsShim.obj
 0003:000017a4       __GUID_0000010f_0000_0000_c000_000000000046 662117a4     SuperSaverOptionsShim.obj
 0003:000017b4       __GUID_bd3f23c0_d43e_11cf_893b_00aa00bdce1a 662117b4     SuperSaverOptionsShim.obj
 0003:000017c4       __GUID_b6ea2051_048a_11d1_82b9_00c04fb9942e 662117c4     SuperSaverOptionsShim.obj
 0003:000017d4       __GUID_b2d0778b_ac99_4c58_a5c8_e7724e5316b5 662117d4     SuperSaverOptionsShim.obj
 0003:000017e4       __GUID_6d5140c1_7436_11ce_8034_00aa006009fa 662117e4     SuperSaverOptionsShim.obj
 0003:000017f4       __GUID_fc4801a3_2ba9_11cf_a229_00aa003d7352 662117f4     SuperSaverOptionsShim.obj
 0003:00001804       __GUID_0000011b_0000_0000_c000_000000000046 66211804     SuperSaverOptionsShim.obj
 0003:00001814       __GUID_b196b289_bab4_101a_b69c_00aa00341d07 66211814     SuperSaverOptionsShim.obj
 0003:00001824       __GUID_00000119_0000_0000_c000_000000000046 66211824     SuperSaverOptionsShim.obj
 0003:00001834       __GUID_9c2cad80_3424_11cf_b670_00aa004cd6d8 66211834     SuperSaverOptionsShim.obj
 0003:00001844       __GUID_922eada0_3424_11cf_b670_00aa004cd6d8 66211844     SuperSaverOptionsShim.obj
 0003:00001854       __GUID_00000118_0000_0000_c000_000000000046 66211854     SuperSaverOptionsShim.obj
 0003:00001864       __GUID_3935bda8_4ed9_495c_8650_e01fc1e38a4b 66211864     SuperSaverOptionsShim.obj
 0003:00001874       __GUID_b6ea2050_048a_11d1_82b9_00c04fb9942e 66211874     SuperSaverOptionsShim.obj
 0003:00001884       _IID_IDispatch             66211884     uuid:oaidl_i.obj
 0003:00001884       __GUID_00020400_0000_0000_c000_000000000046 66211884     SuperSaverOptionsShim.obj
 0003:00001894       ??_C@_1CA@DCFIAPHF@?$AAA?$AAX?$AAW?$AAI?$AAN?$AA?5?$AAU?$AAI?$AA?5?$AAW?$AAi?$AAn?$AAd?$AAo?$AAw?$AA?$AA@ 66211894     SuperSaverOptionsShim.obj
 0003:000018b4       ?_entries@?1??_GetEntries@CAxUIWindow@ATL@@SGPBU_ATL_INTMAP_ENTRY@3@XZ@4QBU43@B 662118b4     SuperSaverOptionsShim.obj
 0003:000018d8       ??_C@_1CG@HJNEDPEL@?$AAA?$AAX?$AAW?$AAI?$AAN?$AA?5?$AAF?$AAr?$AAa?$AAm?$AAe?$AA?5?$AAW?$AAi?$AAn?$AAd?$AAo?$AAw?$AA?$AA@ 662118d8     SuperSaverOptionsShim.obj
 0003:00001900       ?_entries@?1??_GetEntries@CAxFrameWindow@ATL@@SGPBU_ATL_INTMAP_ENTRY@3@XZ@4QBU43@B 66211900     SuperSaverOptionsShim.obj
 0003:00001930       __GUID_00000114_0000_0000_c000_000000000046 66211930     SuperSaverOptionsShim.obj
 0003:00001940       __GUID_00000115_0000_0000_c000_000000000046 66211940     SuperSaverOptionsShim.obj
 0003:00001950       __GUID_00000116_0000_0000_c000_000000000046 66211950     SuperSaverOptionsShim.obj
 0003:00001960       ??_C@_13EBCNDICG@?$AA?3?$AA?$AA@ 66211960     SuperSaverOptionsShim.obj
 0003:00001964       ??_C@_1BK@GNOGOAOP@?$AAC?$AAO?$AAM?$AAC?$AAT?$AAL?$AA3?$AA2?$AA?4?$AAD?$AAL?$AAL?$AA?$AA@ 66211964     SuperSaverOptionsShim.obj
 0003:00001980       ??_C@_1GK@BCKENLDE@?$AAA?$AAB?$AAC?$AAD?$AAE?$AAF?$AAG?$AAH?$AAI?$AAJ?$AAK?$AAL?$AAM?$AAN?$AAO?$AAP?$AAQ?$AAR?$AAS?$AAT@ 66211980     SuperSaverOptionsShim.obj
 0003:000019ec       ??_C@_1O@PGKMPIBK@?$AA?$CD?$AA3?$AA2?$AA7?$AA7?$AA0?$AA?$AA@ 662119ec     SuperSaverOptionsShim.obj
 0003:000019fc       __GUID_0002e012_0000_0000_c000_000000000046 662119fc     SuperSaverShim.obj
 0003:00001a0c       __GUID_00000146_0000_0000_c000_000000000046 66211a0c     SuperSaverShim.obj
 0003:00001a1c       ??_C@_1M@PPPPCDEP@?$AAA?$AAP?$AAP?$AAI?$AAD?$AA?$AA@ 66211a1c     SuperSaverShim.obj
 0003:00001a28       ??_C@_1DA@BIHALFED@?$AA?2?$AAI?$AAm?$AAp?$AAl?$AAe?$AAm?$AAe?$AAn?$AAt?$AAe?$AAd?$AA?5?$AAC?$AAa?$AAt?$AAe?$AAg?$AAo?$AAr@ 66211a28     SuperSaverShim.obj
 0003:00001a58       ??_C@_1CK@IFBKBFAA@?$AA?2?$AAR?$AAe?$AAq?$AAu?$AAi?$AAr?$AAe?$AAd?$AA?5?$AAC?$AAa?$AAt?$AAe?$AAg?$AAo?$AAr?$AAi?$AAe?$AAs@ 66211a58     SuperSaverShim.obj
 0003:00001a84       ??_C@_1O@FHBGLCIO@?$AAC?$AAL?$AAS?$AAI?$AAD?$AA?2?$AA?$AA@ 66211a84     SuperSaverShim.obj
 0003:00001a94       ??_C@_19ILOCMLCJ@?$AA?4?$AAt?$AAl?$AAb?$AA?$AA@ 66211a94     SuperSaverShim.obj
 0003:00001aa0       ??_7CSuperSaverShimModule@@6B@ 66211aa0     SuperSaverShim.obj
 0003:00001ab8       ??_C@_1EO@OGFOPKHN@?$AA?$HL?$AA9?$AA5?$AA5?$AAD?$AAD?$AA0?$AA9?$AA6?$AA?9?$AA8?$AA3?$AA6?$AA4?$AA?9?$AA4?$AA8?$AA9?$AA4?$AA?9@ 66211ab8     SuperSaverShim.obj
 0003:00001b18       __load_config_used         66211b18     MSVCRT:loadcfg.obj
 0003:00001ba8       ??_R1A@?0A@A@type_info@@8  66211ba8     MSVCRT:ti_inst.obj
 0003:00001bc0       ??_R2type_info@@8          66211bc0     MSVCRT:ti_inst.obj
 0003:00001bc8       ??_R3type_info@@8          66211bc8     MSVCRT:ti_inst.obj
 0003:00001bd8       ??_R4type_info@@6B@        66211bd8     MSVCRT:ti_inst.obj
 0003:00001bf0       ___safe_se_handler_table   66211bf0     <linker-defined>
 0003:00001cd0       ___rtc_iaa                 66211cd0     MSVCRT:initsect.obj
 0003:00001cd4       ___rtc_izz                 66211cd4     MSVCRT:initsect.obj
 0003:00001cd8       ___rtc_taa                 66211cd8     MSVCRT:initsect.obj
 0003:00001cdc       ___rtc_tzz                 66211cdc     MSVCRT:initsect.obj
 0003:00001ce0       __TI1?AVCAtlException@ATL@@ 66211ce0     SuperSaverOptionsShim.obj
 0003:00001cf0       __CTA1?AVCAtlException@ATL@@ 66211cf0     SuperSaverOptionsShim.obj
 0003:00001cf8       __CT??_R0?AVCAtlException@ATL@@@84 66211cf8     SuperSaverOptionsShim.obj
 0003:00002958       ___pobjMapEntryFirst       66212958     stdafx.obj
 0003:0000295c       ___pobjMap_CSuperSaverOptionsShim 6621295c     SuperSaverOptionsShim.obj
 0003:00002960       ___pobjMapEntryLast        66212960     stdafx.obj
 0003:00002964       __IMPORT_DESCRIPTOR_mscoree 66212964     mscoree:mscoree.dll
 0003:00002978       __IMPORT_DESCRIPTOR_KERNEL32 66212978     kernel32:KERNEL32.dll
 0003:0000298c       __IMPORT_DESCRIPTOR_USER32 6621298c     user32:USER32.dll
 0003:000029a0       __IMPORT_DESCRIPTOR_GDI32  662129a0     gdi32:GDI32.dll
 0003:000029b4       __IMPORT_DESCRIPTOR_ADVAPI32 662129b4     advapi32:ADVAPI32.dll
 0003:000029c8       __IMPORT_DESCRIPTOR_ole32  662129c8     ole32:ole32.dll
 0003:000029dc       __IMPORT_DESCRIPTOR_OLEAUT32 662129dc     oleaut32:OLEAUT32.dll
 0003:000029f0       __IMPORT_DESCRIPTOR_RPCRT4 662129f0     rpcrt4:RPCRT4.dll
 0003:00002a04       __IMPORT_DESCRIPTOR_MSVCR71 66212a04     MSVCRT:MSVCR71.dll
 0003:00002a18       __IMPORT_DESCRIPTOR_SHLWAPI 66212a18     shlwapi:SHLWAPI.dll
 0003:00002a2c       __NULL_IMPORT_DESCRIPTOR   66212a2c     mscoree:mscoree.dll
 0004:00000000       ___xc_a                    66214000     MSVCRT:cinitexe.obj
 0004:00000018       ___xc_z                    66214018     MSVCRT:cinitexe.obj
 0004:0000001c       ___xi_a                    6621401c     MSVCRT:cinitexe.obj
 0004:00000020       ___xi_z                    66214020     MSVCRT:cinitexe.obj
 0004:00000030       ??_R0?AVtype_info@@@8      66214030     MSVCRT:ti_inst.obj
 0004:00000048       ___security_cookie         66214048     MSVCRT:seccook.obj
 0004:0000004c       __ISuperSaverOptionsShimProxyVtbl 6621404c     dlldatax.obj
 0004:00000070       __SuperSaverShim_ProxyVtblList 66214070     dlldatax.obj
 0004:00000078       __ISuperSaverOptionsShimStubVtbl 66214078     dlldatax.obj
 0004:000000b0       __SuperSaverShim_StubVtblList 662140b0     dlldatax.obj
 0004:000000b8       __SuperSaverShim_BaseIIDList 662140b8     dlldatax.obj
 0004:000000c0       _aProxyFileList            662140c0     dlldatax.obj
 0004:000000dc       ?k_HOSTCLSID@@3PBGB        662140dc     SuperSaverOptionsShim.obj
 0004:000000e0       ?g_pfnGetThreadACP@ATL@@3P6GIXZA 662140e0     stdafx.obj
 0004:000000e4       ??_R0?AVCAtlException@ATL@@@8 662140e4     SuperSaverOptionsShim.obj
 0004:00000104       ?_tih@?$IProvideClassInfo2Impl@$1?CLSID_SuperSaverOptionsShim@@3U_GUID@@B$0A@$1?LIBID_SuperSaverShimLib@@3U2@B$00$0A@VCComTypeInfoHolder@ATL@@@ATL@@1VCComTypeInfoHolder@2@A 66214104     SuperSaverOptionsShim.obj
 0004:00000120       ?_tih@?$IDispatchImpl@UIDTToolsOptionsPage@EnvDTE@@$1?IID_IDTToolsOptionsPage@2@3U_GUID@@B$1?LIBID_EnvDTE@2@3U4@B$06$0A@VCComTypeInfoHolder@ATL@@@ATL@@1VCComTypeInfoHolder@2@A 66214120     SuperSaverOptionsShim.obj
 0004:0000013c       ?_tih@?$IDispatchImpl@UIAxWinAmbientDispatchEx@@$1?_GUID_b2d0778b_ac99_4c58_a5c8_e7724e5316b5@@3U__s_GUID@@B$1?m_libid@CAtlModule@ATL@@2U_GUID@@A$0PPPP@$0PPPP@VCComTypeInfoHolder@ATL@@@ATL@@1VCComTypeInfoHolder@2@A 6621413c     SuperSaverOptionsShim.obj
 0004:00000158       ?wc@?1??GetWndClassInfo@?$CWindowImpl@VCAxUIWindow@ATL@@VCWindow@2@V?$CWinTraits@$0FGAAAAAA@$0A@@2@@ATL@@SAAAU_ATL_WNDCLASSINFOW@3@XZ@4U43@A 66214158     SuperSaverOptionsShim.obj
 0004:000001e8       ?wc@?1??GetWndClassInfo@?$CWindowImpl@VCAxFrameWindow@ATL@@VCWindow@2@V?$CWinTraits@$0FGAAAAAA@$0A@@2@@ATL@@SAAAU_ATL_WNDCLASSINFOW@3@XZ@4U43@A 662141e8     SuperSaverOptionsShim.obj
 0004:00000274       ?vszContents@?6??Save@?$IPersistStorageImpl@VCSuperSaverOptionsShim@@@ATL@@UAGJPAUIStorage@@H@Z@4PBGB 66214274     SuperSaverOptionsShim.obj
 0004:00000278       ?__objMap_CSuperSaverOptionsShim@@3U_ATL_OBJMAP_ENTRY30@ATL@@A 66214278     SuperSaverOptionsShim.obj
 0004:0000029c       ?arr@?1??InterfaceSupportsErrorInfo@CSuperSaverOptionsShim@@UAGJABU_GUID@@@Z@4PAPBU3@A 6621429c     SuperSaverOptionsShim.obj
 0004:000002a0       ?pPropMap@?1??GetPropertyMap@CSuperSaverOptionsShim@@SAPAUATL_PROPMAP_ENTRY@ATL@@XZ@4PAU34@A 662142a0     SuperSaverOptionsShim.obj
 0004:000002f4       ?m_dwOleMisc@?1??_GetMiscStatus@CSuperSaverOptionsShim@@SAKXZ@4KA 662142f4     SuperSaverOptionsShim.obj
 0004:000002f8       ?rcDefault@CWindow@ATL@@2UtagRECT@@A 662142f8     SuperSaverOptionsShim.obj
 0004:00000314       ?_AtlBaseModule@ATL@@3VCAtlBaseModule@1@A 66214314     atls:atlbase.obj
 0004:00000350       ?_AtlComModule@ATL@@3VCAtlComModule@1@A 66214350     atls:atlcommodule.obj
 0004:00000378       _gPFactory                 66214378     dlldatax.obj
 0004:00000388       _hProxyDll                 66214388     dlldatax.obj
 0004:0000038c       ?_AtlModule@@3VCSuperSaverShimModule@@A 6621438c     SuperSaverShim.obj
 0004:000003b8       ?m_libid@CAtlModule@ATL@@2U_GUID@@A 662143b8     stdafx.obj
 0004:000003c8       ?_pAtlModule@ATL@@3PAVCAtlModule@1@A 662143c8     stdafx.obj
 0004:000003cc       ?_pPerfUnRegFunc@ATL@@3P6AJXZA 662143cc     stdafx.obj
 0004:000003d0       ?_pPerfRegFunc@ATL@@3P6AJPAUHINSTANCE__@@@ZA 662143d0     stdafx.obj
 0004:000003d4       ?m_bInitFailed@CAtlBaseModule@ATL@@2_NA 662143d4     stdafx.obj
 0004:000003d8       ?map@?2??VTFromRegType@CRegParser@ATL@@KAHPBGAAG@Z@4QBUtypemap@23@B 662143d8     SuperSaverOptionsShim.obj
 0004:000003f8       ?map@?1??_GetSinkMap@CSuperSaverOptionsShim@@SAPBU?$_ATL_EVENT_ENTRY@VCSuperSaverOptionsShim@@@ATL@@XZ@4QBU34@B 662143f8     SuperSaverOptionsShim.obj
 0004:00000418       ?WM_ATLGETCONTROL@ATL@@3IA 66214418     SuperSaverOptionsShim.obj
 0004:0000041c       ?WM_ATLGETHOST@ATL@@3IA    6621441c     SuperSaverOptionsShim.obj
 0004:00000420       ?$S4@?2??VTFromRegType@CRegParser@ATL@@KAHPBGAAG@Z@4IA 66214420     SuperSaverOptionsShim.obj
 0004:00000424       ?$S5@?1??_GetSinkMap@CSuperSaverOptionsShim@@SAPBU?$_ATL_EVENT_ENTRY@VCSuperSaverOptionsShim@@@ATL@@XZ@4IA 66214424     SuperSaverOptionsShim.obj
 0004:00000428       ?_AtlWinModule@ATL@@3VCAtlWinModule@1@A 66214428     stdafx.obj
 0004:00000454       __adjust_fdiv              66214454     <common>
 0004:00000458       __pRawDllMain              66214458     <common>
 0004:0000045c       ___onexitend               6621445c     <common>
 0004:00000460       ___onexitbegin             66214460     <common>

 entry point at        0001:0000cf98

 Static symbols

 0001:00000b63       ?CreateNormalizedObject@ATL@@YAJPBGABU_GUID@@PAPAXAA_NPAG@Z 66201b63 f   SuperSaverOptionsShim.obj
 0001:00002ebd       $L170670                   66203ebd f i  CIL library: CIL module
 0001:0000348f       ?AtlAxWindowProc@ATL@@YGJPAUHWND__@@IIJ@Z 6620448f f   SuperSaverOptionsShim.obj
 0001:0000366b       ?AtlAxWindowProc2@ATL@@YGJPAUHWND__@@IIJ@Z 6620466b f   SuperSaverOptionsShim.obj
 0001:00005ccb       $L175203                   66206ccb f i  CIL library: CIL module
 0001:00006f82       $L174712                   66207f82 f i  CIL library: CIL module
 0001:00007c48       $L178115                   66208c48 f i  CIL library: CIL module
 0001:00007cfc       $L178072                   66208cfc f i  CIL library: CIL module
 0001:0000870d       $L173949                   6620970d f i  CIL library: CIL module
 0001:00008782       $L176524                   66209782 f i  CIL library: CIL module
 0001:000089e0       $L167817                   662099e0 f i  CIL library: CIL module
 0001:00008f07       $L173634                   66209f07 f i  CIL library: CIL module
 0001:0000a366       $L173297                   6620b366 f i  CIL library: CIL module
 0001:0000a47a       $L173245                   6620b47a f i  CIL library: CIL module
 0001:0000aa31       $L162913                   6620ba31 f i  CIL library: CIL module
 0001:0000aa62       $L162915                   6620ba62 f i  CIL library: CIL module
 0001:0000ac5e       $L173132                   6620bc5e f i  CIL library: CIL module
 0001:0000b8e7       $L172573                   6620c8e7 f i  CIL library: CIL module
 0001:0000b9c1       $L172575                   6620c9c1 f i  CIL library: CIL module
 0001:0000caf5       ?AtlGetDirLen@ATL@@YGIPBG@Z 6620daf5 f   SuperSaverShim.obj
 0001:0000d2f0       _report_failure            6620e2f0 f   MSVCRT:secchk.obj
 0001:0000d41d       __ehhandler$?Add@CExpansionVector@ATL@@QAEHPBG0@Z 6620e41d f    CIL library: CIL module
 0001:0000d427       $L166337                   6620e427 f    CIL library: CIL module
 0001:0000d42f       __ehhandler$?CreateNormalizedObject@ATL@@YAJPBGABU_GUID@@PAPAXAA_NPAG@Z 6620e42f f    CIL library: CIL module
 0001:0000d439       $L167180                   6620e439 f    CIL library: CIL module
 0001:0000d441       __ehhandler$?ReadFromStream@CComVariant@ATL@@QAEJPAUIStream@@@Z 6620e441 f    CIL library: CIL module
 0001:0000d44b       $L175008                   6620e44b f    CIL library: CIL module
 0001:0000d44b       $L167288                   6620e44b f    CIL library: CIL module
 0001:0000d44b       $L171112                   6620e44b f    CIL library: CIL module
 0001:0000d44b       $L177376                   6620e44b f    CIL library: CIL module
 0001:0000d453       __ehhandler$?OnMouseActivate@CAxHostWindow@ATL@@QAEJIIJAAH@Z 6620e453 f    CIL library: CIL module
 0001:0000d453       __ehhandler$?WriteToStream@CComVariant@ATL@@QAEJPAUIStream@@@Z 6620e453 f    CIL library: CIL module
 0001:0000d453       __ehhandler$?TranslateAcceleratorW@?$IOleInPlaceActiveObjectImpl@VCSuperSaverOptionsShim@@@ATL@@UAGJPAUtagMSG@@@Z 6620e453 f    CIL library: CIL module
 0001:0000d453       __ehhandler$?BackgroundColorEnumProc@?$CComCompositeControl@VCSuperSaverOptionsShim@@@ATL@@SGHPAUHWND__@@J@Z 6620e453 f    CIL library: CIL module
 0001:0000d45d       $L168427                   6620e45d f    CIL library: CIL module
 0001:0000d45d       $L167109                   6620e45d f    CIL library: CIL module
 0001:0000d45d       $L171009                   6620e45d f    CIL library: CIL module
 0001:0000d45d       $L168526                   6620e45d f    CIL library: CIL module
 0001:0000d45d       $L176006                   6620e45d f    CIL library: CIL module
 0001:0000d45d       $L171063                   6620e45d f    CIL library: CIL module
 0001:0000d45d       $L174968                   6620e45d f    CIL library: CIL module
 0001:0000d45d       $L165203                   6620e45d f    CIL library: CIL module
 0001:0000d45d       $L174932                   6620e45d f    CIL library: CIL module
 0001:0000d45d       $L170972                   6620e45d f    CIL library: CIL module
 0001:0000d45d       $L169103                   6620e45d f    CIL library: CIL module
 0001:0000d45d       $L167775                   6620e45d f    CIL library: CIL module
 0001:0000d45d       $L169157                   6620e45d f    CIL library: CIL module
 0001:0000d45d       $L169888                   6620e45d f    CIL library: CIL module
 0001:0000d465       __ehhandler$?IOleObject_Close@CComControlBase@ATL@@QAEJK@Z 6620e465 f    CIL library: CIL module
 0001:0000d465       __ehhandler$?IOleInPlaceObject_InPlaceDeactivate@CComControlBase@ATL@@QAEJXZ 6620e465 f    CIL library: CIL module
 0001:0000d465       __ehhandler$?CreateControlLic@CAxHostWindow@ATL@@UAGJPBGPAUHWND__@@PAUIStream@@PAG@Z 6620e465 f    CIL library: CIL module
 0001:0000d465       __ehhandler$?InitNew@?$IPersistStorageImpl@VCSuperSaverOptionsShim@@@ATL@@UAGJPAUIStorage@@@Z 6620e465 f    CIL library: CIL module
 0001:0000d465       __ehhandler$?SendOnDataChange@CComControlBase@ATL@@QAEJK@Z 6620e465 f    CIL library: CIL module
 0001:0000d465       __ehhandler$?CreateControl@CAxHostWindow@ATL@@UAGJPBGPAUHWND__@@PAUIStream@@@Z 6620e465 f    CIL library: CIL module
 0001:0000d465       __ehhandler$?IsDirty@?$IPersistStorageImpl@VCSuperSaverOptionsShim@@@ATL@@UAGJXZ 6620e465 f    CIL library: CIL module
 0001:0000d465       __ehhandler$?GetSize@CComVariant@ATL@@QBEKXZ 6620e465 f    CIL library: CIL module
 0001:0000d465       __ehhandler$?OnSetFocus@CAxHostWindow@ATL@@QAEJIIJAAH@Z 6620e465 f    CIL library: CIL module
 0001:0000d465       __ehhandler$?QueryHost@?$CAxWindowT@VCWindow@ATL@@@ATL@@QAEJABU_GUID@@PAPAX@Z 6620e465 f    CIL library: CIL module
 0001:0000d465       __ehhandler$?HostUserControl@CSuperSaverOptionsShim@@UAGJPAG0PAPAUIUnknown@@@Z 6620e465 f    CIL library: CIL module
 0001:0000d465       __ehhandler$?OnMouseActivate@CComControlBase@ATL@@QAEJIIJAAH@Z 6620e465 f    CIL library: CIL module
 0001:0000d465       __ehhandler$?FinalConstruct@CSuperSaverOptionsShim@@QAEJXZ 6620e465 f    CIL library: CIL module
 0001:0000d465       __ehhandler$?ReleaseAll@CAxHostWindow@ATL@@QAEXXZ 6620e465 f    CIL library: CIL module
 0001:0000d46f       __ehhandler$?Init@?$CComEnumImpl@UIEnumUnknown@@$1?_GUID_00000100_0000_0000_c000_000000000046@@3U__s_GUID@@BPAUIUnknown@@V?$_CopyInterface@UIUnknown@@@ATL@@@ATL@@QAEJPAPAUIUnknown@@0PAU3@W4CComEnumFlags@2@@Z 6620e46f f    CIL library: CIL module
 0001:0000d479       $L167851                   6620e479 f    CIL library: CIL module
 0001:0000d484       __ehhandler$??1?$CComEnumImpl@UIEnumUnknown@@$1?_GUID_00000100_0000_0000_c000_000000000046@@3U__s_GUID@@BPAUIUnknown@@V?$_CopyInterface@UIUnknown@@@ATL@@@ATL@@UAE@XZ 6620e484 f    CIL library: CIL module
 0001:0000d48e       $L168629                   6620e48e f    CIL library: CIL module
 0001:0000d499       $L168630                   6620e499 f    CIL library: CIL module
 0001:0000d4a4       $L168631                   6620e4a4 f    CIL library: CIL module
 0001:0000d4af       __ehhandler$?OnShowWindow@CSuperSaverOptionsShim@@QAEJIIJAAH@Z 6620e4af f    CIL library: CIL module
 0001:0000d4b9       $L168798                   6620e4b9 f    CIL library: CIL module
 0001:0000d4b9       $L168922                   6620e4b9 f    CIL library: CIL module
 0001:0000d4b9       $L168891                   6620e4b9 f    CIL library: CIL module
 0001:0000d4b9       $L168829                   6620e4b9 f    CIL library: CIL module
 0001:0000d4b9       $L170774                   6620e4b9 f    CIL library: CIL module
 0001:0000d4b9       $L168860                   6620e4b9 f    CIL library: CIL module
 0001:0000d4b9       $L171158                   6620e4b9 f    CIL library: CIL module
 0001:0000d4c1       __ehhandler$?OnForwardMsg@CAxHostWindow@ATL@@QAEJIIJAAH@Z 6620e4c1 f    CIL library: CIL module
 0001:0000d4c1       __ehhandler$?OnOK@CSuperSaverOptionsShim@@UAGJXZ 6620e4c1 f    CIL library: CIL module
 0001:0000d4c1       __ehhandler$?OnCancel@CSuperSaverOptionsShim@@UAGJXZ 6620e4c1 f    CIL library: CIL module
 0001:0000d4c1       __ehhandler$?FireAmbientPropertyChange@CAxHostWindow@ATL@@QAEJJ@Z 6620e4c1 f    CIL library: CIL module
 0001:0000d4c1       __ehhandler$?OnHelp@CSuperSaverOptionsShim@@UAGJXZ 6620e4c1 f    CIL library: CIL module
 0001:0000d4c1       __ehhandler$?GetProperties@CSuperSaverOptionsShim@@UAGJPAPAUIDispatch@@@Z 6620e4c1 f    CIL library: CIL module
 0001:0000d4c1       __ehhandler$?OnAfterCreated@CSuperSaverOptionsShim@@UAGJPAU_DTE@EnvDTE@@@Z 6620e4c1 f    CIL library: CIL module
 0001:0000d4cb       $L169020                   6620e4cb f    CIL library: CIL module
 0001:0000d4cb       $L174394                   6620e4cb f    CIL library: CIL module
 0001:0000d4d3       $L169021                   6620e4d3 f    CIL library: CIL module
 0001:0000d4d3       $L174395                   6620e4d3 f    CIL library: CIL module
 0001:0000d4db       __ehhandler$?IOleInPlaceObject_UIDeactivate@CComControlBase@ATL@@QAEJXZ 6620e4db f    CIL library: CIL module
 0001:0000d4db       __ehhandler$?IOleInPlaceObject_UIDeactivate@?$CComCompositeControl@VCSuperSaverOptionsShim@@@ATL@@QAEJXZ 6620e4db f    CIL library: CIL module
 0001:0000d4e5       $L169251                   6620e4e5 f    CIL library: CIL module
 0001:0000d4ed       $L169252                   6620e4ed f    CIL library: CIL module
 0001:0000d4f5       $L169253                   6620e4f5 f    CIL library: CIL module
 0001:0000d4fd       $L169254                   6620e4fd f    CIL library: CIL module
 0001:0000d505       __ehhandler$?InPlaceActivate@CComControlBase@ATL@@QAEJJPBUtagRECT@@@Z 6620e505 f    CIL library: CIL module
 0001:0000d50f       $L169568                   6620e50f f    CIL library: CIL module
 0001:0000d517       $L169569                   6620e517 f    CIL library: CIL module
 0001:0000d51f       $L169570                   6620e51f f    CIL library: CIL module
 0001:0000d527       $L169571                   6620e527 f    CIL library: CIL module
 0001:0000d52f       $L169572                   6620e52f f    CIL library: CIL module
 0001:0000d537       $L169573                   6620e537 f    CIL library: CIL module
 0001:0000d53f       $L169574                   6620e53f f    CIL library: CIL module
 0001:0000d547       __ehhandler$?IQuickActivate_QuickActivate@CComControlBase@ATL@@QAEJPAUtagQACONTAINER@@PAUtagQACONTROL@@@Z 6620e547 f    CIL library: CIL module
 0001:0000d551       $L169930                   6620e551 f    CIL library: CIL module
 0001:0000d559       __ehhandler$?OnKillFocus@CComControlBase@ATL@@QAEJIIJAAH@Z 6620e559 f    CIL library: CIL module
 0001:0000d563       $L169968                   6620e563 f    CIL library: CIL module
 0001:0000d56b       $L169969                   6620e56b f    CIL library: CIL module
 0001:0000d573       __ehhandler$?OnSetFocus@CComControlBase@ATL@@QAEJIIJAAH@Z 6620e573 f    CIL library: CIL module
 0001:0000d57d       $L170347                   6620e57d f    CIL library: CIL module
 0001:0000d585       $L170348                   6620e585 f    CIL library: CIL module
 0001:0000d58d       $L170349                   6620e58d f    CIL library: CIL module
 0001:0000d595       $L170350                   6620e595 f    CIL library: CIL module
 0001:0000d59d       $L170351                   6620e59d f    CIL library: CIL module
 0001:0000d5a5       $L170352                   6620e5a5 f    CIL library: CIL module
 0001:0000d5ad       $L170353                   6620e5ad f    CIL library: CIL module
 0001:0000d5b5       __ehhandler$?ActivateAx@CAxHostWindow@ATL@@QAEJPAUIUnknown@@_NPAUIStream@@@Z 6620e5b5 f    CIL library: CIL module
 0001:0000d5bf       __ehhandler$?EnumObjects@CAxHostWindow@ATL@@UAGJKPAPAUIEnumUnknown@@@Z 6620e5bf f    CIL library: CIL module
 0001:0000d5c9       $L170811                   6620e5c9 f    CIL library: CIL module
 0001:0000d5c9       $L170901                   6620e5c9 f    CIL library: CIL module
 0001:0000d5d1       __ehhandler$?GetDropTarget@CAxHostWindow@ATL@@UAGJPAUIDropTarget@@PAPAU3@@Z 6620e5d1 f    CIL library: CIL module
 0001:0000d5d1       __ehhandler$?FilterDataObject@CAxHostWindow@ATL@@UAGJPAUIDataObject@@PAPAU3@@Z 6620e5d1 f    CIL library: CIL module
 0001:0000d5db       $L170854                   6620e5db f    CIL library: CIL module
 0001:0000d5e3       $L170855                   6620e5e3 f    CIL library: CIL module
 0001:0000d5eb       __ehhandler$?TranslateUrl@CAxHostWindow@ATL@@UAGJKPAGPAPAG@Z 6620e5eb f    CIL library: CIL module
 0001:0000d5f5       $L170946                   6620e5f5 f    CIL library: CIL module
 0001:0000d5fd       __ehhandler$?TranslateAcceleratorW@CAxHostWindow@ATL@@UAGJPAUtagMSG@@PBU_GUID@@K@Z 6620e5fd f    CIL library: CIL module
 0001:0000d607       $L171226                   6620e607 f    CIL library: CIL module
 0001:0000d60f       __ehhandler$??1CAxHostWindow@ATL@@UAE@XZ 6620e60f f    CIL library: CIL module
 0001:0000d619       $L172207                   6620e619 f    CIL library: CIL module
 0001:0000d624       __ehhandler$?ParseInitData@_DialogSplitHelper@ATL@@SAJPAUIStream@@PAPAG@Z 6620e624 f    CIL library: CIL module
 0001:0000d62e       $L172576                   6620e62e f    CIL library: CIL module
 0001:0000d639       $L172578                   6620e639 f    CIL library: CIL module
 0001:0000d644       __ehhandler$?AddValue@CRegParser@ATL@@IAEJAAVCRegKey@2@PBGPAG@Z 6620e644 f    CIL library: CIL module
 0001:0000d64e       $L172669                   6620e64e f    CIL library: CIL module
 0001:0000d659       $L172671                   6620e659 f    CIL library: CIL module
 0001:0000d661       __ehhandler$?RegisterSubkeys@CRegParser@ATL@@IAEJPAGPAUHKEY__@@HH@Z 6620e661 f    CIL library: CIL module
 0001:0000d66b       $L173041                   6620e66b f    CIL library: CIL module
 0001:0000d673       __ehhandler$?PreProcessBuffer@CRegParser@ATL@@QAEJPAGPAPAG@Z 6620e673 f    CIL library: CIL module
 0001:0000d67d       $L173133                   6620e67d f    CIL library: CIL module
 0001:0000d688       $L173134                   6620e688 f    CIL library: CIL module
 0001:0000d693       __ehhandler$?RegisterFromResource@CRegObject@ATL@@IAEJPBG00H@Z 6620e693 f    CIL library: CIL module
 0001:0000d69d       $L173206                   6620e69d f    CIL library: CIL module
 0001:0000d6a5       __ehhandler$??1CExpansionVector@ATL@@QAE@XZ 6620e6a5 f    CIL library: CIL module
 0001:0000d6af       $L173246                   6620e6af f    CIL library: CIL module
 0001:0000d6b9       $L173247                   6620e6b9 f    CIL library: CIL module
 0001:0000d6c1       __ehhandler$?LoadNameCache@CComTypeInfoHolder@ATL@@QAEJPAUITypeInfo@@@Z 6620e6c1 f    CIL library: CIL module
 0001:0000d6cb       $L173298                   6620e6cb f    CIL library: CIL module
 0001:0000d6d3       __ehhandler$?AtlModuleAddTermFunc@ATL@@YGJPAU_ATL_MODULE70@1@P6GXK@ZK@Z 6620e6d3 f    CIL library: CIL module
 0001:0000d6dd       $L173351                   6620e6dd f    CIL library: CIL module
 0001:0000d6e8       $L173353                   6620e6e8 f    CIL library: CIL module
 0001:0000d6f3       $L173354                   6620e6f3 f    CIL library: CIL module
 0001:0000d6fb       $L173355                   6620e6fb f    CIL library: CIL module
 0001:0000d706       __ehhandler$?GetTI@CComTypeInfoHolder@ATL@@QAEJK@Z 6620e706 f    CIL library: CIL module
 0001:0000d710       __ehhandler$?CreateInstance@?$CComObject@V?$CComEnum@UIEnumUnknown@@$1?_GUID_00000100_0000_0000_c000_000000000046@@3U__s_GUID@@BPAUIUnknown@@V?$_CopyInterface@UIUnknown@@@ATL@@VCComSingleThreadModel@6@@ATL@@@ATL@@SGJPAPAV12@@Z 6620e710 f    CIL library: CIL module
 0001:0000d71a       $L173885                   6620e71a f    CIL library: CIL module
 0001:0000d733       __ehhandler$?Clone@?$CComEnumImpl@UIEnumUnknown@@$1?_GUID_00000100_0000_0000_c000_000000000046@@3U__s_GUID@@BPAUIUnknown@@V?$_CopyInterface@UIUnknown@@@ATL@@@ATL@@UAGJPAPAUIEnumUnknown@@@Z 6620e733 f    CIL library: CIL module
 0001:0000d73d       __ehhandler$?CreateInstance@?$CComObject@VCAxFrameWindow@ATL@@@ATL@@SGJPAPAV12@@Z 6620e73d f    CIL library: CIL module
 0001:0000d747       $L174206                   6620e747 f    CIL library: CIL module
 0001:0000d74f       __ehhandler$??0?$CComObjectCached@VCComClassFactory@ATL@@@ATL@@QAE@PAX@Z 6620e74f f    CIL library: CIL module
 0001:0000d759       $L174237                   6620e759 f    CIL library: CIL module
 0001:0000d766       __ehhandler$??0?$CComPolyObject@VCAxHostWindow@ATL@@@ATL@@QAE@PAX@Z 6620e766 f    CIL library: CIL module
 0001:0000d770       $L174320                   6620e770 f    CIL library: CIL module
 0001:0000d778       $L174321                   6620e778 f    CIL library: CIL module
 0001:0000d780       __ehhandler$?OnMouseActivate@?$CComCompositeControl@VCSuperSaverOptionsShim@@@ATL@@QAEJIIJAAH@Z 6620e780 f    CIL library: CIL module
 0001:0000d78a       $L174465                   6620e78a f    CIL library: CIL module
 0001:0000d792       $L174466                   6620e792 f    CIL library: CIL module
 0001:0000d79a       __ehhandler$?PreTranslateAccelerator@?$CComCompositeControl@VCSuperSaverOptionsShim@@@ATL@@QAEHPAUtagMSG@@AAJ@Z 6620e79a f    CIL library: CIL module
 0001:0000d7a4       $L174713                   6620e7a4 f    CIL library: CIL module
 0001:0000d7ae       __ehhandler$?CreateInstance@?$CComCreator@V?$CComObjectCached@VCComClassFactory@ATL@@@ATL@@@ATL@@SGJPAXABU_GUID@@PAPAX@Z 6620e7ae f    CIL library: CIL module
 0001:0000d7b8       $L174810                   6620e7b8 f    CIL library: CIL module
 0001:0000d7b8       $L174870                   6620e7b8 f    CIL library: CIL module
 0001:0000d7c0       $L174811                   6620e7c0 f    CIL library: CIL module
 0001:0000d7c0       $L174871                   6620e7c0 f    CIL library: CIL module
 0001:0000d7c8       __ehhandler$?Load@?$IPersistStorageImpl@VCSuperSaverOptionsShim@@@ATL@@UAGJPAUIStorage@@@Z 6620e7c8 f    CIL library: CIL module
 0001:0000d7c8       __ehhandler$?Save@?$IPersistStorageImpl@VCSuperSaverOptionsShim@@@ATL@@UAGJPAUIStorage@@H@Z 6620e7c8 f    CIL library: CIL module
 0001:0000d7d2       $L175052                   6620e7d2 f    CIL library: CIL module
 0001:0000d7da       $L175053                   6620e7da f    CIL library: CIL module
 0001:0000d7e2       __ehhandler$?GetSizeMax@?$IPersistStreamInitImpl@VCSuperSaverOptionsShim@@@ATL@@UAGJPAT_ULARGE_INTEGER@@@Z 6620e7e2 f    CIL library: CIL module
 0001:0000d7ec       $L175204                   6620e7ec f    CIL library: CIL module
 0001:0000d7f6       __ehhandler$?CreateInstance@?$CComCreator@V?$CComPolyObject@VCAxHostWindow@ATL@@@ATL@@@ATL@@SGJPAXABU_GUID@@PAPAX@Z 6620e7f6 f    CIL library: CIL module
 0001:0000d800       $L175387                   6620e800 f    CIL library: CIL module
 0001:0000d808       $L175388                   6620e808 f    CIL library: CIL module
 0001:0000d810       $L175389                   6620e810 f    CIL library: CIL module
 0001:0000d818       $L175390                   6620e818 f    CIL library: CIL module
 0001:0000d820       __ehhandler$?DoVerbProperties@CComControlBase@ATL@@QAEJPBUtagRECT@@PAUHWND__@@@Z 6620e820 f    CIL library: CIL module
 0001:0000d82a       $L175630                   6620e82a f    CIL library: CIL module
 0001:0000d832       $L175631                   6620e832 f    CIL library: CIL module
 0001:0000d83a       $L175632                   6620e83a f    CIL library: CIL module
 0001:0000d842       __ehhandler$?AtlAxWindowProc2@ATL@@YGJPAUHWND__@@IIJ@Z 6620e842 f    CIL library: CIL module
 0001:0000d84c       $L176604                   6620e84c f    CIL library: CIL module
 0001:0000d84c       $L175780                   6620e84c f    CIL library: CIL module
 0001:0000d854       $L176605                   6620e854 f    CIL library: CIL module
 0001:0000d854       $L175781                   6620e854 f    CIL library: CIL module
 0001:0000d85c       __ehhandler$?CreateControlLicEx@?$CAxWindow2T@VCWindow@ATL@@@ATL@@QAEJPBGPAUIStream@@PAPAUIUnknown@@2ABU_GUID@@PAU4@PAG@Z 6620e85c f    CIL library: CIL module
 0001:0000d85c       __ehhandler$?AtlAxWindowProc@ATL@@YGJPAUHWND__@@IIJ@Z 6620e85c f    CIL library: CIL module
 0001:0000d866       $L176379                   6620e866 f    CIL library: CIL module
 0001:0000d866       $L167010                   6620e866 f    CIL library: CIL module
 0001:0000d866       $L173188                   6620e866 f    CIL library: CIL module
 0001:0000d86e       __ehhandler$?ResourceUnregister@CRegObject@ATL@@QAGJPBGI0@Z 6620e86e f    CIL library: CIL module
 0001:0000d86e       __ehhandler$?AddReplacement@CRegObject@ATL@@UAGJPBG0@Z 6620e86e f    CIL library: CIL module
 0001:0000d86e       __ehhandler$?ResourceRegister@CRegObject@ATL@@QAGJPBGI0@Z 6620e86e f    CIL library: CIL module
 0001:0000d878       $L176397                   6620e878 f    CIL library: CIL module
 0001:0000d885       __ehhandler$??1CRegObject@ATL@@UAE@XZ 6620e885 f    CIL library: CIL module
 0001:0000d88f       __ehhandler$?CreateInstance@?$CComObject@VCAxUIWindow@ATL@@@ATL@@SGJPAPAV12@@Z 6620e88f f    CIL library: CIL module
 0001:0000d899       $L176559                   6620e899 f    CIL library: CIL module
 0001:0000d8a4       __ehhandler$??1?$CComAggObject@VCSuperSaverOptionsShim@@@ATL@@UAE@XZ 6620e8a4 f    CIL library: CIL module
 0001:0000d8ae       $L176686                   6620e8ae f    CIL library: CIL module
 0001:0000d8bb       __ehhandler$??1?$CComPolyObject@VCAxHostWindow@ATL@@@ATL@@UAE@XZ 6620e8bb f    CIL library: CIL module
 0001:0000d8c5       $L176724                   6620e8c5 f    CIL library: CIL module
 0001:0000d8cd       __ehhandler$?DoVerbPrimary@?$IOleObjectImpl@VCSuperSaverOptionsShim@@@ATL@@QAEJPBUtagRECT@@PAUHWND__@@@Z 6620e8cd f    CIL library: CIL module
 0001:0000d8d7       $L177043                   6620e8d7 f    CIL library: CIL module
 0001:0000d8df       $L177044                   6620e8df f    CIL library: CIL module
 0001:0000d8e7       $L177045                   6620e8e7 f    CIL library: CIL module
 0001:0000d8ef       $L177046                   6620e8ef f    CIL library: CIL module
 0001:0000d8f7       $L177047                   6620e8f7 f    CIL library: CIL module
 0001:0000d8ff       $L177048                   6620e8ff f    CIL library: CIL module
 0001:0000d907       __ehhandler$?CreateControlLicEx@CAxHostWindow@ATL@@UAGJPBGPAUHWND__@@PAUIStream@@PAPAUIUnknown@@ABU_GUID@@PAU5@PAG@Z 6620e907 f    CIL library: CIL module
 0001:0000d911       $L177458                   6620e911 f    CIL library: CIL module
 0001:0000d919       $L177459                   6620e919 f    CIL library: CIL module
 0001:0000d921       __ehhandler$?CreateActiveXControls@?$CAxDialogImpl@VCSuperSaverOptionsShim@@VCWindow@ATL@@@ATL@@UAEJI@Z 6620e921 f    CIL library: CIL module
 0001:0000d92b       $L177635                   6620e92b f    CIL library: CIL module
 0001:0000d936       $L177636                   6620e936 f    CIL library: CIL module
 0001:0000d943       $L177637                   6620e943 f    CIL library: CIL module
 0001:0000d950       $L177638                   6620e950 f    CIL library: CIL module
 0001:0000d95d       $L177639                   6620e95d f    CIL library: CIL module
 0001:0000d96a       $L177640                   6620e96a f    CIL library: CIL module
 0001:0000d978       __ehhandler$??0CSuperSaverOptionsShim@@QAE@XZ 6620e978 f    CIL library: CIL module
 0001:0000d982       $L178026                   6620e982 f    CIL library: CIL module
 0001:0000d98d       __ehhandler$??0?$CComAggObject@VCSuperSaverOptionsShim@@@ATL@@QAE@PAX@Z 6620e98d f    CIL library: CIL module
 0001:0000d997       $L178073                   6620e997 f    CIL library: CIL module
 0001:0000d9a1       __ehhandler$?CreateInstance@?$CComCreator@V?$CComAggObject@VCSuperSaverOptionsShim@@@ATL@@@ATL@@SGJPAXABU_GUID@@PAPAX@Z 6620e9a1 f    CIL library: CIL module
 0001:0000d9ab       __ehhandler$?CreateInstance@?$CComCreator@V?$CComObject@VCSuperSaverOptionsShim@@@ATL@@@ATL@@SGJPAXABU_GUID@@PAPAX@Z 6620e9ab f    CIL library: CIL module
 0001:0000d9b5       _$E1                       6620e9b5 f   SuperSaverOptionsShim.obj
 0001:0000d9cb       _$E5                       6620e9cb f   SuperSaverShim.obj
 0001:0000d9e3       _$E5                       6620e9e3 f   atls:atlbase.obj
 0001:0000d9f9       _$E5                       6620e9f9 f   atls:atlcommodule.obj
 0001:0000da0f       _$E2                       6620ea0f f   SuperSaverOptionsShim.obj
 0001:0000da19       _$E6                       6620ea19 f   SuperSaverShim.obj
 0001:0000da24       _$E6                       6620ea24 f   atls:atlbase.obj
 0001:0000da2e       _$E6                       6620ea2e f   atls:atlcommodule.obj

Line numbers for .\Release\SuperSaverShim.obj(d:\dev\booktwo\disk\supersaver\supersavershim\supersavershim.cpp) segment .text

    19 0001:0000c27e    27 0001:0000c2e2    29 0001:0000c2e2    30 0001:0000c2f1
    33 0001:0000c2f3    34 0001:0000c307    39 0001:0000c30a    41 0001:0000c30a
    42 0001:0000c30f    43 0001:0000c311    45 0001:0000c313    46 0001:0000c326
    51 0001:0000c327    53 0001:0000c32a    57 0001:0000c33c    56 0001:0000c340
    57 0001:0000c345    56 0001:0000c346    62 0001:0000c34b    64 0001:0000c34b
    66 0001:0000c35f    67 0001:0000c361    68 0001:0000c363    71 0001:0000c368
    76 0001:0000c369    77 0001:0000c369    79 0001:0000c37d    80 0001:0000c37f
    81 0001:0000c381    82 0001:0000c386    83 0001:0000c388    84 0001:0000c38a
    87 0001:0000c38f    22 0001:0000d9cb

Line numbers for .\Release\SuperSaverShim.obj(g:\vsnet\vc7\atlmfc\include\atlbase.inl) segment .text

   116 0001:0000cb71   118 0001:0000cb7a   119 0001:0000cb80   120 0001:0000cb8a
   121 0001:0000cb8e   123 0001:0000cb98   124 0001:0000cb9f   125 0001:0000cbab
   129 0001:0000cbad   131 0001:0000cbb5   134 0001:0000cbbb   129 0001:0000cbcf
   134 0001:0000cbd7   136 0001:0000cbd9   138 0001:0000cbe1   139 0001:0000cbe4
   146 0001:0000cbf2   147 0001:0000cbfb   148 0001:0000cc0a   149 0001:0000cc12
   150 0001:0000cc17   156 0001:0000cc27   157 0001:0000cc35   158 0001:0000cc3c
   159 0001:0000cc42   407 0001:0000cc7e   406 0001:0000cc7e   408 0001:0000cc82
   410 0001:0000cc92   412 0001:0000cc95   414 0001:0000cc9a   415 0001:0000cc9f
   416 0001:0000cca2   417 0001:0000ccab   419 0001:0000ccb0   420 0001:0000ccb5

Line numbers for .\Release\SuperSaverShim.obj(g:\vsnet\vc7\platformsdk\include\guiddef.h) segment .text

   161 0001:0000c53f   160 0001:0000c53f   162 0001:0000c556

Line numbers for .\Release\SuperSaverShim.obj(g:\vsnet\vc7\atlmfc\include\atlbase.h) segment .text

  2949 0001:0000c390  2951 0001:0000c39a  2952 0001:0000c3a6  2955 0001:0000c3ae
  2956 0001:0000c3af  2957 0001:0000c3bb  2937 0001:0000c3c8  2936 0001:0000c3c8
  2938 0001:0000c3dc  2863 0001:0000c3e4  2866 0001:0000c3ef  2873 0001:0000c406
  2881 0001:0000c406  2888 0001:0000c418  2889 0001:0000c426  2894 0001:0000c42f
  2905 0001:0000c432  2897 0001:0000c432  2906 0001:0000c43b  2912 0001:0000c43d
  2913 0001:0000c442  2919 0001:0000c455  2682 0001:0000c458  2685 0001:0000c459
  2686 0001:0000c461  2688 0001:0000c46a  2689 0001:0000c46c  2692 0001:0000c473
  2695 0001:0000c489  2698 0001:0000c48d  2699 0001:0000c491  2701 0001:0000c499
  2702 0001:0000c49e  2672 0001:0000c4a1  2673 0001:0000c4a1  2674 0001:0000c4a4
  2667 0001:0000c4a5  2668 0001:0000c4a5  2669 0001:0000c4af  2663 0001:0000c4b0
  2662 0001:0000c4b0  2664 0001:0000c4ba  6066 0001:0000c4bb  6068 0001:0000c4bf
  6069 0001:0000c4c3  6071 0001:0000c4ca  6073 0001:0000c4d0  6075 0001:0000c4d8
  6078 0001:0000c4de  6080 0001:0000c4e4  6083 0001:0000c4f4  6084 0001:0000c502
  6086 0001:0000c509  6087 0001:0000c50e  6073 0001:0000c515  6091 0001:0000c51d
  6092 0001:0000c529  6094 0001:0000c536  6095 0001:0000c53b  6099 0001:0000c557
  6100 0001:0000c56a  6105 0001:0000c577  6110 0001:0000c581  6117 0001:0000c596
  6118 0001:0000c5b0  6131 0001:0000c5b8  6168 0001:0000c5c9  6171 0001:0000c5d2
  6172 0001:0000c5e4  6177 0001:0000c5ea  6178 0001:0000c602  6179 0001:0000c618
  6185 0001:0000c626  6186 0001:0000c646  6188 0001:0000c64a  6189 0001:0000c661
  6190 0001:0000c678  6192 0001:0000c685  6196 0001:0000c693  6197 0001:0000c6a5
  6198 0001:0000c6b5  6199 0001:0000c6c3  6200 0001:0000c6d8  6202 0001:0000c6dc
  6203 0001:0000c6f3  6204 0001:0000c706  6206 0001:0000c70f  6209 0001:0000c71d
  6210 0001:0000c732  6211 0001:0000c73e  6212 0001:0000c749  6131 0001:0000c759
  6134 0001:0000c75f  6139 0001:0000c76a  6141 0001:0000c788  6145 0001:0000c78a
  6147 0001:0000c78d  6154 0001:0000c795  6156 0001:0000c798  6158 0001:0000c7a6
  6161 0001:0000c7a8  6164 0001:0000c7ab  6147 0001:0000c7bc  5980 0001:0000c7c1
  5981 0001:0000c7c6  5982 0001:0000c7cb  5983 0001:0000c7d3  5984 0001:0000c7e8
  5987 0001:0000c7ec  5988 0001:0000c7fb  5990 0001:0000c7ff  5991 0001:0000c81d
  5994 0001:0000c82b  5995 0001:0000c83f  5913 0001:0000c843  5915 0001:0000c855
  5918 0001:0000c86e  5919 0001:0000c871  5921 0001:0000c873  5925 0001:0000c87f
  5926 0001:0000c897  5927 0001:0000c89b  5928 0001:0000c8a7  5934 0001:0000c8b5
  5936 0001:0000c8c2  5943 0001:0000c8ce  5945 0001:0000c8d7  5947 0001:0000c8ea
  5954 0001:0000c8fb  5955 0001:0000c90d  5959 0001:0000c911  5962 0001:0000c937
  5968 0001:0000c947  5970 0001:0000c955  5972 0001:0000c959  5973 0001:0000c966
  5974 0001:0000c96f  5976 0001:0000c976  5916 0001:0000c986  5977 0001:0000c98b
  6028 0001:0000c999  6030 0001:0000c9a0  6031 0001:0000c9a4  6034 0001:0000c9ab
  6036 0001:0000c9b1  6038 0001:0000c9b9  6041 0001:0000c9bf  6043 0001:0000c9c5
  6046 0001:0000c9d5  6047 0001:0000c9da  6050 0001:0000c9e1  6051 0001:0000c9ef
  6036 0001:0000c9f6  6056 0001:0000c9fe  6057 0001:0000ca0a  6059 0001:0000ca17
  6060 0001:0000ca1d  5998 0001:0000ca21  5999 0001:0000ca34  6000 0001:0000ca3f
  6001 0001:0000ca47  6002 0001:0000ca5d  6005 0001:0000ca62  6006 0001:0000ca74
  6008 0001:0000ca7f  6010 0001:0000ca83  6011 0001:0000ca8f  6012 0001:0000ca94
  6013 0001:0000caa9  6015 0001:0000caac  6016 0001:0000caba  6018 0001:0000cacc
  6019 0001:0000cadd  5888 0001:0000caf5  5890 0001:0000caf5  5891 0001:0000caf9
  5905 0001:0000cafb  5895 0001:0000cafc  5897 0001:0000cb08  5899 0001:0000cb0f
  5900 0001:0000cb24  5895 0001:0000cb26  5901 0001:0000cb2a  5904 0001:0000cb2e
  5905 0001:0000cb36  2615 0001:0000cb37  2621 0001:0000cb42  2623 0001:0000cb46
  2625 0001:0000cb51  2629 0001:0000cb63  2632 0001:0000cb6a  2633 0001:0000cb6e
  2636 0001:0000cc46  2638 0001:0000cc4a  2642 0001:0000cc52  2644 0001:0000cc58
  2645 0001:0000cc5d  2648 0001:0000cc61  2649 0001:0000cc68  2651 0001:0000cc6e
  2653 0001:0000cc78  2654 0001:0000cc7d  2351 0001:0000ccb6  2352 0001:0000ccb7
  2354 0001:0000ccbc  2355 0001:0000ccc2  2352 0001:0000ccc9  2357 0001:0000ccd2

Line numbers for .\Release\SuperSaverOptionsShim.obj(g:\vsnet\vc7\atlmfc\include\atlcore.h) segment .text

   157 0001:00009743   159 0001:0000974a   160 0001:00009751   161 0001:00009755
   162 0001:0000975b

Line numbers for .\Release\SuperSaverOptionsShim.obj(g:\vsnet\vc7\atlmfc\include\atlalloc.h) segment .text

   226 0001:0000ad11   225 0001:0000ad11   228 0001:0000ad18   230 0001:0000ad1d
   278 0001:0000ad1e   276 0001:0000ad1e   280 0001:0000ad28   282 0001:0000ad32
   284 0001:0000ad34   287 0001:0000ad39   288 0001:0000ad3b   278 0001:0000bb8b
   276 0001:0000bb8b   280 0001:0000bb95   282 0001:0000bb9f   284 0001:0000bba1
   287 0001:0000bba6   288 0001:0000bba8   313 0001:0000bc03   312 0001:0000bc03
   314 0001:0000bc0c   292 0001:0000bc0d   293 0001:0000bc0d   294 0001:0000bc17
   296 0001:0000bc1c   298 0001:0000bc26   299 0001:0000bc2c   393 0001:0000bec6
   387 0001:0000bec6   391 0001:0000bec8   392 0001:0000beca   393 0001:0000becc
   389 0001:0000bed6   395 0001:0000bedb

Line numbers for .\Release\SuperSaverOptionsShim.obj(g:\vsnet\vc7\atlmfc\include\atlbase.inl) segment .text

   316 0001:00009643   317 0001:00009648   318 0001:0000964c   349 0001:0000964e
   321 0001:00009651   322 0001:00009655   328 0001:00009661   329 0001:00009664
   331 0001:0000966c   332 0001:00009672   335 0001:00009674   344 0001:00009679
   345 0001:0000967b   335 0001:00009682   337 0001:00009684   338 0001:00009686
   339 0001:0000968e   340 0001:00009690   341 0001:00009693   348 0001:00009695
   349 0001:000096a1   294 0001:000096a3   295 0001:000096a8   296 0001:000096ac
   299 0001:000096ae   302 0001:000096b6   303 0001:000096b8   304 0001:000096c1
   305 0001:000096c4   311 0001:000096ce   313 0001:000096d4   300 0001:000096e5
   375 0001:0000a331   376 0001:0000a344   377 0001:0000a34b   380 0001:0000a352
   381 0001:0000a356   382 0001:0000a372   383 0001:0000a376   384 0001:0000a37b
   386 0001:0000a37d   387 0001:0000a382   388 0001:0000a388   389 0001:0000a38e
   392 0001:0000a395   401 0001:0000a39b   402 0001:0000a3ac   403 0001:0000a3ae
    27 0001:0000c043    28 0001:0000c04b    29 0001:0000c04f    31 0001:0000c056
    32 0001:0000c05e    33 0001:0000c066    34 0001:0000c076    35 0001:0000c07a
    36 0001:0000c08c    37 0001:0000c090    38 0001:0000c0a1    39 0001:0000c0b4
    42 0001:0000c0b8    43 0001:0000c0c0    44 0001:0000c0c4    46 0001:0000c0cb
    47 0001:0000c0d3    48 0001:0000c0db    49 0001:0000c0eb    50 0001:0000c0ef
    51 0001:0000c101    52 0001:0000c105    53 0001:0000c113    54 0001:0000c126
   240 0001:0000c12a   244 0001:0000c12e   249 0001:0000c13c   250 0001:0000c140
   252 0001:0000c147   267 0001:0000c156   268 0001:0000c15c   269 0001:0000c162
   270 0001:0000c164   261 0001:0000c168   262 0001:0000c171   264 0001:0000c184
   275 0001:0000c189   276 0001:0000c195   280 0001:0000c1a3   259 0001:0000c1a6
   282 0001:0000c1ad   245 0001:0000c1b4   283 0001:0000c1bb

Line numbers for .\Release\SuperSaverOptionsShim.obj(g:\vsnet\vc7\atlmfc\include\atlhost.h) segment .text

    63 0001:00000b63    65 0001:00000b78    66 0001:00000b82    75 0001:00000b8c
    79 0001:00000ba8    86 0001:00000bae    89 0001:00000c14    93 0001:00000c22
    96 0001:00000c35    97 0001:00000c49   100 0001:00000c4c   103 0001:00000c51
   105 0001:00000c63   106 0001:00000c67   107 0001:00000c74   108 0001:00000c76
   110 0001:00000c7c   114 0001:00000c83   116 0001:00000c88   117 0001:00000c8b
   118 0001:00000ca4   119 0001:00000cab   120 0001:00000cc2   121 0001:00000cd3
   122 0001:00000cd5   125 0001:00000ceb    76 0001:00000cf0   126 0001:00000cf2
   139 0001:00000d07   140 0001:00000d0a   141 0001:00000d1b   142 0001:00000d22
   143 0001:00000d2a   157 0001:00000d2b   159 0001:00000d2c   160 0001:00000d38
   162 0001:00000d3f   163 0001:00000d48   164 0001:00000d67   165 0001:00000d6c
   166 0001:00000d6e   196 0001:00000d74   197 0001:00000d74   198 0001:00000d76
   202 0001:00000d79   201 0001:00000d79   203 0001:00000d7b   216 0001:00000d7e
   217 0001:00000d7e   218 0001:00000d80   235 0001:00000d98   237 0001:00000db5
   253 0001:00000db6   257 0001:00000dbb   258 0001:00000dbd   259 0001:00000dc8
   260 0001:00000de7   262 0001:00000dee   277 0001:00000df7   276 0001:00000df7
   278 0001:00000dfc   286 0001:00000dff   287 0001:00000e00   288 0001:00000e12
   289 0001:00000e15   318 0001:00000e18   330 0001:00000e62   332 0001:00000e75
   336 0001:00000e89   344 0001:00000e96   345 0001:00000eae   348 0001:00000eb1
   349 0001:00000ed9   352 0001:00000edd   353 0001:00000eef   360 0001:00000fb4
   361 0001:00000fb4   362 0001:00000fbf   400 0001:00000fc2   401 0001:00000fdb
   402 0001:00001001   403 0001:0000101b   404 0001:00001042   405 0001:0000105b
   406 0001:00001086   407 0001:000010a6   411 0001:000010b0   412 0001:000010bc
   414 0001:000010c5   415 0001:000010d5   417 0001:000010f2   419 0001:000010f8
   432 0001:00001125   435 0001:0000113b   420 0001:00001171   421 0001:00001183
   422 0001:00001190   423 0001:0000119b   424 0001:000011a8   425 0001:000011b3
   426 0001:000011c0   427 0001:000011cb   428 0001:000011d8   429 0001:000011e3
   436 0001:000011ff   437 0001:0000120c   438 0001:00001215   439 0001:00001222
   440 0001:0000122b   441 0001:00001238   442 0001:00001243   443 0001:00001258
   444 0001:0000126d   445 0001:00001298   446 0001:000012b0   448 0001:000012e3
   449 0001:00001308   452 0001:00001311   453 0001:00001329   454 0001:00001332
   456 0001:00001339   457 0001:00001355   458 0001:00001369   459 0001:00001381
   462 0001:0000138a   465 0001:00001394   466 0001:000013a8   468 0001:000013b0
   469 0001:000013bd   471 0001:000013d6   472 0001:000013e6   489 0001:000013f4
   490 0001:00001402   492 0001:00001410   494 0001:0000141a   495 0001:00001423
   497 0001:0000142d   499 0001:0000143b   500 0001:0000144b   503 0001:00001455
   505 0001:0000145c   506 0001:00001468   507 0001:00001473   510 0001:0000147d
   512 0001:00001484   513 0001:00001487   514 0001:00001498   515 0001:0000149f
   516 0001:000014a9   518 0001:000014b7   519 0001:000014c7   521 0001:000014cd
   522 0001:000014dd   523 0001:000014ed   525 0001:000014fd   526 0001:0000150d
   533 0001:0000151d   535 0001:00001524   537 0001:00001530   538 0001:00001537
   540 0001:0000153a   553 0001:00001547   554 0001:00001551   555 0001:0000155c
   557 0001:00001565   559 0001:00001573   560 0001:00001579   561 0001:0000158c
   562 0001:00001593   563 0001:000015b0   565 0001:000015be   568 0001:000015c0
   571 0001:000015c9   573 0001:000015db   574 0001:000015e6   575 0001:000015f4
   577 0001:000015fe   579 0001:00001607   580 0001:0000160d   581 0001:00001622
   582 0001:00001629   583 0001:00001646   584 0001:00001654   585 0001:0000165d
   586 0001:00001660   587 0001:00001676   589 0001:00001688   591 0001:0000168b
   603 0001:0000169e   599 0001:0000169e   604 0001:000016ab   606 0001:000016c5
   607 0001:000016cf   609 0001:000016e2   610 0001:000016e9   611 0001:000016f2
   612 0001:000016fb   613 0001:00001709   614 0001:00001712   615 0001:0000171f
   616 0001:00001726   617 0001:00001728   620 0001:0000172b   619 0001:0000172b
   621 0001:00001738   622 0001:0000174b   623 0001:00001752   624 0001:00001759
   625 0001:0000175b   627 0001:0000175e   630 0001:00001762   631 0001:0000177b
   632 0001:0000178e   633 0001:00001793   634 0001:00001799   635 0001:0000179c
   637 0001:000017a0   639 0001:000017a4   640 0001:000017bd   641 0001:000017d0
   642 0001:000017d6   643 0001:000017d9   645 0001:000017dd   646 0001:000017ea
   649 0001:000017f4   650 0001:00001801   651 0001:00001806   653 0001:0000180c
   654 0001:00001819   655 0001:00001827   657 0001:0000182f   658 0001:0000183d
   661 0001:0000183e   663 0001:00001843   666 0001:00001850   668 0001:0000185f
   669 0001:00001864   672 0001:0000186a   674 0001:00001877   675 0001:0000188c
   677 0001:00001897   678 0001:000018a0   680 0001:000018a4   681 0001:000018ae
   683 0001:000018b5   684 0001:000018c1   686 0001:000018c8   687 0001:000018d4
   689 0001:000018dd   691 0001:000018f8   693 0001:00001911   695 0001:0000191b
   697 0001:00001922   699 0001:0000192b   706 0001:00001938   703 0001:0000193d
   704 0001:00001942   707 0001:00001944   711 0001:00001952   712 0001:0000195d
   713 0001:00001962   714 0001:00001998   716 0001:000019a9   717 0001:000019ac
   718 0001:000019c9   720 0001:000019cd   723 0001:000019d0   727 0001:000019e2
   729 0001:000019fa   730 0001:00001a06   733 0001:00001a0d   735 0001:00001a1b
   737 0001:00001a24   738 0001:00001a2b   741 0001:00001a30   743 0001:00001a41
   745 0001:00001a45   747 0001:00001a4c   749 0001:00001a53   750 0001:00001a5f
   751 0001:00001a66   755 0001:00001a6d   756 0001:00001a73   758 0001:00001a76
   760 0001:00001a76   762 0001:00001a83   764 0001:00001a8e   766 0001:00001a98
   768 0001:00001a9a   769 0001:00001a9d   773 0001:00001aa2   775 0001:00001aa5
   776 0001:00001aa6   777 0001:00001ab8   778 0001:00001abb   780 0001:00001abe
   782 0001:00001abf   784 0001:00001ad1   785 0001:00001ad4   788 0001:00001ad7
   789 0001:00001ae2   790 0001:00001ae7   791 0001:00001b1e   793 0001:00001b2f
   795 0001:00001b3c   796 0001:00001b46   801 0001:00001b51   803 0001:00001b6c
   805 0001:00001b7d   806 0001:00001b8b   809 0001:00001b93   811 0001:00001ba4
   812 0001:00001baa   814 0001:00001bb1   815 0001:00001bbb   817 0001:00001bc2
   819 0001:00001bca   820 0001:00001bd4   821 0001:00001bd6   822 0001:00001bd8
   827 0001:00001be6   829 0001:00001c02   830 0001:00001c09   834 0001:00001c1d
   835 0001:00001c43   837 0001:00001c50   839 0001:00001c61   840 0001:00001c77
   841 0001:00001c81   843 0001:00001c83   844 0001:00001c89   845 0001:00001c99
   848 0001:00001ca8   850 0001:00001cbd   857 0001:00001cc3   861 0001:00001d48
   862 0001:00001d53   863 0001:00001d61   865 0001:00001d69   866 0001:00001d6c
   867 0001:00001d73   868 0001:00001d83   869 0001:00001d8a   870 0001:00001d97
   872 0001:00001d9e   873 0001:00001da1   874 0001:00001db6   875 0001:00001dbd
   876 0001:00001dcc   877 0001:00001ddd   881 0001:00001ded   894 0001:00001df0
   895 0001:00001dfe   898 0001:00001e0b   900 0001:00001e13   902 0001:00001e1c
   903 0001:00001e2a   904 0001:00001e34   908 0001:00001e3c   909 0001:00001e41
   879 0001:00001e50   881 0001:00001e57   883 0001:00001e59   884 0001:00001e5c
   885 0001:00001e6e   887 0001:00001e73   888 0001:00001e7d   889 0001:00001e8e
   890 0001:00001e9c   891 0001:00001eb3   892 0001:00001ec4   917 0001:00001edd
   918 0001:00001ee0   919 0001:00001ee9   926 0001:00001ef9   928 0001:00001f17
   931 0001:00001f1b   932 0001:00001f1b   933 0001:00001f23   935 0001:00001f2a
   936 0001:00001f35   938 0001:00001f47   939 0001:00001f50   941 0001:00001f59
   942 0001:00001f5b   945 0001:00001f5e   946 0001:00001f61   947 0001:00001f6a
   954 0001:00001f7a   956 0001:00001f96   959 0001:00001f9a   961 0001:00001f9a
   962 0001:00001fa7   964 0001:00001fad   967 0001:00001fb0   969 0001:00001fb0
   970 0001:00001fbd   972 0001:00001fc3   977 0001:00001fc6   975 0001:00001fc6
   978 0001:00001fd3   980 0001:00001fe2   985 0001:00001fe5   983 0001:00001fe5
   986 0001:00001ff2   988 0001:00002001   991 0001:00002004   993 0001:00002004
   994 0001:00002011   996 0001:00002020   999 0001:00002023  1001 0001:00002023
  1008 0001:00002030  1010 0001:00002052  1013 0001:00002055  1015 0001:00002061
  1023 0001:00002073  1025 0001:000020ac  1029 0001:000020be  1030 0001:000020bf
  1031 0001:000020c2  1032 0001:000020cd  1034 0001:000020d5  1036 0001:000020e2
  1037 0001:000020ed  1038 0001:000020f5  1040 0001:000020f8  1042 0001:000020fa
  1044 0001:00002102  1045 0001:00002117  1046 0001:00002123  1047 0001:00002127
  1048 0001:0000212e  1049 0001:0000213b  1050 0001:0000213d  1054 0001:00002142
  1057 0001:00002145  1059 0001:00002150  1060 0001:00002157  1061 0001:0000215e
  1064 0001:00002161  1066 0001:00002171  1067 0001:00002179  1068 0001:00002188
  1069 0001:0000218f  1070 0001:0000219f  1071 0001:000021a8  1072 0001:000021ab
  1073 0001:000021b9  1074 0001:000021bc  1077 0001:000021cb  1079 0001:000021cc
  1080 0001:000021d4  1081 0001:000021db  1084 0001:000021de  1086 0001:000021e9
  1087 0001:000021f0  1088 0001:000021f9  1090 0001:000021fe  1095 0001:00002200
  1096 0001:0000220a  1102 0001:0000220d  1105 0001:00002210  1107 0001:0000221c
  1108 0001:00002225  1112 0001:00002231  1114 0001:00002246  1115 0001:00002249
  1116 0001:0000227c  1118 0001:00002288  1119 0001:00002295  1120 0001:0000229c
  1121 0001:000022a2  1122 0001:000022ae  1124 0001:000022bb  1125 0001:000022bd
  1126 0001:000022c4  1127 0001:000022c9  1128 0001:000022ce  1132 0001:000022dd
  1134 0001:000022e8  1135 0001:000022f1  1139 0001:000022fa  1141 0001:00002309
  1142 0001:0000230c  1143 0001:0000231c  1144 0001:00002324  1145 0001:00002334
  1146 0001:0000233d  1147 0001:00002340  1148 0001:00002352  1149 0001:00002355
  1153 0001:00002364  1155 0001:0000236e  1156 0001:00002384  1157 0001:0000238b
  1158 0001:00002399  1159 0001:000023a7  1167 0001:000023b9  1169 0001:000023bd
  1170 0001:000023de  1172 0001:000023f3  1173 0001:00002411  1175 0001:0000241b
  1179 0001:00002428  1182 0001:0000242c  1183 0001:0000242c  1184 0001:0000243d
  1185 0001:0000243f  1189 0001:00002442  1187 0001:00002442  1190 0001:0000244a
  1192 0001:00002451  1193 0001:00002462  1194 0001:00002464  1197 0001:00002467
  1196 0001:00002467  1198 0001:00002476  1199 0001:00002484  1200 0001:00002491
  1201 0001:00002494  1205 0001:00002497  1203 0001:00002497  1206 0001:0000249f
  1208 0001:000024a6  1209 0001:000024b2  1210 0001:000024b4  1212 0001:000024b7
  1213 0001:000024b7  1214 0001:000024c5  1215 0001:000024d3  1216 0001:000024d5
  1220 0001:000024d8  1218 0001:000024d8  1221 0001:000024e0  1223 0001:000024e7
  1224 0001:000024f3  1225 0001:000024f5  1228 0001:000024f8  1227 0001:000024f8
  1229 0001:00002506  1230 0001:00002514  1231 0001:00002516  1235 0001:00002519
  1233 0001:00002519  1236 0001:00002521  1238 0001:00002528  1239 0001:00002534
  1240 0001:00002536  1242 0001:00002539  1243 0001:00002539  1244 0001:00002547
  1245 0001:0000255b  1246 0001:0000255d  1250 0001:00002560  1248 0001:00002560
  1251 0001:00002568  1253 0001:0000256f  1254 0001:00002580  1255 0001:00002582
  1257 0001:00002585  1258 0001:00002585  1259 0001:00002594  1260 0001:000025a8
  1261 0001:000025aa  1263 0001:000025ad  1265 0001:000025ad  1266 0001:000025b5
  1268 0001:000025bc  1269 0001:000025cd  1270 0001:000025cf  1272 0001:000025d2
  1273 0001:000025d3  1274 0001:000025e8  1275 0001:000025f8  1276 0001:000025fb
  1278 0001:000025fe  1280 0001:0000260f  1281 0001:00002616  1282 0001:00002620
  1284 0001:00002626  1286 0001:0000263b  1287 0001:00002641  1288 0001:0000264b
  1289 0001:0000264f  1290 0001:00002653  1291 0001:00002657  1293 0001:00002661
  1296 0001:0000266e  1297 0001:00002674  1298 0001:0000267c  1299 0001:00002685
  1300 0001:0000268c  1301 0001:00002693  1303 0001:0000269a  1304 0001:0000269d
  1305 0001:000026ae  1309 0001:000026b3  1311 0001:000026ba  1312 0001:000026c3
  1313 0001:000026c5  1314 0001:000026c7  1315 0001:000026d0  1317 0001:000026d6
  1319 0001:000026d8  1320 0001:000026e9  1321 0001:000026eb  1322 0001:000026f1
  1323 0001:000026fa  1325 0001:00002706  1328 0001:00002712  1331 0001:00002731
  1332 0001:0000273c  1335 0001:00002748  1334 0001:00002748  1336 0001:00002757
  1337 0001:0000276b  1338 0001:0000276d  1343 0001:00002770  1340 0001:00002770
  1344 0001:00002778  1346 0001:0000277f  1347 0001:00002790  1348 0001:00002792
  1351 0001:00002795  1350 0001:00002795  1352 0001:0000279d  1353 0001:0000279f
  1357 0001:000027a2  1355 0001:000027a2  1358 0001:000027aa  1360 0001:000027b1
  1361 0001:000027b5  1362 0001:000027b7  1365 0001:000027ba  1364 0001:000027ba
  1366 0001:000027c8  1367 0001:000027d3  1368 0001:000027d5  1372 0001:000027d8
  1370 0001:000027d8  1373 0001:000027e0  1375 0001:000027e7  1376 0001:000027f3
  1377 0001:000027f5  1380 0001:000027f8  1379 0001:000027f8  1381 0001:00002806
  1382 0001:00002808  1384 0001:0000280b  1386 0001:0000280b  1387 0001:00002813
  1389 0001:0000281a  1390 0001:00002826  1391 0001:00002828  1393 0001:0000282b
  1394 0001:0000282b  1395 0001:00002840  1396 0001:00002842  1398 0001:00002845
  1400 0001:00002845  1401 0001:0000284d  1403 0001:00002854  1404 0001:00002865
  1405 0001:00002867  1407 0001:0000286a  1408 0001:0000286a  1409 0001:0000287f
  1410 0001:00002881  1412 0001:00002884  1414 0001:00002884  1415 0001:0000288c
  1417 0001:00002893  1418 0001:000028a4  1419 0001:000028a6  1421 0001:000028a9
  1422 0001:000028aa  1423 0001:000028bd  1424 0001:000028c0  1428 0001:000028c3
  1426 0001:000028c3  1429 0001:000028cb  1431 0001:000028d2  1432 0001:000028de
  1433 0001:000028e0  1436 0001:000028e3  1437 0001:000028e4  1438 0001:000028f6
  1439 0001:000028f9  1443 0001:000028fc  1444 0001:000028fd  1446 0001:0000290e
  1449 0001:00002919  1453 0001:0000292c  1454 0001:00002933  1456 0001:00002948
  1457 0001:0000294c  1469 0001:0000294f  1474 0001:00002950  1477 0001:0000295d
  1478 0001:00002961  1479 0001:00002972  1480 0001:00002979  1481 0001:0000297d
  1484 0001:0000298a  1486 0001:0000298d  1489 0001:0000298e  1490 0001:0000299e
  1491 0001:000029a4  1492 0001:000029ab  1493 0001:000029b3  1494 0001:000029cc
  1495 0001:000029d6  1496 0001:000029da  1509 0001:000029dd  1508 0001:000029dd
  1510 0001:000029ea  1511 0001:000029ec  1514 0001:000029ef  1513 0001:000029ef
  1515 0001:000029f4  1521 0001:000029f7  1526 0001:000029f8  1527 0001:00002a00
  1529 0001:00002a0d  1530 0001:00002a22  1531 0001:00002a25  1535 0001:00002a28
  1533 0001:00002a28  1536 0001:00002a30  1537 0001:00002a32  1539 0001:00002a35
  1540 0001:00002a3a  1541 0001:00002a44  1542 0001:00002a46  1543 0001:00002a4d
  1544 0001:00002a4f  1550 0001:00002a72  1553 0001:00002a7d  1554 0001:00002a86
  1557 0001:00002a97  1560 0001:00002a9e  1561 0001:00002aa7  1564 0001:00002ab8
  1565 0001:00002ac3  1566 0001:00002acd  1567 0001:00002adb  1569 0001:00002ae3
  1572 0001:00002aeb  1574 0001:00002b08  1575 0001:00002b11  1576 0001:00002b1d
  1577 0001:00002b29  1578 0001:00002b32  1580 0001:00002b41  1547 0001:00002b46
  1581 0001:00002b4c  1583 0001:00002b50  1584 0001:00002b50  1585 0001:00002b55
  1587 0001:00002b58  1589 0001:00002b58  1590 0001:00002b60  1591 0001:00002b62
  1594 0001:00002b65  1593 0001:00002b65  1595 0001:00002b6d  1596 0001:00002b7e
  1597 0001:00002b80  1604 0001:00002b83  1603 0001:00002b83  1605 0001:00002b88
  1613 0001:00002b8b  1618 0001:00002b8c  1619 0001:00002b95  1621 0001:00002ba2
  1624 0001:00002ba9  1626 0001:00002bbe  1629 0001:00002bc2  1631 0001:00002bd7
  1632 0001:00002bdd  1633 0001:00002bec  1634 0001:00002bef  1637 0001:00002bf2
  1636 0001:00002bf2  1638 0001:00002bfa  1639 0001:00002c0b  1640 0001:00002c0d
  1652 0001:00002c10  1651 0001:00002c10  1653 0001:00002c1f  1655 0001:00002c22
  1656 0001:00002c22  1657 0001:00002c31  1659 0001:00002c34  1660 0001:00002c34
  1662 0001:00002c3c  1663 0001:00002c49  1665 0001:00002c4e  1667 0001:00002c50
  1668 0001:00002c56  1670 0001:00002c5e  1671 0001:00002c60  1674 0001:00002c63
  1673 0001:00002c63  1675 0001:00002c72  1678 0001:00002c75  1677 0001:00002c75
  1679 0001:00002c89  1680 0001:00002c8b  1682 0001:00002c8e  1683 0001:00002c95
  1684 0001:00002c9c  1685 0001:00002ca7  1686 0001:00002cb0  1688 0001:00002cba
  1689 0001:00002cc3  1690 0001:00002cc7  1694 0001:00002cc9  1695 0001:00002cd1
  1698 0001:00002cd7  1699 0001:00002ce4  1701 0001:00002ceb  1702 0001:00002cf5
  1704 0001:00002cf9  1705 0001:00002d0f  1706 0001:00002d16  1707 0001:00002d1d
  1709 0001:00002d1f  1710 0001:00002d27  1712 0001:00002d2b  1715 0001:00002d34
  1717 0001:00002d36  1718 0001:00002d3d  1719 0001:00002d42  1725 0001:00002d45
  1726 0001:00002d4b  1727 0001:00002d59  1728 0001:00002d5d  1730 0001:00002d61
  1731 0001:00002d68  1732 0001:00002d6b  1735 0001:00002d75  1737 0001:00002d82
  1738 0001:00002dab  1739 0001:00002db4  1742 0001:00002dbc  1743 0001:00002dc6
  1744 0001:00002dc9  1746 0001:00002dcd  1747 0001:00002dcd  1748 0001:00002de2
  1749 0001:00002de4  1751 0001:00002de7  1752 0001:00002de7  1753 0001:00002dfc
  1754 0001:00002dfe  1756 0001:00002e01  1757 0001:00002e01  1758 0001:00002e03
  1764 0001:00002e06  1765 0001:00002e09  1766 0001:00002e22  1767 0001:00002e24
  1779 0001:00002e28  1780 0001:00002e28  1781 0001:00002e2f  1782 0001:00002e36
  1783 0001:00002e4b  1789 0001:00002e4e  1790 0001:00002e4e  1791 0001:00002e51
  1794 0001:00002e54  1793 0001:00002e54  1795 0001:00002e68  1796 0001:00002e6a
  1807 0001:00002e6d  1808 0001:00002e6d  1810 0001:00002e70  1811 0001:00002e70
  1821 0001:00002e73  1822 0001:00002e73  1823 0001:00002e78  1825 0001:00002e7b
  1826 0001:00002e88  1827 0001:00002e97  1831 0001:00002e9e  1832 0001:00002eca
  1833 0001:00002ece  1834 0001:00002ed5  1836 0001:00002ede  1837 0001:00002ef9
  1838 0001:00002efd  1839 0001:00002f0c  1840 0001:00002f10  1841 0001:00002f19
  1842 0001:00002f1b  1845 0001:00002f2c  1844 0001:00002f2c  1846 0001:00002f43
  1847 0001:00002f45  1850 0001:00002f48  1851 0001:00002f57  1852 0001:00002f60
  1854 0001:00002f68  1857 0001:00002f73  1858 0001:00002f88  1860 0001:00002f92
  1861 0001:00002fa4  1863 0001:00002faa  1864 0001:00002fc0  1865 0001:00002fcb
  1867 0001:00002fdc  1869 0001:00002fe6  1870 0001:00002ff8  1872 0001:00002fff
  1873 0001:00003003  1874 0001:00003011  1875 0001:00003013  1877 0001:00003017
  1879 0001:00003023  1880 0001:00003032  1881 0001:00003039  1882 0001:00003048
  1884 0001:00003056  1887 0001:0000305c  1888 0001:00003065  1890 0001:0000306f
  1891 0001:00003073  1892 0001:00003081  1894 0001:00003092  1896 0001:000030a3
  1898 0001:000030b1  1900 0001:000030ba  1901 0001:000030d3  1902 0001:000030de
  1905 0001:000030ef  1906 0001:00003106  1908 0001:0000310d  1909 0001:0000311a
  1910 0001:00003121  1911 0001:0000312b  1912 0001:0000312d  1914 0001:00003137
  1916 0001:00003139  1917 0001:00003146  1918 0001:0000314d  1920 0001:00003157
  1921 0001:00003169  1922 0001:00003182  1923 0001:00003189  1924 0001:00003196
  1926 0001:000031a5  1928 0001:000031b2  1929 0001:000031c2  1930 0001:000031d2
  1931 0001:000031de  1932 0001:000031ef  1933 0001:00003201  1934 0001:0000320d
  1935 0001:00003218  1938 0001:00003226  1939 0001:00003250  1940 0001:0000326a
  1941 0001:0000327d  1942 0001:0000328e  1943 0001:0000329f  1944 0001:000032a3
  1945 0001:000032bb  1946 0001:000032c2  1948 0001:000032d5  1949 0001:000032e7
  2004 0001:000032f7  2005 0001:000032fa  2006 0001:00003310  2009 0001:00003311
  2010 0001:00003315  2012 0001:00003320  2013 0001:0000332b  2015 0001:0000332e
  2016 0001:00003330  2017 0001:0000333b  2021 0001:0000333c  2024 0001:00003342
  2069 0001:00003370  2070 0001:0000337c  2059 0001:0000337e  2062 0001:00003383
  2049 0001:00003385  2050 0001:0000338a  2051 0001:0000338d  2052 0001:0000338f
  2055 0001:0000339c  2031 0001:0000339e  2032 0001:000033a0  2024 0001:000033a2
  2034 0001:000033d2  2035 0001:000033d9  2040 0001:000033e4  2042 0001:000033e6
  2045 0001:000033ed  2027 0001:000033ef  2028 0001:000033f3  2090 0001:000033f5
  2092 0001:000033f9  2093 0001:000033ff  2096 0001:00003404  2098 0001:0000340f
  2099 0001:00003413  2100 0001:0000341f  2101 0001:00003434  2105 0001:00003439
  2106 0001:0000344c  2111 0001:00003450  2109 0001:00003450  2112 0001:00003458
  2113 0001:0000345f  2121 0001:00003462  2122 0001:00003475  2125 0001:00003484
  2129 0001:0000348f  2130 0001:0000349c  2194 0001:000034b7  2198 0001:000034c1
  2199 0001:000034ce  2201 0001:000034db  2202 0001:000034e2  2203 0001:000034e4
  2207 0001:000034f0  2185 0001:000034f5  2186 0001:00003500  2187 0001:00003504
  2188 0001:0000350a  2190 0001:00003510  2136 0001:00003515  2139 0001:0000351e
  2140 0001:00003529  2141 0001:0000353b  2142 0001:00003549  2145 0001:00003557
  2146 0001:00003569  2148 0001:0000356c  2149 0001:00003577  2150 0001:0000357a
  2152 0001:00003585  2153 0001:0000358c  2156 0001:00003593  2157 0001:0000359e
  2158 0001:000035a5  2161 0001:000035b2  2162 0001:000035b8  2163 0001:000035bb
  2164 0001:000035d1  2173 0001:000035d7  2175 0001:000035e9  2176 0001:000035fa
  2177 0001:000035fe  2179 0001:0000361d  2181 0001:0000362b  2213 0001:00003645
  2214 0001:00003657  2217 0001:0000366b  2218 0001:00003678  2298 0001:00003693
  2302 0001:0000369d  2303 0001:000036aa  2305 0001:000036b7  2306 0001:000036be
  2307 0001:000036c0  2311 0001:000036cc  2289 0001:000036d1  2290 0001:000036dc
  2291 0001:000036e0  2292 0001:000036e6  2294 0001:000036ec  2224 0001:000036f1
  2227 0001:000036fa  2228 0001:00003705  2229 0001:00003717  2230 0001:00003725
  2233 0001:00003733  2234 0001:00003745  2248 0001:00003748  2249 0001:00003753
  2250 0001:00003756  2252 0001:00003761  2253 0001:00003768  2256 0001:0000376f
  2257 0001:0000377a  2258 0001:00003781  2261 0001:0000378e  2262 0001:00003791
  2263 0001:000037a1  2264 0001:000037a4  2266 0001:000037a6  2267 0001:000037ac
  2268 0001:000037b3  2269 0001:000037c7  2278 0001:000037cb  2280 0001:000037de
  2281 0001:000037ef  2282 0001:000037f3  2283 0001:0000381c  2285 0001:0000382a
  2317 0001:0000384e  2318 0001:00003860  2456 0001:00003874  2455 0001:00003874
  2457 0001:00003892  2461 0001:00003895  2462 0001:0000389d  2464 0001:000038a2
  2465 0001:000038aa  2467 0001:000038b2  2468 0001:000038c5  2470 0001:000038c9
  2471 0001:000038d1  2472 0001:000038e2  2473 0001:000038ed  2474 0001:0000390c
  2475 0001:0000391f  2477 0001:00003923  2479 0001:00003927  2480 0001:0000392c
  2482 0001:0000392f  2483 0001:00003931  2485 0001:00003933  2487 0001:0000393a
  2489 0001:0000393e  2490 0001:00003943  2492 0001:00003946  2493 0001:00003948
  2495 0001:0000394a  2496 0001:0000395e  2528 0001:00003962  2529 0001:0000396a
  2530 0001:00003970  2536 0001:0000397a  2537 0001:0000398b  2540 0001:00003997
  2541 0001:0000399f  2545 0001:000039b8  2557 0001:000039be  2559 0001:000039c3
  2565 0001:000039ef  2568 0001:00003a0c  2571 0001:00003a10  2573 0001:00003a1e
  2577 0001:00003a38  2588 0001:00003a3c  2590 0001:00003a41  2596 0001:00003a6d
  2599 0001:00003a8e  2600 0001:00003a9b  2605 0001:00003a9d  2603 0001:00003a9d
  2606 0001:00003aa1  2607 0001:00003aa8  2608 0001:00003abe  2609 0001:00003acc
  2612 0001:00003acf  2614 0001:00003acf  2615 0001:00003ad3  2616 0001:00003ada
  2617 0001:00003af0  2618 0001:00003afe  2363 0001:00008a68  2364 0001:00008a6f
  2367 0001:00008a74  2368 0001:00008a86  2370 0001:00008a92  2372 0001:00008a9d
  2374 0001:00008aa1  2376 0001:00008ab1  2377 0001:00008ab5  2381 0001:00008abb
  2382 0001:00008ac5  2384 0001:00008ac9  2385 0001:00008ace  2389 0001:00008ad2
  2391 0001:00008ad9  2392 0001:00008aec  2394 0001:00008af3  2396 0001:00008afc
  2397 0001:00008b00  2399 0001:00008b0e  2403 0001:00008b10  2405 0001:00008b19
  2406 0001:00008b20  2408 0001:00008b29  2409 0001:00008b2d

Line numbers for .\Release\SuperSaverOptionsShim.obj(d:\dev\booktwo\disk\supersaver\supersavershim\supersaveroptionsshim.h) segment .text

    35 0001:0000502a    37 0001:0000507c    38 0001:00005080    39 0001:00005088
    48 0001:0000509b    82 0001:00005114    83 0001:0000511d    84 0001:00005136
    85 0001:00005147    86 0001:00005166    91 0001:0000516c    93 0001:0000516c
    96 0001:00005197    97 0001:00005197    99 0001:000051a2   100 0001:000051ae
   102 0001:000051b6   103 0001:000051b8   106 0001:000051bb   112 0001:000051bc
   114 0001:000051be   117 0001:000051d9   118 0001:000051db   115 0001:000051de
   138 0001:000051e2   139 0001:000051ed   140 0001:00005200   141 0001:00005213
   142 0001:00005230   145 0001:00005243   146 0001:0000524e   147 0001:00005264
   148 0001:00005283   151 0001:00005294   152 0001:0000529f   153 0001:000052b5
   154 0001:000052d1   157 0001:000052e2   158 0001:000052ed   159 0001:00005303
   160 0001:0000531f   163 0001:00005330   164 0001:0000533b   165 0001:00005351
   166 0001:0000536d

Line numbers for .\Release\SuperSaverOptionsShim.obj(d:\dev\booktwo\disk\supersaver\supersavershim\supersaveroptionsshim.cpp) segment .text

    21 0001:000053ec    22 0001:00005403    23 0001:0000540e    24 0001:00005419
    31 0001:00005420    34 0001:00005444    45 0001:0000544d    48 0001:0000547b
    57 0001:00005483    60 0001:000054a6    63 0001:000054ae    65 0001:000054bd
    68 0001:000054cc    70 0001:000054d0    73 0001:000054d7    78 0001:000054f2
    80 0001:000054f8    82 0001:000054fd    76 0001:000054ff    87 0001:00005504
    92 0001:0000555d    94 0001:0000556a    95 0001:00005580    98 0001:00005598
   100 0001:00005598   101 0001:0000559c   102 0001:000055bc   103 0001:000055be
   106 0001:000055c1   107 0001:000055c3   108 0001:000055d0   109 0001:000055db
   110 0001:000055e6   111 0001:000055f3   112 0001:000055fb   115 0001:000055fc
   117 0001:0000560c   118 0001:00005614   119 0001:00005633   121 0001:0000563d
   122 0001:00005653   129 0001:00005665   130 0001:00005672   134 0001:0000568d
   136 0001:00005693   137 0001:000056a0   138 0001:000056b6   140 0001:000056ba
   141 0001:000056bf   144 0001:000056d7   149 0001:000056ea   154 0001:000056fc
   155 0001:0000570b   161 0001:00005717   162 0001:00005735   151 0001:0000574b
   152 0001:00005750   125 0001:00005752   126 0001:00005757   163 0001:0000576d
   166 0001:0000577e   167 0001:0000578d   168 0001:00005794   169 0001:000057b1
   170 0001:000057b6   171 0001:000057b8   172 0001:000057c0   173 0001:000057c7
   174 0001:000057dd   175 0001:000057eb   177 0001:000057f6   181 0001:00005807
   176 0001:0000581e   182 0001:0000582e

Line numbers for .\Release\SuperSaverOptionsShim.obj(g:\vsnet\vc7\atlmfc\include\atlwin.h) segment .text

   202 0001:00000356   203 0001:00000359   204 0001:0000035f   205 0001:00000366
   206 0001:0000036d   207 0001:00000374   208 0001:00000380   209 0001:00000386
   246 0001:00000389   247 0001:0000038c   248 0001:000003a4   377 0001:000003a8
   376 0001:000003a8   381 0001:000003b6   383 0001:000003ba   384 0001:000003bd
   386 0001:000003c0   388 0001:000003c2   389 0001:000003c5   397 0001:000003c7
   398 0001:000003d2   399 0001:000003d5   400 0001:000003d7   407 0001:000003e1
   408 0001:000003e8   409 0001:000003eb   410 0001:000003ed   413 0001:000003f7
   416 0001:00000401   421 0001:00000407   422 0001:0000040b   423 0001:0000040e
   424 0001:00000410   425 0001:00000412   429 0001:0000041c   430 0001:00000423
   435 0001:00000424   440 0001:00000424   441 0001:0000042b   442 0001:0000042e
   443 0001:00000430   445 0001:00000433   446 0001:0000043a   447 0001:0000043d
   448 0001:0000043f   450 0001:00000449   451 0001:00000450   452 0001:00000453
   453 0001:00000455   459 0001:0000045f   458 0001:0000046b   459 0001:00000472
   462 0001:00000478   463 0001:00000482   468 0001:00000483   493 0001:00000485
   472 0001:00000487   473 0001:0000048a   475 0001:0000048c   476 0001:00000491
   481 0001:00000492   493 0001:0000049e   469 0001:000004a2   495 0001:000004a6
   496 0001:000004aa   483 0001:000004ab   486 0001:000004b0   488 0001:000004b2
   489 0001:000004b8   503 0001:000004bd   499 0001:000004bd   504 0001:000004cc
   507 0001:000004d3   511 0001:000004d4   513 0001:000004db   517 0001:000004e9
   520 0001:000004fa   522 0001:00000512   532 0001:00000516   520 0001:0000051d
   534 0001:00000520   538 0001:0000052a   542 0001:00000537   545 0001:0000053d
   547 0001:00000544   550 0001:00000546   553 0001:00000550   557 0001:00000554
   558 0001:0000055a   561 0001:00000561   563 0001:0000056c   564 0001:0000057a
   567 0001:0000057f   569 0001:00000597   576 0001:0000059d   580 0001:000005a7
   582 0001:000005b9   585 0001:000005bf   589 0001:000005c1   590 0001:000005cb
   593 0001:000005d1   574 0001:000005e2   596 0001:000005e5   598 0001:000005ea
   599 0001:000005ef   602 0001:000005f1   603 0001:00000608   604 0001:00000612
   605 0001:00000618   611 0001:0000061f   612 0001:00000635   613 0001:00000637
   616 0001:0000063d   617 0001:00000653   618 0001:00000655   621 0001:0000065b
   622 0001:00000671   623 0001:00000673   625 0001:00000679   627 0001:00000686
   628 0001:0000069a   630 0001:000006b6   631 0001:000006c8   632 0001:000006e2
   633 0001:000006e8   634 0001:000006f6   635 0001:000006f9   640 0001:00000706
   657 0001:00000719   661 0001:00000727   644 0001:00000729   645 0001:0000073c
   646 0001:0000073e   648 0001:00000740   650 0001:00000744   652 0001:0000074b
   653 0001:0000076a   655 0001:00000775   662 0001:00000778   707 0001:0000078e
   709 0001:00000791   710 0001:00000798   714 0001:0000079d   716 0001:000007d8
  1690 0001:000007dc  1693 0001:000007ea  1695 0001:00000806  1696 0001:0000081a
  2234 0001:00000826  2235 0001:00000827  2236 0001:0000083a  4067 0001:0000083d
  4072 0001:0000084c  4073 0001:0000085f  4074 0001:0000086b  4076 0001:0000086e
  4078 0001:00000879  4080 0001:0000087b  4082 0001:00000885  4085 0001:00000895
  4086 0001:000008a7  4089 0001:000008b5  4090 0001:000008be  4093 0001:000008c6
  4094 0001:000008d5  4097 0001:000008ee  4099 0001:0000090b  4100 0001:00000915
  4104 0001:0000091c  4105 0001:00000929  4108 0001:00000934  4109 0001:00000946
  4110 0001:0000094c  4111 0001:00000955  4112 0001:0000095d  4113 0001:00000962
  4114 0001:00000971  4115 0001:0000097c  4117 0001:0000097e  4121 0001:00000986
  4122 0001:0000098c  4123 0001:00000991  4124 0001:0000099c  4130 0001:000009ab
  4133 0001:000009bb  4134 0001:000009d0  4137 0001:000009da  4138 0001:000009e7
  4142 0001:000009ee  4143 0001:000009fc  4145 0001:00000a00  4146 0001:00000a08
  4151 0001:00000a0c  4152 0001:00000a1b  4153 0001:00000a26  4157 0001:00000a2a
  4161 0001:00000a3c  4162 0001:00000a4e  4165 0001:00000a5a  4166 0001:00000a64
  4174 0001:00000a66  4175 0001:00000a75  4176 0001:00000a81  4187 0001:00000a90
  4184 0001:00000a90  4188 0001:00000aa2  4192 0001:00000aa3  4191 0001:00000aa3
  4195 0001:00000aa9  4196 0001:00000aab  4197 0001:00000aae  4198 0001:00000ab0
  4200 0001:00000ab3  4201 0001:00000aba  4202 0001:00000abd  4203 0001:00000abf
  4205 0001:00000ac9  4206 0001:00000ad0  4207 0001:00000ad3  4208 0001:00000ad5
  4210 0001:00000adf  4213 0001:00000ae9  4216 0001:00000aea  4217 0001:00000aea
  4218 0001:00000af0  4232 0001:00000afb  4221 0001:00000afc  4222 0001:00000b03
  4224 0001:00000b0d  4226 0001:00000b15  4227 0001:00000b29  4229 0001:00000b38
  4231 0001:00000b3d  4232 0001:00000b40  4236 0001:00000b41  4235 0001:00000b41
  4238 0001:00000b49  4239 0001:00000b4f  4241 0001:00000b53  4243 0001:00000b55
  4244 0001:00000b5b  4246 0001:00000b62  4319 0001:00003b01  4323 0001:00003b01
  4325 0001:00003b17  4350 0001:00003b18  4351 0001:00003b1e  4353 0001:00003b28
  4354 0001:00003b31  4357 0001:00003b40  4352 0001:00003b46  4358 0001:00003b4a
  4450 0001:00003b4e  4451 0001:00003b4f  4461 0001:00003b55  4468 0001:00003b5b
  4470 0001:00003b62  4471 0001:00003b64  4473 0001:00003b69  4474 0001:00003b6d
  4475 0001:00003b71  4478 0001:00003b79  4480 0001:00003b81  4483 0001:00003b98
  4481 0001:00003b9e  4484 0001:00003bad  4490 0001:00003bb0  4494 0001:00003bb4
  4496 0001:00003bbc  4497 0001:00003bc9  4498 0001:00003bd2  4500 0001:00003bdf
  4501 0001:00003bf3  4502 0001:00003c04  4505 0001:00003c07  4509 0001:00003c0b
  4511 0001:00003c13  4512 0001:00003c20  4513 0001:00003c29  4515 0001:00003c36
  4516 0001:00003c4a  4517 0001:00003c5b  3122 0001:00005883  3123 0001:00005888
  3124 0001:00005892  3125 0001:00005898  3127 0001:000058a6  3131 0001:000058b2
  3132 0001:000058b7  3135 0001:000058ba  3136 0001:000058d9  2943 0001:000058dd
  2942 0001:000058dd  2944 0001:000058e2  2958 0001:000058e3  2959 0001:000058e3
  2960 0001:000058e6  2961 0001:000058e8  2962 0001:000058ec  2964 0001:000058fc
  2969 0001:000058fd  2967 0001:000058fd  2973 0001:00005915  2976 0001:00005918
  2978 0001:00005918  3122 0001:0000591b  3123 0001:00005920  3124 0001:0000592a
  3125 0001:00005930  3127 0001:0000593e  3131 0001:0000594a  3132 0001:0000594f
  3135 0001:00005952  3136 0001:00005971  3416 0001:00006bd9  3415 0001:00006bd9
  3417 0001:00006bde  3490 0001:00006bdf  3492 0001:00006bee  3493 0001:00006c0a
  3495 0001:00006c0e  3496 0001:00006c12  3498 0001:00006c1c  3499 0001:00006c25
  3500 0001:00006c29  3503 0001:00006c33  3504 0001:00006c3e  3506 0001:00006c48
  3508 0001:00006c51  3510 0001:00006c59  3511 0001:00006c60  3514 0001:00006c68
  3515 0001:00006c76  3518 0001:00006c8b  3519 0001:00006c97  3522 0001:00006ca5
  3524 0001:00006cb4  3525 0001:00006cc2  3528 0001:00006cd5  3529 0001:00006ce9
  3530 0001:00006cec  3532 0001:00006cf3  3533 0001:00006cfe  3535 0001:00006d06
  3537 0001:00006d0d  3538 0001:00006d1a  3539 0001:00006d21  3548 0001:00006d30
  3549 0001:00006d33  3550 0001:00006d43  3552 0001:00006d4f  3557 0001:00006d57
  3563 0001:00006d64  3567 0001:00006d75  3571 0001:00006d89  3575 0001:00006da2
  3578 0001:00006dbb  3593 0001:00006dcb  3595 0001:00006e1a  3598 0001:00006e21
  3599 0001:00006e2c  3601 0001:00006e34  3602 0001:00006e46  3605 0001:00006e51
  3606 0001:00006e57  3607 0001:00006e5a  3608 0001:00006e6a  3610 0001:00006e6d
  3612 0001:00006e6f  3615 0001:00006e77  3616 0001:00006e91  3618 0001:00006e93
  3619 0001:00006e99  3621 0001:00006ea7  3602 0001:00006ec5  3544 0001:00006ec7
  3603 0001:00006ed9  3624 0001:00006ef3  3628 0001:00006ef5  3631 0001:00006efd
  2145 0001:000070a4  2146 0001:000070a7  2147 0001:000070c9  2151 0001:000070cd
  2150 0001:000070cd  2152 0001:000070eb  3222 0001:00007da5  3225 0001:00007dab
  3226 0001:00007dcc  3228 0001:00007dd4  3229 0001:00007ddc  3231 0001:00007de4
  3232 0001:00007ded  3234 0001:00007df5  3235 0001:00007dfe  3237 0001:00007e0f
  3238 0001:00007e11  3239 0001:00007e16  3242 0001:00007e1b  3244 0001:00007e24
  3248 0001:00007e58  3252 0001:00007e60  3253 0001:00007e64  3254 0001:00007e9b
  3255 0001:00007ebc  3257 0001:00007ec0  3262 0001:00007ecd  3263 0001:00007ed0
  2162 0001:00007eda  2167 0001:00007ee8  2168 0001:00007ef0  2172 0001:00007f01
  2173 0001:00007f05  2176 0001:00007f2e  2178 0001:00007f31  2181 0001:00007f55
  2183 0001:00007f59  2184 0001:00007f60  2186 0001:00007f68  2188 0001:00007f6d
  2193 0001:00007f7f  2194 0001:00007fa0  3440 0001:00007fb3  3442 0001:00007fb5
  3447 0001:00007fc2  3450 0001:00007fe1  3268 0001:000083a3  3269 0001:000083a5
  3271 0001:000083af  3272 0001:000083b5  3273 0001:000083c9  3274 0001:000083cc
  3282 0001:000083d6  3283 0001:000083e7  3287 0001:000083ea  3290 0001:000083f1
  3291 0001:0000840e  3295 0001:00008411  3298 0001:0000842d  3300 0001:00008430
  3302 0001:00008439  3317 0001:00008465  3318 0001:0000846b  3321 0001:0000846d
  3325 0001:0000847a  3328 0001:00008484  3331 0001:00008488  3334 0001:00008494
  3336 0001:00008497  3338 0001:0000849d  3340 0001:000084a8  3341 0001:000084ae
  2985 0001:000084b2  2986 0001:000084b4  2988 0001:000084be  2989 0001:000084c4
  2990 0001:000084d8  2991 0001:000084db  2999 0001:000084e5  3000 0001:000084f6
  3004 0001:000084f9  3007 0001:00008500  3008 0001:0000851b  3012 0001:0000851e
  3017 0001:0000853c  3019 0001:00008544  3020 0001:0000854e  3021 0001:00008561
  3024 0001:00008563  3025 0001:00008571  3026 0001:00008585  3027 0001:0000859d
  3029 0001:000085ab  3032 0001:000085b0  3035 0001:000085bd  3036 0001:000085c0
  3037 0001:000085c4  3039 0001:000085ca  3041 0001:000085d2  3042 0001:000085d7
  3047 0001:000085db  3050 0001:000085de  3051 0001:000085e5  3053 0001:000085eb
  3055 0001:000085fa  3056 0001:00008606  3057 0001:00008609  3058 0001:00008610
  3063 0001:00008615  3067 0001:00008635  3068 0001:0000864d  3072 0001:00008651
  3075 0001:00008651  3077 0001:00008662  3078 0001:0000866e  3083 0001:00008672
  3080 0001:00008673  3082 0001:00008676  3083 0001:0000867c  3089 0001:0000867d
  3093 0001:0000867d  3095 0001:0000868f  3096 0001:00008691  3098 0001:0000869b
  3101 0001:000086af  3102 0001:000086b7  3103 0001:000086ba  3106 0001:000086bf
  4363 0001:00008b2f  4364 0001:00008b37  4371 0001:00008b50  4373 0001:00008b5a
  4374 0001:00008b5d  4380 0001:00008b67  4382 0001:00008b75  4385 0001:00008b7c
  4386 0001:00008b82  4391 0001:00008b88  4394 0001:00008ba1  4397 0001:00008bb3
  4368 0001:00008bbb  4435 0001:00008bc0  4400 0001:00008bc2  4401 0001:00008bcc
  4405 0001:00008bcf  4408 0001:00008be3  4411 0001:00008bfc  4412 0001:00008bff
  4413 0001:00008c03  4415 0001:00008c0c  4416 0001:00008c18  4420 0001:00008c1b
  4421 0001:00008c37  4423 0001:00008c40  4426 0001:00008c4d  4428 0001:00008c57
  4432 0001:00008c5c  4434 0001:00008c64  3677 0001:00008ca9  3679 0001:00008cac
  3682 0001:00008cba  3684 0001:00008cc9  3685 0001:00008cd2  3686 0001:00008cdf
  3689 0001:00008ce3  3690 0001:00008cf4  2063 0001:00008e15  2065 0001:00008e20
  2066 0001:00008e26  2068 0001:00008e2f  2069 0001:00008e31  2070 0001:00008e37
  2071 0001:00008e44  2072 0001:00008e4d  2073 0001:00008e58  2074 0001:00008e6a

Line numbers for .\Release\SuperSaverOptionsShim.obj(g:\vsnet\vc7\atlmfc\include\atlctl.h) segment .text

   193 0001:00003c5e   194 0001:00003c6c   196 0001:00003c7e   197 0001:00003c86
   198 0001:00003c89   199 0001:00003c95   201 0001:00003c98   202 0001:00003c9b
   203 0001:00003ca4   205 0001:00003cab   258 0001:00003cfb   259 0001:00003d08
   261 0001:00003d11   262 0001:00003d14   263 0001:00003d27   264 0001:00003d2e
   265 0001:00003d45   266 0001:00003d55   267 0001:00003d63   268 0001:00003d6e
   269 0001:00003d8c   271 0001:00003d8f   273 0001:00003da3   274 0001:00003daf
   275 0001:00003dc0   276 0001:00003de1   277 0001:00003deb   278 0001:00003dee
   279 0001:00003e02   281 0001:00003e13   283 0001:00003e20   286 0001:00003e33
   288 0001:00003e3e   289 0001:00003e41   290 0001:00003e54   291 0001:00003e5b
   292 0001:00003e77   293 0001:00003e85   295 0001:00003e88   304 0001:00003e9d
   302 0001:00003e9d   305 0001:00003ea9   307 0001:00003eb8   325 0001:00003ebb
   326 0001:00003ec2   327 0001:00003ecc   329 0001:00003edd   330 0001:00003ee7
   331 0001:00003ef4   396 0001:00003ef8   397 0001:00003eff   398 0001:00003f09
   400 0001:00003f1a   401 0001:00003f24   402 0001:00003f31   438 0001:00003f35
   439 0001:00003f3c   440 0001:00003f46   441 0001:00003f57   444 0001:00003f5b
   446 0001:00003f69   448 0001:00003f79   449 0001:00003f86   614 0001:00003f8a
   616 0001:00003f8a   617 0001:00003f8e   618 0001:00003f95   620 0001:00003fa0
   621 0001:00003fa2   623 0001:00003fa4   624 0001:00003fae   627 0001:00003fb1
   628 0001:00003fb2   629 0001:00003fb4   633 0001:00003fbd   637 0001:00003fc0
   638 0001:00003fd3   639 0001:00003fd6   640 0001:00003fd9   644 0001:00003fdc
   643 0001:00003fdc   645 0001:00003fde   651 0001:00003ff1   655 0001:00003ff4
   733 0001:00003ff5   736 0001:00004002   740 0001:00004023   741 0001:00004025
   742 0001:0000402e   745 0001:00004030   746 0001:00004038   747 0001:0000404b
   748 0001:0000404e   749 0001:00004062   750 0001:00004065   751 0001:00004079
   752 0001:0000407c   754 0001:00004090   757 0001:000040a4   759 0001:000040b0
   762 0001:000040b7   765 0001:000040c5   766 0001:000040c9   768 0001:000040dd
   771 0001:000040e4   772 0001:000040eb   774 0001:000040f2   775 0001:00004101
   776 0001:00004105   778 0001:00004115   780 0001:00004126   784 0001:0000412d
   786 0001:0000413d   789 0001:00004142   790 0001:00004149   792 0001:00004150
   793 0001:0000415e   794 0001:00004162   796 0001:00004172   800 0001:00004183
   801 0001:0000418a   803 0001:00004196   804 0001:0000419d   806 0001:000041a7
   807 0001:000041ae   808 0001:000041b8   755 0001:00004211   737 0001:0000425c
   809 0001:00004261   812 0001:0000427a   813 0001:0000427d   815 0001:00004285
   816 0001:0000428d   817 0001:0000429a   819 0001:0000429c   825 0001:000042ad
   827 0001:000042b1   828 0001:000042c6   829 0001:000042d0   832 0001:000042e6
   833 0001:000042f8   834 0001:000042ff   838 0001:00004304   839 0001:00004308
   842 0001:00004309   844 0001:00004317   845 0001:00004320   846 0001:00004323
   848 0001:00004333   850 0001:0000433a   851 0001:00004342   852 0001:00004346
   855 0001:0000437f   856 0001:00004382   859 0001:00004396   860 0001:000043a6
   862 0001:000043b1   863 0001:000043bb   865 0001:000043c6   866 0001:000043d6
   870 0001:000043e3   873 0001:000043f2   874 0001:00004400   877 0001:00004407
   879 0001:0000442a   881 0001:00004432   883 0001:00004434   885 0001:0000443b
   888 0001:00004440   890 0001:00004442   893 0001:00004449   894 0001:0000448f
   897 0001:000044a4   900 0001:000044b5   901 0001:000044bc   903 0001:000044c4
   904 0001:000044c7   907 0001:000044da   909 0001:000044e1   911 0001:000044e5
   913 0001:000044f6   915 0001:000044ff   917 0001:00004503   920 0001:0000450d
   922 0001:00004513   924 0001:00004515   927 0001:00004519   929 0001:0000451b
   930 0001:00004529   931 0001:0000452d   932 0001:00004531   933 0001:00004533
   938 0001:00004541   939 0001:00004548   941 0001:00004563   943 0001:0000456a
   947 0001:0000456f   948 0001:00004577   949 0001:00004583   951 0001:00004585
   952 0001:00004588   953 0001:0000458d   955 0001:0000458f   957 0001:00004595
  1013 0001:00004599   958 0001:000045aa   962 0001:000045b1   964 0001:000045b3
   969 0001:000045bc   976 0001:000045c0   977 0001:000045c3   980 0001:000045ca
   983 0001:000045e2   985 0001:000045ff   987 0001:00004605   988 0001:00004612
   999 0001:0000461b  1002 0001:0000462c  1003 0001:0000462f  1006 0001:00004643
  1008 0001:00004654  1010 0001:0000465f  1011 0001:00004665  1012 0001:00004670
  1013 0001:00004674   991 0001:000046af   994 0001:000046bd   995 0001:000046c5
  1015 0001:000046ef  1018 0001:000046f9  1020 0001:00004700  1021 0001:00004707
  1022 0001:00004711  1023 0001:00004718  1026 0001:00004722  1027 0001:00004729
  1028 0001:00004730  1029 0001:00004737  1033 0001:00004741  1035 0001:0000474a
  1036 0001:00004790  1039 0001:000047a0  1040 0001:000047af  1041 0001:000047b1
  1043 0001:000047b6  1044 0001:000047bc  1045 0001:000047d0  1046 0001:000047e2
  1048 0001:000047f3  1051 0001:00004805  1053 0001:00004807  1054 0001:00004811
  1055 0001:00004823  1058 0001:00004829  1060 0001:00004835  1061 0001:00004838
  1064 0001:00004839  1066 0001:00004839  1067 0001:0000483d  1073 0001:00004842
  1069 0001:00004843  1070 0001:00004848  1071 0001:0000484e  1072 0001:00004857
  1073 0001:00004859  1077 0001:0000485a  1079 0001:0000485b  1080 0001:00004865
  1081 0001:0000486c  1082 0001:00004870  1084 0001:00004881  1087 0001:00004884
  1088 0001:00004891  1089 0001:00004896  1091 0001:000048a9  1093 0001:000048b0
  1094 0001:000048b7  1097 0001:000048be  1099 0001:000048c4  1100 0001:000048cf
  1101 0001:000048d3  1104 0001:000048eb  1107 0001:000048f4  1108 0001:000048ff
  1109 0001:0000490a  1115 0001:0000490f  1117 0001:00004920  1118 0001:00004927
  1119 0001:0000492d  1122 0001:0000493a  1125 0001:0000494a  1126 0001:0000494e
  1127 0001:0000495e  1128 0001:00004971  1131 0001:00004981  1132 0001:0000498c
  1133 0001:00004997  1136 0001:000049a7  1137 0001:000049ab  1138 0001:000049ad
  1140 0001:000049b6  1144 0001:000049ba  1147 0001:000049c3  1148 0001:000049ce
  1149 0001:000049d9  1152 0001:000049df  1153 0001:000049e6  1155 0001:000049ec
  1156 0001:000049fd  1159 0001:00004a0c  1161 0001:00004a1c  1162 0001:00004a21
  1164 0001:00004a27  1168 0001:00004a2e  1170 0001:00004a3b  1173 0001:00004a49
  1174 0001:00004a4f  1180 0001:00004a52  1181 0001:00004a7a  1182 0001:00004a81
  1183 0001:00004a8c  1184 0001:00004a93  1185 0001:00004aa1  1188 0001:00004abf
  1191 0001:00004aca  1194 0001:00004ad9  1195 0001:00004ae2  1198 0001:00004af4
  1199 0001:00004afc  1205 0001:00004b0a  1206 0001:00004b12  1207 0001:00004b1a
  1209 0001:00004b2d  1210 0001:00004b42  1213 0001:00004b4e  1218 0001:00004b5f
  1220 0001:00004b6a  1223 0001:00004b82  1196 0001:00004b87  1224 0001:00004b8d
  1227 0001:00004b91  1228 0001:00004b94  1229 0001:00004b9a  1230 0001:00004ba4
  1231 0001:00004ba8  1234 0001:00004bb3  1236 0001:00004bcd  1237 0001:00004bd3
  1239 0001:00004be5  1240 0001:00004be9  1242 0001:00004bfc  1243 0001:00004c06
  1245 0001:00004c0d  1247 0001:00004c1c  1248 0001:00004c27  1251 0001:00004c2e
  1253 0001:00004c39  1254 0001:00004c42  1256 0001:00004c49  1257 0001:00004c4d
  1262 0001:00004c51  1278 0001:00004c57  1280 0001:00004c5e  1281 0001:00004c64
  1282 0001:00004c6e  1286 0001:00004c74  1294 0001:00004c84  1299 0001:00004c8b
  1300 0001:00004c90  1302 0001:00004c94  1303 0001:00004c96  1304 0001:00004c9f
  1307 0001:00004ca5  1309 0001:00004cb1  1310 0001:00004cb7  1311 0001:00004cbd
  1312 0001:00004cc3  1313 0001:00004cc9  1314 0001:00004ccf  1315 0001:00004cd5
  1317 0001:00004cdb  1318 0001:00004cf4  1322 0001:00004cf8  1323 0001:00004d01
  1324 0001:00004d0c  1325 0001:00004d16  1329 0001:00004d1f  1330 0001:00004d2b
  1333 0001:00004d35  1334 0001:00004d3d  1335 0001:00004d46  1336 0001:00004d48
  1337 0001:00004d51  1338 0001:00004d59  1339 0001:00004d64  1340 0001:00004d71
  1344 0001:00004d77  1347 0001:00004d8f  1350 0001:00004d93  1351 0001:00004d99
  1353 0001:00004d9c  1355 0001:00004daa  1359 0001:00004dc7  1360 0001:00004dd1
  1361 0001:00004ddd  1362 0001:00004ded  1363 0001:00004df8  1365 0001:00004e03
  1366 0001:00004e0c  1367 0001:00004e13  1369 0001:00004e1a  1371 0001:00004e29
  1373 0001:00004e2d  1374 0001:00004e36  1377 0001:00004e3d  1378 0001:00004e44
  1380 0001:00004e4a  1381 0001:00004e50  1382 0001:00004e53  1384 0001:00004e63
  1385 0001:00004e69  1386 0001:00004e6c  1388 0001:00004e6f  1389 0001:00004e74
  1393 0001:00004e78  1392 0001:00004e78  1396 0001:00004e80  1397 0001:00004e89
  1398 0001:00004e94  1399 0001:00004ea2  1401 0001:00004eac  1402 0001:00004eae
  1403 0001:00004ebf  1404 0001:00004ec1  1407 0001:00004ec2  1410 0001:00004ec8
  1411 0001:00004ed6  1412 0001:00004edc  1413 0001:00004ede  1414 0001:00004ee4
  1415 0001:00004ef0  1416 0001:00004f03  1422 0001:00004f0e  1427 0001:00004f2a
  1430 0001:00004f30  1428 0001:00004f32  1429 0001:00004f39  1424 0001:00004f3b
  1425 0001:00004f4a  1431 0001:00004f50  1434 0001:00004f52  1435 0001:00004f58
  1436 0001:00004f5d  1438 0001:00004f6b  1439 0001:00004f76  1441 0001:00004f84
  1442 0001:00004f8d  1443 0001:00004fa3  1445 0001:00004fa5  1446 0001:00004fb4
  1447 0001:00004fbd  1448 0001:00004fc8  1449 0001:00004fd6  1450 0001:00004fe2
  1453 0001:00004fe9  1455 0001:00004ff9  1456 0001:00005001  1457 0001:00005009
  1458 0001:00005012  1459 0001:00005016  1460 0001:00005021  1461 0001:00005026
  1994 0001:00005f7d  1993 0001:00005f7d  1996 0001:00005f8a  1997 0001:00005f91
  1998 0001:00005f94  1999 0001:00005f96  2000 0001:00005f99  2001 0001:00005f9b
  2054 0001:00005f9e  2055 0001:00005f9f  2057 0001:00005fac  2058 0001:00005fb9
  2061 0001:00005fbc  2060 0001:00005fbc  2063 0001:00005fc9  2064 0001:00005fd5
  2071 0001:00005fd8  2072 0001:00005fd9  2074 0001:00005fdd  2075 0001:00005ff3
  2186 0001:00005ff6  2187 0001:00005ff9  2192 0001:00006005  2193 0001:0000600d
  2196 0001:00006017  2198 0001:0000601e  2199 0001:0000602c  2201 0001:00006031
  2204 0001:00006033  2207 0001:00006047  2208 0001:00006055  2210 0001:00006057
  2211 0001:00006062  2213 0001:00006064  2214 0001:0000606f  2216 0001:00006071
  2217 0001:0000607c  2219 0001:0000607e  2220 0001:00006086  2222 0001:00006088
  2223 0001:0000608a  2228 0001:0000608d  2232 0001:00006099  2234 0001:000060bd
  2237 0001:000060bd  2238 0001:000060c4  2239 0001:000060cb  2240 0001:000060da
  2249 0001:000060dd  2247 0001:000060dd  2250 0001:000060df  2263 0001:000060e2
  2261 0001:000060e2  2264 0001:000060f5  2267 0001:000060f8  2266 0001:000060f8
  2269 0001:00006104  2270 0001:0000611a  2275 0001:0000611d  2272 0001:0000611d
  2276 0001:00006124  2277 0001:0000612b  2278 0001:00006133  2273 0001:0000613a
  2279 0001:00006149  2280 0001:00006154  2281 0001:00006156  2284 0001:00006159
  2283 0001:00006159  2286 0001:0000615d  2287 0001:00006176  2289 0001:00006179
  2290 0001:00006179  2293 0001:00006186  2294 0001:00006192  2296 0001:0000619c
  2298 0001:0000619f  2299 0001:0000619f  2302 0001:000061a3  2303 0001:000061b4
  2304 0001:000061bb  2306 0001:000061be  2307 0001:000061ca  2309 0001:000061d1
  2313 0001:000061d4  2311 0001:000061d4  2314 0001:000061e7  3059 0001:000061ea
  3061 0001:000061ea  3064 0001:000061f7  3065 0001:00006202  3067 0001:00006207
  3069 0001:0000620f  3070 0001:00006217  3073 0001:00006225  3082 0001:00006228
  3084 0001:00006233  3085 0001:0000623d  3086 0001:00006243  3087 0001:00006259
  3088 0001:0000625e  3089 0001:00006266  3090 0001:00006274  3092 0001:00006278
  3095 0001:0000627e  3096 0001:00006290  3097 0001:00006291  3098 0001:0000629a
  3099 0001:0000629c  3100 0001:000062a5  3101 0001:000062a8  3103 0001:000062b6
  3104 0001:000062b8  3106 0001:000062bb  3107 0001:000062d7  3117 0001:000062e6
  3114 0001:000062e6  3118 0001:000062fb  3119 0001:00006304  3120 0001:00006306
  2835 0001:00006309  2839 0001:0000630d  2840 0001:0000633a  2843 0001:0000633e
  2844 0001:0000633e  2845 0001:00006343  2855 0001:00006346  2856 0001:00006347
  2858 0001:00006355  2859 0001:00006362  2860 0001:00006365  2867 0001:00006368
  2862 0001:00006368  2869 0001:00006375  2870 0001:00006382  2871 0001:00006387
  2872 0001:0000638d  2873 0001:00006396  2876 0001:00006398  2884 0001:0000639b
  2881 0001:0000639b  2885 0001:000063a3  2887 0001:000063aa  2888 0001:000063b9
  2889 0001:000063c4  2890 0001:000063c6  2903 0001:000063c9  2900 0001:000063c9
  2904 0001:000063d1  2907 0001:000063d8  2908 0001:000063de  2909 0001:000063e0
  2911 0001:000063e3  2914 0001:000063e7  2915 0001:000063ee  2917 0001:000063f5
  2919 0001:000063fb  2920 0001:00006413  2922 0001:00006417  2924 0001:0000641a
  2925 0001:00006420  2927 0001:00006424  2930 0001:0000642b  2931 0001:00006432
  2933 0001:00006439  2936 0001:0000643f  2937 0001:00006458  2939 0001:0000645c
  2941 0001:0000645f  2942 0001:00006465  2944 0001:00006469  2948 0001:00006469
  2953 0001:00006479  2955 0001:00006485  2957 0001:0000649a  2958 0001:000064a5
  2961 0001:000064a7  2949 0001:000064a9  2962 0001:000064ae  2979 0001:000064b1
  2981 0001:000064b1  2984 0001:000064be  2985 0001:000064c9  2987 0001:000064ce
  2989 0001:000064d6  2990 0001:000064de  2993 0001:000064ec  3002 0001:000064ef
  3003 0001:000064f0  3005 0001:000064fd  3006 0001:00006506  3008 0001:00006509
  3009 0001:0000650a  3011 0001:00006517  3012 0001:00006520  3015 0001:00006523
  3014 0001:00006523  3017 0001:00006527  3018 0001:00006543  3027 0001:00006546
  3029 0001:0000654d  3030 0001:00006551  3031 0001:00006570  3033 0001:00006576
  3037 0001:0000659a  3038 0001:000065ab  2012 0001:000067a7  2013 0001:000067a7
  2030 0001:000067ab  2031 0001:000067c4  2034 0001:000067c7  2033 0001:000067c7
  2036 0001:000067cb  2037 0001:000067e5  2039 0001:000067e8  2040 0001:000067e8
  2042 0001:000067ec  2043 0001:00006806  3201 0001:00006809  3199 0001:00006809
  3202 0001:0000680d  3203 0001:00006826  3217 0001:00006829  3218 0001:00006829
  3219 0001:0000682e  3226 0001:00006831  3228 0001:00006836  3230 0001:00006844
  3231 0001:0000684c  3233 0001:00006853  3234 0001:00006857  3237 0001:0000686e
  3239 0001:00006872  3241 0001:00006872  3243 0001:0000687f  3244 0001:00006886
  3245 0001:0000688b  3246 0001:0000688d  3248 0001:00006897  3250 0001:0000689a
  3253 0001:0000689a  3254 0001:000068a2  3257 0001:000068a9  3258 0001:000068b9
  3259 0001:000068c0  3260 0001:000068c9  3261 0001:000068ce  1553 0001:0000690d
  1555 0001:00006914  1556 0001:00006918  1557 0001:00006929  1559 0001:0000692c
  1560 0001:0000692f  1561 0001:00006945  1575 0001:0000694c  1576 0001:00006951
  1578 0001:00006958  1579 0001:0000695f  1582 0001:00006964  1583 0001:00006970
  1586 0001:00006974  1587 0001:00006983  1588 0001:0000698c  1590 0001:000069a0
  1591 0001:000069a3  1627 0001:000069a5  1628 0001:000069a6  1630 0001:000069ad
  1631 0001:000069ba  1632 0001:000069bc  1633 0001:000069be  1634 0001:000069c6
  1635 0001:000069cd  1636 0001:000069d1  1637 0001:000069d6  1638 0001:000069e2
  1639 0001:000069e9  1640 0001:000069ef  1823 0001:000069f0  1824 0001:000069f3
  1825 0001:000069fd  1826 0001:00006a0f  1827 0001:00006a13  1828 0001:00006a1c
  1829 0001:00006a20  1832 0001:00006a23  1831 0001:00006a23  1834 0001:00006a2b
  1835 0001:00006a36  1836 0001:00006a3c  1837 0001:00006a4e  1838 0001:00006a54
  1839 0001:00006a6b  1840 0001:00006a7d  1841 0001:00006a88  1843 0001:00006aa0
  1844 0001:00006aa2  1930 0001:00006aa5  1931 0001:00006ab5  1932 0001:00006ad4
  1933 0001:00006adb  1934 0001:00006af7  1935 0001:00006b17  1936 0001:00006b36
  1937 0001:00006b41  1938 0001:00006b4c  1939 0001:00006b57  1942 0001:00006b6f
  1940 0001:00006b77  1941 0001:00006b90  1515 0001:00006bbe  1513 0001:00006bbe
  1516 0001:00006bd6  2095 0001:00007115  2096 0001:00007125  2098 0001:0000712f
  2101 0001:0000713d  2102 0001:00007150  2105 0001:00007162  2106 0001:0000716c
  2107 0001:00007183  2109 0001:00007195  2115 0001:00007195  2116 0001:000071ac
  2117 0001:000071b0  2120 0001:000071b2  2122 0001:000071b5  2123 0001:000071b5
  2128 0001:000071bc  2129 0001:000071d2  2132 0001:000071d6  2134 0001:000071df
  2135 0001:000071e3  2137 0001:000071e6  2138 0001:000071e6  2139 0001:000071ef
  2140 0001:000071f1  2145 0001:000071f7  2146 0001:00007205  2147 0001:00007209
  2151 0001:0000720b  2153 0001:0000720e  2154 0001:00007211  2159 0001:0000721a
  2160 0001:00007223  2161 0001:0000722d  2164 0001:00007236  2165 0001:00007239
  1564 0001:00007332  1563 0001:00007332  1568 0001:0000733f  1571 0001:00007343
  1572 0001:0000735a  1593 0001:0000735d  1594 0001:00007368  1595 0001:00007374
  1596 0001:0000737c  1597 0001:0000738d  1598 0001:00007395  1599 0001:000073a1
  1600 0001:000073af  1602 0001:000073c0  1604 0001:000073c7  1608 0001:000073d9
  1610 0001:000073f5  1614 0001:000073f9  1615 0001:00007407  1616 0001:00007413
  1617 0001:00007417  1619 0001:0000741b  1620 0001:0000741c  1621 0001:0000742e
  1622 0001:00007433  1623 0001:0000743a  1624 0001:00007443  1625 0001:00007447
  1643 0001:0000744a  1644 0001:00007457  1647 0001:00007462  1650 0001:0000748b
  1651 0001:00007491  1655 0001:000074ad  1657 0001:000074b5  1660 0001:000074bd
  1661 0001:000074d3  1664 0001:000074d9  1665 0001:000074e6  1668 0001:000074f9
  1669 0001:000074fb  1672 0001:000074fd  1690 0001:0000751f  1692 0001:00007523
  1693 0001:0000752e  1694 0001:0000753b  1695 0001:00007547  1648 0001:0000754c
  1788 0001:0000754e  1676 0001:0000755f  1678 0001:00007563  1679 0001:0000756e
  1680 0001:0000757d  1681 0001:0000758b  1682 0001:0000758e  1712 0001:00007590
  1755 0001:000075a8  1717 0001:000075ae  1718 0001:000075bb  1720 0001:000075c3
  1722 0001:000075ce  1723 0001:000075dd  1726 0001:000075e5  1727 0001:000075ee
  1729 0001:000075f6  1731 0001:00007605  1732 0001:00007607  1734 0001:00007619
  1737 0001:0000762d  1734 0001:0000764e  1737 0001:0000765c  1739 0001:0000765e
  1743 0001:0000766b  1745 0001:00007674  1746 0001:00007676  1748 0001:0000767a
  1750 0001:0000767c  1758 0001:00007689  1760 0001:00007693  1761 0001:00007699
  1765 0001:000076ae  1769 0001:000076c6  1771 0001:000076ce  1774 0001:000076d6
  1776 0001:000076f4  1777 0001:000076f9  1778 0001:00007705  1780 0001:0000770c
  1781 0001:0000770f  1782 0001:00007721  1783 0001:00007725  1784 0001:0000772e
  1785 0001:0000773f  1787 0001:0000774d  1791 0001:00007755  1790 0001:00007755
  1792 0001:00007768  1795 0001:0000776f  1796 0001:0000777c  1798 0001:00007784
  1801 0001:0000778a  1803 0001:0000778f  1804 0001:0000779b  1806 0001:000077a0
  1807 0001:000077a8  1808 0001:000077b1  1810 0001:000077b8  1811 0001:000077bc
  1812 0001:000077ce  1813 0001:000077d2  1814 0001:000077db  1815 0001:000077ec
  1817 0001:000077fb  1818 0001:000077ff  1820 0001:00007806  1866 0001:00007813
  1868 0001:00007817  1871 0001:0000781d  1877 0001:00007847  1883 0001:00007862
  1884 0001:0000787f  1886 0001:0000788d  1879 0001:00007892  1881 0001:0000789d
  1873 0001:0000789f  1889 0001:000078b9  1890 0001:000078bf  1891 0001:000078c2
  1894 0001:000078c3  1896 0001:000078d0  1897 0001:000078d9  1899 0001:000078e4
  1901 0001:000078f4  1904 0001:000078fc  1906 0001:00007901  1908 0001:0000790d
  1910 0001:00007912  1911 0001:0000791a  1912 0001:00007923  1914 0001:0000792a
  1915 0001:0000792e  1916 0001:00007940  1917 0001:00007944  1918 0001:0000794d
  1919 0001:0000795e  1922 0001:0000796e  1927 0001:0000797a  1928 0001:0000798e
  1493 0001:0000799c

Line numbers for .\Release\SuperSaverOptionsShim.obj(g:\vsnet\vc7\atlmfc\include\atlcom.h) segment .text

  3763 0001:00005975  3765 0001:00005976  3766 0001:00005984  3767 0001:00005991
  3768 0001:00005994  3772 0001:00005997  3770 0001:00005997  3775 0001:0000599b
  3777 0001:000059b1  3778 0001:000059b8  3779 0001:000059c2  3781 0001:000059c4
  3782 0001:000059c7  3786 0001:000059cc  4398 0001:000059cf  4399 0001:000059d0
  4400 0001:000059e3  4404 0001:000059e6  4403 0001:000059e6  4405 0001:00005a00
  4409 0001:00005a03  4411 0001:00005a07  4412 0001:00005a2a  2496 0001:00005a8f
  2498 0001:00005a92  2502 0001:00005aad  2503 0001:00005ab8  2509 0001:00005abf
  2508 0001:00005abf  2510 0001:00005aca  2511 0001:00005acc  2512 0001:00005ada
  2513 0001:00005add  2516 0001:00005ae0  2496 0001:00005aff  2498 0001:00005b02
  2502 0001:00005b1d  2503 0001:00005b28  2506 0001:00005b2f  2516 0001:00005b3c
  2489 0001:00005b5b  2491 0001:00005b68  2492 0001:00005b73  2496 0001:00005b76
  2497 0001:00005b7f  2502 0001:00005b86  2503 0001:00005b91  2506 0001:00005b99
  2509 0001:00005ba6  2508 0001:00005ba6  2510 0001:00005bb1  2511 0001:00005bb3
  2512 0001:00005bbe  2513 0001:00005bc1  2516 0001:00005bc4  4648 0001:00005bdf
  1751 0001:00005c76  1753 0001:00005c88  1754 0001:00005c92  1759 0001:00005c99
  1760 0001:00005cd8  1769 0001:00005cdc  1770 0001:00005ced  1771 0001:00005cf4
  1773 0001:00005cfd  1774 0001:00005d00  4392 0001:00005d33  4391 0001:00005d33
  4393 0001:00005d3b  4394 0001:00005d42  4395 0001:00005d48  4396 0001:00005d4a
  4398 0001:00005d4d  4399 0001:00005d4e  4400 0001:00005d61  4403 0001:00005d64
  4404 0001:00005d64  4405 0001:00005d7e  4409 0001:00005d81  4411 0001:00005d85
  4412 0001:00005da8   502 0001:00005dac   504 0001:00005dad   505 0001:00005db5
   506 0001:00005dbd   507 0001:00005dc6   508 0001:00005dca   512 0001:00005dcd
   514 0001:00005dcd   515 0001:00005ddc   516 0001:00005de7   518 0001:00005dea
   521 0001:00005dea   522 0001:00005df5   523 0001:00005e08   526 0001:00005e0b
   525 0001:00005e0b   528 0001:00005e18   529 0001:00005e34   531 0001:00005e37
   533 0001:00005e45   536 0001:00005e53   537 0001:00005e5b   544 0001:00005e65
   545 0001:00005e68   547 0001:00005e6f   549 0001:00005e75   551 0001:00005e94
   555 0001:00005e98   557 0001:00005e9f   558 0001:00005ea5   561 0001:00005ea7
   562 0001:00005eb1   564 0001:00005ebd   565 0001:00005ece   571 0001:00005ede
   574 0001:00005ee4   580 0001:00005efa   581 0001:00005f05   574 0001:00005f23
   578 0001:00005f25   582 0001:00005f36   583 0001:00005f41   584 0001:00005f58
   590 0001:00005f67   588 0001:00005f67   591 0001:00005f74   592 0001:00005f78
   593 0001:00005f7a   629 0001:000065af   631 0001:000065ba   632 0001:000065c0
   633 0001:000065ce   634 0001:000065f2   636 0001:00006604   638 0001:0000660f
   639 0001:00006615   640 0001:00006623   641 0001:00006647   643 0001:00006659
   645 0001:00006666   646 0001:0000666f   647 0001:00006677   648 0001:0000667a
   650 0001:00006687   652 0001:00006695   654 0001:00006698   655 0001:000066af
   656 0001:000066b6   657 0001:000066c2   658 0001:000066d2   659 0001:000066e4
   661 0001:000066f4   663 0001:00006701   664 0001:0000670a   665 0001:00006712
   666 0001:00006715   668 0001:00006722   670 0001:00006730   674 0001:00006733
   675 0001:0000674e   676 0001:00006755   677 0001:00006764   678 0001:00006774
   679 0001:00006786  4988 0001:00006796  4991 0001:00006796  4992 0001:000067a4
  4485 0001:000068d1  4486 0001:000068d2  4487 0001:000068e3  4489 0001:000068e6
  4490 0001:000068e7  4491 0001:000068ef  4498 0001:000068f7  4499 0001:00006900
  4500 0001:00006907  3412 0001:0000690a  1751 0001:00006f33  1753 0001:00006f40
  1754 0001:00006f4f  1759 0001:00006f56  1760 0001:00006f8f  1769 0001:00006f93
  1770 0001:00006fa4  1771 0001:00006fab  1773 0001:00006fb4  1774 0001:00006fb7
  1827 0001:00006fc8  1832 0001:00006fcb  1833 0001:00006fde  1832 0001:00006fe3
   596 0001:000070ee   597 0001:000070f1   598 0001:000070fa   599 0001:00007109
   600 0001:0000710d   603 0001:00007112  4995 0001:0000723a  4996 0001:00007240
  4997 0001:00007248  4999 0001:0000724a  5000 0001:0000724e  5005 0001:0000725a
  5015 0001:00007268  5008 0001:0000726c  5011 0001:00007273  5012 0001:00007281
  5005 0001:00007284  5015 0001:00007293  5016 0001:000072a3  5017 0001:000072a9
  5020 0001:000072b0  5023 0001:000072be  5026 0001:000072c4  5031 0001:000072d6
  5033 0001:000072e4  5020 0001:000072ff  5042 0001:00007308  5046 0001:00007321
  5047 0001:00007329  5048 0001:0000732e  2950 0001:000079bb  2951 0001:000079e9
  2952 0001:000079f4  2971 0001:00007a05  2973 0001:00007a1e  2977 0001:00007a2f
  2978 0001:00007a3a  2983 0001:00007a51  2982 0001:00007a51  2984 0001:00007a5c
  2985 0001:00007a5e  2986 0001:00007a69  2987 0001:00007a6c  2989 0001:00007a6f
  2993 0001:00007a73  2994 0001:00007a7d  2998 0001:00007a84  3000 0001:00007a90
  3001 0001:00007a97  3006 0001:00007a9d  3007 0001:00007a9f  3008 0001:00007ab2
  3009 0001:00007ab6  2813 0001:00007aba  2814 0001:00007aca  2817 0001:00007ada
  2816 0001:00007ada  2818 0001:00007aee  2833 0001:00007af1  2827 0001:00007af1
  2835 0001:00007af4  2564 0001:00007af5  2568 0001:00007b2d  2574 0001:00007b31
  2578 0001:00007b59  2579 0001:00007b5b  2580 0001:00007b6a  2581 0001:00007b74
  2582 0001:00007b7b  2583 0001:00007b86  2584 0001:00007b8f  2585 0001:00007b92
  2587 0001:00007b95  2588 0001:00007b98  2589 0001:00007ba6  2590 0001:00007bb0
  2591 0001:00007bb2  2592 0001:00007bb9  2593 0001:00007bbd  2594 0001:00007bc6
  2595 0001:00007bcd  2596 0001:00007bd9  2597 0001:00007bdd  2600 0001:00007be0
  1751 0001:00007bfb  1753 0001:00007c08  1754 0001:00007c17  1757 0001:00007c1e
  1759 0001:00007c23  1760 0001:00007c58  1763 0001:00007c5c  1764 0001:00007c64
  1765 0001:00007c6d  1766 0001:00007c71  1767 0001:00007c73  1768 0001:00007c75
  1769 0001:00007c79  1770 0001:00007c86  1771 0001:00007c8a  1773 0001:00007c93
  1774 0001:00007c95  1751 0001:00007ca6  1753 0001:00007cb8  1754 0001:00007cc2
  1757 0001:00007cc9  1759 0001:00007cce  1760 0001:00007d0c  1764 0001:00007d10
  1765 0001:00007d1a  1766 0001:00007d1e  1768 0001:00007d20  1769 0001:00007d24
  1770 0001:00007d31  1771 0001:00007d35  1773 0001:00007d3e  1774 0001:00007d40
  2804 0001:00007fe4  2489 0001:00008045  2491 0001:000080b3  2492 0001:000080be
  2496 0001:000080c1  2497 0001:0000812c  2502 0001:00008136  2503 0001:00008141
  2506 0001:00008149  2508 0001:00008159  2509 0001:00008159  2510 0001:00008168
  2511 0001:0000816a  2512 0001:00008177  2513 0001:0000817a  2516 0001:0000817d
  2848 0001:00008198  2849 0001:000081c0  2850 0001:000081cb  2866 0001:000081dd
  2867 0001:000081f8  2872 0001:000081ff  2873 0001:0000820a  2884 0001:00008223
  2886 0001:00008227  2887 0001:00008231  2891 0001:00008238  2893 0001:00008244
  2894 0001:0000824b  2899 0001:00008251  2900 0001:00008253  2901 0001:00008266
  2902 0001:0000826a  2813 0001:0000826e  2814 0001:00008281  2817 0001:00008294
  2816 0001:00008294  2818 0001:000082ab  2804 0001:00008308  2528 0001:000086c2
  2530 0001:000086d5  2531 0001:000086de  2536 0001:000086e5  2537 0001:00008719
  2543 0001:0000871d  2551 0001:00008721  2552 0001:00008723  2553 0001:00008726
  2528 0001:00008737  2530 0001:0000874a  2531 0001:00008753  2536 0001:0000875a
  2537 0001:0000878e  2543 0001:00008792  2551 0001:00008796  2552 0001:00008798
  2553 0001:0000879b  4667 0001:000087ac  4668 0001:000087c1  4670 0001:000087c8
  4671 0001:000087cd  4670 0001:000087d9  4672 0001:000087e1  4674 0001:000087eb
  4679 0001:00008809  4680 0001:0000880e  4681 0001:00008817  4682 0001:00008819
  4683 0001:00008820  4684 0001:00008827  4686 0001:00008838  4689 0001:0000884e
  4690 0001:00008857  4691 0001:0000885b  4692 0001:0000885e  4693 0001:00008862
  4694 0001:00008866  4696 0001:00008868  4695 0001:0000886f  4698 0001:00008871
  4708 0001:00008882  4710 0001:0000888c  4687 0001:00008891  4685 0001:00008898
  4711 0001:000088a0  4715 0001:000088a4  4716 0001:000088a5  4717 0001:000088ad
  4719 0001:000088b4  4720 0001:000088c3  4721 0001:000088c9  4722 0001:000088cf
  4723 0001:000088d9  4727 0001:000088dc  4730 0001:000088e8  4748 0001:000088ed
  4738 0001:00008936  4739 0001:00008965  4741 0001:00008969  4742 0001:0000896c
  4744 0001:00008984  4745 0001:00008988  4749 0001:00008996  4754 0001:000089a8
  4755 0001:000089b3  4758 0001:000089c5  4759 0001:000089f0  4760 0001:000089f3
  4761 0001:000089fa  4762 0001:00008a01  4765 0001:00008a08  4775 0001:00008a19
  4777 0001:00008a24  4779 0001:00008a33  4781 0001:00008a35  4782 0001:00008a3b
  4784 0001:00008a3e  4785 0001:00008a49  4786 0001:00008a4f  4787 0001:00008a55
  4788 0001:00008a57   696 0001:00008c6d   697 0001:00008c75   699 0001:00008c7a
   700 0001:00008c92   701 0001:00008ca2   702 0001:00008ca7  4127 0001:00008cf8
  4129 0001:00008cfe  4130 0001:00008d03  4179 0001:00008d0a  4132 0001:00008d0c
  4135 0001:00008d18  4136 0001:00008d20  4137 0001:00008d2c  4139 0001:00008d31
  4140 0001:00008d37  4143 0001:00008d3c  4145 0001:00008d51  4147 0001:00008d59
  4148 0001:00008d5d  4150 0001:00008d66  4152 0001:00008d71  4154 0001:00008d75
  4155 0001:00008d8b  4156 0001:00008d92  4158 0001:00008d94  4159 0001:00008dab
  4161 0001:00008db2  4164 0001:00008dbf  4166 0001:00008dc1  4167 0001:00008dc9
  4168 0001:00008dd4  4169 0001:00008dd6  4173 0001:00008de8  4174 0001:00008dee
  4176 0001:00008df4  4133 0001:00008dfb  4174 0001:00008e05  4160 0001:00008e07
  4178 0001:00008e0d  4179 0001:00008e13  2489 0001:00008e78  2491 0001:00008e8c
  2492 0001:00008e97  2489 0001:00008e9a  2491 0001:00008eae  2492 0001:00008eb9
  2528 0001:00008ebc  2530 0001:00008ecf  2531 0001:00008ed8  2536 0001:00008edf
  2537 0001:00008f13  2543 0001:00008f17  2551 0001:00008f1b  2552 0001:00008f1d
  2553 0001:00008f20  3187 0001:0000933f  3186 0001:0000933f  3188 0001:00009344
  3189 0001:00009351  3190 0001:00009353  3191 0001:00009356  3192 0001:00009358
  3166 0001:0000935b  3169 0001:0000935f  3171 0001:0000936b  3174 0001:0000936e
  3177 0001:00009380  3179 0001:00009385  3180 0001:00009387  3183 0001:00009395
  6097 0001:00009399  6098 0001:000093a6  6101 0001:000093d7  6102 0001:000093e2
  6103 0001:000093eb  6104 0001:000093ef  6108 0001:000093f3  6110 0001:00009400
  6111 0001:00009408  6112 0001:00009418  6114 0001:00009422  6115 0001:0000942a
  6116 0001:0000943b  6118 0001:00009443  6119 0001:0000944b  6120 0001:0000945b
  6123 0001:00009463  6124 0001:00009472  6126 0001:0000947a  6127 0001:00009487
  6128 0001:00009494  6129 0001:000094a1  6132 0001:000094ab  6133 0001:000094b3
  6134 0001:000094c1  6135 0001:000094cc  6136 0001:000094d9  6139 0001:000094de
  6142 0001:000094e6  6144 0001:000094ee  6145 0001:000094fe  6147 0001:00009506
  6148 0001:00009515  6150 0001:0000951d  6151 0001:00009530  6154 0001:00009538
  6155 0001:00009548  6158 0001:00009553  6161 0001:0000955f  6162 0001:0000956f
  6164 0001:00009573  6158 0001:00009579  6164 0001:00009585  6167 0001:00009587
  6168 0001:00009597  6170 0001:0000959b  6171 0001:000095a3  6172 0001:000095b5
  6175 0001:000095b9  6176 0001:000095c6  6178 0001:000095cb  6179 0001:000095d8
  6182 0001:000095e7  6187 0001:000095ef  6192 0001:000095fb  6193 0001:0000960b
  6195 0001:00009613  6196 0001:0000961b  6197 0001:00009623  6198 0001:0000962b
  6099 0001:00009630  6199 0001:00009635  3161 0001:0000975e  3162 0001:00009764
  5830 0001:00009793  5832 0001:0000979e  5836 0001:000097c5  5837 0001:000097db
  5838 0001:000097dd  5840 0001:000097e3  5842 0001:000097eb  5840 0001:000097f7
  5844 0001:000097fa  5848 0001:00009802  5850 0001:00009809  5852 0001:0000980f
  5855 0001:00009816  5856 0001:00009829  5858 0001:00009834  5859 0001:0000983d
  5860 0001:0000983f  5863 0001:0000984d  5866 0001:0000984f  5867 0001:00009859
  5869 0001:00009861  5870 0001:00009871  5876 0001:00009884  5879 0001:0000988a
  5886 0001:000098a0  5889 0001:000098ad  5887 0001:000098b7  5842 0001:000098bb
  5887 0001:000098cd  5883 0001:000098cf  5890 0001:000098de  5833 0001:000098ea
  5891 0001:000098f2  5761 0001:00009adb  5763 0001:00009ae6  5768 0001:00009b0d
  5769 0001:00009b1a  5770 0001:00009b1f  5771 0001:00009b25  5772 0001:00009b2e
  5774 0001:00009b38  5776 0001:00009b40  5774 0001:00009b4c  5778 0001:00009b4f
  5782 0001:00009b57  5784 0001:00009b5e  5786 0001:00009b64  5788 0001:00009b6b
  5789 0001:00009b6e  5790 0001:00009b7c  5791 0001:00009b7f  5792 0001:00009b89
  5793 0001:00009b8d  5794 0001:00009b9c  5796 0001:00009ba5  5799 0001:00009ba7
  5801 0001:00009bb1  5802 0001:00009bbc  5805 0001:00009bc3  5807 0001:00009bcb
  5808 0001:00009bdb  5814 0001:00009bee  5817 0001:00009bf4  5823 0001:00009c05
  5817 0001:00009c25  5803 0001:00009c27  5812 0001:00009c2d  5820 0001:00009c31
  5821 0001:00009c38  5824 0001:00009c3e  5764 0001:00009c4b  5825 0001:00009c53
  3584 0001:0000a09c  3585 0001:0000a09f  3586 0001:0000a0a9  3587 0001:0000a0af
  3589 0001:0000a0cd  3520 0001:0000a0d1  3521 0001:0000a0d4  3522 0001:0000a0d6
  3523 0001:0000a0e0  3525 0001:0000a0ea  3632 0001:0000a0ed  3637 0001:0000a103
  3638 0001:0000a112  3640 0001:0000a119  3641 0001:0000a128  3649 0001:0000a132
  3652 0001:0000a14c  3655 0001:0000a175  3656 0001:0000a18e  3658 0001:0000a19e
  3664 0001:0000a1a4  3665 0001:0000a1bb  3667 0001:0000a1c9  3669 0001:0000a1cb
  3720 0001:0000a1f0  3722 0001:0000a1fc  3723 0001:0000a202  3724 0001:0000a21b
  3726 0001:0000a229  3727 0001:0000a242  3728 0001:0000a248  3729 0001:0000a261
  3731 0001:0000a274  3733 0001:0000a277  3735 0001:0000a28d  3736 0001:0000a2b2
  3737 0001:0000a2be  3739 0001:0000a2d1  3742 0001:0000a2d3  3745 0001:0000a2d9
  3746 0001:0000a2e6  3748 0001:0000a2ed  3749 0001:0000a2fe  3530 0001:0000a3bf
  3532 0001:0000a3c0  3536 0001:0000a3c8  3537 0001:0000a3cf  3538 0001:0000a3d5
  3539 0001:0000a3da  3540 0001:0000a3e8  3541 0001:0000a3ee  3591 0001:0000a3f1
  3593 0001:0000a3ff  3594 0001:0000a414  3597 0001:0000a41e  3599 0001:0000a425
  3601 0001:0000a434  3602 0001:0000a48a  3604 0001:0000a490  3605 0001:0000a499
  3608 0001:0000a4a5  3611 0001:0000a4b4  3613 0001:0000a4c5  3614 0001:0000a4ca
  3616 0001:0000a4e7  3617 0001:0000a4fd  3618 0001:0000a505  3620 0001:0000a513
  3621 0001:0000a51c  3623 0001:0000a53b  3624 0001:0000a53e  3626 0001:0000a54a
  3627 0001:0000a54c  3477 0001:0000a55d  3549 0001:0000a56b  3550 0001:0000a56f
  3551 0001:0000a579  3557 0001:0000a57f  3559 0001:0000a58d  3560 0001:0000a598
  3563 0001:0000a5a7  3560 0001:0000a5cf  3575 0001:0000a5d7  3579 0001:0000a5ec
  3565 0001:0000a5f0  3566 0001:0000a5ff  3573 0001:0000a601  3504 0001:0000a603
  3502 0001:0000a603  3505 0001:0000a60a  3507 0001:0000a611  3508 0001:0000a613
  3509 0001:0000a618  3510 0001:0000a621  3511 0001:0000a626  3513 0001:0000a62c
  3514 0001:0000a635  3517 0001:0000a638

Line numbers for .\Release\SuperSaverOptionsShim.obj(g:\vsnet\vc7\atlmfc\include\atlconv.h) segment .text

   557 0001:000096f5   554 0001:000096f5   563 0001:00009701   564 0001:0000971a
   569 0001:00009720   558 0001:00009722   570 0001:00009724

Line numbers for .\Release\SuperSaverOptionsShim.obj(g:\vsnet\vc7\atlmfc\include\atlexcept.h) segment .text

    61 0001:00009eef    73 0001:00009ef2

Line numbers for .\Release\SuperSaverOptionsShim.obj(g:\vsnet\vc7\platformsdk\include\guiddef.h) segment .text

   156 0001:0000a65d   151 0001:0000a65d   157 0001:0000a67e   156 0001:0000a67f
   157 0001:0000a681

Line numbers for .\Release\SuperSaverOptionsShim.obj(g:\vsnet\vc7\atlmfc\include\atlsimpcoll.h) segment .text

   139 0001:0000583d   140 0001:0000583d   143 0001:00005848   144 0001:00005854
   145 0001:00005860   147 0001:00005866   148 0001:00005869   150 0001:0000586b
   151 0001:00005879   152 0001:0000587c   153 0001:00005880   247 0001:0000708e
   246 0001:0000708e   248 0001:000070a1   379 0001:0000a863   377 0001:0000a863
   382 0001:0000a86c   383 0001:0000a871   387 0001:0000a884   385 0001:0000a884
   390 0001:0000a88d   391 0001:0000a893   332 0001:0000a8a6   333 0001:0000a8a6
   340 0001:0000a8b3   341 0001:0000a8b6   343 0001:0000a8ba   345 0001:0000a8c1
   346 0001:0000a8c4   349 0001:0000a8c9   350 0001:0000a8ce   277 0001:0000a8eb
   276 0001:0000a8eb   286 0001:0000aae2   288 0001:0000aae2   289 0001:0000aaf8
   290 0001:0000aafc   291 0001:0000aafe   293 0001:0000ab00   294 0001:0000ab10
   295 0001:0000ab16   297 0001:0000ab1a   298 0001:0000ab2f   299 0001:0000ab32
   300 0001:0000ab36   442 0001:0000ab39   443 0001:0000ab39   444 0001:0000ab4c
   445 0001:0000ab5b   363 0001:0000b000   364 0001:0000b001   365 0001:0000b00c
   366 0001:0000b011   367 0001:0000b015   368 0001:0000b01f   394 0001:0000b022
   395 0001:0000b023   397 0001:0000b02a   400 0001:0000b046   401 0001:0000b04a
   398 0001:0000b04d

Line numbers for .\Release\SuperSaverOptionsShim.obj(g:\vsnet\vc7\atlmfc\include\statreg.h) segment .text

   268 0001:0000a811   266 0001:0000a811   269 0001:0000a814   510 0001:0000a817
   512 0001:0000a817   515 0001:0000a823   126 0001:0000a826   127 0001:0000a82a
   129 0001:0000a831   130 0001:0000a842   132 0001:0000a859   133 0001:0000a85f
   134 0001:0000a862    88 0001:0000a8f0    89 0001:0000a902    90 0001:0000a909
   276 0001:0000a91d   324 0001:0000a979   325 0001:0000a985   328 0001:0000a992
   337 0001:0000a99b   339 0001:0000a9b2   326 0001:0000a9cf   340 0001:0000a9d4
    93 0001:0000a9e3    95 0001:0000a9f3   100 0001:0000aa0a   103 0001:0000aa1d
   105 0001:0000aa39   107 0001:0000aa46   109 0001:0000aa71   113 0001:0000aa7b
   114 0001:0000aa89   115 0001:0000aa95   120 0001:0000aaac   121 0001:0000aabb
   123 0001:0000aac5    96 0001:0000aacf   124 0001:0000aad1   428 0001:0000ab5e
   429 0001:0000ab6b   439 0001:0000ab75   440 0001:0000ab98   344 0001:0000abaa
   345 0001:0000abc8   348 0001:0000abd6   354 0001:0000abe8   364 0001:0000abee
   366 0001:0000ac00   369 0001:0000ac0a   370 0001:0000ac11   373 0001:0000ac16
   375 0001:0000ac25   382 0001:0000ac27   385 0001:0000ac29   387 0001:0000ac31
   391 0001:0000ac39   394 0001:0000ac3b   398 0001:0000ac45   399 0001:0000ac70
   401 0001:0000ac78   402 0001:0000ac7d   406 0001:0000ac7f   408 0001:0000ac9f
   409 0001:0000aca4   416 0001:0000aca6   418 0001:0000acac   423 0001:0000acc6
   424 0001:0000acd2   425 0001:0000acf6  1092 0001:0000ad3e  1097 0001:0000ad60
  1098 0001:0000ad72  1099 0001:0000ad74  1104 0001:0000ad7a  1110 0001:0000ad84
  1113 0001:0000ad94  1120 0001:0000ada9  1123 0001:0000adb9  1129 0001:0000adc4
  1132 0001:0000adca  1133 0001:0000ade8  1136 0001:0000adec  1137 0001:0000adef
  1149 0001:0000ae01  1151 0001:0000ae0a  1143 0001:0000ae24  1147 0001:0000ae37
  1108 0001:0000ae3e  1143 0001:0000ae47  1126 0001:0000ae49  1127 0001:0000ae4e
  1014 0001:0000ae50  1018 0001:0000ae66  1021 0001:0000ae7c  1022 0001:0000ae7f
  1023 0001:0000ae88  1024 0001:0000ae95  1025 0001:0000ae9a  1026 0001:0000aeab
  1029 0001:0000aead  1031 0001:0000aeb8  1033 0001:0000aebe  1034 0001:0000aec9
  1036 0001:0000aecf  1077 0001:0000aed0  1084 0001:0000aedc  1077 0001:0000aeec
  1087 0001:0000aeee  1088 0001:0000aef9  1044 0001:0000af0a  1045 0001:0000af13
  1051 0001:0000af18  1058 0001:0000af23  1059 0001:0000af30  1060 0001:0000af45
  1065 0001:0000af49  1067 0001:0000af57  1068 0001:0000af5e  1072 0001:0000af60
  1071 0001:0000af6a  1075 0001:0000af6e  1053 0001:0000af73  1054 0001:0000af7a
  1062 0001:0000af7f  1063 0001:0000af86  1019 0001:0000af8b  1089 0001:0000af90
   182 0001:0000afa8   184 0001:0000afa8   185 0001:0000afad   186 0001:0000afb2
   187 0001:0000afb5   188 0001:0000afb8   189 0001:0000afc1   190 0001:0000afc8
   191 0001:0000afcc   193 0001:0000afcf   194 0001:0000afcf   195 0001:0000afd8
   718 0001:0000afd9   719 0001:0000afda   721 0001:0000afdc   734 0001:0000afe1
   726 0001:0000afe2   731 0001:0000afe9   726 0001:0000aff8   728 0001:0000affa
   733 0001:0000affc   734 0001:0000afff    70 0001:0000b051    71 0001:0000b051
    74 0001:0000b065   225 0001:0000b066   226 0001:0000b06a   227 0001:0000b070
   228 0001:0000b076   234 0001:0000b07c   235 0001:0000b0a4   199 0001:0000b0a8
   197 0001:0000b0a8   202 0001:0000b0b3   203 0001:0000b0c5   204 0001:0000b0d1
   206 0001:0000b0d5   208 0001:0000b0d8   209 0001:0000b0ee   210 0001:0000b0f2
   211 0001:0000b0fa   212 0001:0000b100   686 0001:0000b103   709 0001:0000b104
   711 0001:0000b106   714 0001:0000b121   715 0001:0000b124   712 0001:0000b125
   715 0001:0000b12d   763 0001:0000b12e   764 0001:0000b139   767 0001:0000b13e
   768 0001:0000b148   772 0001:0000b152   774 0001:0000b15c   776 0001:0000b169
   778 0001:0000b174   779 0001:0000b17c   781 0001:0000b181   782 0001:0000b183
   784 0001:0000b189   786 0001:0000b19b   787 0001:0000b1a4   776 0001:0000b1b4
   790 0001:0000b1bc   793 0001:0000b1c2   796 0001:0000b1c4   797 0001:0000b1c8
   800 0001:0000b1ce   785 0001:0000b1d0   803 0001:0000b1d7   806 0001:0000b1e5
   807 0001:0000b1ec   809 0001:0000b1fe   810 0001:0000b206   803 0001:0000b216
   813 0001:0000b21e   815 0001:0000b222   816 0001:0000b227   165 0001:0000b229
   744 0001:0000b245   743 0001:0000b245   750 0001:0000b25c   754 0001:0000b25f
   753 0001:0000b260   754 0001:0000b262  1154 0001:0000b263  1155 0001:0000b278
  1159 0001:0000b28e  1163 0001:0000b291  1164 0001:0000b2a7  1167 0001:0000b2ac
  1170 0001:0000b2b7  1172 0001:0000b2d3  1174 0001:0000b2e6  1177 0001:0000b2fd
  1181 0001:0000b303  1184 0001:0000b315  1186 0001:0000b31f  1188 0001:0000b322
  1191 0001:0000b32e  1193 0001:0000b332  1195 0001:0000b349  1197 0001:0000b356
  1203 0001:0000b35b  1205 0001:0000b36b  1206 0001:0000b371  1210 0001:0000b388
  1214 0001:0000b39c  1216 0001:0000b3b9  1220 0001:0000b3d0  1223 0001:0000b3da
  1227 0001:0000b3e3  1228 0001:0000b3ed  1231 0001:0000b406  1389 0001:0000b40e
  1393 0001:0000b412  1395 0001:0000b424  1397 0001:0000b445  1167 0001:0000b45c
  1397 0001:0000b466  1238 0001:0000b46b  1243 0001:0000b478  1244 0001:0000b48c
  1246 0001:0000b494  1247 0001:0000b4a5  1259 0001:0000b4b2  1260 0001:0000b4bd
  1262 0001:0000b4ca  1266 0001:0000b4cc  1269 0001:0000b4de  1271 0001:0000b4e9
  1272 0001:0000b4fd  1275 0001:0000b501  1276 0001:0000b515  1280 0001:0000b519
  1281 0001:0000b532  1286 0001:0000b53a  1290 0001:0000b551  1292 0001:0000b55b
  1296 0001:0000b57a  1298 0001:0000b57f  1299 0001:0000b584  1300 0001:0000b59b
  1301 0001:0000b59d  1305 0001:0000b5a4  1306 0001:0000b5a9  1317 0001:0000b5b0
  1319 0001:0000b5c3  1321 0001:0000b5d6  1324 0001:0000b5e9  1326 0001:0000b5ef
  1328 0001:0000b608  1331 0001:0000b612  1341 0001:0000b625  1345 0001:0000b638
  1348 0001:0000b641  1383 0001:0000b64d  1403 0001:0000b654  1404 0001:0000b66c
  1358 0001:0000b684  1361 0001:0000b69b  1365 0001:0000b6bc  1367 0001:0000b6ce
  1370 0001:0000b6d3  1371 0001:0000b6e7  1374 0001:0000b6f5  1379 0001:0000b701
  1381 0001:0000b711  1386 0001:0000b719  1221 0001:0000b71e  1232 0001:0000b726
  1250 0001:0000b731  1251 0001:0000b736  1256 0001:0000b743  1257 0001:0000b748
  1267 0001:0000b761  1282 0001:0000b77b  1372 0001:0000b780   819 0001:0000b7d3
   827 0001:0000b7ef   828 0001:0000b810   829 0001:0000b816   832 0001:0000b82f
   835 0001:0000b839   836 0001:0000b83e   837 0001:0000b84d   839 0001:0000b853
   850 0001:0000b87f   851 0001:0000b88d   852 0001:0000b893   853 0001:0000b8a8
   858 0001:0000b8b2   860 0001:0000b8c8   861 0001:0000b8cb   863 0001:0000b8da
   864 0001:0000b8df   866 0001:0000b8e5   852 0001:0000b8e7   868 0001:0000b8ed
   877 0001:0000b8f0   878 0001:0000b8f2   858 0001:0000b8f4   882 0001:0000b8fa
   883 0001:0000b8fe   885 0001:0000b911   887 0001:0000b913   889 0001:0000b916
   890 0001:0000b933   894 0001:0000b938   901 0001:0000b93e   903 0001:0000b95a
   905 0001:0000b96b   909 0001:0000b97d   910 0001:0000b98a   913 0001:0000b992
   916 0001:0000b994   917 0001:0000b9af   918 0001:0000b9cd   919 0001:0000b9d7
   920 0001:0000b9f6   921 0001:0000ba06   922 0001:0000ba0f   923 0001:0000ba48
   924 0001:0000ba64   843 0001:0000ba7f   928 0001:0000ba95   931 0001:0000ba9b
   934 0001:0000baa4   935 0001:0000bab1   937 0001:0000bab3   938 0001:0000bab5
   628 0001:0000bace   618 0001:0000bace   629 0001:0000baf1   630 0001:0000bb04
   631 0001:0000bb17   636 0001:0000bb2b   638 0001:0000bb2d   645 0001:0000bb48
   647 0001:0000bb4b   640 0001:0000bb4c   641 0001:0000bb5b   647 0001:0000bb5f
   651 0001:0000bc2f   650 0001:0000bc2f   677 0001:0000bc50   683 0001:0000bc53
   670 0001:0000bc54   683 0001:0000bc57   663 0001:0000bc58   683 0001:0000bc5b
   681 0001:0000bc5c   683 0001:0000bc5e   994 0001:0000bc92   998 0001:0000bc9c
  1000 0001:0000bcb1  1001 0001:0000bcba  1003 0001:0000bcbc  1004 0001:0000bcc1
  1005 0001:0000bcce  1006 0001:0000bcd0  1007 0001:0000bcdb  1010 0001:0000bcdd
  1011 0001:0000bcdf   950 0001:0000bcf3   951 0001:0000bcf7   955 0001:0000bcf9
   959 0001:0000bd17   962 0001:0000bd1b   963 0001:0000bd24   941 0001:0000bd28
   942 0001:0000bd29   943 0001:0000bd2e   946 0001:0000bd49   947 0001:0000bd4d
   944 0001:0000bd50   757 0001:0000be60   758 0001:0000be60   759 0001:0000be62
   760 0001:0000be7a   460 0001:0000be7b   461 0001:0000be88   470 0001:0000be93
   471 0001:0000beb4

Line numbers for .\Release\SuperSaverOptionsShim.obj(g:\vsnet\vc7\atlmfc\include\atlcomcli.h) segment .text

   206 0001:00005a2e   204 0001:00005a2e   207 0001:00005a32   212 0001:00005a37
   208 0001:00005a38   209 0001:00005a3c   210 0001:00005a42   211 0001:00005a48
   212 0001:00005a4a   486 0001:00005a4b   488 0001:00005a54   489 0001:00005a58
   490 0001:00005a66   486 0001:00005a6d   488 0001:00005a76   489 0001:00005a7a
   490 0001:00005a88   486 0001:00005bee   488 0001:00005bf7   489 0001:00005bfb
   490 0001:00005c09   486 0001:00005c10   488 0001:00005c19   489 0001:00005c1d
   490 0001:00005c2b   486 0001:00005c32   488 0001:00005c3b   489 0001:00005c3f
   490 0001:00005c4d   486 0001:00005c54   488 0001:00005c5d   489 0001:00005c61
   490 0001:00005c6f   486 0001:00005d11   488 0001:00005d1a   489 0001:00005d1e
   490 0001:00005d2c   486 0001:00006f11   488 0001:00006f1a   489 0001:00006f1e
   490 0001:00006f2c  1045 0001:000098f6  1047 0001:000098fb  1048 0001:000098ff
  1056 0001:00009904  1051 0001:00009906  1052 0001:0000991e  1053 0001:0000992e
  1054 0001:00009930  1055 0001:00009932  1056 0001:00009947  1055 0001:00009949
  1056 0001:0000994b  2201 0001:0000994d  2202 0001:0000995b  2203 0001:00009968
  2205 0001:00009972  2206 0001:0000997c  2207 0001:0000997e  2210 0001:00009984
  2215 0001:000099a1  2216 0001:000099a7  2218 0001:000099ac  2219 0001:000099bd
  2221 0001:000099c1  2222 0001:000099d4  2223 0001:000099d8  2226 0001:000099ef
  2227 0001:000099f4  2228 0001:00009a00  2232 0001:00009a10  2233 0001:00009a13
  2237 0001:00009a15  2238 0001:00009a17  2245 0001:00009a19  2246 0001:00009a1b
  2254 0001:00009a1d  2260 0001:00009a20  2263 0001:00009a2e  2264 0001:00009a3b
  2266 0001:00009a47  2267 0001:00009a58  2268 0001:00009a5c  2269 0001:00009a6d
  2271 0001:00009a70  2272 0001:00009a72  2274 0001:00009a7f  2276 0001:00009a8c
  2277 0001:00009a9c  1058 0001:00009c57  1060 0001:00009c5d  1061 0001:00009c63
  1064 0001:00009c6a  1067 0001:00009c72  1068 0001:00009c84  1072 0001:00009c92
  1073 0001:00009c9d  1074 0001:00009ca3  1075 0001:00009caa  1076 0001:00009cac
  1079 0001:00009cb7  1083 0001:00009cbe  1086 0001:00009ccf  1087 0001:00009cd5
  1088 0001:00009cdc  1089 0001:00009ce0  2281 0001:00009ce2  2283 0001:00009cf4
  2284 0001:00009cfc  2287 0001:00009d06  2288 0001:00009d0d  2289 0001:00009d0f
  2292 0001:00009d15  2293 0001:00009d2b  2294 0001:00009d3c  2295 0001:00009d41
  2296 0001:00009d43  2298 0001:00009d49  2300 0001:00009d4c  2305 0001:00009d6b
  2308 0001:00009d6e  2311 0001:00009d89  2312 0001:00009d94  2313 0001:00009d96
  2317 0001:00009d9b  2318 0001:00009d9e  2322 0001:00009da0  2323 0001:00009da7
  2330 0001:00009da9  2331 0001:00009db0  2339 0001:00009db2  2346 0001:00009db9
  2347 0001:00009dc7  2348 0001:00009dcc  2349 0001:00009dd1  2351 0001:00009dd3
  2353 0001:00009dd9  2354 0001:00009de3  2360 0001:00009de7  2361 0001:00009df9
  2365 0001:00009dfe  2366 0001:00009e10  2367 0001:00009e1f  2368 0001:00009e29
   425 0001:00009e66   428 0001:00009e6c   429 0001:00009e72   452 0001:00009e77
   431 0001:00009e79   432 0001:00009e7d   452 0001:00009e82   435 0001:00009e84
   436 0001:00009e88   441 0001:00009e8b   445 0001:00009ebd   446 0001:00009ed1
   447 0001:00009ed3   446 0001:00009ed5   451 0001:00009ed7   452 0001:00009eed
  2371 0001:00009f1e  2375 0001:00009f2e  2380 0001:00009f4f  2381 0001:00009f57
  2383 0001:00009f5c  2384 0001:00009f6d  2386 0001:00009f71  2387 0001:00009f82
  2388 0001:00009f86  2391 0001:00009f99  2394 0001:00009fa0  2395 0001:00009fa8
  2396 0001:00009fb2  2398 0001:00009fb5  2399 0001:00009fbd  2400 0001:00009fc0
  2401 0001:00009fce  2404 0001:00009fd0  2405 0001:00009fd2  2409 0001:00009fd4
  2410 0001:00009fd6  2417 0001:00009fd8  2418 0001:00009fda  2421 0001:00009fdc
  2422 0001:00009fdf  2426 0001:00009fe1  2431 0001:00009fe4  2434 0001:00009fe9
  2435 0001:00009ff3  2437 0001:00009ff9  2438 0001:0000a008  2439 0001:0000a00c
  2441 0001:0000a00f  2442 0001:0000a011  2445 0001:0000a014  2446 0001:0000a018
  2447 0001:0000a024  2449 0001:0000a02e    59 0001:0000a070    58 0001:0000a070
    60 0001:0000a074    62 0001:0000a079    63 0001:0000a07b    64 0001:0000a07e
    65 0001:0000a082    66 0001:0000a08c    67 0001:0000a090    68 0001:0000a096
    69 0001:0000a099    46 0001:0000a63b    45 0001:0000a63b    47 0001:0000a63f
    55 0001:0000a641    49 0001:0000a642    50 0001:0000a646    51 0001:0000a64c
    52 0001:0000a652    53 0001:0000a658    54 0001:0000a65a    55 0001:0000a65c
    32 0001:0000be51    33 0001:0000be51    34 0001:0000be5f   248 0001:0000bedc
   250 0001:0000bedf   454 0001:0000bee0   457 0001:0000bee6   458 0001:0000beed
   468 0001:0000bef2   460 0001:0000bef4   461 0001:0000bef8   468 0001:0000befd
   467 0001:0000beff   468 0001:0000bf29   611 0001:0000bf42   612 0001:0000bf42
   614 0001:0000bf4a   615 0001:0000bf51   617 0001:0000bf58   618 0001:0000bf62
   619 0001:0000bf68   622 0001:0000bf72   624 0001:0000bf75   625 0001:0000bf77
    26 0001:0000bf7a    27 0001:0000bf7a    28 0001:0000bf80    29 0001:0000bf8e
   573 0001:0000bf8f   571 0001:0000bf8f   574 0001:0000bf96   581 0001:0000bf99
   589 0001:0000bfb9   592 0001:0000bfca   593 0001:0000bfdc   594 0001:0000bfe9
   595 0001:0000bfef   596 0001:0000bff9  1708 0001:0000c007  1709 0001:0000c007
  1711 0001:0000c00e  1713 0001:0000c01d  1715 0001:0000c02a  1716 0001:0000c02f
  1718 0001:0000c036  1719 0001:0000c038  1537 0001:0000c03b  1536 0001:0000c03b
  1538 0001:0000c042   551 0001:0000c252   549 0001:0000c252   552 0001:0000c259
   559 0001:0000c25c

Line numbers for .\Release\SuperSaverOptionsShim.obj(g:\vsnet\vc7\atlmfc\include\atlbase.h) segment .text

   736 0001:0000976f   727 0001:0000976f   738 0001:0000978f   736 0001:00009790
   738 0001:00009792   627 0001:00009f07   628 0001:00009f07   629 0001:00009f0d
   630 0001:00009f1d  2678 0001:0000a315  2677 0001:0000a315  2679 0001:0000a32e
  5506 0001:0000a682  5507 0001:0000a69d  5509 0001:0000a6a9  5511 0001:0000a6ad
  5514 0001:0000a6af  5515 0001:0000a6bc  5519 0001:0000a6c5  5520 0001:0000a6d0
  5528 0001:0000a6d4  5523 0001:0000a6db  5525 0001:0000a6e1  5526 0001:0000a6eb
  5527 0001:0000a6ff  5528 0001:0000a703  5529 0001:0000a70d  5540 0001:0000a71b
  5543 0001:0000a729  5559 0001:0000a739  5550 0001:0000a73e  5551 0001:0000a758
  5552 0001:0000a765  5553 0001:0000a767  5555 0001:0000a77a  5562 0001:0000a78f
  5565 0001:0000a793  5566 0001:0000a7a5  5571 0001:0000a7a9  5572 0001:0000a7d6
  5573 0001:0000a7e6  2766 0001:0000a957  2765 0001:0000a957  2768 0001:0000a959
  2769 0001:0000a95e  2770 0001:0000a964  2771 0001:0000a96b  2773 0001:0000a975
  2774 0001:0000a978  4883 0001:0000b78a  4886 0001:0000b78f  4888 0001:0000b795
  4889 0001:0000b7b7  4890 0001:0000b7bb  4891 0001:0000b7c0  4893 0001:0000b7c4
  4894 0001:0000b7c9  4897 0001:0000b7cf  5179 0001:0000bb60  5184 0001:0000bb63
  5185 0001:0000bb87  5188 0001:0000bbab  5200 0001:0000bbac  5203 0001:0000bbb3
  5204 0001:0000bbbb  5205 0001:0000bbc0  5206 0001:0000bbc2  5209 0001:0000bbc7
  5210 0001:0000bbe2  5169 0001:0000bbe5  5167 0001:0000bbe5  5170 0001:0000bc00
  4900 0001:0000bc5f  4902 0001:0000bc63  4903 0001:0000bc6a  4904 0001:0000bc7f
  4906 0001:0000bc83  4908 0001:0000bc88  4911 0001:0000bc8e  5246 0001:0000bd54
  5248 0001:0000bd6a  5249 0001:0000bd8e  5255 0001:0000bd92  5261 0001:0000bda4
  5263 0001:0000bdac  5264 0001:0000bdb8  5261 0001:0000bdbf  5266 0001:0000bdd2
  5268 0001:0000bddf  5269 0001:0000bdf2  5270 0001:0000be0e  5265 0001:0000be26
  4844 0001:0000be39  4842 0001:0000be39  4846 0001:0000be41  4847 0001:0000be48
  4850 0001:0000be4b  4803 0001:0000be4c   303 0001:0000bf2b   304 0001:0000bf2e
   306 0001:0000bf34   308 0001:0000bf41  2779 0001:0000c1bf  2780 0001:0000c1c3
  2782 0001:0000c1d3  2783 0001:0000c1d7  2785 0001:0000c1e3  2787 0001:0000c1e8
  2789 0001:0000c1ef  2791 0001:0000c1f8  2792 0001:0000c1fc   633 0001:0000c202
   634 0001:0000c202   636 0001:0000c207   638 0001:0000c21a   639 0001:0000c229
   457 0001:0000c22c   453 0001:0000c22c   460 0001:0000c22e   461 0001:0000c251

Line numbers for .\Release\stdafx.obj(g:\vsnet\vc7\atlmfc\include\atlbase.h) segment .text

  2573 0001:000001e9  2576 0001:000001f1  2577 0001:000001fd  2578 0001:00000201
  2579 0001:00000208  2582 0001:0000020c  2583 0001:0000020d  2584 0001:0000021b
  6215 0001:0000023e  6216 0001:0000023f  6217 0001:00000245  6218 0001:00000247
  6219 0001:0000024b  6220 0001:0000024d  6221 0001:00000252  6223 0001:0000025a
  6224 0001:00000265  6225 0001:00000282  6226 0001:0000028a  6227 0001:00000294
  6228 0001:00000298  6229 0001:0000029b  2602 0001:0000d9b5

Line numbers for .\Release\stdafx.obj(g:\vsnet\vc7\atlmfc\include\atlbase.inl) segment .text

   353 0001:0000029e   352 0001:0000029e   354 0001:000002a4   357 0001:000002a6
   358 0001:000002ab   360 0001:000002b2   362 0001:000002b6   369 0001:000002be

Line numbers for .\Release\stdafx.obj(g:\vsnet\vc7\atlmfc\include\atlconv.h) segment .text

   101 0001:000000b2   102 0001:000000c1   104 0001:000000c3   110 0001:000000c9
   113 0001:000000df   116 0001:000000e9   120 0001:000000fa   121 0001:000000fe
   124 0001:00000106   128 0001:00000113   127 0001:00000113   129 0001:00000116
   134 0001:00000117   139 0001:00000130   140 0001:00000141   143 0001:0000014b
   147 0001:00000152   149 0001:00000157   151 0001:00000163   152 0001:00000169

Line numbers for .\Release\stdafx.obj(g:\vsnet\vc7\atlmfc\include\atlcore.h) segment .text

   114 0001:0000017c   116 0001:0000017d   117 0001:0000018c   129 0001:00000190
   130 0001:0000019c   131 0001:0000019e   133 0001:000001a1   136 0001:000001aa
   138 0001:000001bb   143 0001:000001d8   144 0001:000001da

Line numbers for .\Release\stdafx.obj(g:\vsnet\vc7\atlmfc\include\atlcomcli.h) segment .text

   629 0001:000001e0   628 0001:000001e0   630 0001:000001e8

Line numbers for .\Release\stdafx.obj(g:\vsnet\vc7\atlmfc\include\atlsimpcoll.h) segment .text

   173 0001:00000311   174 0001:00000314   178 0001:0000031a   179 0001:00000321
   181 0001:00000325   182 0001:00000329   183 0001:0000032e   196 0001:0000032f
   194 0001:0000032f   200 0001:0000033c   201 0001:00000341

Line numbers for .\Release\dlldatax.obj(d:\dev\booktwo\disk\supersaver\supersavershim\dlldata.c) segment .text

    32 0001:00000000    32 0001:00000034    32 0001:00000040    32 0001:00000051
    32 0001:00000052    32 0001:00000064    32 0001:0000008b

Line numbers for .\Release\dlldatax.obj(d:\dev\booktwo\disk\supersaver\supersavershim\supersavershim_p.c) segment .orpc

   239 0002:00000000   237 0002:00000000   241 0002:0000001a   242 0002:00000021
   245 0002:00000026   246 0002:00000028

Line numbers for G:\VSNET\Vc7\lib\MSVCRT.lib(F:\VS70Builds\3036\vc\crtbld\crt\src\intel\chkstk.asm) segment .text

    69 0001:0000d3e0    65 0001:0000d3e0    70 0001:0000d3e5    72 0001:0000d3e7
    73 0001:0000d3e9    74 0001:0000d3eb    75 0001:0000d3ee    76 0001:0000d3f0
    77 0001:0000d3f1    78 0001:0000d3f3    79 0001:0000d3f4    82 0001:0000d3f5
    83 0001:0000d3f6    88 0001:0000d3fa    89 0001:0000d400    91 0001:0000d405
    93 0001:0000d407    94 0001:0000d40c    97 0001:0000d40e    98 0001:0000d410
   100 0001:0000d412   102 0001:0000d414   104 0001:0000d416   105 0001:0000d418
   107 0001:0000d41b   109 0001:0000d41c

Line numbers for G:\VSNET\Vc7\lib\MSVCRT.lib(f:\vs70builds\3036\vc\crtbld\crt\src\atonexit.c) segment .text

    81 0001:0000cdd0    76 0001:0000cdd0    90 0001:0000cdf5    96 0001:0000cdf6
    95 0001:0000cdf6    97 0001:0000ce07

Line numbers for G:\VSNET\Vc7\lib\MSVCRT.lib(f:\vs70builds\3036\vc\crtbld\crt\src\crtdll.c) segment .text

   134 0001:0000ceda   129 0001:0000ceda   135 0001:0000cee2   136 0001:0000ceea
   158 0001:0000cef0   163 0001:0000cf03   168 0001:0000cf18   170 0001:0000cf1c
   172 0001:0000cf1f   178 0001:0000cf29   179 0001:0000cf2e   184 0001:0000cf38
   189 0001:0000cf49   192 0001:0000cf50   219 0001:0000cf56   220 0001:0000cf5f
   225 0001:0000cf61   226 0001:0000cf6d   234 0001:0000cf83   236 0001:0000cf8a
   234 0001:0000cf91   240 0001:0000cf92   241 0001:0000cf95   249 0001:0000cf98
   250 0001:0000cfa4   252 0001:0000cfaa   257 0001:0000cfaf   258 0001:0000cfbc
   260 0001:0000cfc2   262 0001:0000cfcb   263 0001:0000cfd4   265 0001:0000cfe0
   266 0001:0000cfe9   268 0001:0000cff8   269 0001:0000cffa   272 0001:0000cffc
   275 0001:0000d00c   283 0001:0000d015   286 0001:0000d01f   288 0001:0000d028
   289 0001:0000d036   291 0001:0000d039   292 0001:0000d047   298 0001:0000d055
   294 0001:0000d05a   295 0001:0000d072   299 0001:0000d074

Line numbers for G:\VSNET\Vc7\lib\MSVCRT.lib(f:\vs70builds\3036\vc\crtbld\crt\src\secchk.c) segment .text

   114 0001:0000d2f0   116 0001:0000d2fc   117 0001:0000d300   119 0001:0000d30d
   123 0001:0000d318   100 0001:0000d321   103 0001:0000d321   104 0001:0000d327
   105 0001:0000d329   107 0001:0000d32a

Line numbers for G:\VSNET\Vc7\lib\MSVCRT.lib(f:\vs70builds\3036\vc\crtbld\crt\src\seccinit.c) segment .text

    49 0001:0000d32f    58 0001:0000d335    67 0001:0000d346    70 0001:0000d350
    75 0001:0000d356    76 0001:0000d35e    77 0001:0000d366    79 0001:0000d36e
    93 0001:0000d378    94 0001:0000d393

Line numbers for G:\VSNET\Vc7\atlmfc\lib\atls.lib(f:\vs70builds\3036\vc\mfcatl\ship\atlmfc\src\atl\atls\atlbase.cpp) segment .text

    67 0001:0000d1ad    68 0001:0000d1b0    69 0001:0000d1ba    29 0001:0000d1c3
    32 0001:0000d1de    36 0001:0000d1e3    38 0001:0000d206    39 0001:0000d217
    41 0001:0000d21d    46 0001:0000d223    49 0001:0000d22b    51 0001:0000d239
    58 0001:0000d23d    62 0001:0000d257    64 0001:0000d25e   126 0001:0000d9e3

Line numbers for G:\VSNET\Vc7\atlmfc\lib\atls.lib(f:\vs70builds\3036\vc\mfcatl\ship\atlmfc\include\atlsimpcoll.h) segment .text

   173 0001:0000d176   174 0001:0000d179   178 0001:0000d17f   179 0001:0000d185
   181 0001:0000d189   182 0001:0000d18d   183 0001:0000d192

Line numbers for G:\VSNET\Vc7\atlmfc\lib\atls.lib(f:\vs70builds\3036\vc\mfcatl\ship\atlmfc\src\atl\atls\atlcommodule.cpp) segment .text

    20 0001:0000d9f9

Line numbers for G:\VSNET\Vc7\atlmfc\lib\atls.lib(f:\vs70builds\3036\vc\mfcatl\ship\atlmfc\include\atlbase.h) segment .text

  2272 0001:0000d26e  2273 0001:0000d271  2276 0001:0000d277  2278 0001:0000d280
  2281 0001:0000d286  2282 0001:0000d28d  2283 0001:0000d293  2276 0001:0000d297
  2286 0001:0000d2a0  2290 0001:0000d2aa  2291 0001:0000d2af  2248 0001:0000d2b0
  2257 0001:0000d2be  2261 0001:0000d2e4  2263 0001:0000d2ec

 Exports

  ordinal    name

        1    _DllCanUnloadNow@0
               exported name: DllCanUnloadNow
        2    _DllGetClassObject@12
               exported name: DllGetClassObject
        3    _DllRegisterServer@0
               exported name: DllRegisterServer
        4    _DllUnregisterServer@0
               exported name: DllUnregisterServer
