 Tester

 Timestamp is 3e4e58dc (Sat Feb 15 10:12:28 2003)

 Preferred load address is 10000000

 Start         Length     Name                   Class
 0001:00000000 0000abf6H .text                   CODE
 0001:0000abf6 0000045dH .text$x                 CODE
 0001:0000b053 00000050H .text$yc                CODE
 0001:0000b0a3 0000002cH .text$yd                CODE
 0002:00000000 0000025cH .idata$5                DATA
 0002:00000260 00001f48H .rdata                  DATA
 0002:000021a8 0000003fH .rdata$debug            DATA
 0002:000021e8 00000044H .rdata$r                DATA
 0002:00002230 000000d0H .rdata$sxdata           DATA
 0002:00002300 00000004H .rtc$IAA                DATA
 0002:00002304 00000004H .rtc$IZZ                DATA
 0002:00002308 00000004H .rtc$TAA                DATA
 0002:0000230c 00000004H .rtc$TZZ                DATA
 0002:00002310 00000db8H .xdata$x                DATA
 0002:000030c8 00000004H ATL$__a                 DATA
 0002:000030cc 00000014H ATL$__m                 DATA
 0002:000030e0 00000004H ATL$__z                 DATA
 0002:000030e4 000000b4H .idata$2                DATA
 0002:00003198 00000014H .idata$3                DATA
 0002:000031ac 0000025cH .idata$4                DATA
 0002:00003408 000008a4H .idata$6                DATA
 0002:00003cb0 000000b5H .edata                  DATA
 0003:00000000 00000004H .CRT$XCA                DATA
 0003:00000004 00000004H .CRT$XCAA               DATA
 0003:00000008 00000008H .CRT$XCL                DATA
 0003:00000010 00000008H .CRT$XCU                DATA
 0003:00000018 00000004H .CRT$XCZ                DATA
 0003:0000001c 00000004H .CRT$XIA                DATA
 0003:00000020 00000004H .CRT$XIZ                DATA
 0003:00000030 00000c20H .data                   DATA
 0003:00000c50 00000178H .bss                    DATA
 0004:00000000 00000184H .rsrc$01                DATA
 0004:00000190 00003d88H .rsrc$02                DATA

  Address         Publics by Value              Rva+Base     Lib:Object

 0000:00000000       __except_list              00000000     <absolute>
 0000:00000034       ___safe_se_handler_count   00000034     <absolute>
 0000:00009876       __fltused                  00009876     <absolute>
 0000:00009876       __ldused                   00009876     <absolute>
 0000:00000000       ___ImageBase               10000000     <linker-defined>
 0001:00000000       ?UpdateRegistry@TWindow@@SGJH@Z 10001000 f i Helpers.obj
 0001:00000068       ?InterfaceSupportsErrorInfo@TWindow@@UAGJABU_GUID@@@Z 10001068 f i Helpers.obj
 0001:0000008f       ??0TWindows@@QAE@XZ        1000108f f i Helpers.obj
 0001:0000009e       ?Invoke@?IITWindows@TWindows@@UAGJJABU_GUID@@KGPAUtagDISPPARAMS@@PAUtagVARIANT@@PAUtagEXCEPINFO@@PAI@Z 1000109e f i Helpers.obj
 0001:0000026a       ?GetIDsOfNames@?IITWindows@TWindows@@UAGJABU_GUID@@PAPAGIKPAJ@Z 1000126a f i Helpers.obj
 0001:000002c8       ?GetTypeInfoCount@?IITWindows@TWindows@@UAGJPAI@Z 100012c8 f i Helpers.obj
 0001:00000323       ?GetTypeInfo@?IITWindows@TWindows@@UAGJIKPAPAUITypeInfo@@@Z 10001323 f i Helpers.obj
 0001:00000344       ?UpdateRegistry@TWindows@@SGJH@Z 10001344 f i Helpers.obj
 0001:000003ac       ?InterfaceSupportsErrorInfo@TWindows@@UAGJABU_GUID@@@Z 100013ac f i Helpers.obj
 0001:000003d3       ?BuildITWindowsFromHwndArray@@YAJAAV?$CSimpleArray@PAUHWND__@@V?$CSimpleArrayEqualHelper@PAUHWND__@@@ATL@@@ATL@@PAPAUITWindows@@@Z 100013d3 f   Helpers.obj
 0001:000004c4       ?GetTypeInfoCount@?$IDispatchImpl@UITWindow@@$1?_GUID_63690418_8142_4e20_85e6_2cb50508ca74@@3U__s_GUID@@B$1?m_libid@CAtlModule@ATL@@2U_GUID@@A$00$0A@VCComTypeInfoHolder@ATL@@@ATL@@UAGJPAI@Z 100014c4 f i Helpers.obj
 0001:000004de       ?GetTypeInfo@?$IDispatchImpl@UITWindow@@$1?_GUID_63690418_8142_4e20_85e6_2cb50508ca74@@3U__s_GUID@@B$1?m_libid@CAtlModule@ATL@@2U_GUID@@A$00$0A@VCComTypeInfoHolder@ATL@@@ATL@@UAGJIKPAPAUITypeInfo@@@Z 100014de f i Helpers.obj
 0001:000004f5       ?GetIDsOfNames@?$IDispatchImpl@UITWindow@@$1?_GUID_63690418_8142_4e20_85e6_2cb50508ca74@@3U__s_GUID@@B$1?m_libid@CAtlModule@ATL@@2U_GUID@@A$00$0A@VCComTypeInfoHolder@ATL@@@ATL@@UAGJABU_GUID@@PAPAGIKPAJ@Z 100014f5 f i Helpers.obj
 0001:00000512       ?Invoke@?$IDispatchImpl@UITWindow@@$1?_GUID_63690418_8142_4e20_85e6_2cb50508ca74@@3U__s_GUID@@B$1?m_libid@CAtlModule@ATL@@2U_GUID@@A$00$0A@VCComTypeInfoHolder@ATL@@@ATL@@UAGJJABU_GUID@@KGPAUtagDISPPARAMS@@PAUtagVARIANT@@PAUtagEXCEPINFO@@PAI@Z 10001512 f i Helpers.obj
 0001:0000053d       ?GetClassInfoW@?$IProvideClassInfoImpl@$1?_GUID_767d32eb_7b39_44df_94ef_e7608afb0f01@@3U__s_GUID@@B$1?m_libid@CAtlModule@ATL@@2U_GUID@@A$00$0A@VCComTypeInfoHolder@ATL@@@ATL@@UAGJPAPAUITypeInfo@@@Z 1000153d f i Helpers.obj
 0001:00000552       ?CreateInstance@?$CComCreator@V?$CComObjectCached@VCComClassFactory@ATL@@@ATL@@@ATL@@SGJPAXABU_GUID@@PAPAX@Z 10001552 f i Helpers.obj
 0001:000005e7       ?CreateInstance@?$CComCreator2@V?$CComCreator@V?$CComObject@VTWindow@@@ATL@@@ATL@@V?$CComCreator@V?$CComAggObject@VTWindow@@@ATL@@@2@@ATL@@SGJPAXABU_GUID@@PAPAX@Z 100015e7 f i Helpers.obj
 0001:00000607       ?GetClassInfoW@?$IProvideClassInfoImpl@$1?_GUID_8a4af30a_d1de_4123_9a91_e52861e7fea7@@3U__s_GUID@@B$1?m_libid@CAtlModule@ATL@@2U_GUID@@A$00$0A@VCComTypeInfoHolder@ATL@@@ATL@@UAGJPAPAUITypeInfo@@@Z 10001607 f i Helpers.obj
 0001:0000061c       ?CreateInstance@?$CComCreator2@V?$CComCreator@V?$CComObject@VTWindows@@@ATL@@@ATL@@V?$CComCreator@V?$CComAggObject@VTWindows@@@ATL@@@2@@ATL@@SGJPAXABU_GUID@@PAPAX@Z 1000161c f i Helpers.obj
 0001:0000063c       ??0?$CComObject@VTWindows@@@ATL@@QAE@PAX@Z 1000163c f i Helpers.obj
 0001:00000665       ??1?$CComObject@VTWindows@@@ATL@@UAE@XZ 10001665 f i Helpers.obj
 0001:00000696       ?Release@?$CComObject@VTWindows@@@ATL@@UAGKXZ 10001696 f i Helpers.obj
 0001:000006b4       ?QueryInterface@?$CComObject@VTWindows@@@ATL@@UAGJABU_GUID@@PAPAX@Z 100016b4 f i Helpers.obj
 0001:000006cf       ??A?$CSimpleArray@V?$CComPtr@UITWindow@@@ATL@@V?$CSimpleArrayEqualHelper@V?$CComPtr@UITWindow@@@ATL@@@2@@ATL@@QAEAAV?$CComPtr@UITWindow@@@1@H@Z 100016cf f i TWindows.obj
 0001:000006cf       ??A?$CSimpleArray@PAVTNotify@@V?$CSimpleArrayEqualHelper@PAVTNotify@@@ATL@@@ATL@@QAEAAPAVTNotify@@H@Z 100016cf f i TNotify.obj
 0001:000006cf       ??A?$CSimpleArray@PAUHWND__@@V?$CSimpleArrayEqualHelper@PAUHWND__@@@ATL@@@ATL@@QAEAAPAUHWND__@@H@Z 100016cf f i Helpers.obj
 0001:000006f0       ??_G?$CComObject@VTWindows@@@ATL@@UAEPAXI@Z 100016f0 f i Helpers.obj
 0001:000006f0       ??_E?$CComObject@VTWindows@@@ATL@@UAEPAXI@Z 100016f0 f i Helpers.obj
 0001:0000070c       ?RemoveAll@?$CSimpleArray@V?$CComPtr@UITWindow@@@ATL@@V?$CSimpleArrayEqualHelper@V?$CComPtr@UITWindow@@@ATL@@@2@@ATL@@QAEXXZ 1000170c f i Helpers.obj
 0001:00000741       ??0?$CComObjectCached@VCComClassFactory@ATL@@@ATL@@QAE@PAX@Z 10001741 f i Helpers.obj
 0001:00000779       ??1?$CComObjectCached@VCComClassFactory@ATL@@@ATL@@UAE@XZ 10001779 f i Helpers.obj
 0001:000007a5       ?AddRef@?$CComObjectCached@VCComClassFactory@ATL@@@ATL@@UAGKXZ 100017a5 f i Helpers.obj
 0001:000007e1       ?Release@?$CComObjectCached@VCComClassFactory@ATL@@@ATL@@UAGKXZ 100017e1 f i Helpers.obj
 0001:0000082c       ?QueryInterface@?$CComObjectCached@VCComClassFactory@ATL@@@ATL@@UAGJABU_GUID@@PAPAX@Z 1000182c f i Helpers.obj
 0001:00000847       ?CreateInstance@?$CComCreator@V?$CComObject@VTWindow@@@ATL@@@ATL@@SGJPAXABU_GUID@@PAPAX@Z 10001847 f i Helpers.obj
 0001:000008d9       ?CreateInstance@?$CComCreator@V?$CComAggObject@VTWindow@@@ATL@@@ATL@@SGJPAXABU_GUID@@PAPAX@Z 100018d9 f i Helpers.obj
 0001:00000970       ?CreateInstance@?$CComCreator@V?$CComObject@VTWindows@@@ATL@@@ATL@@SGJPAXABU_GUID@@PAPAX@Z 10001970 f i Helpers.obj
 0001:000009ff       ?CreateInstance@?$CComCreator@V?$CComAggObject@VTWindows@@@ATL@@@ATL@@SGJPAXABU_GUID@@PAPAX@Z 100019ff f i Helpers.obj
 0001:00000a91       ??_G?$CComPtr@UITWindow@@@ATL@@QAEPAXI@Z 10001a91 f i Helpers.obj
 0001:00000ab2       ??_E?$CComObjectCached@VCComClassFactory@ATL@@@ATL@@UAEPAXI@Z 10001ab2 f i Helpers.obj
 0001:00000ab2       ??_G?$CComObjectCached@VCComClassFactory@ATL@@@ATL@@UAEPAXI@Z 10001ab2 f i Helpers.obj
 0001:00000ace       ??0CComClassFactory@ATL@@QAE@XZ 10001ace f i Helpers.obj
 0001:00000ae5       ??0?$CComObject@VTWindow@@@ATL@@QAE@PAX@Z 10001ae5 f i Helpers.obj
 0001:00000b0f       ??1?$CComObject@VTWindow@@@ATL@@UAE@XZ 10001b0f f i Helpers.obj
 0001:00000b35       ?Release@?$CComObject@VTWindow@@@ATL@@UAGKXZ 10001b35 f i Helpers.obj
 0001:00000b56       ?QueryInterface@?$CComObject@VTWindow@@@ATL@@UAGJABU_GUID@@PAPAX@Z 10001b56 f i Helpers.obj
 0001:00000b71       ??0?$CComAggObject@VTWindow@@@ATL@@QAE@PAX@Z 10001b71 f i Helpers.obj
 0001:00000b91       ??1?$CComAggObject@VTWindow@@@ATL@@UAE@XZ 10001b91 f i Helpers.obj
 0001:00000ba9       ?QueryInterface@?$CComAggObject@VTWindow@@@ATL@@UAGJABU_GUID@@PAPAX@Z 10001ba9 f i Helpers.obj
 0001:00000bf4       ??0?$CComAggObject@VTWindows@@@ATL@@QAE@PAX@Z 10001bf4 f i Helpers.obj
 0001:00000c37       ??1?$CComAggObject@VTWindows@@@ATL@@UAE@XZ 10001c37 f i Helpers.obj
 0001:00000c79       ?QueryInterface@?$CComAggObject@VTWindows@@@ATL@@UAGJABU_GUID@@PAPAX@Z 10001c79 f i Helpers.obj
 0001:00000cc4       ?Release@?$CComContainedObject@VTSystem@@@ATL@@UAGKXZ 10001cc4 f i TSystem.obj
 0001:00000cc4       ?Release@?$CComContainedObject@VTWindows@@@ATL@@UAGKXZ 10001cc4 f i Helpers.obj
 0001:00000cc4       ?Release@?$CComContainedObject@VTWindow@@@ATL@@UAGKXZ 10001cc4 f i Helpers.obj
 0001:00000cc4       ?Release@?$CComContainedObject@VTInput@@@ATL@@UAGKXZ 10001cc4 f i TInput.obj
 0001:00000cd4       ?QueryInterface@?$CComContainedObject@VTInput@@@ATL@@UAGJABU_GUID@@PAPAX@Z 10001cd4 f i TInput.obj
 0001:00000cd4       ?QueryInterface@?$CComContainedObject@VTWindow@@@ATL@@UAGJABU_GUID@@PAPAX@Z 10001cd4 f i Helpers.obj
 0001:00000cd4       ?QueryInterface@?$CComContainedObject@VTSystem@@@ATL@@UAGJABU_GUID@@PAPAX@Z 10001cd4 f i TSystem.obj
 0001:00000cd4       ?QueryInterface@?$CComContainedObject@VTWindows@@@ATL@@UAGJABU_GUID@@PAPAX@Z 10001cd4 f i Helpers.obj
 0001:00000ceb       ??_G?$CComObject@VTWindow@@@ATL@@UAEPAXI@Z 10001ceb f i Helpers.obj
 0001:00000ceb       ??_E?$CComObject@VTWindow@@@ATL@@UAEPAXI@Z 10001ceb f i Helpers.obj
 0001:00000d07       ??_E?$CComAggObject@VTWindow@@@ATL@@UAEPAXI@Z 10001d07 f i Helpers.obj
 0001:00000d07       ??_G?$CComAggObject@VTWindow@@@ATL@@UAEPAXI@Z 10001d07 f i Helpers.obj
 0001:00000d23       ??_E?$CComAggObject@VTWindows@@@ATL@@UAEPAXI@Z 10001d23 f i Helpers.obj
 0001:00000d23       ??_G?$CComAggObject@VTWindows@@@ATL@@UAEPAXI@Z 10001d23 f i Helpers.obj
 0001:00000d3f       ??1TWindows@@QAE@XZ        10001d3f f i Helpers.obj
 0001:00000d3f       ??1?$CComContainedObject@VTWindows@@@ATL@@QAE@XZ 10001d3f f i Helpers.obj
 0001:00000d4c       ??0?$CComContainedObject@VTWindow@@@ATL@@QAE@PAX@Z 10001d4c f i Helpers.obj
 0001:00000d6c       ??0?$CComContainedObject@VTWindows@@@ATL@@QAE@PAX@Z 10001d6c f i Helpers.obj
 0001:00000d98       ?QueryInterface@?$CComObject@VTWindow@@@ATL@@W3AGJABU_GUID@@PAPAX@Z 10001d98 f i Helpers.obj
 0001:00000da2       ?Release@?$CComObject@VTWindow@@@ATL@@W3AGKXZ 10001da2 f i Helpers.obj
 0001:00000dac       ?QueryInterface@?$CComObject@VTWindow@@@ATL@@W7AGJABU_GUID@@PAPAX@Z 10001dac f i Helpers.obj
 0001:00000db6       ?Release@?$CComObject@VTWindow@@@ATL@@W7AGKXZ 10001db6 f i Helpers.obj
 0001:00000dc0       ?QueryInterface@?$CComObject@VTWindows@@@ATL@@W3AGJABU_GUID@@PAPAX@Z 10001dc0 f i Helpers.obj
 0001:00000dca       ?Release@?$CComObject@VTWindows@@@ATL@@W3AGKXZ 10001dca f i Helpers.obj
 0001:00000dd4       ?QueryInterface@?$CComObject@VTWindows@@@ATL@@W7AGJABU_GUID@@PAPAX@Z 10001dd4 f i Helpers.obj
 0001:00000dde       ?Release@?$CComObject@VTWindows@@@ATL@@W7AGKXZ 10001dde f i Helpers.obj
 0001:00000de8       ?LockServer@CComClassFactory@ATL@@UAGJH@Z 10001de8 f i Helpers.obj
 0001:00000e04       ?CreateInstance@CComClassFactory@ATL@@UAGJPAUIUnknown@@ABU_GUID@@PAPAX@Z 10001e04 f i Helpers.obj
 0001:00000e42       ?InlineIsEqualUnknown@ATL@@YGHABU_GUID@@@Z 10001e42 f i Helpers.obj
 0001:00000e66       ??_ECComClassFactory@ATL@@UAEPAXI@Z 10001e66 f i Helpers.obj
 0001:00000e66       ??_GCComClassFactory@ATL@@UAEPAXI@Z 10001e66 f i Helpers.obj
 0001:00000e82       ??0CComAutoCriticalSection@ATL@@QAE@XZ 10001e82 f i Helpers.obj
 0001:00000e9d       ??0CComCriticalSection@ATL@@QAE@XZ 10001e9d f i Helpers.obj
 0001:00000eb1       ?Init@CComCriticalSection@ATL@@QAEJXZ 10001eb1 f i Helpers.obj
 0001:00000f01       ?AtlThrow@ATL@@YGXJ@Z      10001f01 f i Helpers.obj
 0001:00000f19       ??1CComClassFactory@ATL@@UAE@XZ 10001f19 f i Helpers.obj
 0001:00000f2a       ?Invoke@CComTypeInfoHolder@ATL@@QAEJPAUIDispatch@@JABU_GUID@@KGPAUtagDISPPARAMS@@PAUtagVARIANT@@PAUtagEXCEPINFO@@PAI@Z 10001f2a f i Helpers.obj
 0001:00000f5f       ?EnsureTI@CComTypeInfoHolder@ATL@@QAEJK@Z 10001f5f f i Helpers.obj
 0001:00000f7b       ?GetTI@CComTypeInfoHolder@ATL@@QAEJK@Z 10001f7b f i Helpers.obj
 0001:000011a3       ??1?$CComCritSecLock@VCComCriticalSection@ATL@@@ATL@@QAE@XZ 100021a3 f i Helpers.obj
 0001:000011ba       ?AtlComQIPtrAssign@ATL@@YGPAUIUnknown@@PAPAU2@PAU2@ABU_GUID@@@Z 100021ba f i Helpers.obj
 0001:000011e6       ?AddTermFunc@CAtlModule@ATL@@QAEJP6GXK@ZK@Z 100021e6 f i Helpers.obj
 0001:00001202       ?AtlModuleAddTermFunc@ATL@@YGJPAU_ATL_MODULE70@1@P6GXK@ZK@Z 10002202 f i Helpers.obj
 0001:00001290       ?Cleanup@CComTypeInfoHolder@ATL@@SGXK@Z 10002290 f i Helpers.obj
 0001:000012c2       ??_Estringdispid@CComTypeInfoHolder@ATL@@QAEPAXI@Z 100022c2 f i Helpers.obj
 0001:00001309       ??1stringdispid@CComTypeInfoHolder@ATL@@QAE@XZ 10002309 f i Helpers.obj
 0001:00001312       ??1CComBSTR@ATL@@QAE@XZ    10002312 f i Helpers.obj
 0001:0000131b       ?LoadNameCache@CComTypeInfoHolder@ATL@@QAEJPAUITypeInfo@@@Z 1000231b f i Helpers.obj
 0001:00001487       ??0stringdispid@CComTypeInfoHolder@ATL@@QAE@XZ 10002487 f i Helpers.obj
 0001:00001495       ?GetIDsOfNames@CComTypeInfoHolder@ATL@@QAEJABU_GUID@@PAPAGIKPAJ@Z 10002495 f i Helpers.obj
 0001:0000152d       ?GetTI@CComTypeInfoHolder@ATL@@QAEJKPAPAUITypeInfo@@@Z 1000252d f i Helpers.obj
 0001:00001565       ?Add@?$CSimpleArray@GV?$CSimpleArrayEqualHelper@G@ATL@@@ATL@@QAEHABG@Z 10002565 f i Helpers.obj
 0001:000015ab       ?InternalSetAtIndex@?$CSimpleArray@GV?$CSimpleArrayEqualHelper@G@ATL@@@ATL@@QAEXHABG@Z 100025ab f i Helpers.obj
 0001:000015c1       ??1?$CSimpleArray@GV?$CSimpleArrayEqualHelper@G@ATL@@@ATL@@QAE@XZ 100025c1 f i Helpers.obj
 0001:000015c6       ?RemoveAll@?$CSimpleArray@GV?$CSimpleArrayEqualHelper@G@ATL@@@ATL@@QAEXXZ 100025c6 f i Helpers.obj
 0001:000015e4       ??1?$CAtlSafeAllocBufferManager@VCCRTAllocator@ATL@@@_ATL_SAFE_ALLOCA_IMPL@ATL@@QAE@XZ 100025e4 f i Helpers.obj
 0001:000015fa       ?_AtlGetThreadACPThunk@ATL@@YGIXZ 100025fa f i Helpers.obj
 0001:0000165f       ?_AtlGetThreadACPReal@ATL@@YGIXZ 1000265f f i Helpers.obj
 0001:00001663       ?_AtlGetThreadACPFake@ATL@@YGIXZ 10002663 f i Helpers.obj
 0001:000016c4       ?__VariantChangeType@@YGJAAPAUtagVARIANT@@PAU1@G@Z 100026c4 f i Helpers.obj
 0001:000017cc       ?RemoveAll@?$CSimpleMap@PAGPAGVCExpansionVectorEqualHelper@ATL@@@ATL@@QAEXXZ 100027cc f i Tester.obj
 0001:000017cc       ?RemoveAll@?$CSimpleMap@PAGPAGV?$CSimpleMapEqualHelper@PAGPAG@ATL@@@ATL@@QAEXXZ 100027cc f i Helpers.obj
 0001:000017f5       ?QueryInterface@CRegistryVirtualMachine@ATL@@UAGJABU_GUID@@PAPAX@Z 100027f5 f i Helpers.obj
 0001:00001843       _IsEqualGUID               10002843 f i Helpers.obj
 0001:0000185b       ?Release@CRegistryVirtualMachine@ATL@@UAGKXZ 1000285b f i Helpers.obj
 0001:0000185b       ?AddRef@CRegObject@ATL@@UAGKXZ 1000285b f i Tester.obj
 0001:0000185b       ?AddRef@CRegistryVirtualMachine@ATL@@UAGKXZ 1000285b f i Helpers.obj
 0001:00001861       ?ClearReplacements@CRegistryVirtualMachine@ATL@@UAGJXZ 10002861 f i Helpers.obj
 0001:0000189b       ??_ECRegistryVirtualMachine@ATL@@UAEPAXI@Z 1000289b f i Helpers.obj
 0001:0000189b       ??_GCRegistryVirtualMachine@ATL@@UAEPAXI@Z 1000289b f i Helpers.obj
 0001:000018b7       _InlineIsEqualGUID         100028b7 f i Helpers.obj
 0001:000018dc       ?AtlInternalQueryInterface@ATL@@YGJPAXPBU_ATL_INTMAP_ENTRY@1@ABU_GUID@@PAPAX@Z 100028dc f i Helpers.obj
 0001:00001971       ?VMUpdateRegistry@CRegistryVirtualMachine@ATL@@QAEJPAKPAURGSStrings@2@PAURGSDWORD@2@PAURGSBinary@2@H@Z 10002971 f i Helpers.obj
 0001:000019d1       ?VMUpdateRegistryRecurse@CRegistryVirtualMachine@ATL@@QAEJPAUHKEY__@@AAPAKPAURGSStrings@2@PAURGSDWORD@2@PAURGSBinary@2@H@Z 100029d1 f i Helpers.obj
 0001:00002557       ?Open@CRegKey@ATL@@QAEJPAUHKEY__@@PBGK@Z 10003557 f i Helpers.obj
 0001:0000258a       ?Close@CRegKey@ATL@@QAEJXZ 1000358a f i Helpers.obj
 0001:0000259d       ?AddKeyWithReplacement@CRegistryVirtualMachine@ATL@@QAEJPAUHKEY__@@AAVCRegKey@2@KPAURGSStrings@2@@Z 1000359d f i Helpers.obj
 0001:0000263d       ?Create@CRegKey@ATL@@QAEJPAUHKEY__@@PBGPAGKKPAU_SECURITY_ATTRIBUTES@@PAK@Z 1000363d f i Helpers.obj
 0001:00002686       ?DeleteKeyWithReplacement@CRegistryVirtualMachine@ATL@@QAEJPAUHKEY__@@KPAURGSStrings@2@@Z 10003686 f i Helpers.obj
 0001:000026f3       ?RecurseDeleteKey@CRegKey@ATL@@QAEJPBG@Z 100036f3 f i Helpers.obj
 0001:000027d8       ?SetStringValue@CRegKey@ATL@@QAEJPBG0K@Z 100037d8 f i Helpers.obj
 0001:00002803       ??1?$CTempBuffer@E$0EAA@VCCRTAllocator@ATL@@@ATL@@QAE@XZ 10003803 f i Helpers.obj
 0001:00002803       ??1?$CTempBuffer@G$0BAA@VCCRTAllocator@ATL@@@ATL@@QAE@XZ 10003803 f i Tester.obj
 0001:00002803       ??1?$CTempBuffer@E$0BAA@VCCRTAllocator@ATL@@@ATL@@QAE@XZ 10003803 f i Tester.obj
 0001:00002803       ??1?$CTempBuffer@G$0EAA@VCCRTAllocator@ATL@@@ATL@@QAE@XZ 10003803 f i Helpers.obj
 0001:00002810       ?SetMultiStringValue@CRegKey@ATL@@QAEJPBG0@Z 10003810 f i Helpers.obj
 0001:0000284a       ?SetDWORDValue@CRegKey@ATL@@QAEJPBGK@Z 1000384a f i Helpers.obj
 0001:00002868       ?AllocateBytes@?$CTempBuffer@E$0EAA@VCCRTAllocator@ATL@@@ATL@@QAEPAEI@Z 10003868 f i Helpers.obj
 0001:00002868       ?AllocateBytes@?$CTempBuffer@G$0EAA@VCCRTAllocator@ATL@@@ATL@@QAEPAGI@Z 10003868 f i Helpers.obj
 0001:00002888       ?GetStringAtLoc@CRegistryVirtualMachine@ATL@@QAEJPAURGSStrings@2@KAAV?$CSimpleArray@GV?$CSimpleArrayEqualHelper@G@ATL@@@2@PAPAG@Z 10003888 f i Helpers.obj
 0001:0000297a       ?Lookup@CVMExpansionVector@ATL@@QBEPAGPAG@Z 1000397a f i Helpers.obj
 0001:0000299d       ?FindKey@CVMExpansionVector@ATL@@QBEHAAPAG@Z 1000399d f i Helpers.obj
 0001:000029cb       ?GetValueAt@?$CSimpleMap@PAGPAGVCExpansionVectorEqualHelper@ATL@@@ATL@@QBEAAPAGH@Z 100039cb f i Tester.obj
 0001:000029cb       ?GetValueAt@?$CSimpleMap@PAGPAGV?$CSimpleMapEqualHelper@PAGPAG@ATL@@@ATL@@QBEAAPAGH@Z 100039cb f i Helpers.obj
 0001:000029ed       ??1CRegKey@ATL@@QAE@XZ     100039ed f i Helpers.obj
 0001:000029f2       ?AtlHresultFromWin32@ATL@@YAJK@Z 100039f2 f i Helpers.obj
 0001:00002a01       ?AddReplacement@CRegistryVirtualMachine@ATL@@UAGJPBG0@Z 10003a01 f i Helpers.obj
 0001:00002ab8       ?Allocate@?$CAutoVectorPtr@G@ATL@@QAE_NI@Z 10003ab8 f i Helpers.obj
 0001:00002afe       ?Add@?$CSimpleMap@PAGPAGV?$CSimpleMapEqualHelper@PAGPAG@ATL@@@ATL@@QAEHABQAG0@Z 10003afe f i Helpers.obj
 0001:00002afe       ?Add@?$CSimpleMap@PAGPAGVCExpansionVectorEqualHelper@ATL@@@ATL@@QAEHABQAG0@Z 10003afe f i Tester.obj
 0001:00002b55       ?AddStandardReplacements@CRegistryVirtualMachine@ATL@@QAEJXZ 10003b55 f i Helpers.obj
 0001:00002cc4       ?AtlHresultFromLastError@ATL@@YAJXZ 10003cc4 f i Helpers.obj
 0001:00002cd9       ??1CRegistryVirtualMachine@ATL@@UAE@XZ 10003cd9 f i Helpers.obj
 0001:00002cf2       ?ObjectMain@CComObjectRootBase@ATL@@SGX_N@Z 10003cf2 f i Helpers.obj
 0001:00002cf5       ?ParsePlayInputString@@YAIPBGAAIAAPAUtagINPUT@@1@Z 10003cf5 f   ParsePlayInputString.obj
 0001:00003805       _PlayInput@8               10004805 f   PlayInput.obj
 0001:00003969       _DllGetClassObject@12      10004969 f   Tester.obj
 0001:00003973       _DllRegisterServer@0       10004973 f   Tester.obj
 0001:00003988       _DllUnregisterServer@0     10004988 f   Tester.obj
 0001:0000399d       _DllCanUnloadNow@0         1000499d f   Tester.obj
 0001:000039b1       _DllMain@12                100049b1 f   Tester.obj
 0001:000039c8       ?UpdateRegistryAppId@CTesterModule@@SGJH@Z 100049c8 f i Tester.obj
 0001:000039fb       ??0CTesterModule@@QAE@XZ   100049fb f i Tester.obj
 0001:00003a0a       ??1CTesterModule@@UAE@XZ   10004a0a f i Tester.obj
 0001:00003a0f       ??_GCTesterModule@@UAEPAXI@Z 10004a0f f i Tester.obj
 0001:00003a0f       ??_ECTesterModule@@UAEPAXI@Z 10004a0f f i Tester.obj
 0001:00003a2c       ??0?$CAtlDllModuleT@VCTesterModule@@@ATL@@QAE@XZ 10004a2c f i Tester.obj
 0001:00003a4a       ??1?$CAtlDllModuleT@VCTesterModule@@@ATL@@UAE@XZ 10004a4a f i Tester.obj
 0001:00003a64       ?AddCommonRGSReplacements@?$CAtlModuleT@VCTesterModule@@@ATL@@UAEJPAUIRegistrarBase@@@Z 10004a64 f i Tester.obj
 0001:00003a7b       ??1?$CAtlModuleT@VCTesterModule@@@ATL@@UAE@XZ 10004a7b f i Tester.obj
 0001:00003a80       ??0?$CAtlModuleT@VCTesterModule@@@ATL@@QAE@XZ 10004a80 f i Tester.obj
 0001:00003aa2       ?RegisterServer@?$CAtlModuleT@VCTesterModule@@@ATL@@QAEJHPBU_GUID@@@Z 10004aa2 f i Tester.obj
 0001:00003ace       ?UnregisterServer@?$CAtlModuleT@VCTesterModule@@@ATL@@QAEJHPBU_GUID@@@Z 10004ace f i Tester.obj
 0001:00003af4       ?GetGITPtr@CAtlModule@ATL@@UAEJPAPAUIGlobalInterfaceTable@@@Z 10004af4 f i Tester.obj
 0001:00003b3d       ?GetLockCount@CAtlModule@ATL@@UAEJXZ 10004b3d f i Tester.obj
 0001:00003b41       ?Unlock@CAtlModule@ATL@@UAEJXZ 10004b41 f i Tester.obj
 0001:00003b4c       ?Lock@CAtlModule@ATL@@UAEJXZ 10004b4c f i Tester.obj
 0001:00003b57       ?AtlComModuleUnregisterServer@ATL@@YGJPAU_ATL_COM_MODULE70@1@HPBU_GUID@@@Z 10004b57 f i Tester.obj
 0001:00003bdb       ?AtlRegisterClassCategoriesHelper@ATL@@YGJABU_GUID@@PBU_ATL_CATMAP_ENTRY@1@H@Z 10004bdb f i Tester.obj
 0001:00003e45       ??0?$CComPtr@UICatRegister@@@ATL@@QAE@XZ 10004e45 f i Tester.obj
 0001:00003e45       ??0?$CComPtr@UIErrorInfo@@@ATL@@QAE@XZ 10004e45 f i TInput.obj
 0001:00003e45       ??0?$CComPtr@UICreateErrorInfo@@@ATL@@QAE@XZ 10004e45 f i TInput.obj
 0001:00003e45       ??0?$CComPtr@UITypeLib@@@ATL@@QAE@XZ 10004e45 f i Helpers.obj
 0001:00003e49       ?AtlUnRegisterTypeLib@ATL@@YGJPAUHINSTANCE__@@PBG@Z 10004e49 f i Tester.obj
 0001:00003ecb       ?AtlLoadTypeLib@ATL@@YGJPAUHINSTANCE__@@PBGPAPAGPAPAUITypeLib@@@Z 10004ecb f i Tester.obj
 0001:00004021       ?AtlComModuleRegisterServer@ATL@@YGJPAU_ATL_COM_MODULE70@1@HPBU_GUID@@@Z 10005021 f i Tester.obj
 0001:000040a9       ?AtlRegisterTypeLib@ATL@@YGJPAUHINSTANCE__@@PBG@Z 100050a9 f i Tester.obj
 0001:000041bf       ??0CAtlModule@ATL@@QAE@XZ  100051bf f i Tester.obj
 0001:000041f9       ?AtlComModuleGetClassObject@ATL@@YGJPAU_ATL_COM_MODULE70@1@ABU_GUID@@1PAPAX@Z 100051f9 f i Tester.obj
 0001:000042ce       ?Term@CAtlModule@ATL@@QAEXXZ 100052ce f i Tester.obj
 0001:00004306       ?AtlCallTermFunc@ATL@@YGXPAU_ATL_MODULE70@1@@Z 10005306 f i Tester.obj
 0001:0000433e       ?ExecuteObjectMain@CAtlComModule@ATL@@QAEX_N@Z 1000533e f i Tester.obj
 0001:0000435d       ?UpdateRegistryFromResourceS@CAtlModule@ATL@@QAGJIHPAU_ATL_REGMAP_ENTRY@2@@Z 1000535d f i Tester.obj
 0001:000044da       ??0CRegObject@ATL@@QAE@XZ  100054da f i Tester.obj
 0001:000044ec       ?QueryInterface@CRegObject@ATL@@UAGJABU_GUID@@PAPAX@Z 100054ec f i Tester.obj
 0001:000044f4       ?Release@CRegObject@ATL@@UAGKXZ 100054f4 f i Tester.obj
 0001:000044f9       ?ClearReplacements@CRegObject@ATL@@UAGJXZ 100054f9 f i Tester.obj
 0001:00004508       ?ClearReplacements@CExpansionVector@ATL@@QAEJXZ 10005508 f i Tester.obj
 0001:00004545       ?GetKeyAt@?$CSimpleMap@PAGPAGVCExpansionVectorEqualHelper@ATL@@@ATL@@QBEAAPAGH@Z 10005545 f i Tester.obj
 0001:00004566       ??_GCRegObject@ATL@@UAEPAXI@Z 10005566 f i Tester.obj
 0001:00004566       ??_ECRegObject@ATL@@UAEPAXI@Z 10005566 f i Tester.obj
 0001:00004582       ??1CVMExpansionVector@ATL@@QAE@XZ 10005582 f i Helpers.obj
 0001:00004582       ??1?$CSimpleMap@PAGPAGVCExpansionVectorEqualHelper@ATL@@@ATL@@QAE@XZ 10005582 f i Tester.obj
 0001:00004587       ??1CExpansionVector@ATL@@QAE@XZ 10005587 f i Tester.obj
 0001:000045b4       ??1CRegObject@ATL@@UAE@XZ  100055b4 f i Tester.obj
 0001:000045ee       ?EscapeSingleQuote@CAtlModule@ATL@@SAXPAGPBG@Z 100055ee f i Tester.obj
 0001:00004610       ?AddReplacement@CRegObject@ATL@@UAGJPBG0@Z 10005610 f i Tester.obj
 0001:0000467a       ?Add@CExpansionVector@ATL@@QAEHPBG0@Z 1000567a f i Tester.obj
 0001:00004779       ?InternalSetAtIndex@?$CSimpleMap@PAGPAGV?$CSimpleMapEqualHelper@PAGPAG@ATL@@@ATL@@QAEXHABQAG0@Z 10005779 f i Helpers.obj
 0001:00004779       ?InternalSetAtIndex@?$CSimpleMap@PAGPAGVCExpansionVectorEqualHelper@ATL@@@ATL@@QAEXHABQAG0@Z 10005779 f i Tester.obj
 0001:0000479e       ?ResourceRegister@CRegObject@ATL@@QAGJPBGI0@Z 1000579e f i Tester.obj
 0001:000047ea       ?RegisterFromResource@CRegObject@ATL@@IAEJPBG00H@Z 100057ea f i Tester.obj
 0001:00004951       ?RegisterBuffer@CRegParser@ATL@@QAEJPAGH@Z 10005951 f i Tester.obj
 0001:00004a63       ?PreProcessBuffer@CRegParser@ATL@@QAEJPAGPAPAG@Z 10005a63 f i Tester.obj
 0001:00004bbb       ??0CParseBuffer@CRegParser@ATL@@QAE@H@Z 10005bbb f i Tester.obj
 0001:00004be2       ??1CParseBuffer@CRegParser@ATL@@QAE@XZ 10005be2 f i Tester.obj
 0001:00004bec       ?StrChrW@CRegParser@ATL@@KAPAGPAGG@Z 10005bec f i Tester.obj
 0001:00004c13       ?Lookup@?$CSimpleMap@PAGPAGVCExpansionVectorEqualHelper@ATL@@@ATL@@QBEPAGABQAG@Z 10005c13 f i Tester.obj
 0001:00004c35       ?FindKey@?$CSimpleMap@PAGPAGVCExpansionVectorEqualHelper@ATL@@@ATL@@QBEHABQAG@Z 10005c35 f i Tester.obj
 0001:00004c64       ?IsEqualKey@CExpansionVectorEqualHelper@ATL@@SA_NQAG0@Z 10005c64 f i Tester.obj
 0001:00004c79       ?AddString@CParseBuffer@CRegParser@ATL@@QAEHPBG@Z 10005c79 f i Tester.obj
 0001:00004cbb       ?Append@CParseBuffer@CRegParser@ATL@@QAEHPBGH@Z 10005cbb f i Tester.obj
 0001:00004d16       ?HKeyFromString@CRegParser@ATL@@KAPAUHKEY__@@PAG@Z 10005d16 f i Tester.obj
 0001:00004d41       ?NextToken@CRegParser@ATL@@IAEJPAG@Z 10005d41 f i Tester.obj
 0001:00004e3c       ?EndOfVar@CRegParser@ATL@@IAEHXZ 10005e3c f i Tester.obj
 0001:00004e58       ?IsSpace@CRegParser@ATL@@IAEHG@Z 10005e58 f i Tester.obj
 0001:00004e76       ?RegisterSubkeys@CRegParser@ATL@@IAEJPAGPAUHKEY__@@HH@Z 10005e76 f i Tester.obj
 0001:0000539d       ?AddValue@CRegParser@ATL@@IAEJAAVCRegKey@2@PBGPAG@Z 1000639d f i Tester.obj
 0001:00005698       ?VTFromRegType@CRegParser@ATL@@KAHPBGAAG@Z 10006698 f i Tester.obj
 0001:0000572a       ?FreeHeap@?$CTempBuffer@G$0BAA@VCCRTAllocator@ATL@@@ATL@@AAEXXZ 1000672a f i Tester.obj
 0001:0000572a       ?FreeHeap@?$CTempBuffer@E$0EAA@VCCRTAllocator@ATL@@@ATL@@AAEXXZ 1000672a f i Helpers.obj
 0001:0000572a       ?FreeHeap@?$CTempBuffer@E$0BAA@VCCRTAllocator@ATL@@@ATL@@AAEXXZ 1000672a f i Tester.obj
 0001:0000572a       ?FreeHeap@?$CTempBuffer@G$0EAA@VCCRTAllocator@ATL@@@ATL@@AAEXXZ 1000672a f i Helpers.obj
 0001:00005734       ?AllocateBytes@?$CTempBuffer@E$0BAA@VCCRTAllocator@ATL@@@ATL@@QAEPAEI@Z 10006734 f i Tester.obj
 0001:00005734       ?AllocateBytes@?$CTempBuffer@G$0BAA@VCCRTAllocator@ATL@@@ATL@@QAEPAGI@Z 10006734 f i Tester.obj
 0001:00005754       ?AllocateHeap@?$CTempBuffer@E$0EAA@VCCRTAllocator@ATL@@@ATL@@AAEXI@Z 10006754 f i Helpers.obj
 0001:00005754       ?AllocateHeap@?$CTempBuffer@E$0BAA@VCCRTAllocator@ATL@@@ATL@@AAEXI@Z 10006754 f i Tester.obj
 0001:00005754       ?AllocateHeap@?$CTempBuffer@G$0EAA@VCCRTAllocator@ATL@@@ATL@@AAEXI@Z 10006754 f i Helpers.obj
 0001:00005754       ?AllocateHeap@?$CTempBuffer@G$0BAA@VCCRTAllocator@ATL@@@ATL@@AAEXI@Z 10006754 f i Tester.obj
 0001:00005776       ?ChToByte@CRegParser@ATL@@KAEG@Z 10006776 f i Tester.obj
 0001:00005776       ?ChToByte@CRegistryVirtualMachine@ATL@@QAEEG@Z 10006776 f i Helpers.obj
 0001:000057a6       ?SkipAssignment@CRegParser@ATL@@IAEJPAG@Z 100067a6 f i Tester.obj
 0001:00005807       ?HasSubKeys@CRegParser@ATL@@IAEHPAUHKEY__@@@Z 10006807 f i Tester.obj
 0001:0000583c       ?CanForceRemoveKey@CRegParser@ATL@@IAEHPBG@Z 1000683c f i Tester.obj
 0001:00005868       ?SkipWhiteSpace@CRegParser@ATL@@IAEXXZ 10006868 f i Tester.obj
 0001:00005883       ?ResourceUnregister@CRegObject@ATL@@QAGJPBGI0@Z 10006883 f i Tester.obj
 0001:000058ce       ?Error@TInput@@IAEJIJ@Z    100068ce f i TInput.obj
 0001:000058e9       ?Invoke@?IITInput@TInput@@UAGJJABU_GUID@@KGPAUtagDISPPARAMS@@PAUtagVARIANT@@PAUtagEXCEPINFO@@PAI@Z 100068e9 f i TInput.obj
 0001:00005b3c       ?GetIDsOfNames@?IITInput@TInput@@UAGJABU_GUID@@PAPAGIKPAJ@Z 10006b3c f i TInput.obj
 0001:00005b9a       ?GetTypeInfoCount@?IITInput@TInput@@UAGJPAI@Z 10006b9a f i TInput.obj
 0001:00005bf5       ?GetTypeInfo@?IITInput@TInput@@UAGJIKPAPAUITypeInfo@@@Z 10006bf5 f i TInput.obj
 0001:00005c16       ?UpdateRegistry@TInput@@SGJH@Z 10006c16 f i TInput.obj
 0001:00005c7e       ?InterfaceSupportsErrorInfo@TInput@@UAGJABU_GUID@@@Z 10006c7e f i TInput.obj
 0001:00005ca5       ?get_MultiMonitor@TInput@@UAGJPAF@Z 10006ca5 f   TInput.obj
 0001:00005cc9       ?put_MultiMonitor@TInput@@UAGJF@Z 10006cc9 f   TInput.obj
 0001:00005cde       ?get_AbsoluteScreenCoordinates@TInput@@UAGJPAF@Z 10006cde f   TInput.obj
 0001:00005cde       ?get_VirtualScreenCoordinates@TInput@@UAGJPAF@Z 10006cde f   TInput.obj
 0001:00005cf6       ?put_AbsoluteScreenCoordinates@TInput@@UAGJF@Z 10006cf6 f   TInput.obj
 0001:00005d1c       ?put_VirtualScreenCoordinates@TInput@@UAGJF@Z 10006d1c f   TInput.obj
 0001:00005d42       ?PlayInput@TInput@@UAGJPAG@Z 10006d42 f   TInput.obj
 0001:00005da4       ?PlayKeys@TInput@@UAGJPAG@Z 10006da4 f   TInput.obj
 0001:00005db5       ?GetObjectDescription@?$CComCoClass@VTInput@@$1?_GUID_9ee83f0e_21f9_45d7_974d_fae9a57438da@@3U__s_GUID@@B@ATL@@SGPBGXZ 10006db5 f i TInput.obj
 0001:00005db5       ?GetCategoryMap@CComObjectRootBase@ATL@@SAPBU_ATL_CATMAP_ENTRY@2@XZ 10006db5 f i Helpers.obj
 0001:00005db5       ?GetObjectDescription@?$CComCoClass@VTSystem@@$1?_GUID_70a9fc86_0989_4ebf_b2ae_b31f846a7797@@3U__s_GUID@@B@ATL@@SGPBGXZ 10006db5 f i TSystem.obj
 0001:00005db5       ?GetObjectDescription@?$CComCoClass@VTWindow@@$1?_GUID_767d32eb_7b39_44df_94ef_e7608afb0f01@@3U__s_GUID@@B@ATL@@SGPBGXZ 10006db5 f i Helpers.obj
 0001:00005db5       ?GetObjectDescription@?$CComCoClass@VTNotify@@$1?_GUID_dec3f5eb_6169_48cc_816b_1ee00bd26541@@3U__s_GUID@@B@ATL@@SGPBGXZ 10006db5 f i TNotify.obj
 0001:00005db5       ?GetObjectDescription@?$CComCoClass@VTWindows@@$1?_GUID_8a4af30a_d1de_4123_9a91_e52861e7fea7@@3U__s_GUID@@B@ATL@@SGPBGXZ 10006db5 f i Helpers.obj
 0001:00005db8       ?GetClassInfoW@?$IProvideClassInfoImpl@$1?_GUID_9ee83f0e_21f9_45d7_974d_fae9a57438da@@3U__s_GUID@@B$1?m_libid@CAtlModule@ATL@@2U_GUID@@A$00$0A@VCComTypeInfoHolder@ATL@@@ATL@@UAGJPAPAUITypeInfo@@@Z 10006db8 f i TInput.obj
 0001:00005dcd       ?CreateInstance@?$CComCreator2@V?$CComCreator@V?$CComObject@VTInput@@@ATL@@@ATL@@V?$CComCreator@V?$CComAggObject@VTInput@@@ATL@@@2@@ATL@@SGJPAXABU_GUID@@PAPAX@Z 10006dcd f i TInput.obj
 0001:00005ded       ?Error@?$CComCoClass@UITInput@@$1?GUID_NULL@@3U_GUID@@B@ATL@@SGJIABU_GUID@@JPAUHINSTANCE__@@@Z 10006ded f i TInput.obj
 0001:00005e0a       ?CreateInstance@?$CComCreator@V?$CComObject@VTInput@@@ATL@@@ATL@@SGJPAXABU_GUID@@PAPAX@Z 10006e0a f i TInput.obj
 0001:00005e99       ?CreateInstance@?$CComCreator@V?$CComAggObject@VTInput@@@ATL@@@ATL@@SGJPAXABU_GUID@@PAPAX@Z 10006e99 f i TInput.obj
 0001:00005f30       ??0?$CComObject@VTInput@@@ATL@@QAE@PAX@Z 10006f30 f i TInput.obj
 0001:00005f56       ??1?$CComObject@VTInput@@@ATL@@UAE@XZ 10006f56 f i TInput.obj
 0001:00005f7c       ?AddRef@?$CComObject@VTInput@@@ATL@@UAGKXZ 10006f7c f i TInput.obj
 0001:00005f7c       ?AddRef@?$CComObject@VTWindow@@@ATL@@UAGKXZ 10006f7c f i Helpers.obj
 0001:00005f7c       ?AddRef@?$CComObject@VTSystem@@@ATL@@UAGKXZ 10006f7c f i TSystem.obj
 0001:00005f7c       ?AddRef@?$CComObject@VTWindows@@@ATL@@UAGKXZ 10006f7c f i Helpers.obj
 0001:00005f89       ?Release@?$CComObject@VTInput@@@ATL@@UAGKXZ 10006f89 f i TInput.obj
 0001:00005fa7       ?QueryInterface@?$CComObject@VTInput@@@ATL@@UAGJABU_GUID@@PAPAX@Z 10006fa7 f i TInput.obj
 0001:00005fc2       ??0?$CComAggObject@VTInput@@@ATL@@QAE@PAX@Z 10006fc2 f i TInput.obj
 0001:00005ff6       ??1?$CComAggObject@VTInput@@@ATL@@UAE@XZ 10006ff6 f i TInput.obj
 0001:0000600e       ?QueryInterface@?$CComAggObject@VTInput@@@ATL@@UAGJABU_GUID@@PAPAX@Z 1000700e f i TInput.obj
 0001:00006059       ?AddRef@?$CComContainedObject@VTSystem@@@ATL@@UAGKXZ 10007059 f i TSystem.obj
 0001:00006059       ?AddRef@?$CComContainedObject@VTWindows@@@ATL@@UAGKXZ 10007059 f i Helpers.obj
 0001:00006059       ?AddRef@?$CComContainedObject@VTWindow@@@ATL@@UAGKXZ 10007059 f i Helpers.obj
 0001:00006059       ?AddRef@?$CComContainedObject@VTInput@@@ATL@@UAGKXZ 10007059 f i TInput.obj
 0001:00006069       ??_G?$CComObject@VTInput@@@ATL@@UAEPAXI@Z 10007069 f i TInput.obj
 0001:00006069       ??_E?$CComObject@VTInput@@@ATL@@UAEPAXI@Z 10007069 f i TInput.obj
 0001:00006085       ??_E?$CComAggObject@VTInput@@@ATL@@UAEPAXI@Z 10007085 f i TInput.obj
 0001:00006085       ??_G?$CComAggObject@VTInput@@@ATL@@UAEPAXI@Z 10007085 f i TInput.obj
 0001:000060a1       ?QueryInterface@?$CComObject@VTInput@@@ATL@@W3AGJABU_GUID@@PAPAX@Z 100070a1 f i TInput.obj
 0001:000060ab       ?Release@?$CComObject@VTInput@@@ATL@@W3AGKXZ 100070ab f i TInput.obj
 0001:000060b5       ?QueryInterface@?$CComObject@VTInput@@@ATL@@W7AGJABU_GUID@@PAPAX@Z 100070b5 f i TInput.obj
 0001:000060bf       ?AddRef@?$CComObject@VTSystem@@@ATL@@W7AGKXZ 100070bf f i TSystem.obj
 0001:000060bf       ?AddRef@?$CComObject@VTWindows@@@ATL@@W7AGKXZ 100070bf f i Helpers.obj
 0001:000060bf       ?AddRef@?$CComObject@VTInput@@@ATL@@W7AGKXZ 100070bf f i TInput.obj
 0001:000060bf       ?AddRef@?$CComObject@VTWindow@@@ATL@@W7AGKXZ 100070bf f i Helpers.obj
 0001:000060c9       ?Release@?$CComObject@VTInput@@@ATL@@W7AGKXZ 100070c9 f i TInput.obj
 0001:000060d3       ?AtlReportError@ATL@@YGJABU_GUID@@I0JPAUHINSTANCE__@@@Z 100070d3 f i TInput.obj
 0001:000060f3       ?AtlSetErrorInfo@ATL@@YGJABU_GUID@@PBGK10JPAUHINSTANCE__@@@Z 100070f3 f i TInput.obj
 0001:00006268       ??1?$CComPtr@UIUnknown@@@ATL@@QAE@XZ 10007268 f i TNotify.obj
 0001:00006268       ??1?$CComPtr@UICreateErrorInfo@@@ATL@@QAE@XZ 10007268 f i TInput.obj
 0001:00006268       ??1?$CComPtr@UITypeInfo2@@@ATL@@QAE@XZ 10007268 f i Helpers.obj
 0001:00006268       ??1?$CComPtr@UICatRegister@@@ATL@@QAE@XZ 10007268 f i Tester.obj
 0001:00006268       ??1?$CComPtr@UITypeLib@@@ATL@@QAE@XZ 10007268 f i Helpers.obj
 0001:00006268       ??1?$CComPtr@UITypeInfo@@@ATL@@QAE@XZ 10007268 f i Helpers.obj
 0001:00006268       ??1?$CComPtr@UIErrorInfo@@@ATL@@QAE@XZ 10007268 f i TInput.obj
 0001:00006268       ??1?$CComPtr@UITWindow@@@ATL@@QAE@XZ 10007268 f i Helpers.obj
 0001:00006275       ??0CComBSTR@ATL@@QAE@PBG@Z 10007275 f i TInput.obj
 0001:0000629f       ??0TNotify@@QAE@XZ         1000729f f i TNotify.obj
 0001:000062bc       ?Invoke@?IITNotify@TNotify@@UAGJJABU_GUID@@KGPAUtagDISPPARAMS@@PAUtagVARIANT@@PAUtagEXCEPINFO@@PAI@Z 100072bc f i TNotify.obj
 0001:0000649d       ?GetIDsOfNames@?IITNotify@TNotify@@UAGJABU_GUID@@PAPAGIKPAJ@Z 1000749d f i TNotify.obj
 0001:000064fb       ?TypeInfoHelper@TNotify@@QAEJABU_GUID@@KPAPAUITypeInfo@@@Z 100074fb f i TNotify.obj
 0001:000064fb       ?TypeInfoHelper@TInput@@QAEJABU_GUID@@KPAPAUITypeInfo@@@Z 100074fb f i TInput.obj
 0001:000064fb       ?TypeInfoHelper@TSystem@@QAEJABU_GUID@@KPAPAUITypeInfo@@@Z 100074fb f i TSystem.obj
 0001:000064fb       ?TypeInfoHelper@TWindows@@QAEJABU_GUID@@KPAPAUITypeInfo@@@Z 100074fb f i Helpers.obj
 0001:00006612       ?GetTypeInfoCount@?IITNotify@TNotify@@UAGJPAI@Z 10007612 f i TNotify.obj
 0001:0000666d       ?GetTypeInfo@?IITNotify@TNotify@@UAGJIKPAPAUITypeInfo@@@Z 1000766d f i TNotify.obj
 0001:0000668e       ?DestroyWindow@TNotify@@QAEJXZ 1000768e f i TNotify.obj
 0001:000066ff       ?CreateWindow@TNotify@@QAEJPAUITWindow@@@Z 100076ff f i TNotify.obj
 0001:00006795       ?GetConnMap@TNotify@@SAPBU_ATL_CONNMAP_ENTRY@ATL@@PAH@Z 10007795 f i TNotify.obj
 0001:000067d0       ?UpdateRegistry@TNotify@@SGJH@Z 100077d0 f i TNotify.obj
 0001:00006838       ?InterfaceSupportsErrorInfo@TNotify@@UAGJABU_GUID@@@Z 10007838 f i TNotify.obj
 0001:0000685f       ?AddNotification@TNotify@@UAGJW4AddNotifyType@@W4AddNotifySearch@@PAGPAF@Z 1000785f f   TNotify.obj
 0001:000068d1       ?CheckNotification@TNotify@@UAGJXZ 100078d1 f   TNotify.obj
 0001:000068de       ?ClearNotification@TNotify@@UAGJXZ 100078de f   TNotify.obj
 0001:000068f8       ?CheckWinTimerProc@@YGXPAUHWND__@@IIK@Z 100078f8 f   TNotify.obj
 0001:000069c5       ?AddNotify@@YAPAXPAVTNotify@@W4AddNotifyType@@W4AddNotifySearch@@PAG@Z 100079c5 f   TNotify.obj
 0001:00006a5c       ?RemoveNotify@@YAXPAVTNotify@@PAX@Z 10007a5c f   TNotify.obj
 0001:00006a94       ?SpinTheTimerLoop@@YAXJ@Z  10007a94 f   TNotify.obj
 0001:00006aad       ?EnumConnectionPoints@?$IConnectionPointContainerImpl@VTNotify@@@ATL@@UAGJPAPAUIEnumConnectionPoints@@@Z 10007aad f i TNotify.obj
 0001:00006bf5       ?FindConnectionPoint@?$IConnectionPointContainerImpl@VTNotify@@@ATL@@UAGJABU_GUID@@PAPAUIConnectionPoint@@@Z 10007bf5 f i TNotify.obj
 0001:00006c8c       ?_LocCPQueryInterface@?$IConnectionPointImpl@VTNotify@@$1?_GUID_698e7564_2a64_4988_8f1d_58131b6aa9ca@@3U__s_GUID@@BVCComDynamicUnkArray@ATL@@@ATL@@UAGJABU_GUID@@PAPAX@Z 10007c8c f i TNotify.obj
 0001:00006c8c       ?_LocCPQueryInterface@?$IConnectionPointImpl@VTNotify@@$1?IID_IPropertyNotifySink@@3U_GUID@@BVCComDynamicUnkArray@ATL@@@ATL@@UAGJABU_GUID@@PAPAX@Z 10007c8c f i TNotify.obj
 0001:00006cd7       ?GetConnectionInterface@?$IConnectionPointImpl@VTNotify@@$1?IID_IPropertyNotifySink@@3U_GUID@@BVCComDynamicUnkArray@ATL@@@ATL@@UAGJPAU_GUID@@@Z 10007cd7 f i TNotify.obj
 0001:00006cf8       ?GetConnectionPointContainer@?$IConnectionPointImpl@VTNotify@@$1?IID_IPropertyNotifySink@@3U_GUID@@BVCComDynamicUnkArray@ATL@@@ATL@@UAGJPAPAUIConnectionPointContainer@@@Z 10007cf8 f i TNotify.obj
 0001:00006d16       ?GetConnectionInterface@?$IConnectionPointImpl@VTNotify@@$1?_GUID_698e7564_2a64_4988_8f1d_58131b6aa9ca@@3U__s_GUID@@BVCComDynamicUnkArray@ATL@@@ATL@@UAGJPAU_GUID@@@Z 10007d16 f i TNotify.obj
 0001:00006d37       ?GetConnectionPointContainer@?$IConnectionPointImpl@VTNotify@@$1?_GUID_698e7564_2a64_4988_8f1d_58131b6aa9ca@@3U__s_GUID@@BVCComDynamicUnkArray@ATL@@@ATL@@UAGJPAPAUIConnectionPointContainer@@@Z 10007d37 f i TNotify.obj
 0001:00006d55       ?GetClassInfoW@?$IProvideClassInfo2Impl@$1?_GUID_dec3f5eb_6169_48cc_816b_1ee00bd26541@@3U__s_GUID@@B$1?_GUID_698e7564_2a64_4988_8f1d_58131b6aa9ca@@3U2@B$1?m_libid@CAtlModule@ATL@@2U_GUID@@A$00$0A@VCComTypeInfoHolder@ATL@@@ATL@@UAGJPAPAUITypeInfo@@@Z 10007d55 f i TNotify.obj
 0001:00006d6a       ?GetGUID@?$IProvideClassInfo2Impl@$1?_GUID_dec3f5eb_6169_48cc_816b_1ee00bd26541@@3U__s_GUID@@B$1?_GUID_698e7564_2a64_4988_8f1d_58131b6aa9ca@@3U2@B$1?m_libid@CAtlModule@ATL@@2U_GUID@@A$00$0A@VCComTypeInfoHolder@ATL@@@ATL@@UAGJKPAU_GUID@@@Z 10007d6a f i TNotify.obj
 0001:00006d9e       ?CreateInstance@?$CComCreator2@V?$CComCreator@V?$CComObject@VTNotify@@@ATL@@@ATL@@V?$CComCreator@V?$CComAggObject@VTNotify@@@ATL@@@2@@ATL@@SGJPAXABU_GUID@@PAPAX@Z 10007d9e f i TNotify.obj
 0001:00006dbe       ?Add@?$CSimpleArray@PAUHWND__@@V?$CSimpleArrayEqualHelper@PAUHWND__@@@ATL@@@ATL@@QAEHABQAUHWND__@@@Z 10007dbe f i TSystem.obj
 0001:00006dbe       ?Add@?$CSimpleArray@PAVTNotify@@V?$CSimpleArrayEqualHelper@PAVTNotify@@@ATL@@@ATL@@QAEHABQAVTNotify@@@Z 10007dbe f i TNotify.obj
 0001:00006e06       ?Remove@?$CSimpleArray@PAVTNotify@@V?$CSimpleArrayEqualHelper@PAVTNotify@@@ATL@@@ATL@@QAEHABQAVTNotify@@@Z 10007e06 f i TNotify.obj
 0001:00006e28       ?RemoveAt@?$CSimpleArray@PAVTNotify@@V?$CSimpleArrayEqualHelper@PAVTNotify@@@ATL@@@ATL@@QAEHH@Z 10007e28 f i TNotify.obj
 0001:00006e61       ?Find@?$CSimpleArray@PAVTNotify@@V?$CSimpleArrayEqualHelper@PAVTNotify@@@ATL@@@ATL@@QBEHABQAVTNotify@@@Z 10007e61 f i TNotify.obj
 0001:00006e86       ?InternalSetAtIndex@?$CSimpleArray@PAUHWND__@@V?$CSimpleArrayEqualHelper@PAUHWND__@@@ATL@@@ATL@@QAEXHABQAUHWND__@@@Z 10007e86 f i TSystem.obj
 0001:00006e86       ?InternalSetAtIndex@?$CSimpleArray@PAVTNotify@@V?$CSimpleArrayEqualHelper@PAVTNotify@@@ATL@@@ATL@@QAEXHABQAVTNotify@@@Z 10007e86 f i TNotify.obj
 0001:00006e9a       ??0?$CComObject@V?$CComEnum@UIEnumConnectionPoints@@$1?_GUID_b196b285_bab4_101a_b69c_00aa00341d07@@3U__s_GUID@@BPAUIConnectionPoint@@V?$_CopyInterface@UIConnectionPoint@@@ATL@@VCComSingleThreadModel@6@@ATL@@@ATL@@QAE@PAX@Z 10007e9a f i TNotify.obj
 0001:00006eb5       ??1?$CComObject@V?$CComEnum@UIEnumConnectionPoints@@$1?_GUID_b196b285_bab4_101a_b69c_00aa00341d07@@3U__s_GUID@@BPAUIConnectionPoint@@V?$_CopyInterface@UIConnectionPoint@@@ATL@@VCComSingleThreadModel@6@@ATL@@@ATL@@UAE@XZ 10007eb5 f i TNotify.obj
 0001:00006ed8       ?Release@?$CComObject@V?$CComEnum@UIEnumConnections@@$1?_GUID_b196b287_bab4_101a_b69c_00aa00341d07@@3U__s_GUID@@BUtagCONNECTDATA@@V?$_Copy@UtagCONNECTDATA@@@ATL@@VCComSingleThreadModel@6@@ATL@@@ATL@@UAGKXZ 10007ed8 f i TNotify.obj
 0001:00006ed8       ?Release@?$CComObject@V?$CComEnum@UIEnumConnectionPoints@@$1?_GUID_b196b285_bab4_101a_b69c_00aa00341d07@@3U__s_GUID@@BPAUIConnectionPoint@@V?$_CopyInterface@UIConnectionPoint@@@ATL@@VCComSingleThreadModel@6@@ATL@@@ATL@@UAGKXZ 10007ed8 f i TNotify.obj
 0001:00006ed8       ?Release@?$CComObject@V?$CComEnum@UIEnumVARIANT@@$1?IID_IEnumVARIANT@@3U_GUID@@BUtagVARIANT@@V?$_Copy@UtagVARIANT@@@ATL@@VCComSingleThreadModel@6@@ATL@@@ATL@@UAGKXZ 10007ed8 f i TWindows.obj
 0001:00006ef6       ?QueryInterface@?$CComObject@V?$CComEnum@UIEnumConnectionPoints@@$1?_GUID_b196b285_bab4_101a_b69c_00aa00341d07@@3U__s_GUID@@BPAUIConnectionPoint@@V?$_CopyInterface@UIConnectionPoint@@@ATL@@VCComSingleThreadModel@6@@ATL@@@ATL@@UAGJABU_GUID@@PAPAX@Z 10007ef6 f i TNotify.obj
 0001:00006f11       ?CreateInstance@?$CComCreator@V?$CComObject@VTNotify@@@ATL@@@ATL@@SGJPAXABU_GUID@@PAPAX@Z 10007f11 f i TNotify.obj
 0001:00006fa0       ?CreateInstance@?$CComCreator@V?$CComAggObject@VTNotify@@@ATL@@@ATL@@SGJPAXABU_GUID@@PAPAX@Z 10007fa0 f i TNotify.obj
 0001:00007032       ??_E?$CComObject@V?$CComEnum@UIEnumConnectionPoints@@$1?_GUID_b196b285_bab4_101a_b69c_00aa00341d07@@3U__s_GUID@@BPAUIConnectionPoint@@V?$_CopyInterface@UIConnectionPoint@@@ATL@@VCComSingleThreadModel@6@@ATL@@@ATL@@UAEPAXI@Z 10008032 f i TNotify.obj
 0001:00007032       ??_G?$CComObject@V?$CComEnum@UIEnumConnectionPoints@@$1?_GUID_b196b285_bab4_101a_b69c_00aa00341d07@@3U__s_GUID@@BPAUIConnectionPoint@@V?$_CopyInterface@UIConnectionPoint@@@ATL@@VCComSingleThreadModel@6@@ATL@@@ATL@@UAEPAXI@Z 10008032 f i TNotify.obj
 0001:0000704e       ??0?$CComEnum@UIEnumConnections@@$1?_GUID_b196b287_bab4_101a_b69c_00aa00341d07@@3U__s_GUID@@BUtagCONNECTDATA@@V?$_Copy@UtagCONNECTDATA@@@ATL@@VCComSingleThreadModel@6@@ATL@@QAE@XZ 1000804e f i TNotify.obj
 0001:0000704e       ??0?$CComEnum@UIEnumVARIANT@@$1?IID_IEnumVARIANT@@3U_GUID@@BUtagVARIANT@@V?$_Copy@UtagVARIANT@@@ATL@@VCComSingleThreadModel@6@@ATL@@QAE@XZ 1000804e f i TWindows.obj
 0001:0000704e       ??0?$CComEnum@UIEnumConnectionPoints@@$1?_GUID_b196b285_bab4_101a_b69c_00aa00341d07@@3U__s_GUID@@BPAUIConnectionPoint@@V?$_CopyInterface@UIConnectionPoint@@@ATL@@VCComSingleThreadModel@6@@ATL@@QAE@XZ 1000804e f i TNotify.obj
 0001:00007063       ??1?$CComEnum@UIEnumConnectionPoints@@$1?_GUID_b196b285_bab4_101a_b69c_00aa00341d07@@3U__s_GUID@@BPAUIConnectionPoint@@V?$_CopyInterface@UIConnectionPoint@@@ATL@@VCComSingleThreadModel@6@@ATL@@UAE@XZ 10008063 f i TNotify.obj
 0001:00007068       ??0?$CComObject@VTNotify@@@ATL@@QAE@PAX@Z 10008068 f i TNotify.obj
 0001:000070a6       ??1?$CComObject@VTNotify@@@ATL@@UAE@XZ 100080a6 f i TNotify.obj
 0001:000070fb       ?AddRef@?$CComObject@VTNotify@@@ATL@@UAGKXZ 100080fb f i TNotify.obj
 0001:00007108       ?Release@?$CComObject@VTNotify@@@ATL@@UAGKXZ 10008108 f i TNotify.obj
 0001:00007126       ?QueryInterface@?$CComObject@VTNotify@@@ATL@@UAGJABU_GUID@@PAPAX@Z 10008126 f i TNotify.obj
 0001:00007141       ??0?$CComAggObject@VTNotify@@@ATL@@QAE@PAX@Z 10008141 f i TNotify.obj
 0001:00007186       ??1?$CComAggObject@VTNotify@@@ATL@@UAE@XZ 10008186 f i TNotify.obj
 0001:000071da       ?AddRef@?$CComAggObject@VTNotify@@@ATL@@UAGKXZ 100081da f i TNotify.obj
 0001:000071da       ?AddRef@?$CComAggObject@VTInput@@@ATL@@UAGKXZ 100081da f i TInput.obj
 0001:000071da       ?AddRef@?$CComAggObject@VTWindows@@@ATL@@UAGKXZ 100081da f i Helpers.obj
 0001:000071da       ?AddRef@?$CComAggObject@VTWindow@@@ATL@@UAGKXZ 100081da f i Helpers.obj
 0001:000071da       ?AddRef@?$CComAggObject@VTSystem@@@ATL@@UAGKXZ 100081da f i TSystem.obj
 0001:000071e7       ?QueryInterface@?$CComAggObject@VTNotify@@@ATL@@UAGJABU_GUID@@PAPAX@Z 100081e7 f i TNotify.obj
 0001:00007232       ?AddRef@?$CComContainedObject@VTNotify@@@ATL@@UAGKXZ 10008232 f i TNotify.obj
 0001:00007242       ?Release@?$CComContainedObject@VTNotify@@@ATL@@UAGKXZ 10008242 f i TNotify.obj
 0001:00007252       ?QueryInterface@?$CComContainedObject@VTNotify@@@ATL@@UAGJABU_GUID@@PAPAX@Z 10008252 f i TNotify.obj
 0001:00007269       ??_E?$CComObject@VTNotify@@@ATL@@UAEPAXI@Z 10008269 f i TNotify.obj
 0001:00007269       ??_G?$CComObject@VTNotify@@@ATL@@UAEPAXI@Z 10008269 f i TNotify.obj
 0001:00007285       ??1TNotify@@QAE@XZ         10008285 f i TNotify.obj
 0001:000072cc       ??_E?$CComAggObject@VTNotify@@@ATL@@UAEPAXI@Z 100082cc f i TNotify.obj
 0001:000072cc       ??_G?$CComAggObject@VTNotify@@@ATL@@UAEPAXI@Z 100082cc f i TNotify.obj
 0001:000072e8       ??1?$CComContainedObject@VTNotify@@@ATL@@QAE@XZ 100082e8 f i TNotify.obj
 0001:000072ed       ??0?$CComContainedObject@VTNotify@@@ATL@@QAE@PAX@Z 100082ed f i TNotify.obj
 0001:00007329       ?Advise@?$IConnectionPointImpl@VTNotify@@$1?IID_IPropertyNotifySink@@3U_GUID@@BVCComDynamicUnkArray@ATL@@@ATL@@UAGJPAUIUnknown@@PAK@Z 10008329 f i TNotify.obj
 0001:00007329       ?Advise@?$IConnectionPointImpl@VTNotify@@$1?_GUID_698e7564_2a64_4988_8f1d_58131b6aa9ca@@3U__s_GUID@@BVCComDynamicUnkArray@ATL@@@ATL@@UAGJPAUIUnknown@@PAK@Z 10008329 f i TNotify.obj
 0001:000073c5       ?Unadvise@?$IConnectionPointImpl@VTNotify@@$1?IID_IPropertyNotifySink@@3U_GUID@@BVCComDynamicUnkArray@ATL@@@ATL@@UAGJK@Z 100083c5 f i TNotify.obj
 0001:000073c5       ?Unadvise@?$IConnectionPointImpl@VTNotify@@$1?_GUID_698e7564_2a64_4988_8f1d_58131b6aa9ca@@3U__s_GUID@@BVCComDynamicUnkArray@ATL@@@ATL@@UAGJK@Z 100083c5 f i TNotify.obj
 0001:0000741b       ??1?$IConnectionPointImpl@VTNotify@@$1?_GUID_698e7564_2a64_4988_8f1d_58131b6aa9ca@@3U__s_GUID@@BVCComDynamicUnkArray@ATL@@@ATL@@QAE@XZ 1000841b f i TNotify.obj
 0001:0000741b       ??1?$IConnectionPointImpl@VTNotify@@$1?IID_IPropertyNotifySink@@3U_GUID@@BVCComDynamicUnkArray@ATL@@@ATL@@QAE@XZ 1000841b f i TNotify.obj
 0001:00007481       ?EnumConnections@?$IConnectionPointImpl@VTNotify@@$1?_GUID_698e7564_2a64_4988_8f1d_58131b6aa9ca@@3U__s_GUID@@BVCComDynamicUnkArray@ATL@@@ATL@@UAGJPAPAUIEnumConnections@@@Z 10008481 f i TNotify.obj
 0001:00007481       ?EnumConnections@?$IConnectionPointImpl@VTNotify@@$1?IID_IPropertyNotifySink@@3U_GUID@@BVCComDynamicUnkArray@ATL@@@ATL@@UAGJPAPAUIEnumConnections@@@Z 10008481 f i TNotify.obj
 0001:000075c9       ??1?$CComEnumImpl@UIEnumConnectionPoints@@$1?_GUID_b196b285_bab4_101a_b69c_00aa00341d07@@3U__s_GUID@@BPAUIConnectionPoint@@V?$_CopyInterface@UIConnectionPoint@@@ATL@@@ATL@@UAE@XZ 100085c9 f i TNotify.obj
 0001:00007626       ?Next@?$CComEnumImpl@UIEnumConnectionPoints@@$1?_GUID_b196b285_bab4_101a_b69c_00aa00341d07@@3U__s_GUID@@BPAUIConnectionPoint@@V?$_CopyInterface@UIConnectionPoint@@@ATL@@@ATL@@UAGJKPAPAUIConnectionPoint@@PAK@Z 10008626 f i TNotify.obj
 0001:000076c1       ?Skip@?$CComEnumImpl@UIEnumConnectionPoints@@$1?_GUID_b196b285_bab4_101a_b69c_00aa00341d07@@3U__s_GUID@@BPAUIConnectionPoint@@V?$_CopyInterface@UIConnectionPoint@@@ATL@@@ATL@@UAGJK@Z 100086c1 f i TNotify.obj
 0001:000076f9       ?Clone@?$CComEnumImpl@UIEnumConnectionPoints@@$1?_GUID_b196b285_bab4_101a_b69c_00aa00341d07@@3U__s_GUID@@BPAUIConnectionPoint@@V?$_CopyInterface@UIConnectionPoint@@@ATL@@@ATL@@UAGJPAPAUIEnumConnectionPoints@@@Z 100086f9 f i TNotify.obj
 0001:000077c5       ?Init@?$CComEnumImpl@UIEnumConnectionPoints@@$1?_GUID_b196b285_bab4_101a_b69c_00aa00341d07@@3U__s_GUID@@BPAUIConnectionPoint@@V?$_CopyInterface@UIConnectionPoint@@@ATL@@@ATL@@QAEJPAPAUIConnectionPoint@@0PAUIUnknown@@W4CComEnumFlags@2@@Z 100087c5 f i TNotify.obj
 0001:00007885       ??0?$CComObject@V?$CComEnum@UIEnumConnections@@$1?_GUID_b196b287_bab4_101a_b69c_00aa00341d07@@3U__s_GUID@@BUtagCONNECTDATA@@V?$_Copy@UtagCONNECTDATA@@@ATL@@VCComSingleThreadModel@6@@ATL@@@ATL@@QAE@PAX@Z 10008885 f i TNotify.obj
 0001:000078a0       ??1?$CComObject@V?$CComEnum@UIEnumConnections@@$1?_GUID_b196b287_bab4_101a_b69c_00aa00341d07@@3U__s_GUID@@BUtagCONNECTDATA@@V?$_Copy@UtagCONNECTDATA@@@ATL@@VCComSingleThreadModel@6@@ATL@@@ATL@@UAE@XZ 100088a0 f i TNotify.obj
 0001:000078c3       ?AddRef@?$CComObject@V?$CComEnum@UIEnumConnectionPoints@@$1?_GUID_b196b285_bab4_101a_b69c_00aa00341d07@@3U__s_GUID@@BPAUIConnectionPoint@@V?$_CopyInterface@UIConnectionPoint@@@ATL@@VCComSingleThreadModel@6@@ATL@@@ATL@@UAGKXZ 100088c3 f i TNotify.obj
 0001:000078c3       ?AddRef@?$CComObject@V?$CComEnum@UIEnumConnections@@$1?_GUID_b196b287_bab4_101a_b69c_00aa00341d07@@3U__s_GUID@@BUtagCONNECTDATA@@V?$_Copy@UtagCONNECTDATA@@@ATL@@VCComSingleThreadModel@6@@ATL@@@ATL@@UAGKXZ 100088c3 f i TNotify.obj
 0001:000078c3       ?AddRef@?$CComObject@V?$CComEnum@UIEnumVARIANT@@$1?IID_IEnumVARIANT@@3U_GUID@@BUtagVARIANT@@V?$_Copy@UtagVARIANT@@@ATL@@VCComSingleThreadModel@6@@ATL@@@ATL@@UAGKXZ 100088c3 f i TWindows.obj
 0001:000078d0       ?QueryInterface@?$CComObject@V?$CComEnum@UIEnumConnections@@$1?_GUID_b196b287_bab4_101a_b69c_00aa00341d07@@3U__s_GUID@@BUtagCONNECTDATA@@V?$_Copy@UtagCONNECTDATA@@@ATL@@VCComSingleThreadModel@6@@ATL@@@ATL@@UAGJABU_GUID@@PAPAX@Z 100088d0 f i TNotify.obj
 0001:000078eb       ?Reset@?$CComEnumImpl@UIEnumVARIANT@@$1?IID_IEnumVARIANT@@3U_GUID@@BUtagVARIANT@@V?$_Copy@UtagVARIANT@@@ATL@@@ATL@@UAGJXZ 100088eb f i TWindows.obj
 0001:000078eb       ?Reset@?$CComEnumImpl@UIEnumConnectionPoints@@$1?_GUID_b196b285_bab4_101a_b69c_00aa00341d07@@3U__s_GUID@@BPAUIConnectionPoint@@V?$_CopyInterface@UIConnectionPoint@@@ATL@@@ATL@@UAGJXZ 100088eb f i TNotify.obj
 0001:000078eb       ?Reset@?$CComEnumImpl@UIEnumConnections@@$1?_GUID_b196b287_bab4_101a_b69c_00aa00341d07@@3U__s_GUID@@BUtagCONNECTDATA@@V?$_Copy@UtagCONNECTDATA@@@ATL@@@ATL@@UAGJXZ 100088eb f i TNotify.obj
 0001:000078fa       ??_E?$CComObject@V?$CComEnum@UIEnumConnections@@$1?_GUID_b196b287_bab4_101a_b69c_00aa00341d07@@3U__s_GUID@@BUtagCONNECTDATA@@V?$_Copy@UtagCONNECTDATA@@@ATL@@VCComSingleThreadModel@6@@ATL@@@ATL@@UAEPAXI@Z 100088fa f i TNotify.obj
 0001:000078fa       ??_G?$CComObject@V?$CComEnum@UIEnumConnections@@$1?_GUID_b196b287_bab4_101a_b69c_00aa00341d07@@3U__s_GUID@@BUtagCONNECTDATA@@V?$_Copy@UtagCONNECTDATA@@@ATL@@VCComSingleThreadModel@6@@ATL@@@ATL@@UAEPAXI@Z 100088fa f i TNotify.obj
 0001:00007916       ??1?$CComEnum@UIEnumConnections@@$1?_GUID_b196b287_bab4_101a_b69c_00aa00341d07@@3U__s_GUID@@BUtagCONNECTDATA@@V?$_Copy@UtagCONNECTDATA@@@ATL@@VCComSingleThreadModel@6@@ATL@@UAE@XZ 10008916 f i TNotify.obj
 0001:0000791b       ??1?$CComEnumImpl@UIEnumConnections@@$1?_GUID_b196b287_bab4_101a_b69c_00aa00341d07@@3U__s_GUID@@BUtagCONNECTDATA@@V?$_Copy@UtagCONNECTDATA@@@ATL@@@ATL@@UAE@XZ 1000891b f i TNotify.obj
 0001:00007978       ?Next@?$CComEnumImpl@UIEnumConnections@@$1?_GUID_b196b287_bab4_101a_b69c_00aa00341d07@@3U__s_GUID@@BUtagCONNECTDATA@@V?$_Copy@UtagCONNECTDATA@@@ATL@@@ATL@@UAGJKPAUtagCONNECTDATA@@PAK@Z 10008978 f i TNotify.obj
 0001:00007a43       ?Skip@?$CComEnumImpl@UIEnumConnections@@$1?_GUID_b196b287_bab4_101a_b69c_00aa00341d07@@3U__s_GUID@@BUtagCONNECTDATA@@V?$_Copy@UtagCONNECTDATA@@@ATL@@@ATL@@UAGJK@Z 10008a43 f i TNotify.obj
 0001:00007a7b       ?Clone@?$CComEnumImpl@UIEnumConnections@@$1?_GUID_b196b287_bab4_101a_b69c_00aa00341d07@@3U__s_GUID@@BUtagCONNECTDATA@@V?$_Copy@UtagCONNECTDATA@@@ATL@@@ATL@@UAGJPAPAUIEnumConnections@@@Z 10008a7b f i TNotify.obj
 0001:00007b47       ?Init@?$CComEnumImpl@UIEnumConnections@@$1?_GUID_b196b287_bab4_101a_b69c_00aa00341d07@@3U__s_GUID@@BUtagCONNECTDATA@@V?$_Copy@UtagCONNECTDATA@@@ATL@@@ATL@@QAEJPAUtagCONNECTDATA@@0PAUIUnknown@@W4CComEnumFlags@2@@Z 10008b47 f i TNotify.obj
 0001:00007c40       ?CreateInstance@?$CComObject@V?$CComEnum@UIEnumConnectionPoints@@$1?_GUID_b196b285_bab4_101a_b69c_00aa00341d07@@3U__s_GUID@@BPAUIConnectionPoint@@V?$_CopyInterface@UIConnectionPoint@@@ATL@@VCComSingleThreadModel@6@@ATL@@@ATL@@SGJPAPAV12@@Z 10008c40 f i TNotify.obj
 0001:00007cb5       ?CreateInstance@?$CComObject@V?$CComEnum@UIEnumConnections@@$1?_GUID_b196b287_bab4_101a_b69c_00aa00341d07@@3U__s_GUID@@BUtagCONNECTDATA@@V?$_Copy@UtagCONNECTDATA@@@ATL@@VCComSingleThreadModel@6@@ATL@@@ATL@@SGJPAPAV12@@Z 10008cb5 f i TNotify.obj
 0001:00007d2a       ?AddRef@?$CComObject@VTNotify@@@ATL@@W3AGKXZ 10008d2a f i TNotify.obj
 0001:00007d34       ?Release@?$CComObject@VTNotify@@@ATL@@W3AGKXZ 10008d34 f i TNotify.obj
 0001:00007d3e       ?QueryInterface@?$CComObject@VTNotify@@@ATL@@WBA@AGJABU_GUID@@PAPAX@Z 10008d3e f i TNotify.obj
 0001:00007d48       ?AddRef@?$CComObject@VTNotify@@@ATL@@WBA@AGKXZ 10008d48 f i TNotify.obj
 0001:00007d52       ?Release@?$CComObject@VTNotify@@@ATL@@WBA@AGKXZ 10008d52 f i TNotify.obj
 0001:00007d5c       ?AddNotification@TNotify@@WBA@AGJW4AddNotifyType@@W4AddNotifySearch@@PAGPAF@Z 10008d5c f i TNotify.obj
 0001:00007d66       ?CheckNotification@TNotify@@WBA@AGJXZ 10008d66 f i TNotify.obj
 0001:00007d70       ?ClearNotification@TNotify@@WBA@AGJXZ 10008d70 f i TNotify.obj
 0001:00007d7a       ?QueryInterface@?$CComObject@VTNotify@@@ATL@@WBE@AGJABU_GUID@@PAPAX@Z 10008d7a f i TNotify.obj
 0001:00007d84       ?AddRef@?$CComObject@VTNotify@@@ATL@@WBE@AGKXZ 10008d84 f i TNotify.obj
 0001:00007d8e       ?Release@?$CComObject@VTNotify@@@ATL@@WBE@AGKXZ 10008d8e f i TNotify.obj
 0001:00007d98       ?AddRef@?$CComObject@VTNotify@@@ATL@@WBI@AGKXZ 10008d98 f i TNotify.obj
 0001:00007da2       ?Release@?$CComObject@VTNotify@@@ATL@@WBI@AGKXZ 10008da2 f i TNotify.obj
 0001:00007dac       ?QueryInterface@?$CComObject@VTNotify@@@ATL@@WCE@AGJABU_GUID@@PAPAX@Z 10008dac f i TNotify.obj
 0001:00007db6       ?AddRef@?$CComObject@VTNotify@@@ATL@@WCE@AGKXZ 10008db6 f i TNotify.obj
 0001:00007dc0       ?Release@?$CComObject@VTNotify@@@ATL@@WCE@AGKXZ 10008dc0 f i TNotify.obj
 0001:00007dca       ?AddRef@?$CComContainedObject@VTNotify@@@ATL@@W3AGKXZ 10008dca f i TNotify.obj
 0001:00007dd4       ?Release@?$CComContainedObject@VTNotify@@@ATL@@W3AGKXZ 10008dd4 f i TNotify.obj
 0001:00007dde       ?QueryInterface@?$CComContainedObject@VTNotify@@@ATL@@WBA@AGJABU_GUID@@PAPAX@Z 10008dde f i TNotify.obj
 0001:00007de8       ?AddRef@?$CComContainedObject@VTNotify@@@ATL@@WBA@AGKXZ 10008de8 f i TNotify.obj
 0001:00007df2       ?Release@?$CComContainedObject@VTNotify@@@ATL@@WBA@AGKXZ 10008df2 f i TNotify.obj
 0001:00007dfc       ?QueryInterface@?$CComContainedObject@VTNotify@@@ATL@@WBE@AGJABU_GUID@@PAPAX@Z 10008dfc f i TNotify.obj
 0001:00007e06       ?AddRef@?$CComContainedObject@VTNotify@@@ATL@@WBE@AGKXZ 10008e06 f i TNotify.obj
 0001:00007e10       ?Release@?$CComContainedObject@VTNotify@@@ATL@@WBE@AGKXZ 10008e10 f i TNotify.obj
 0001:00007e1a       ?AddRef@?$CComContainedObject@VTNotify@@@ATL@@WBI@AGKXZ 10008e1a f i TNotify.obj
 0001:00007e24       ?Release@?$CComContainedObject@VTNotify@@@ATL@@WBI@AGKXZ 10008e24 f i TNotify.obj
 0001:00007e2e       ?QueryInterface@?$CComContainedObject@VTNotify@@@ATL@@WCE@AGJABU_GUID@@PAPAX@Z 10008e2e f i TNotify.obj
 0001:00007e38       ?AddRef@?$CComContainedObject@VTNotify@@@ATL@@WCE@AGKXZ 10008e38 f i TNotify.obj
 0001:00007e42       ?Release@?$CComContainedObject@VTNotify@@@ATL@@WCE@AGKXZ 10008e42 f i TNotify.obj
 0001:00007e4c       ?copy@?$_Copy@UtagCONNECTDATA@@@ATL@@SAJPAUtagCONNECTDATA@@0@Z 10008e4c f i TNotify.obj
 0001:00007e65       ?AtlComPtrAssign@ATL@@YGPAUIUnknown@@PAPAU2@PAU2@@Z 10008e65 f i TNotify.obj
 0001:00007e87       ?GetCookie@CComDynamicUnkArray@ATL@@QAGKPAPAUIUnknown@@@Z 10008e87 f i TNotify.obj
 0001:00007eca       ?Remove@CComDynamicUnkArray@ATL@@QAEHK@Z 10008eca f i TNotify.obj
 0001:00007efb       ?GetAt@CComDynamicUnkArray@ATL@@QAEPAUIUnknown@@H@Z 10008efb f i TNotify.obj
 0001:00007f14       ?Add@CComDynamicUnkArray@ATL@@QAEKPAUIUnknown@@@Z 10008f14 f i TNotify.obj
 0001:00007fc4       ?Allocate@?$CAtlSafeAllocBufferManager@VCCRTAllocator@ATL@@@_ATL_SAFE_ALLOCA_IMPL@ATL@@QAEPAXK@Z 10008fc4 f i TNotify.obj
 0001:00007fde       ?_AtlVerifyStackAvailable@_ATL_SAFE_ALLOCA_IMPL@ATL@@YA_NK@Z 10008fde f i TNotify.obj
 0001:00008038       ??1CComDynamicUnkArray@ATL@@QAE@XZ 10009038 f i TNotify.obj
 0001:00008048       ?__ComInvokeEventHandler@ATL@@YAJPAUIDispatch@@JGPAUtagDISPPARAMS@@PAUtagVARIANT@@@Z 10009048 f i TNotify.obj
 0001:000080cc       ?Invoke@?IITSystem@TSystem@@UAGJJABU_GUID@@KGPAUtagDISPPARAMS@@PAUtagVARIANT@@PAUtagEXCEPINFO@@PAI@Z 100090cc f i TSystem.obj
 0001:00008734       ?GetIDsOfNames@?IITSystem@TSystem@@UAGJABU_GUID@@PAPAGIKPAJ@Z 10009734 f i TSystem.obj
 0001:00008792       ?GetTypeInfoCount@?IITSystem@TSystem@@UAGJPAI@Z 10009792 f i TSystem.obj
 0001:000087ed       ?GetTypeInfo@?IITSystem@TSystem@@UAGJIKPAPAUITypeInfo@@@Z 100097ed f i TSystem.obj
 0001:0000880e       ?UpdateRegistry@TSystem@@SGJH@Z 1000980e f i TSystem.obj
 0001:00008876       ?InterfaceSupportsErrorInfo@TSystem@@UAGJABU_GUID@@@Z 10009876 f i TSystem.obj
 0001:0000889d       ?GetForegroundTWindow@TSystem@@UAGJPAPAUITWindow@@@Z 1000989d f   TSystem.obj
 0001:000088ae       ?get_ForegroundTWindow@TSystem@@UAGJPAPAUITWindow@@@Z 100098ae f   TSystem.obj
 0001:00008937       ?EnumTopWindows@TSystem@@UAGJPAPAUITWindows@@@Z 10009937 f   TSystem.obj
 0001:00008948       ?get_TopTWindows@TSystem@@UAGJPAPAUITWindows@@@Z 10009948 f   TSystem.obj
 0001:000089c5       ?FindTopWindow@TSystem@@UAGJPAG0PAPAUITWindow@@@Z 100099c5 f   TSystem.obj
 0001:000089de       ?FindTopTWindow@TSystem@@UAGJPAG0PAPAUITWindow@@@Z 100099de f   TSystem.obj
 0001:00008aa8       ?FindTopWindowByTitle@TSystem@@UAGJPAGPAPAUITWindow@@@Z 10009aa8 f   TSystem.obj
 0001:00008abd       ?FindTopTWindowByTitle@TSystem@@UAGJPAGPAPAUITWindow@@@Z 10009abd f   TSystem.obj
 0001:00008ad4       ?FindTopWindowByClass@TSystem@@UAGJPAGPAPAUITWindow@@@Z 10009ad4 f   TSystem.obj
 0001:00008ae9       ?FindTopTWindowByClass@TSystem@@UAGJPAGPAPAUITWindow@@@Z 10009ae9 f   TSystem.obj
 0001:00008b00       ?Execute@TSystem@@UAGJPAGPAF@Z 10009b00 f   TSystem.obj
 0001:00008ba5       ?Sleep@TSystem@@UAGJN@Z    10009ba5 f   TSystem.obj
 0001:00008bc6       ?Pause@TSystem@@UAGJJ@Z    10009bc6 f   TSystem.obj
 0001:00008bd5       ?CheckResolution@TSystem@@UAGJJJPAF@Z 10009bd5 f   TSystem.obj
 0001:00008c2a       ?CheckVirtualResolution@TSystem@@UAGJJJJJPAF@Z 10009c2a f   TSystem.obj
 0001:00008c92       ?LookForChildTitleAndIdProc@@YGHPAUHWND__@@J@Z 10009c92 f   TSystem.obj
 0001:00008cf7       ?SetSpecificFocus@TSystem@@UAGJPAG00JPAF@Z 10009cf7 f   TSystem.obj
 0001:0000900e       ?GetClassInfoW@?$IProvideClassInfoImpl@$1?_GUID_70a9fc86_0989_4ebf_b2ae_b31f846a7797@@3U__s_GUID@@B$1?m_libid@CAtlModule@ATL@@2U_GUID@@A$00$0A@VCComTypeInfoHolder@ATL@@@ATL@@UAGJPAPAUITypeInfo@@@Z 1000a00e f i TSystem.obj
 0001:00009023       ?CreateInstance@?$CComCreator2@V?$CComCreator@V?$CComObject@VTSystem@@@ATL@@@ATL@@V?$CComCreator@V?$CComAggObject@VTSystem@@@ATL@@@2@@ATL@@SGJPAXABU_GUID@@PAPAX@Z 1000a023 f i TSystem.obj
 0001:00009043       ??1?$CSimpleArray@PAUHWND__@@V?$CSimpleArrayEqualHelper@PAUHWND__@@@ATL@@@ATL@@QAE@XZ 1000a043 f i TSystem.obj
 0001:00009048       ?RemoveAll@?$CSimpleArray@PAVTNotify@@V?$CSimpleArrayEqualHelper@PAVTNotify@@@ATL@@@ATL@@QAEXXZ 1000a048 f i TNotify.obj
 0001:00009048       ?RemoveAll@?$CSimpleArray@PAUHWND__@@V?$CSimpleArrayEqualHelper@PAUHWND__@@@ATL@@@ATL@@QAEXXZ 1000a048 f i TSystem.obj
 0001:00009062       ?CreateInstance@?$CComCreator@V?$CComObject@VTSystem@@@ATL@@@ATL@@SGJPAXABU_GUID@@PAPAX@Z 1000a062 f i TSystem.obj
 0001:000090f1       ?CreateInstance@?$CComCreator@V?$CComAggObject@VTSystem@@@ATL@@@ATL@@SGJPAXABU_GUID@@PAPAX@Z 1000a0f1 f i TSystem.obj
 0001:00009188       ??0?$CComObject@VTSystem@@@ATL@@QAE@PAX@Z 1000a188 f i TSystem.obj
 0001:000091ae       ??1?$CComObject@VTSystem@@@ATL@@UAE@XZ 1000a1ae f i TSystem.obj
 0001:000091d4       ?Release@?$CComObject@VTSystem@@@ATL@@UAGKXZ 1000a1d4 f i TSystem.obj
 0001:000091f2       ?QueryInterface@?$CComObject@VTSystem@@@ATL@@UAGJABU_GUID@@PAPAX@Z 1000a1f2 f i TSystem.obj
 0001:0000920d       ??0?$CComAggObject@VTSystem@@@ATL@@QAE@PAX@Z 1000a20d f i TSystem.obj
 0001:00009241       ??1?$CComAggObject@VTSystem@@@ATL@@UAE@XZ 1000a241 f i TSystem.obj
 0001:00009259       ?Release@?$CComAggObject@VTNotify@@@ATL@@UAGKXZ 1000a259 f i TNotify.obj
 0001:00009259       ?Release@?$CComAggObject@VTInput@@@ATL@@UAGKXZ 1000a259 f i TInput.obj
 0001:00009259       ?Release@?$CComAggObject@VTWindow@@@ATL@@UAGKXZ 1000a259 f i Helpers.obj
 0001:00009259       ?Release@?$CComAggObject@VTWindows@@@ATL@@UAGKXZ 1000a259 f i Helpers.obj
 0001:00009259       ?Release@?$CComAggObject@VTSystem@@@ATL@@UAGKXZ 1000a259 f i TSystem.obj
 0001:00009277       ?QueryInterface@?$CComAggObject@VTSystem@@@ATL@@UAGJABU_GUID@@PAPAX@Z 1000a277 f i TSystem.obj
 0001:000092c2       ??_E?$CComObject@VTSystem@@@ATL@@UAEPAXI@Z 1000a2c2 f i TSystem.obj
 0001:000092c2       ??_G?$CComObject@VTSystem@@@ATL@@UAEPAXI@Z 1000a2c2 f i TSystem.obj
 0001:000092de       ??_G?$CComAggObject@VTSystem@@@ATL@@UAEPAXI@Z 1000a2de f i TSystem.obj
 0001:000092de       ??_E?$CComAggObject@VTSystem@@@ATL@@UAEPAXI@Z 1000a2de f i TSystem.obj
 0001:000092fa       ?QueryInterface@?$CComObject@VTSystem@@@ATL@@W3AGJABU_GUID@@PAPAX@Z 1000a2fa f i TSystem.obj
 0001:00009304       ?AddRef@?$CComObject@VTWindows@@@ATL@@W3AGKXZ 1000a304 f i Helpers.obj
 0001:00009304       ?AddRef@?$CComObject@VTSystem@@@ATL@@W3AGKXZ 1000a304 f i TSystem.obj
 0001:00009304       ?AddRef@?$CComObject@VTWindow@@@ATL@@W3AGKXZ 1000a304 f i Helpers.obj
 0001:00009304       ?AddRef@?$CComObject@VTInput@@@ATL@@W3AGKXZ 1000a304 f i TInput.obj
 0001:0000930e       ?Release@?$CComObject@VTSystem@@@ATL@@W3AGKXZ 1000a30e f i TSystem.obj
 0001:00009318       ?QueryInterface@?$CComObject@VTSystem@@@ATL@@W7AGJABU_GUID@@PAPAX@Z 1000a318 f i TSystem.obj
 0001:00009322       ?Release@?$CComObject@VTSystem@@@ATL@@W7AGKXZ 1000a322 f i TSystem.obj
 0001:0000932c       ?QueryInterface@?$CComContainedObject@VTWindows@@@ATL@@W3AGJABU_GUID@@PAPAX@Z 1000a32c f i Helpers.obj
 0001:0000932c       ?QueryInterface@?$CComContainedObject@VTInput@@@ATL@@W3AGJABU_GUID@@PAPAX@Z 1000a32c f i TInput.obj
 0001:0000932c       ?QueryInterface@?$CComContainedObject@VTSystem@@@ATL@@W3AGJABU_GUID@@PAPAX@Z 1000a32c f i TSystem.obj
 0001:0000932c       ?QueryInterface@?$CComContainedObject@VTWindow@@@ATL@@W3AGJABU_GUID@@PAPAX@Z 1000a32c f i Helpers.obj
 0001:00009336       ?AddRef@?$CComContainedObject@VTInput@@@ATL@@W3AGKXZ 1000a336 f i TInput.obj
 0001:00009336       ?AddRef@?$CComContainedObject@VTSystem@@@ATL@@W3AGKXZ 1000a336 f i TSystem.obj
 0001:00009336       ?AddRef@?$CComContainedObject@VTWindow@@@ATL@@W3AGKXZ 1000a336 f i Helpers.obj
 0001:00009336       ?AddRef@?$CComContainedObject@VTWindows@@@ATL@@W3AGKXZ 1000a336 f i Helpers.obj
 0001:00009340       ?Release@?$CComContainedObject@VTSystem@@@ATL@@W3AGKXZ 1000a340 f i TSystem.obj
 0001:00009340       ?Release@?$CComContainedObject@VTWindow@@@ATL@@W3AGKXZ 1000a340 f i Helpers.obj
 0001:00009340       ?Release@?$CComContainedObject@VTWindows@@@ATL@@W3AGKXZ 1000a340 f i Helpers.obj
 0001:00009340       ?Release@?$CComContainedObject@VTInput@@@ATL@@W3AGKXZ 1000a340 f i TInput.obj
 0001:0000934a       ?QueryInterface@?$CComContainedObject@VTWindows@@@ATL@@W7AGJABU_GUID@@PAPAX@Z 1000a34a f i Helpers.obj
 0001:0000934a       ?QueryInterface@?$CComContainedObject@VTWindow@@@ATL@@W7AGJABU_GUID@@PAPAX@Z 1000a34a f i Helpers.obj
 0001:0000934a       ?QueryInterface@?$CComContainedObject@VTSystem@@@ATL@@W7AGJABU_GUID@@PAPAX@Z 1000a34a f i TSystem.obj
 0001:0000934a       ?QueryInterface@?$CComContainedObject@VTInput@@@ATL@@W7AGJABU_GUID@@PAPAX@Z 1000a34a f i TInput.obj
 0001:00009354       ?AddRef@?$CComContainedObject@VTInput@@@ATL@@W7AGKXZ 1000a354 f i TInput.obj
 0001:00009354       ?AddRef@?$CComContainedObject@VTSystem@@@ATL@@W7AGKXZ 1000a354 f i TSystem.obj
 0001:00009354       ?AddRef@?$CComContainedObject@VTWindow@@@ATL@@W7AGKXZ 1000a354 f i Helpers.obj
 0001:00009354       ?AddRef@?$CComContainedObject@VTWindows@@@ATL@@W7AGKXZ 1000a354 f i Helpers.obj
 0001:0000935e       ?Release@?$CComContainedObject@VTWindow@@@ATL@@W7AGKXZ 1000a35e f i Helpers.obj
 0001:0000935e       ?Release@?$CComContainedObject@VTWindows@@@ATL@@W7AGKXZ 1000a35e f i Helpers.obj
 0001:0000935e       ?Release@?$CComContainedObject@VTInput@@@ATL@@W7AGKXZ 1000a35e f i TInput.obj
 0001:0000935e       ?Release@?$CComContainedObject@VTSystem@@@ATL@@W7AGKXZ 1000a35e f i TSystem.obj
 0001:00009368       ??8CComBSTR@ATL@@QBE_NPBG@Z 1000a368 f i TSystem.obj
 0001:00009395       ??8CComBSTR@ATL@@QBE_NABV01@@Z 1000a395 f i TSystem.obj
 0001:000093b2       ?Error@TWindow@@IAEJIJ@Z   1000a3b2 f   TWindow.obj
 0001:000093d7       ?get_hWnd@TWindow@@UAGJPAJ@Z 1000a3d7 f   TWindow.obj
 0001:000093e9       ?put_hWnd@TWindow@@UAGJJ@Z 1000a3e9 f   TWindow.obj
 0001:000093f9       ?get_Caption@TWindow@@UAGJPAPAG@Z 1000a3f9 f   TWindow.obj
 0001:00009474       ?get_Title@TWindow@@UAGJPAPAG@Z 1000a474 f   TWindow.obj
 0001:00009485       ?get_ClassName@TWindow@@UAGJPAPAG@Z 1000a485 f   TWindow.obj
 0001:00009505       ?GetWindowRect@TWindow@@IAEJPAJPAUtagRECT@@@Z 1000a505 f   TWindow.obj
 0001:0000953d       ?get_Top@TWindow@@UAGJPAJ@Z 1000a53d f   TWindow.obj
 0001:00009563       ?get_Bottom@TWindow@@UAGJPAJ@Z 1000a563 f   TWindow.obj
 0001:00009589       ?get_Left@TWindow@@UAGJPAJ@Z 1000a589 f   TWindow.obj
 0001:000095af       ?get_Right@TWindow@@UAGJPAJ@Z 1000a5af f   TWindow.obj
 0001:000095d5       ?get_Valid@TWindow@@UAGJPAF@Z 1000a5d5 f   TWindow.obj
 0001:00009610       ?get_Enabled@TWindow@@UAGJPAF@Z 1000a610 f   TWindow.obj
 0001:0000964b       ?get_Parent@TWindow@@UAGJPAPAUITWindow@@@Z 1000a64b f   TWindow.obj
 0001:000096c0       ?get_ProcessId@TWindow@@UAGJPAJ@Z 1000a6c0 f   TWindow.obj
 0001:00009706       ?get_ThreadId@TWindow@@UAGJPAJ@Z 1000a706 f   TWindow.obj
 0001:00009741       ?get_Id@TWindow@@UAGJPAJ@Z 1000a741 f   TWindow.obj
 0001:0000976f       ?get_Visible@TWindow@@UAGJPAF@Z 1000a76f f   TWindow.obj
 0001:00009790       ?SetWindowSize@TWindow@@UAGJJJJJ@Z 1000a790 f   TWindow.obj
 0001:000097c9       ?SetForegroundTWindow@TWindow@@UAGJXZ 1000a7c9 f   TWindow.obj
 0001:00009854       ?SetFocusTWindow@TWindow@@UAGJXZ 1000a854 f   TWindow.obj
 0001:000098ed       ?FindChildTWindow@TWindow@@UAGJPAG0PAPAUITWindow@@@Z 1000a8ed f   TWindow.obj
 0001:000099d2       ?FindChildWindow@TWindow@@UAGJPAG0PAPAUITWindow@@@Z 1000a9d2 f   TWindow.obj
 0001:000099eb       ?FindChildTWindowByClass@TWindow@@UAGJPAGPAPAUITWindow@@@Z 1000a9eb f   TWindow.obj
 0001:000099eb       ?FindChildWindowByClass@TWindow@@UAGJPAGPAPAUITWindow@@@Z 1000a9eb f   TWindow.obj
 0001:00009a02       ?FindChildWindowByTitle@TWindow@@UAGJPAGPAPAUITWindow@@@Z 1000aa02 f   TWindow.obj
 0001:00009a02       ?FindChildTWindowByTitle@TWindow@@UAGJPAGPAPAUITWindow@@@Z 1000aa02 f   TWindow.obj
 0001:00009a19       ?ChildWindowIDEnumProc@@YGHPAUHWND__@@J@Z 1000aa19 f   TWindow.obj
 0001:00009a3f       ?FindChildTWindowWithID@TWindow@@UAGJJPAPAUITWindow@@@Z 1000aa3f f   TWindow.obj
 0001:00009adf       ?FindChildWindowWithID@TWindow@@UAGJJPAPAUITWindow@@@Z 1000aadf f   TWindow.obj
 0001:00009af7       ?EnumChildren@TWindow@@UAGJPAPAUITWindows@@@Z 1000aaf7 f   TWindow.obj
 0001:00009b0b       ?EnumChildWindowProc@@YGHPAUHWND__@@J@Z 1000ab0b f   TWindow.obj
 0001:00009b0b       ?EnumTopWindowProc@@YGHPAUHWND__@@J@Z 1000ab0b f   TSystem.obj
 0001:00009b21       ?get_Children@TWindow@@UAGJPAPAUITWindows@@@Z 1000ab21 f   TWindow.obj
 0001:00009bab       ?Copy@CComBSTR@ATL@@QBEPAGXZ 1000abab f i TWindow.obj
 0001:00009bc3       ?get_Count@TWindows@@UAGJPAJ@Z 1000abc3 f   TWindows.obj
 0001:00009be0       ?get_Item@TWindows@@UAGJJPAPAUITWindow@@@Z 1000abe0 f   TWindows.obj
 0001:00009c19       ?get__NewEnum@TWindows@@UAGJPAPAUIUnknown@@@Z 1000ac19 f   TWindows.obj
 0001:00009cd5       ?Add@TWindows@@UAGJPAUtagVARIANT@@PAPAUITWindow@@@Z 1000acd5 f   TWindows.obj
 0001:00009e14       ?Remove@TWindows@@UAGJJPAPAUITWindow@@@Z 1000ae14 f   TWindows.obj
 0001:00009e67       ?Add@?$CSimpleArray@V?$CComPtr@UITWindow@@@ATL@@V?$CSimpleArrayEqualHelper@V?$CComPtr@UITWindow@@@ATL@@@2@@ATL@@QAEHABV?$CComPtr@UITWindow@@@2@@Z 1000ae67 f i TWindows.obj
 0001:00009eae       ?RemoveAt@?$CSimpleArray@V?$CComPtr@UITWindow@@@ATL@@V?$CSimpleArrayEqualHelper@V?$CComPtr@UITWindow@@@ATL@@@2@@ATL@@QAEHH@Z 1000aeae f i TWindows.obj
 0001:00009efa       ?CopyTo@?$CComPtrBase@UITWindow@@@ATL@@QAEJPAPAUITWindow@@@Z 1000aefa f i TWindows.obj
 0001:00009f17       ??0?$CComObject@V?$CComEnum@UIEnumVARIANT@@$1?IID_IEnumVARIANT@@3U_GUID@@BUtagVARIANT@@V?$_Copy@UtagVARIANT@@@ATL@@VCComSingleThreadModel@6@@ATL@@@ATL@@QAE@PAX@Z 1000af17 f i TWindows.obj
 0001:00009f32       ??1?$CComObject@V?$CComEnum@UIEnumVARIANT@@$1?IID_IEnumVARIANT@@3U_GUID@@BUtagVARIANT@@V?$_Copy@UtagVARIANT@@@ATL@@VCComSingleThreadModel@6@@ATL@@@ATL@@UAE@XZ 1000af32 f i TWindows.obj
 0001:00009f55       ?QueryInterface@?$CComObject@V?$CComEnum@UIEnumVARIANT@@$1?IID_IEnumVARIANT@@3U_GUID@@BUtagVARIANT@@V?$_Copy@UtagVARIANT@@@ATL@@VCComSingleThreadModel@6@@ATL@@@ATL@@UAGJABU_GUID@@PAPAX@Z 1000af55 f i TWindows.obj
 0001:00009f70       ??_G?$CComObject@V?$CComEnum@UIEnumVARIANT@@$1?IID_IEnumVARIANT@@3U_GUID@@BUtagVARIANT@@V?$_Copy@UtagVARIANT@@@ATL@@VCComSingleThreadModel@6@@ATL@@@ATL@@UAEPAXI@Z 1000af70 f i TWindows.obj
 0001:00009f70       ??_E?$CComObject@V?$CComEnum@UIEnumVARIANT@@$1?IID_IEnumVARIANT@@3U_GUID@@BUtagVARIANT@@V?$_Copy@UtagVARIANT@@@ATL@@VCComSingleThreadModel@6@@ATL@@@ATL@@UAEPAXI@Z 1000af70 f i TWindows.obj
 0001:00009f8c       ??1?$CComEnum@UIEnumVARIANT@@$1?IID_IEnumVARIANT@@3U_GUID@@BUtagVARIANT@@V?$_Copy@UtagVARIANT@@@ATL@@VCComSingleThreadModel@6@@ATL@@UAE@XZ 1000af8c f i TWindows.obj
 0001:00009f91       ?InternalSetAtIndex@?$CSimpleArray@V?$CComPtr@UITWindow@@@ATL@@V?$CSimpleArrayEqualHelper@V?$CComPtr@UITWindow@@@ATL@@@2@@ATL@@QAEXHABV?$CComPtr@UITWindow@@@2@@Z 1000af91 f i TWindows.obj
 0001:00009fca       ??1?$CComEnumImpl@UIEnumVARIANT@@$1?IID_IEnumVARIANT@@3U_GUID@@BUtagVARIANT@@V?$_Copy@UtagVARIANT@@@ATL@@@ATL@@UAE@XZ 1000afca f i TWindows.obj
 0001:0000a022       ?Next@?$CComEnumImpl@UIEnumVARIANT@@$1?IID_IEnumVARIANT@@3U_GUID@@BUtagVARIANT@@V?$_Copy@UtagVARIANT@@@ATL@@@ATL@@UAGJKPAUtagVARIANT@@PAK@Z 1000b022 f i TWindows.obj
 0001:0000a0ed       ?Skip@?$CComEnumImpl@UIEnumVARIANT@@$1?IID_IEnumVARIANT@@3U_GUID@@BUtagVARIANT@@V?$_Copy@UtagVARIANT@@@ATL@@@ATL@@UAGJK@Z 1000b0ed f i TWindows.obj
 0001:0000a12b       ?Clone@?$CComEnumImpl@UIEnumVARIANT@@$1?IID_IEnumVARIANT@@3U_GUID@@BUtagVARIANT@@V?$_Copy@UtagVARIANT@@@ATL@@@ATL@@UAGJPAPAUIEnumVARIANT@@@Z 1000b12b f i TWindows.obj
 0001:0000a1f7       ?Init@?$CComEnumImpl@UIEnumVARIANT@@$1?IID_IEnumVARIANT@@3U_GUID@@BUtagVARIANT@@V?$_Copy@UtagVARIANT@@@ATL@@@ATL@@QAEJPAUtagVARIANT@@0PAUIUnknown@@W4CComEnumFlags@2@@Z 1000b1f7 f i TWindows.obj
 0001:0000a2f4       ??$?3V?$CComPtr@UITWindow@@@ATL@@@Wrapper@?$CSimpleArray@V?$CComPtr@UITWindow@@@ATL@@V?$CSimpleArrayEqualHelper@V?$CComPtr@UITWindow@@@ATL@@@2@@ATL@@SAXPAXPAV?$CComPtr@UITWindow@@@2@@Z 1000b2f4 f i TWindows.obj
 0001:0000a2f5       ?CreateInstance@?$CComObject@V?$CComEnum@UIEnumVARIANT@@$1?IID_IEnumVARIANT@@3U_GUID@@BUtagVARIANT@@V?$_Copy@UtagVARIANT@@@ATL@@VCComSingleThreadModel@6@@ATL@@@ATL@@SGJPAPAV12@@Z 1000b2f5 f i TWindows.obj
 0001:0000a36a       _BlockInput@4              1000b36a f   user32:USER32.dll
 0001:0000a370       _VarBstrCmp@16             1000b370 f   oleaut32:OLEAUT32.dll
 0001:0000a376       ?RemoveAll@?$CSimpleArray@PAUHINSTANCE__@@V?$CSimpleArrayEqualHelper@PAUHINSTANCE__@@@ATL@@@ATL@@QAEXXZ 1000b376 f i atls:atlbase.obj
 0001:0000a393       ??0_ATL_BASE_MODULE70@ATL@@QAE@XZ 1000b393 f i atls:atlbase.obj
 0001:0000a3ad       ??1CAtlBaseModule@ATL@@QAE@XZ 1000b3ad f   atls:atlbase.obj
 0001:0000a3c3       ??0CAtlBaseModule@ATL@@QAE@XZ 1000b3c3 f   atls:atlbase.obj
 0001:0000a46e       ?Term@CAtlComModule@ATL@@QAEXXZ 1000b46e f i atls:atlcommodule.obj
 0001:0000a4b0       ??0CAtlComModule@ATL@@QAE@XZ 1000b4b0 f i atls:atlcommodule.obj
 0001:0000a4f0       ??2@YAPAXI@Z               1000b4f0 f   MSVCRT:MSVCR71.dll
 0001:0000a4f6       __onexit                   1000b4f6 f   MSVCRT:atonexit.obj
 0001:0000a51c       _atexit                    1000b51c f   MSVCRT:atonexit.obj
 0001:0000a52e       _memcmp                    1000b52e f   MSVCRT:MSVCR71.dll
 0001:0000a534       ??_L@YGXPAXIHP6EX0@Z1@Z    1000b534 f   MSVCRT:ehvecctr.obj
 0001:0000a596       ?__ArrayUnwind@@YGXPAXIHP6EX0@Z@Z 1000b596 f   MSVCRT:ehvecdtr.obj
 0001:0000a5f4       ??_M@YGXPAXIHP6EX0@Z@Z     1000b5f4 f   MSVCRT:ehvecdtr.obj
 0001:0000a654       ??3@YAXPAX@Z               1000b654 f   MSVCRT:MSVCR71.dll
 0001:0000a65a       _free                      1000b65a f   MSVCRT:MSVCR71.dll
 0001:0000a660       ??_Etype_info@@UAEPAXI@Z   1000b660 f i MSVCRT:ti_inst.obj
 0001:0000a6ac       _memset                    1000b6ac f   MSVCRT:MSVCR71.dll
 0001:0000a6b2       ??_U@YAPAXI@Z              1000b6b2 f   MSVCRT:MSVCR71.dll
 0001:0000a6b8       ??_V@YAXPAX@Z              1000b6b8 f   MSVCRT:MSVCR71.dll
 0001:0000a6be       __purecall                 1000b6be f   MSVCRT:MSVCR71.dll
 0001:0000a6c4       _memcpy                    1000b6c4 f   MSVCRT:MSVCR71.dll
 0001:0000a6ca       __CRT_INIT@12              1000b6ca f   MSVCRT:crtdll.obj
 0001:0000a788       __DllMainCRTStartup@12     1000b788 f   MSVCRT:crtdll.obj
 0001:0000a89d       @__security_check_cookie@4 1000b89d f   MSVCRT:secchk.obj
 0001:0000a8ac       __SEH_prolog               1000b8ac f   MSVCRT:sehprolg.obj
 0001:0000a8e7       __SEH_epilog               1000b8e7 f   MSVCRT:sehprolg.obj
 0001:0000a8f8       __except_handler3          1000b8f8 f   MSVCRT:MSVCR71.dll
 0001:0000a8fe       ___dllonexit               1000b8fe f   MSVCRT:MSVCR71.dll
 0001:0000a904       ?terminate@@YAXXZ          1000b904 f   MSVCRT:MSVCR71.dll
 0001:0000a90a       ??1type_info@@UAE@XZ       1000b90a f   MSVCRT:MSVCR71.dll
 0001:0000a910       __initterm                 1000b910 f   MSVCRT:MSVCR71.dll
 0001:0000a916       __RTC_Initialize           1000b916 f   MSVCRT:initsect.obj
 0001:0000a95a       __RTC_Terminate            1000b95a f   MSVCRT:initsect.obj
 0001:0000a99e       ___CppXcptFilter           1000b99e f   MSVCRT:MSVCR71.dll
 0001:0000a9a4       ___security_init_cookie    1000b9a4 f   MSVCRT:seccinit.obj
 0001:0000aa0a       ___security_error_handler  1000ba0a f   MSVCRT:MSVCR71.dll
 0001:0000aa10       ?_com_handle_excepinfo@@YGJAAUtagEXCEPINFO@@PAPAUIErrorInfo@@@Z 1000ba10 f   comsupp:invkerr.obj
 0001:0000ab08       __ftol2                    1000bb08 f   MSVCRT:ftol2.obj
 0001:0000ab80       __chkstk                   1000bb80 f   MSVCRT:chkstk.obj
 0001:0000ab80       __alloca_probe             1000bb80     MSVCRT:chkstk.obj
 0001:0000abbe       ___CxxFrameHandler         1000bbbe f   MSVCRT:MSVCR71.dll
 0001:0000abd0       __EH_prolog                1000bbd0 f   MSVCRT:ehprolog.obj
 0001:0000abf0       __CxxThrowException@8      1000bbf0 f   MSVCRT:MSVCR71.dll
 0002:00000000       __imp__RegCreateKeyExW@36  1000d000     advapi32:ADVAPI32.dll
 0002:00000004       __imp__RegQueryInfoKeyW@48 1000d004     advapi32:ADVAPI32.dll
 0002:00000008       __imp__RegDeleteValueW@8   1000d008     advapi32:ADVAPI32.dll
 0002:0000000c       __imp__RegOpenKeyExW@20    1000d00c     advapi32:ADVAPI32.dll
 0002:00000010       __imp__RegCloseKey@4       1000d010     advapi32:ADVAPI32.dll
 0002:00000014       __imp__RegEnumKeyExW@32    1000d014     advapi32:ADVAPI32.dll
 0002:00000018       __imp__RegDeleteKeyW@8     1000d018     advapi32:ADVAPI32.dll
 0002:0000001c       __imp__RegSetValueExW@24   1000d01c     advapi32:ADVAPI32.dll
 0002:00000020       \177ADVAPI32_NULL_THUNK_DATA 1000d020     advapi32:ADVAPI32.dll
 0002:00000024       __imp__GetModuleFileNameW@12 1000d024     kernel32:KERNEL32.dll
 0002:00000028       __imp__InterlockedExchange@8 1000d028     kernel32:KERNEL32.dll
 0002:0000002c       __imp__GetACP@0            1000d02c     kernel32:KERNEL32.dll
 0002:00000030       __imp__GetLocaleInfoA@16   1000d030     kernel32:KERNEL32.dll
 0002:00000034       __imp__GetThreadLocale@0   1000d034     kernel32:KERNEL32.dll
 0002:00000038       __imp__GetVersionExW@4     1000d038     kernel32:KERNEL32.dll
 0002:0000003c       __imp__lstrlenW@4          1000d03c     kernel32:KERNEL32.dll
 0002:00000040       __imp__lstrcpyW@8          1000d040     kernel32:KERNEL32.dll
 0002:00000044       __imp__RaiseException@16   1000d044     kernel32:KERNEL32.dll
 0002:00000048       __imp__InitializeCriticalSection@4 1000d048     kernel32:KERNEL32.dll
 0002:0000004c       __imp__DeleteCriticalSection@4 1000d04c     kernel32:KERNEL32.dll
 0002:00000050       __imp__EnterCriticalSection@4 1000d050     kernel32:KERNEL32.dll
 0002:00000054       __imp__LeaveCriticalSection@4 1000d054     kernel32:KERNEL32.dll
 0002:00000058       __imp__InterlockedIncrement@4 1000d058     kernel32:KERNEL32.dll
 0002:0000005c       __imp__InterlockedDecrement@4 1000d05c     kernel32:KERNEL32.dll
 0002:00000060       __imp__GetTickCount@0      1000d060     kernel32:KERNEL32.dll
 0002:00000064       __imp__IsBadWritePtr@8     1000d064     kernel32:KERNEL32.dll
 0002:00000068       __imp__SetLastError@4      1000d068     kernel32:KERNEL32.dll
 0002:0000006c       __imp__Sleep@4             1000d06c     kernel32:KERNEL32.dll
 0002:00000070       __imp__FreeLibrary@4       1000d070     kernel32:KERNEL32.dll
 0002:00000074       __imp__MultiByteToWideChar@24 1000d074     kernel32:KERNEL32.dll
 0002:00000078       __imp__SizeofResource@8    1000d078     kernel32:KERNEL32.dll
 0002:0000007c       __imp__LoadResource@8      1000d07c     kernel32:KERNEL32.dll
 0002:00000080       __imp__FindResourceW@12    1000d080     kernel32:KERNEL32.dll
 0002:00000084       __imp__LoadLibraryExW@12   1000d084     kernel32:KERNEL32.dll
 0002:00000088       __imp__lstrcatW@8          1000d088     kernel32:KERNEL32.dll
 0002:0000008c       __imp__CreateProcessW@40   1000d08c     kernel32:KERNEL32.dll
 0002:00000090       __imp__CloseHandle@4       1000d090     kernel32:KERNEL32.dll
 0002:00000094       __imp__GetCurrentThreadId@0 1000d094     kernel32:KERNEL32.dll
 0002:00000098       __imp__ExitProcess@4       1000d098     kernel32:KERNEL32.dll
 0002:0000009c       __imp__GetVersionExA@4     1000d09c     kernel32:KERNEL32.dll
 0002:000000a0       __imp__lstrcpynW@12        1000d0a0     kernel32:KERNEL32.dll
 0002:000000a4       __imp__GetCurrentProcessId@0 1000d0a4     kernel32:KERNEL32.dll
 0002:000000a8       __imp__QueryPerformanceCounter@4 1000d0a8     kernel32:KERNEL32.dll
 0002:000000ac       __imp__GetSystemTimeAsFileTime@4 1000d0ac     kernel32:KERNEL32.dll
 0002:000000b0       __imp__GetModuleHandleW@4  1000d0b0     kernel32:KERNEL32.dll
 0002:000000b4       __imp__GetLastError@0      1000d0b4     kernel32:KERNEL32.dll
 0002:000000b8       __imp__lstrcmpiW@8         1000d0b8     kernel32:KERNEL32.dll
 0002:000000bc       \177KERNEL32_NULL_THUNK_DATA 1000d0bc     kernel32:KERNEL32.dll
 0002:000000c0       __imp___onexit             1000d0c0     MSVCRT:MSVCR71.dll
 0002:000000c4       __imp____dllonexit         1000d0c4     MSVCRT:MSVCR71.dll
 0002:000000c8       __imp___except_handler3    1000d0c8     MSVCRT:MSVCR71.dll
 0002:000000cc       __imp__memmove             1000d0cc     MSVCRT:MSVCR71.dll
 0002:000000d0       __imp___resetstkoflw       1000d0d0     MSVCRT:MSVCR71.dll
 0002:000000d4       __imp__floor               1000d0d4     MSVCRT:MSVCR71.dll
 0002:000000d8       __imp__ceil                1000d0d8     MSVCRT:MSVCR71.dll
 0002:000000dc       __imp__swscanf             1000d0dc     MSVCRT:MSVCR71.dll
 0002:000000e0       __imp__bsearch             1000d0e0     MSVCRT:MSVCR71.dll
 0002:000000e4       __imp___wcsupr             1000d0e4     MSVCRT:MSVCR71.dll
 0002:000000e8       __imp__wcsncpy             1000d0e8     MSVCRT:MSVCR71.dll
 0002:000000ec       __imp__wcscmp              1000d0ec     MSVCRT:MSVCR71.dll
 0002:000000f0       __imp__memcpy              1000d0f0     MSVCRT:MSVCR71.dll
 0002:000000f4       __imp___wcsdup             1000d0f4     MSVCRT:MSVCR71.dll
 0002:000000f8       __imp___purecall           1000d0f8     MSVCRT:MSVCR71.dll
 0002:000000fc       __imp_??_V@YAXPAX@Z        1000d0fc     MSVCRT:MSVCR71.dll
 0002:00000100       __imp_??_U@YAPAXI@Z        1000d100     MSVCRT:MSVCR71.dll
 0002:00000104       __imp__memset              1000d104     MSVCRT:MSVCR71.dll
 0002:00000108       __imp__free                1000d108     MSVCRT:MSVCR71.dll
 0002:0000010c       __imp_??3@YAXPAX@Z         1000d10c     MSVCRT:MSVCR71.dll
 0002:00000110       __imp__memcmp              1000d110     MSVCRT:MSVCR71.dll
 0002:00000114       __imp__realloc             1000d114     MSVCRT:MSVCR71.dll
 0002:00000118       __imp_??2@YAPAXI@Z         1000d118     MSVCRT:MSVCR71.dll
 0002:0000011c       __imp___wcsicmp            1000d11c     MSVCRT:MSVCR71.dll
 0002:00000120       __imp__malloc              1000d120     MSVCRT:MSVCR71.dll
 0002:00000124       __imp_?terminate@@YAXXZ    1000d124     MSVCRT:MSVCR71.dll
 0002:00000128       __imp_??1type_info@@UAE@XZ 1000d128     MSVCRT:MSVCR71.dll
 0002:0000012c       __imp___initterm           1000d12c     MSVCRT:MSVCR71.dll
 0002:00000130       __imp___CxxThrowException@8 1000d130     MSVCRT:MSVCR71.dll
 0002:00000134       __imp____CppXcptFilter     1000d134     MSVCRT:MSVCR71.dll
 0002:00000138       __imp____security_error_handler 1000d138     MSVCRT:MSVCR71.dll
 0002:0000013c       __imp___adjust_fdiv        1000d13c     MSVCRT:MSVCR71.dll
 0002:00000140       __imp____CxxFrameHandler   1000d140     MSVCRT:MSVCR71.dll
 0002:00000144       __imp__wcschr              1000d144     MSVCRT:MSVCR71.dll
 0002:00000148       \177MSVCR71_NULL_THUNK_DATA 1000d148     MSVCRT:MSVCR71.dll
 0002:0000014c       __imp__LoadTypeLib@8       1000d14c     oleaut32:OLEAUT32.dll
 0002:00000150       __imp__VariantCopy@8       1000d150     oleaut32:OLEAUT32.dll
 0002:00000154       __imp__SysAllocStringByteLen@8 1000d154     oleaut32:OLEAUT32.dll
 0002:00000158       __imp__SysStringByteLen@4  1000d158     oleaut32:OLEAUT32.dll
 0002:0000015c       __imp__VarBstrCmp@16       1000d15c     oleaut32:OLEAUT32.dll
 0002:00000160       __imp__CreateErrorInfo@4   1000d160     oleaut32:OLEAUT32.dll
 0002:00000164       __imp__SetErrorInfo@8      1000d164     oleaut32:OLEAUT32.dll
 0002:00000168       __imp__SysAllocString@4    1000d168     oleaut32:OLEAUT32.dll
 0002:0000016c       __imp__UnRegisterTypeLib@20 1000d16c     oleaut32:OLEAUT32.dll
 0002:00000170       __imp__VarUI4FromStr@16    1000d170     oleaut32:OLEAUT32.dll
 0002:00000174       __imp__VariantInit@4       1000d174     oleaut32:OLEAUT32.dll
 0002:00000178       __imp__VariantClear@4      1000d178     oleaut32:OLEAUT32.dll
 0002:0000017c       __imp__VariantChangeType@16 1000d17c     oleaut32:OLEAUT32.dll
 0002:00000180       __imp__SysStringLen@4      1000d180     oleaut32:OLEAUT32.dll
 0002:00000184       __imp__SysFreeString@4     1000d184     oleaut32:OLEAUT32.dll
 0002:00000188       __imp__LoadRegTypeLib@20   1000d188     oleaut32:OLEAUT32.dll
 0002:0000018c       __imp__RegisterTypeLib@12  1000d18c     oleaut32:OLEAUT32.dll
 0002:00000190       \177OLEAUT32_NULL_THUNK_DATA 1000d190     oleaut32:OLEAUT32.dll
 0002:00000194       __imp__SHGetFileInfoW@20   1000d194     shell32:SHELL32.dll
 0002:00000198       \177SHELL32_NULL_THUNK_DATA 1000d198     shell32:SHELL32.dll
 0002:0000019c       __imp__PathFindExtensionW@4 1000d19c     shlwapi:SHLWAPI.dll
 0002:000001a0       \177SHLWAPI_NULL_THUNK_DATA 1000d1a0     shlwapi:SHLWAPI.dll
 0002:000001a4       __imp__RemoveNotifyTitle@4 1000d1a4     TNotifyHlp:TNotifyHlp.dll
 0002:000001a8       __imp__AddNotifyTitle@12   1000d1a8     TNotifyHlp:TNotifyHlp.dll
 0002:000001ac       __imp__CheckNotifyDestroyTitle@4 1000d1ac     TNotifyHlp:TNotifyHlp.dll
 0002:000001b0       __imp__CheckNotifyCreateTitle@4 1000d1b0     TNotifyHlp:TNotifyHlp.dll
 0002:000001b4       \177TNotifyHlp_NULL_THUNK_DATA 1000d1b4     TNotifyHlp:TNotifyHlp.dll
 0002:000001b8       __imp__IsWindow@4          1000d1b8     user32:USER32.dll
 0002:000001bc       __imp__CharNextW@4         1000d1bc     user32:USER32.dll
 0002:000001c0       __imp__FindWindowExW@16    1000d1c0     user32:USER32.dll
 0002:000001c4       __imp__AllowSetForegroundWindow@4 1000d1c4     user32:USER32.dll
 0002:000001c8       __imp__MoveWindow@24       1000d1c8     user32:USER32.dll
 0002:000001cc       __imp__IsWindowVisible@4   1000d1cc     user32:USER32.dll
 0002:000001d0       __imp__GetWindowRect@8     1000d1d0     user32:USER32.dll
 0002:000001d4       __imp__GetClassNameW@12    1000d1d4     user32:USER32.dll
 0002:000001d8       __imp__SetFocus@4          1000d1d8     user32:USER32.dll
 0002:000001dc       __imp__SetForegroundWindow@4 1000d1dc     user32:USER32.dll
 0002:000001e0       __imp__AttachThreadInput@12 1000d1e0     user32:USER32.dll
 0002:000001e4       __imp__GetWindowThreadProcessId@8 1000d1e4     user32:USER32.dll
 0002:000001e8       __imp__EnumChildWindows@12 1000d1e8     user32:USER32.dll
 0002:000001ec       __imp__GetParent@4         1000d1ec     user32:USER32.dll
 0002:000001f0       __imp__GetWindowLongW@8    1000d1f0     user32:USER32.dll
 0002:000001f4       __imp__GetWindowTextW@12   1000d1f4     user32:USER32.dll
 0002:000001f8       __imp__FindWindowW@8       1000d1f8     user32:USER32.dll
 0002:000001fc       __imp__EnumWindows@8       1000d1fc     user32:USER32.dll
 0002:00000200       __imp__IsWindowEnabled@4   1000d200     user32:USER32.dll
 0002:00000204       __imp__KillTimer@8         1000d204     user32:USER32.dll
 0002:00000208       __imp__SetTimer@16         1000d208     user32:USER32.dll
 0002:0000020c       __imp__LoadStringW@16      1000d20c     user32:USER32.dll
 0002:00000210       __imp__GetForegroundWindow@0 1000d210     user32:USER32.dll
 0002:00000214       __imp__MessageBoxW@16      1000d214     user32:USER32.dll
 0002:00000218       __imp__SendInput@12        1000d218     user32:USER32.dll
 0002:0000021c       __imp__BlockInput@4        1000d21c     user32:USER32.dll
 0002:00000220       __imp__SystemParametersInfoW@16 1000d220     user32:USER32.dll
 0002:00000224       __imp__GetSystemMetrics@4  1000d224     user32:USER32.dll
 0002:00000228       __imp__VkKeyScanExW@8      1000d228     user32:USER32.dll
 0002:0000022c       __imp__MapVirtualKeyW@8    1000d22c     user32:USER32.dll
 0002:00000230       __imp__LoadKeyboardLayoutW@8 1000d230     user32:USER32.dll
 0002:00000234       __imp__GetKeyboardLayoutNameW@4 1000d234     user32:USER32.dll
 0002:00000238       \177USER32_NULL_THUNK_DATA 1000d238     user32:USER32.dll
 0002:0000023c       __imp__StringFromGUID2@12  1000d23c     ole32:ole32.dll
 0002:00000240       __imp__CoTaskMemRealloc@8  1000d240     ole32:ole32.dll
 0002:00000244       __imp__CoCreateInstance@20 1000d244     ole32:ole32.dll
 0002:00000248       __imp__CoTaskMemFree@4     1000d248     ole32:ole32.dll
 0002:0000024c       __imp__ProgIDFromCLSID@8   1000d24c     ole32:ole32.dll
 0002:00000250       __imp__StringFromCLSID@8   1000d250     ole32:ole32.dll
 0002:00000254       __imp__CoTaskMemAlloc@4    1000d254     ole32:ole32.dll
 0002:00000258       \177ole32_NULL_THUNK_DATA  1000d258     ole32:ole32.dll
 0002:0000027c       _CLSID_StdComponentCategoriesMgr 1000d27c     uuid:ieguids.obj
 0002:0000028c       _GUID_NULL                 1000d28c     uuid:cguid_i.obj
 0002:0000029c       _IID_IPropertyNotifySink   1000d29c     uuid:ocidl_i.obj
 0002:000002ac       _IID_IEnumVARIANT          1000d2ac     uuid:oaidl_i.obj
 0002:000002bc       _GUID_ATLVer30             1000d2bc     atls:atlbase.obj
 0002:000002cc       _GUID_ATLVer70             1000d2cc     atls:atlbase.obj
 0002:00000310       ??_7type_info@@6B@         1000d310     MSVCRT:ti_inst.obj
 0002:00000354       __GUID_00020401_0000_0000_c000_000000000046 1000d354     Helpers.obj
 0002:00000364       __GUID_00020412_0000_0000_c000_000000000046 1000d364     Helpers.obj
 0002:00000374       __GUID_e21f8a85_b05d_4243_8183_c7cb405588f7 1000d374     Helpers.obj
 0002:00000384       __GUID_00000000_0000_0000_c000_000000000046 1000d384     Helpers.obj
 0002:00000394       ??_7CRegistryVirtualMachine@ATL@@6B@ 1000d394     Helpers.obj
 0002:000003ac       ??_7CComClassFactory@ATL@@6B@ 1000d3ac     Helpers.obj
 0002:000003c4       ?_entries@?1??_GetEntries@CComClassFactory@ATL@@SGPBU_ATL_INTMAP_ENTRY@3@XZ@4QBU43@B 1000d3c4     Helpers.obj
 0002:000003dc       __GUID_00000001_0000_0000_c000_000000000046 1000d3dc     Helpers.obj
 0002:000003ec       ??_C@_1BM@KADAJJA@?$AAL?$AAo?$AAc?$AAa?$AAl?$AAS?$AAe?$AAr?$AAv?$AAe?$AAr?$AA3?$AA2?$AA?$AA@ 1000d3ec     Helpers.obj
 0002:00000408       ??_C@_1BG@LMEOBGCA@?$AAM?$AAO?$AAD?$AAU?$AAL?$AAE?$AAT?$AAY?$AAP?$AAE?$AA?$AA@ 1000d408     Helpers.obj
 0002:00000420       ??_C@_1BO@MNKPAJEP@?$AAI?$AAn?$AAp?$AAr?$AAo?$AAc?$AAS?$AAe?$AAr?$AAv?$AAe?$AAr?$AA3?$AA2?$AA?$AA@ 1000d420     Helpers.obj
 0002:00000440       ??_C@_1BG@LLBNANLC@?$AAM?$AAO?$AAD?$AAU?$AAL?$AAE?$AAG?$AAU?$AAI?$AAD?$AA?$AA@ 1000d440     Helpers.obj
 0002:00000458       ?masks@?3??__VariantChangeType@@YGJAAPAUtagVARIANT@@PAU2@G@Z@4QB_KB 1000d458     Helpers.obj
 0002:00000478       ?truncateTo@?3??__VariantChangeType@@YGJAAPAUtagVARIANT@@PAU2@G@Z@4QBDB 1000d478     Helpers.obj
 0002:000004a0       ?okToConvert@?3??__VariantChangeType@@YGJAAPAUtagVARIANT@@PAU2@G@Z@4QBDB 1000d4a0     Helpers.obj
 0002:000004c8       ??_C@_1BG@JBACFMF@?$AAM?$AAo?$AAd?$AAu?$AAl?$AAe?$AA_?$AAR?$AAa?$AAw?$AA?$AA@ 1000d4c8     Helpers.obj
 0002:000004e0       ??_C@_1O@MNLDABAF@?$AAM?$AAo?$AAd?$AAu?$AAl?$AAe?$AA?$AA@ 1000d4e0     Helpers.obj
 0002:000004f0       ??_7?$CComAggObject@VTWindows@@@ATL@@6B@ 1000d4f0     Helpers.obj
 0002:00000500       ??_7?$CComObject@VTWindows@@@ATL@@6B?$IProvideClassInfoImpl@$1?_GUID_8a4af30a_d1de_4123_9a91_e52861e7fea7@@3U__s_GUID@@B$1?m_libid@CAtlModule@ATL@@2U_GUID@@A$00$0A@VCComTypeInfoHolder@ATL@@@1@@ 1000d500     Helpers.obj
 0002:00000510       ??_7?$CComObject@VTWindows@@@ATL@@6B?$ISupportErrorInfoImpl@$1?_GUID_8a4af30a_d1de_4123_9a91_e52861e7fea7@@3U__s_GUID@@B@1@@ 1000d510     Helpers.obj
 0002:00000520       ??_7?$CComObject@VTWindows@@@ATL@@6BITWindows@@@ 1000d520     Helpers.obj
 0002:00000554       ??_7?$CComContainedObject@VTWindow@@@ATL@@6B?$IProvideClassInfoImpl@$1?_GUID_767d32eb_7b39_44df_94ef_e7608afb0f01@@3U__s_GUID@@B$1?m_libid@CAtlModule@ATL@@2U_GUID@@A$00$0A@VCComTypeInfoHolder@ATL@@@1@@ 1000d554     Helpers.obj
 0002:00000564       ??_7?$CComContainedObject@VTWindow@@@ATL@@6B?$ISupportErrorInfoImpl@$1?_GUID_767d32eb_7b39_44df_94ef_e7608afb0f01@@3U__s_GUID@@B@1@@ 1000d564     Helpers.obj
 0002:00000578       ??_7?$CComContainedObject@VTWindow@@@ATL@@6B?$IDispatchImpl@UITWindow@@$1?_GUID_63690418_8142_4e20_85e6_2cb50508ca74@@3U__s_GUID@@B$1?m_libid@CAtlModule@ATL@@2U_GUID@@A$00$0A@VCComTypeInfoHolder@ATL@@@1@@ 1000d578     Helpers.obj
 0002:00000608       ??_7?$CComContainedObject@VTWindows@@@ATL@@6B?$IProvideClassInfoImpl@$1?_GUID_8a4af30a_d1de_4123_9a91_e52861e7fea7@@3U__s_GUID@@B$1?m_libid@CAtlModule@ATL@@2U_GUID@@A$00$0A@VCComTypeInfoHolder@ATL@@@1@@ 1000d608     Helpers.obj
 0002:00000618       ??_7?$CComContainedObject@VTWindows@@@ATL@@6B?$ISupportErrorInfoImpl@$1?_GUID_8a4af30a_d1de_4123_9a91_e52861e7fea7@@3U__s_GUID@@B@1@@ 1000d618     Helpers.obj
 0002:00000628       ??_7?$CComContainedObject@VTWindows@@@ATL@@6BITWindows@@@ 1000d628     Helpers.obj
 0002:00000658       ??_7?$CComObjectCached@VCComClassFactory@ATL@@@ATL@@6B@ 1000d658     Helpers.obj
 0002:00000670       ??_7?$CComAggObject@VTWindow@@@ATL@@6B@ 1000d670     Helpers.obj
 0002:00000680       ??_7?$CComObject@VTWindow@@@ATL@@6B?$IProvideClassInfoImpl@$1?_GUID_767d32eb_7b39_44df_94ef_e7608afb0f01@@3U__s_GUID@@B$1?m_libid@CAtlModule@ATL@@2U_GUID@@A$00$0A@VCComTypeInfoHolder@ATL@@@1@@ 1000d680     Helpers.obj
 0002:00000690       ??_7?$CComObject@VTWindow@@@ATL@@6B?$ISupportErrorInfoImpl@$1?_GUID_767d32eb_7b39_44df_94ef_e7608afb0f01@@3U__s_GUID@@B@1@@ 1000d690     Helpers.obj
 0002:000006a0       ??_7?$CComObject@VTWindow@@@ATL@@6B?$IDispatchImpl@UITWindow@@$1?_GUID_63690418_8142_4e20_85e6_2cb50508ca74@@3U__s_GUID@@B$1?m_libid@CAtlModule@ATL@@2U_GUID@@A$00$0A@VCComTypeInfoHolder@ATL@@@1@@ 1000d6a0     Helpers.obj
 0002:00000734       ?_entries@?1??_GetEntries@TWindows@@SGPBU_ATL_INTMAP_ENTRY@ATL@@XZ@4QBU34@B 1000d734     Helpers.obj
 0002:00000770       __GUID_6920b655_667e_4b29_a769_a626dd740f42 1000d770     Helpers.obj
 0002:00000780       ??_C@_1CA@IGMJONCN@?$AAT?$AAW?$AAi?$AAn?$AAd?$AAo?$AAw?$AAs?$AA?5?$AAO?$AAb?$AAj?$AAe?$AAc?$AAt?$AA?$AA@ 1000d780     Helpers.obj
 0002:000007a0       ??_C@_1CA@EDMOFKGL@?$AAT?$AAe?$AAs?$AAt?$AAe?$AAr?$AA?4?$AAT?$AAW?$AAi?$AAn?$AAd?$AAo?$AAw?$AAs?$AA?$AA@ 1000d7a0     Helpers.obj
 0002:000007c0       ??_C@_1EO@KLNNJHKA@?$AA?$HL?$AA8?$AAA?$AA4?$AAA?$AAF?$AA3?$AA0?$AAA?$AA?9?$AAD?$AA1?$AAD?$AAE?$AA?9?$AA4?$AA1?$AA2?$AA3?$AA?9@ 1000d7c0     Helpers.obj
 0002:00000810       ??_C@_1CE@ECJBMKAM@?$AAT?$AAe?$AAs?$AAt?$AAe?$AAr?$AA?4?$AAT?$AAW?$AAi?$AAn?$AAd?$AAo?$AAw?$AAs?$AA?4?$AA1?$AA?$AA@ 1000d810     Helpers.obj
 0002:00000834       ??_C@_1O@KEIBEGCK@?$AAR?$AAe?$AAm?$AAo?$AAv?$AAe?$AA?$AA@ 1000d834     Helpers.obj
 0002:00000844       ??_C@_17FIMLMPPN@?$AAA?$AAd?$AAd?$AA?$AA@ 1000d844     Helpers.obj
 0002:0000084c       ??_C@_1BK@PGIAMNCG@?$AAg?$AAe?$AAt?$AA_?$AA_?$AAN?$AAe?$AAw?$AAE?$AAn?$AAu?$AAm?$AA?$AA@ 1000d84c     Helpers.obj
 0002:00000868       ??_C@_1BC@IDLEPMAN@?$AA_?$AAN?$AAe?$AAw?$AAE?$AAn?$AAu?$AAm?$AA?$AA@ 1000d868     Helpers.obj
 0002:0000087c       ??_C@_1BC@LLPFFJAD@?$AAg?$AAe?$AAt?$AA_?$AAI?$AAt?$AAe?$AAm?$AA?$AA@ 1000d87c     Helpers.obj
 0002:00000890       ??_C@_19MHLFJFLO@?$AAI?$AAt?$AAe?$AAm?$AA?$AA@ 1000d890     Helpers.obj
 0002:0000089c       ??_C@_1BE@BCJBOHFG@?$AAg?$AAe?$AAt?$AA_?$AAC?$AAo?$AAu?$AAn?$AAt?$AA?$AA@ 1000d89c     Helpers.obj
 0002:000008b0       ??_C@_1M@NBCIMFHI@?$AAC?$AAo?$AAu?$AAn?$AAt?$AA?$AA@ 1000d8b0     Helpers.obj
 0002:000008bc       __GUID_8a4af30a_d1de_4123_9a91_e52861e7fea7 1000d8bc     Helpers.obj
 0002:000008cc       ?_entries@?1??_GetEntries@TWindow@@SGPBU_ATL_INTMAP_ENTRY@ATL@@XZ@4QBU34@B 1000d8cc     Helpers.obj
 0002:00000908       __GUID_b196b283_bab4_101a_b69c_00aa00341d07 1000d908     Helpers.obj
 0002:00000918       __GUID_df0b3d60_548f_101b_8e65_08002b2bd119 1000d918     Helpers.obj
 0002:00000928       __GUID_00020400_0000_0000_c000_000000000046 1000d928     Helpers.obj
 0002:00000938       __GUID_63690418_8142_4e20_85e6_2cb50508ca74 1000d938     Helpers.obj
 0002:00000948       ??_C@_1BO@MCFIFCNK@?$AAT?$AAW?$AAi?$AAn?$AAd?$AAo?$AAw?$AA?5?$AAO?$AAb?$AAj?$AAe?$AAc?$AAt?$AA?$AA@ 1000d948     Helpers.obj
 0002:00000968       ??_C@_1BK@BFIEKNFP@?$AAF?$AAr?$AAi?$AAe?$AAn?$AAd?$AAl?$AAy?$AAN?$AAa?$AAm?$AAe?$AA?$AA@ 1000d968     Helpers.obj
 0002:00000984       ??_C@_1BK@HBNPKAHM@?$AA?$CF?$AAM?$AAO?$AAD?$AAU?$AAL?$AAE?$AAG?$AAU?$AAI?$AAD?$AA?$CF?$AA?$AA@ 1000d984     Helpers.obj
 0002:000009a0       ??_C@_1BA@JIHHIEDE@?$AAT?$AAy?$AAp?$AAe?$AAL?$AAi?$AAb?$AA?$AA@ 1000d9a0     Helpers.obj
 0002:000009b0       ??_C@_1BA@BCAMBGLC@?$AA?$CF?$AAA?$AAP?$AAP?$AAI?$AAD?$AA?$CF?$AA?$AA@ 1000d9b0     Helpers.obj
 0002:000009c0       ??_C@_1M@EJNEECMJ@?$AAA?$AAp?$AAp?$AAI?$AAD?$AA?$AA@ 1000d9c0     Helpers.obj
 0002:000009cc       ??_C@_1BE@KCPEJCOK@?$AAa?$AAp?$AAa?$AAr?$AAt?$AAm?$AAe?$AAn?$AAt?$AA?$AA@ 1000d9cc     Helpers.obj
 0002:000009e0       ??_C@_1BO@NMEHGCBD@?$AAT?$AAh?$AAr?$AAe?$AAa?$AAd?$AAi?$AAn?$AAg?$AAM?$AAo?$AAd?$AAe?$AAl?$AA?$AA@ 1000d9e0     Helpers.obj
 0002:00000a00       ??_C@_1BC@MLFCMMDD@?$AA?$CF?$AAM?$AAO?$AAD?$AAU?$AAL?$AAE?$AA?$CF?$AA?$AA@ 1000da00     Helpers.obj
 0002:00000a14       ??_C@_1BK@LIMNIGFL@?$AA?$CF?$AAM?$AAO?$AAD?$AAU?$AAL?$AAE?$AAT?$AAY?$AAP?$AAE?$AA?$CF?$AA?$AA@ 1000da14     Helpers.obj
 0002:00000a30       ??_C@_1BK@BJKAEEHA@?$AAP?$AAr?$AAo?$AAg?$AAr?$AAa?$AAm?$AAm?$AAa?$AAb?$AAl?$AAe?$AA?$AA@ 1000da30     Helpers.obj
 0002:00000a4c       ??_C@_1DC@MIAMMDBM@?$AAV?$AAe?$AAr?$AAs?$AAi?$AAo?$AAn?$AAI?$AAn?$AAd?$AAe?$AAp?$AAe?$AAn?$AAd?$AAe?$AAn?$AAt?$AAP?$AAr@ 1000da4c     Helpers.obj
 0002:00000a80       ??_C@_1O@HNNDAFP@?$AAP?$AAr?$AAo?$AAg?$AAI?$AAD?$AA?$AA@ 1000da80     Helpers.obj
 0002:00000a90       ??_C@_1O@FHIPPLOM@?$AAC?$AAu?$AAr?$AAV?$AAe?$AAr?$AA?$AA@ 1000da90     Helpers.obj
 0002:00000aa0       ??_C@_1BO@NADFCDNB@?$AAT?$AAe?$AAs?$AAt?$AAe?$AAr?$AA?4?$AAT?$AAW?$AAi?$AAn?$AAd?$AAo?$AAw?$AA?$AA@ 1000daa0     Helpers.obj
 0002:00000ac0       ??_C@_1EO@MHFNNKME@?$AA?$HL?$AA7?$AA6?$AA7?$AAD?$AA3?$AA2?$AAE?$AAB?$AA?9?$AA7?$AAB?$AA3?$AA9?$AA?9?$AA4?$AA4?$AAD?$AAF?$AA?9@ 1000dac0     Helpers.obj
 0002:00000b10       ??_C@_1M@KANJNLFF@?$AAC?$AAL?$AAS?$AAI?$AAD?$AA?$AA@ 1000db10     Helpers.obj
 0002:00000b1c       ??_C@_1BO@KOOHIKDG@?$AA?$CF?$AAF?$AAr?$AAi?$AAe?$AAn?$AAd?$AAl?$AAy?$AAN?$AAa?$AAm?$AAe?$AA?$CF?$AA?$AA@ 1000db1c     Helpers.obj
 0002:00000b3c       ??_C@_1CC@PFDAMNKF@?$AAT?$AAe?$AAs?$AAt?$AAe?$AAr?$AA?4?$AAT?$AAW?$AAi?$AAn?$AAd?$AAo?$AAw?$AA?4?$AA1?$AA?$AA@ 1000db3c     Helpers.obj
 0002:00000b60       ??_C@_11LOCGONAA@?$AA?$AA@ 1000db60     Helpers.obj
 0002:00000b64       __GUID_767d32eb_7b39_44df_94ef_e7608afb0f01 1000db64     Helpers.obj
 0002:00000b74       ??_C@_1BA@LMFALMNC@?$AA?$CF?$AAd?$AA?5?$AA?0?$AA?5?$AA?$CF?$AAd?$AA?$AA@ 1000db74     ParsePlayInputString.obj
 0002:00000b84       ??_C@_1BK@FODHFMIE@?$AA?$CF?$AAs?$AA?5?$AA?0?$AA?5?$AA?$CF?$AAd?$AA?5?$AA?0?$AA?5?$AA?$CF?$AAd?$AA?$AA@ 1000db84     ParsePlayInputString.obj
 0002:00000ba0       ??_C@_15PEMCOEOM@?$AAX?$AA2?$AA?$AA@ 1000dba0     ParsePlayInputString.obj
 0002:00000ba8       ??_C@_15OGHHELAC@?$AAX?$AA1?$AA?$AA@ 1000dba8     ParsePlayInputString.obj
 0002:00000bb0       ??_C@_1O@JLBLIFCG@?$AAM?$AAI?$AAD?$AAD?$AAL?$AAE?$AA?$AA@ 1000dbb0     ParsePlayInputString.obj
 0002:00000bc0       ??_C@_1O@BLOPBBBP@?$AAM?$AAO?$AAV?$AAE?$AAT?$AAO?$AA?$AA@ 1000dbc0     ParsePlayInputString.obj
 0002:00000bd0       ??_C@_1BC@NLCDNOIH@?$AAD?$AAB?$AAL?$AAC?$AAL?$AAI?$AAC?$AAK?$AA?$AA@ 1000dbd0     ParsePlayInputString.obj
 0002:00000be4       ??_C@_1M@LEFKMFIG@?$AAC?$AAL?$AAI?$AAC?$AAK?$AA?$AA@ 1000dbe4     ParsePlayInputString.obj
 0002:00000bf0       ??_C@_1M@EDNEHAPE@?$AAB?$AAT?$AAN?$AAU?$AAP?$AA?$AA@ 1000dbf0     ParsePlayInputString.obj
 0002:00000bfc       ??_C@_1BA@FAMDCHIB@?$AAB?$AAT?$AAN?$AAD?$AAO?$AAW?$AAN?$AA?$AA@ 1000dbfc     ParsePlayInputString.obj
 0002:00000c0c       ??_C@_1BC@FFFHGADO@?$AAS?$AAH?$AAI?$AAF?$AAT?$AA?5?$AAU?$AAP?$AA?$AA@ 1000dc0c     ParsePlayInputString.obj
 0002:00000c20       ??_C@_1BG@LBGPPEEK@?$AAS?$AAH?$AAI?$AAF?$AAT?$AA?5?$AAD?$AAO?$AAW?$AAN?$AA?$AA@ 1000dc20     ParsePlayInputString.obj
 0002:00000c38       ??_C@_1BA@BAKLGFCJ@?$AAC?$AAT?$AAR?$AAL?$AA?5?$AAU?$AAP?$AA?$AA@ 1000dc38     ParsePlayInputString.obj
 0002:00000c48       ??_C@_1BE@MENFECCJ@?$AAC?$AAT?$AAR?$AAL?$AA?5?$AAD?$AAO?$AAW?$AAN?$AA?$AA@ 1000dc48     ParsePlayInputString.obj
 0002:00000c5c       ??_C@_1O@BJFMLIEM@?$AAA?$AAL?$AAT?$AA?5?$AAU?$AAP?$AA?$AA@ 1000dc5c     ParsePlayInputString.obj
 0002:00000c6c       ??_C@_1BC@GPFNCMKF@?$AAA?$AAL?$AAT?$AA?5?$AAD?$AAO?$AAW?$AAN?$AA?$AA@ 1000dc6c     ParsePlayInputString.obj
 0002:00000c80       ??_C@_13FFFLPHEM@?$AA?$HO?$AA?$AA@ 1000dc80     ParsePlayInputString.obj
 0002:00000c84       ??_C@_13EHOOFIKC@?$AA?$HN?$AA?$AA@ 1000dc84     ParsePlayInputString.obj
 0002:00000c88       ??_C@_13GCIFAHHO@?$AA?$HL?$AA?$AA@ 1000dc88     ParsePlayInputString.obj
 0002:00000c8c       ??_C@_13PFGJFIHC@?$AA?$FO?$AA?$AA@ 1000dc8c     ParsePlayInputString.obj
 0002:00000c90       ??_C@_13OHNMPHJM@?$AA?$FN?$AA?$AA@ 1000dc90     ParsePlayInputString.obj
 0002:00000c94       ??_C@_13MCLHKIEA@?$AA?$FL?$AA?$AA@ 1000dc94     ParsePlayInputString.obj
 0002:00000c98       ??_C@_15NJHDMILK@?$AAU?$AAP?$AA?$AA@ 1000dc98     ParsePlayInputString.obj
 0002:00000ca0       ??_C@_17LOKIJENF@?$AAT?$AAA?$AAB?$AA?$AA@ 1000dca0     ParsePlayInputString.obj
 0002:00000ca8       ??_C@_1BG@EJOPLNAC@?$AAS?$AAC?$AAR?$AAO?$AAL?$AAL?$AAL?$AAO?$AAC?$AAK?$AA?$AA@ 1000dca8     ParsePlayInputString.obj
 0002:00000cc0       ??_C@_19KNOLEPIJ@?$AAR?$AAW?$AAI?$AAN?$AA?$AA@ 1000dcc0     ParsePlayInputString.obj
 0002:00000ccc       ??_C@_1M@LCPJAKGJ@?$AAR?$AAI?$AAG?$AAH?$AAT?$AA?$AA@ 1000dccc     ParsePlayInputString.obj
 0002:00000cd8       ??_C@_1M@NHGHEFFP@?$AAP?$AAR?$AAT?$AAS?$AAC?$AA?$AA@ 1000dcd8     ParsePlayInputString.obj
 0002:00000ce4       ??_C@_19BBHHEMND@?$AAP?$AAG?$AAU?$AAP?$AA?$AA@ 1000dce4     ParsePlayInputString.obj
 0002:00000cf0       ??_C@_19GJDLLNEB@?$AAP?$AAG?$AAD?$AAN?$AA?$AA@ 1000dcf0     ParsePlayInputString.obj
 0002:00000cfc       ??_C@_1BA@FFBFBMHP@?$AAN?$AAU?$AAM?$AAP?$AAA?$AAD?$AA9?$AA?$AA@ 1000dcfc     ParsePlayInputString.obj
 0002:00000d0c       ??_C@_1BA@ONKJHLBK@?$AAN?$AAU?$AAM?$AAP?$AAA?$AAD?$AA8?$AA?$AA@ 1000dd0c     ParsePlayInputString.obj
 0002:00000d1c       ??_C@_1BA@LFMKGLEM@?$AAN?$AAU?$AAM?$AAP?$AAA?$AAD?$AA7?$AA?$AA@ 1000dd1c     ParsePlayInputString.obj
 0002:00000d2c       ??_C@_1BA@NHGAMCJ@?$AAN?$AAU?$AAM?$AAP?$AAA?$AAD?$AA6?$AA?$AA@ 1000dd2c     ParsePlayInputString.obj
 0002:00000d3c       ??_C@_1BA@BPMDKDMH@?$AAN?$AAU?$AAM?$AAP?$AAA?$AAD?$AA5?$AA?$AA@ 1000dd3c     ParsePlayInputString.obj
 0002:00000d4c       ??_C@_1BA@KHHPMEKC@?$AAN?$AAU?$AAM?$AAP?$AAA?$AAD?$AA4?$AA?$AA@ 1000dd4c     ParsePlayInputString.obj
 0002:00000d5c       ??_C@_1BA@DKKIPMBL@?$AAN?$AAU?$AAM?$AAP?$AAA?$AAD?$AA3?$AA?$AA@ 1000dd5c     ParsePlayInputString.obj
 0002:00000d6c       ??_C@_1BA@ICBEJLHO@?$AAN?$AAU?$AAM?$AAP?$AAA?$AAD?$AA2?$AA?$AA@ 1000dd6c     ParsePlayInputString.obj
 0002:00000d7c       ??_C@_1BA@JAKBDEJA@?$AAN?$AAU?$AAM?$AAP?$AAA?$AAD?$AA1?$AA?$AA@ 1000dd7c     ParsePlayInputString.obj
 0002:00000d8c       ??_C@_1BA@CIBNFDPF@?$AAN?$AAU?$AAM?$AAP?$AAA?$AAD?$AA0?$AA?$AA@ 1000dd8c     ParsePlayInputString.obj
 0002:00000d9c       ??_C@_1BA@CAGHBEDM@?$AAN?$AAU?$AAM?$AAP?$AAA?$AAD?$AA?1?$AA?$AA@ 1000dd9c     ParsePlayInputString.obj
 0002:00000dac       ??_C@_1BA@JINLHDFJ@?$AAN?$AAU?$AAM?$AAP?$AAA?$AAD?$AA?4?$AA?$AA@ 1000ddac     ParsePlayInputString.obj
 0002:00000dbc       ??_C@_1BA@IKGONMLH@?$AAN?$AAU?$AAM?$AAP?$AAA?$AAD?$AA?9?$AA?$AA@ 1000ddbc     ParsePlayInputString.obj
 0002:00000dcc       ??_C@_1BA@KPAFIDGL@?$AAN?$AAU?$AAM?$AAP?$AAA?$AAD?$AA?$CL?$AA?$AA@ 1000ddcc     ParsePlayInputString.obj
 0002:00000ddc       ??_C@_1BA@BHLJOEAO@?$AAN?$AAU?$AAM?$AAP?$AAA?$AAD?$AA?$CK?$AA?$AA@ 1000dddc     ParsePlayInputString.obj
 0002:00000dec       ??_C@_1BA@KBDODHIE@?$AAN?$AAU?$AAM?$AAL?$AAO?$AAC?$AAK?$AA?$AA@ 1000ddec     ParsePlayInputString.obj
 0002:00000dfc       ??_C@_19JEIMPONC@?$AAL?$AAW?$AAI?$AAN?$AA?$AA@ 1000ddfc     ParsePlayInputString.obj
 0002:00000e08       ??_C@_19GEOAMNKK@?$AAL?$AAE?$AAF?$AAT?$AA?$AA@ 1000de08     ParsePlayInputString.obj
 0002:00000e14       ??_C@_1O@COIOCKKM@?$AAI?$AAN?$AAS?$AAE?$AAR?$AAT?$AA?$AA@ 1000de14     ParsePlayInputString.obj
 0002:00000e24       ??_C@_17EAOFDCAA@?$AAI?$AAN?$AAS?$AA?$AA@ 1000de24     ParsePlayInputString.obj
 0002:00000e2c       ??_C@_19HOKJLBCB@?$AAH?$AAO?$AAM?$AAE?$AA?$AA@ 1000de2c     ParsePlayInputString.obj
 0002:00000e38       ??_C@_19EDPCNJOB@?$AAH?$AAE?$AAL?$AAP?$AA?$AA@ 1000de38     ParsePlayInputString.obj
 0002:00000e44       ??_C@_15BKBPAAAG@?$AAF?$AA9?$AA?$AA@ 1000de44     ParsePlayInputString.obj
 0002:00000e4c       ??_C@_15KCKDGHGD@?$AAF?$AA8?$AA?$AA@ 1000de4c     ParsePlayInputString.obj
 0002:00000e54       ??_C@_15PKMAHHDF@?$AAF?$AA7?$AA?$AA@ 1000de54     ParsePlayInputString.obj
 0002:00000e5c       ??_C@_15ECHMBAFA@?$AAF?$AA6?$AA?$AA@ 1000de5c     ParsePlayInputString.obj
 0002:00000e64       ??_C@_15FAMJLPLO@?$AAF?$AA5?$AA?$AA@ 1000de64     ParsePlayInputString.obj
 0002:00000e6c       ??_C@_15OIHFNINL@?$AAF?$AA4?$AA?$AA@ 1000de6c     ParsePlayInputString.obj
 0002:00000e74       ??_C@_15HFKCOAGC@?$AAF?$AA3?$AA?$AA@ 1000de74     ParsePlayInputString.obj
 0002:00000e7c       ??_C@_15MNBOIHAH@?$AAF?$AA2?$AA?$AA@ 1000de7c     ParsePlayInputString.obj
 0002:00000e84       ??_C@_17GPEJJIIJ@?$AAF?$AA1?$AA6?$AA?$AA@ 1000de84     ParsePlayInputString.obj
 0002:00000e8c       ??_C@_17HNPMDHGH@?$AAF?$AA1?$AA5?$AA?$AA@ 1000de8c     ParsePlayInputString.obj
 0002:00000e94       ??_C@_17MFEAFAAC@?$AAF?$AA1?$AA4?$AA?$AA@ 1000de94     ParsePlayInputString.obj
 0002:00000e9c       ??_C@_17FIJHGILL@?$AAF?$AA1?$AA3?$AA?$AA@ 1000de9c     ParsePlayInputString.obj
 0002:00000ea4       ??_C@_17OACLAPNO@?$AAF?$AA1?$AA2?$AA?$AA@ 1000dea4     ParsePlayInputString.obj
 0002:00000eac       ??_C@_17PCJOKADA@?$AAF?$AA1?$AA1?$AA?$AA@ 1000deac     ParsePlayInputString.obj
 0002:00000eb4       ??_C@_17EKCCMHFF@?$AAF?$AA1?$AA0?$AA?$AA@ 1000deb4     ParsePlayInputString.obj
 0002:00000ebc       ??_C@_15NPKLCIOJ@?$AAF?$AA1?$AA?$AA@ 1000debc     ParsePlayInputString.obj
 0002:00000ec4       ??_C@_17PIBLGBJF@?$AAE?$AAS?$AAC?$AA?$AA@ 1000dec4     ParsePlayInputString.obj
 0002:00000ecc       ??_C@_1M@EDGEGPKJ@?$AAE?$AAN?$AAT?$AAE?$AAR?$AA?$AA@ 1000decc     ParsePlayInputString.obj
 0002:00000ed8       ??_C@_17NKIEEIGJ@?$AAE?$AAN?$AAD?$AA?$AA@ 1000ded8     ParsePlayInputString.obj
 0002:00000ee0       ??_C@_19BBNJPHFD@?$AAD?$AAO?$AAW?$AAN?$AA?$AA@ 1000dee0     ParsePlayInputString.obj
 0002:00000eec       ??_C@_1O@LPPHHL@?$AAD?$AAE?$AAL?$AAE?$AAT?$AAE?$AA?$AA@ 1000deec     ParsePlayInputString.obj
 0002:00000efc       ??_C@_17LJFNJANL@?$AAD?$AAE?$AAL?$AA?$AA@ 1000defc     ParsePlayInputString.obj
 0002:00000f04       ??_C@_1M@IDCMGJNH@?$AAC?$AAL?$AAE?$AAA?$AAR?$AA?$AA@ 1000df04     ParsePlayInputString.obj
 0002:00000f10       ??_C@_1BC@JFPFCJCL@?$AAC?$AAA?$AAP?$AAS?$AAL?$AAO?$AAC?$AAK?$AA?$AA@ 1000df10     ParsePlayInputString.obj
 0002:00000f24       ??_C@_15NFBFFFHH@?$AAB?$AAS?$AA?$AA@ 1000df24     ParsePlayInputString.obj
 0002:00000f2c       ??_C@_1M@MPPIMPG@?$AAB?$AAR?$AAE?$AAA?$AAK?$AA?$AA@ 1000df2c     ParsePlayInputString.obj
 0002:00000f38       ??_C@_19LDNKOLFE@?$AAB?$AAK?$AAS?$AAP?$AA?$AA@ 1000df38     ParsePlayInputString.obj
 0002:00000f44       ??_C@_1BE@GBDEOGHH@?$AAB?$AAA?$AAC?$AAK?$AAS?$AAP?$AAA?$AAC?$AAE?$AA?$AA@ 1000df44     ParsePlayInputString.obj
 0002:00000f58       ??_C@_19ONBNKAGK@?$AAA?$AAP?$AAP?$AAS?$AA?$AA@ 1000df58     ParsePlayInputString.obj
 0002:00000f64       ??_C@_13KJIIAINM@?$AA?$CL?$AA?$AA@ 1000df64     ParsePlayInputString.obj
 0002:00000f68       ??_C@_13DIBMAFH@?$AA?$CJ?$AA?$AA@ 1000df68     ParsePlayInputString.obj
 0002:00000f6c       ??_C@_13LLDNKHDC@?$AA?$CI?$AA?$AA@ 1000df6c     ParsePlayInputString.obj
 0002:00000f70       ??_C@_13EJFHHPOP@?$AA?$CF?$AA?$AA@ 1000df70     ParsePlayInputString.obj
 0002:00000f74       ?rgszNeverDelete@CRegParser@ATL@@1QBQBGB 1000df74     stdafx.obj
 0002:00000fa4       ??_C@_1BC@EAHCMADO@?$AAS?$AAo?$AAf?$AAt?$AAw?$AAa?$AAr?$AAe?$AA?$AA@ 1000dfa4     stdafx.obj
 0002:00000fb8       ??_C@_1O@GBFINDKL@?$AAS?$AAY?$AAS?$AAT?$AAE?$AAM?$AA?$AA@ 1000dfb8     stdafx.obj
 0002:00000fc8       ??_C@_1BC@IBECJAAI@?$AAS?$AAE?$AAC?$AAU?$AAR?$AAI?$AAT?$AAY?$AA?$AA@ 1000dfc8     stdafx.obj
 0002:00000fdc       ??_C@_17OMAOINJK@?$AAS?$AAA?$AAM?$AA?$AA@ 1000dfdc     stdafx.obj
 0002:00000fe4       ??_C@_19HLLLM@?$AAM?$AAi?$AAm?$AAe?$AA?$AA@ 1000dfe4     stdafx.obj
 0002:00000ff0       ??_C@_1BC@MAICEHGI@?$AAH?$AAa?$AAr?$AAd?$AAw?$AAa?$AAr?$AAe?$AA?$AA@ 1000dff0     stdafx.obj
 0002:00001004       ??_C@_1BE@EKPAFMCP@?$AAI?$AAn?$AAt?$AAe?$AAr?$AAf?$AAa?$AAc?$AAe?$AA?$AA@ 1000e004     stdafx.obj
 0002:00001018       ??_C@_1BC@NKMMNMGL@?$AAF?$AAi?$AAl?$AAe?$AAT?$AAy?$AAp?$AAe?$AA?$AA@ 1000e018     stdafx.obj
 0002:0000102c       ??_C@_1CK@OEKPKBNA@?$AAC?$AAo?$AAm?$AAp?$AAo?$AAn?$AAe?$AAn?$AAt?$AA?5?$AAC?$AAa?$AAt?$AAe?$AAg?$AAo?$AAr?$AAi?$AAe?$AAs@ 1000e02c     stdafx.obj
 0002:00001098       ??_C@_1O@JDLOHAN@?$AAD?$AAe?$AAl?$AAe?$AAt?$AAe?$AA?$AA@ 1000e098     stdafx.obj
 0002:000010a8       ??_C@_1BC@GCKHIPE@?$AAN?$AAo?$AAR?$AAe?$AAm?$AAo?$AAv?$AAe?$AA?$AA@ 1000e0a8     stdafx.obj
 0002:000010bc       ??_C@_1BI@JFAIJMHL@?$AAF?$AAo?$AAr?$AAc?$AAe?$AAR?$AAe?$AAm?$AAo?$AAv?$AAe?$AA?$AA@ 1000e0bc     stdafx.obj
 0002:000010d4       ??_C@_17LLMMEOJD@?$AAV?$AAa?$AAl?$AA?$AA@ 1000e0d4     stdafx.obj
 0002:000010dc       ??_C@_13OPKGLAFF@?$AAB?$AA?$AA@ 1000e0dc     stdafx.obj
 0002:000010e0       ??_C@_13MKMNOPIJ@?$AAD?$AA?$AA@ 1000e0e0     stdafx.obj
 0002:000010e4       ??_C@_13LHMFKAAD@?$AAM?$AA?$AA@ 1000e0e4     stdafx.obj
 0002:000010e8       ??_C@_13HADIAKP@?$AAS?$AA?$AA@ 1000e0e8     stdafx.obj
 0002:000010ec       _CLSID_StdGlobalInterfaceTable 1000e0ec     stdafx.obj
 0002:000010fc       __GUID_0002e012_0000_0000_c000_000000000046 1000e0fc     Tester.obj
 0002:0000110c       __GUID_00000146_0000_0000_c000_000000000046 1000e10c     Tester.obj
 0002:0000111c       ??_7CRegObject@ATL@@6B@    1000e11c     Tester.obj
 0002:00001134       ??_C@_1M@PPPPCDEP@?$AAA?$AAP?$AAP?$AAI?$AAD?$AA?$AA@ 1000e134     Tester.obj
 0002:00001140       ??_C@_1DA@BIHALFED@?$AA?2?$AAI?$AAm?$AAp?$AAl?$AAe?$AAm?$AAe?$AAn?$AAt?$AAe?$AAd?$AA?5?$AAC?$AAa?$AAt?$AAe?$AAg?$AAo?$AAr@ 1000e140     Tester.obj
 0002:00001170       ??_C@_1CK@IFBKBFAA@?$AA?2?$AAR?$AAe?$AAq?$AAu?$AAi?$AAr?$AAe?$AAd?$AA?5?$AAC?$AAa?$AAt?$AAe?$AAg?$AAo?$AAr?$AAi?$AAe?$AAs@ 1000e170     Tester.obj
 0002:0000119c       ??_C@_1O@FHBGLCIO@?$AAC?$AAL?$AAS?$AAI?$AAD?$AA?2?$AA?$AA@ 1000e19c     Tester.obj
 0002:000011ac       ??_C@_19ILOCMLCJ@?$AA?4?$AAt?$AAl?$AAb?$AA?$AA@ 1000e1ac     Tester.obj
 0002:000011b8       ??_C@_1BC@KAILKFFG@?$AAR?$AAE?$AAG?$AAI?$AAS?$AAT?$AAR?$AAY?$AA?$AA@ 1000e1b8     Tester.obj
 0002:000011d0       ?map@?2??HKeyFromString@CRegParser@ATL@@KAPAUHKEY__@@PAG@Z@4QBUkeymap@23@B 1000e1d0     Tester.obj
 0002:00001240       ??_C@_1CI@BBJOACGG@?$AAH?$AAK?$AAE?$AAY?$AA_?$AAC?$AAU?$AAR?$AAR?$AAE?$AAN?$AAT?$AA_?$AAC?$AAO?$AAN?$AAF?$AAI?$AAG?$AA?$AA@ 1000e240     Tester.obj
 0002:00001268       ??_C@_1BM@HAGMMHIA@?$AAH?$AAK?$AAE?$AAY?$AA_?$AAD?$AAY?$AAN?$AA_?$AAD?$AAA?$AAT?$AAA?$AA?$AA@ 1000e268     Tester.obj
 0002:00001284       ??_C@_1CM@KHNNAOIC@?$AAH?$AAK?$AAE?$AAY?$AA_?$AAP?$AAE?$AAR?$AAF?$AAO?$AAR?$AAM?$AAA?$AAN?$AAC?$AAE?$AA_?$AAD?$AAA?$AAT@ 1000e284     Tester.obj
 0002:000012b0       ??_C@_1BG@BGODANIO@?$AAH?$AAK?$AAE?$AAY?$AA_?$AAU?$AAS?$AAE?$AAR?$AAS?$AA?$AA@ 1000e2b0     Tester.obj
 0002:000012c8       ??_C@_1CG@GFBEANJL@?$AAH?$AAK?$AAE?$AAY?$AA_?$AAL?$AAO?$AAC?$AAA?$AAL?$AA_?$AAM?$AAA?$AAC?$AAH?$AAI?$AAN?$AAE?$AA?$AA@ 1000e2c8     Tester.obj
 0002:000012f0       ??_C@_1CE@HLHNCBPM@?$AAH?$AAK?$AAE?$AAY?$AA_?$AAC?$AAU?$AAR?$AAR?$AAE?$AAN?$AAT?$AA_?$AAU?$AAS?$AAE?$AAR?$AA?$AA@ 1000e2f0     Tester.obj
 0002:00001314       ??_C@_1CE@PACHPJFI@?$AAH?$AAK?$AAE?$AAY?$AA_?$AAC?$AAL?$AAA?$AAS?$AAS?$AAE?$AAS?$AA_?$AAR?$AAO?$AAO?$AAT?$AA?$AA@ 1000e314     Tester.obj
 0002:00001338       ??_C@_19OFICIBHH@?$AAH?$AAK?$AAC?$AAC?$AA?$AA@ 1000e338     Tester.obj
 0002:00001344       ??_C@_19GFFAIJHG@?$AAH?$AAK?$AAD?$AAD?$AA?$AA@ 1000e344     Tester.obj
 0002:00001350       ??_C@_19PNBHMJPL@?$AAH?$AAK?$AAP?$AAD?$AA?$AA@ 1000e350     Tester.obj
 0002:0000135c       ??_C@_17PJOJPMPB@?$AAH?$AAK?$AAU?$AA?$AA@ 1000e35c     Tester.obj
 0002:00001364       ??_C@_19PEALEEJB@?$AAH?$AAK?$AAL?$AAM?$AA?$AA@ 1000e364     Tester.obj
 0002:00001370       ??_C@_19JAPAIJDE@?$AAH?$AAK?$AAC?$AAU?$AA?$AA@ 1000e370     Tester.obj
 0002:0000137c       ??_C@_19NCHLBIN@?$AAH?$AAK?$AAC?$AAR?$AA?$AA@ 1000e37c     Tester.obj
 0002:00001388       __GUID_a521073b_a3e0_442b_8831_51906958b07a 1000e388     Tester.obj
 0002:00001398       ??_7CTesterModule@@6B@     1000e398     Tester.obj
 0002:000013b0       ??_C@_1EO@HCPLDI@?$AA?$HL?$AAA?$AA5?$AA2?$AA1?$AA0?$AA7?$AA3?$AAB?$AA?9?$AAA?$AA3?$AAE?$AA0?$AA?9?$AA4?$AA4?$AA2?$AAB?$AA?9@ 1000e3b0     Tester.obj
 0002:00001400       __GUID_1cf2b120_547d_101b_8e65_08002b2bd119 1000e400     TInput.obj
 0002:00001410       ??_C@_1BM@NHKIKHHJ@?$AAU?$AAn?$AAk?$AAn?$AAo?$AAw?$AAn?$AA?5?$AAE?$AAr?$AAr?$AAo?$AAr?$AA?$AA@ 1000e410     TInput.obj
 0002:0000142c       ??_7?$CComContainedObject@VTInput@@@ATL@@6BISupportErrorInfo@@@ 1000e42c     TInput.obj
 0002:0000143c       ??_7?$CComContainedObject@VTInput@@@ATL@@6B?$IProvideClassInfoImpl@$1?_GUID_9ee83f0e_21f9_45d7_974d_fae9a57438da@@3U__s_GUID@@B$1?m_libid@CAtlModule@ATL@@2U_GUID@@A$00$0A@VCComTypeInfoHolder@ATL@@@1@@ 1000e43c     TInput.obj
 0002:0000144c       ??_7?$CComContainedObject@VTInput@@@ATL@@6BITInput@@@ 1000e44c     TInput.obj
 0002:00001488       ??_7?$CComAggObject@VTInput@@@ATL@@6B@ 1000e488     TInput.obj
 0002:00001498       ??_7?$CComObject@VTInput@@@ATL@@6BISupportErrorInfo@@@ 1000e498     TInput.obj
 0002:000014a8       ??_7?$CComObject@VTInput@@@ATL@@6B?$IProvideClassInfoImpl@$1?_GUID_9ee83f0e_21f9_45d7_974d_fae9a57438da@@3U__s_GUID@@B$1?m_libid@CAtlModule@ATL@@2U_GUID@@A$00$0A@VCComTypeInfoHolder@ATL@@@1@@ 1000e4a8     TInput.obj
 0002:000014b8       ??_7?$CComObject@VTInput@@@ATL@@6BITInput@@@ 1000e4b8     TInput.obj
 0002:000014f8       ??_C@_1FE@LDDGGJCP@?$AAV?$AAi?$AAr?$AAt?$AAu?$AAa?$AAl?$AA?5?$AAs?$AAc?$AAr?$AAe?$AAe?$AAn?$AA?5?$AAc?$AAo?$AAo?$AAr?$AAd@ 1000e4f8     TInput.obj
 0002:0000154c       ??_C@_1O@MHJIOKJ@?$AAT?$AAe?$AAs?$AAt?$AAe?$AAr?$AA?$AA@ 1000e54c     TInput.obj
 0002:0000155c       ?_entries@?1??_GetEntries@TInput@@SGPBU_ATL_INTMAP_ENTRY@ATL@@XZ@4QBU34@B 1000e55c     TInput.obj
 0002:00001598       __GUID_929ea3fa_3a82_4754_a1b0_7b4c16e17a86 1000e598     TInput.obj
 0002:000015a8       ??_C@_1BM@POIKOFED@?$AAT?$AAI?$AAn?$AAp?$AAu?$AAt?$AA?5?$AAO?$AAb?$AAj?$AAe?$AAc?$AAt?$AA?$AA@ 1000e5a8     TInput.obj
 0002:000015c4       ??_C@_1BM@HBCICCKE@?$AAT?$AAe?$AAs?$AAt?$AAe?$AAr?$AA?4?$AAT?$AAI?$AAn?$AAp?$AAu?$AAt?$AA?$AA@ 1000e5c4     TInput.obj
 0002:000015e0       ??_C@_1EO@FJNIAGOO@?$AA?$HL?$AA9?$AAE?$AAE?$AA8?$AA3?$AAF?$AA0?$AAE?$AA?9?$AA2?$AA1?$AAF?$AA9?$AA?9?$AA4?$AA5?$AAD?$AA7?$AA?9@ 1000e5e0     TInput.obj
 0002:00001630       ??_C@_1CA@PGKOAIFO@?$AAT?$AAe?$AAs?$AAt?$AAe?$AAr?$AA?4?$AAT?$AAI?$AAn?$AAp?$AAu?$AAt?$AA?4?$AA1?$AA?$AA@ 1000e630     TInput.obj
 0002:00001650       ??_C@_1BC@JBGOJGEM@?$AAP?$AAl?$AAa?$AAy?$AAK?$AAe?$AAy?$AAs?$AA?$AA@ 1000e650     TInput.obj
 0002:00001664       ??_C@_1BE@HMDAANID@?$AAP?$AAl?$AAa?$AAy?$AAI?$AAn?$AAp?$AAu?$AAt?$AA?$AA@ 1000e664     TInput.obj
 0002:00001678       ??_C@_17BAPBPDHD@?$AAS?$AAt?$AAr?$AA?$AA@ 1000e678     TInput.obj
 0002:00001680       ??_C@_1DK@OBHMMNAD@?$AAp?$AAu?$AAt?$AA_?$AAV?$AAi?$AAr?$AAt?$AAu?$AAa?$AAl?$AAS?$AAc?$AAr?$AAe?$AAe?$AAn?$AAC?$AAo?$AAo@ 1000e680     TInput.obj
 0002:000016bc       ??_C@_1DK@LLCODCDM@?$AAg?$AAe?$AAt?$AA_?$AAV?$AAi?$AAr?$AAt?$AAu?$AAa?$AAl?$AAS?$AAc?$AAr?$AAe?$AAe?$AAn?$AAC?$AAo?$AAo@ 1000e6bc     TInput.obj
 0002:000016f8       ??_C@_1DC@DOMFHGOP@?$AAV?$AAi?$AAr?$AAt?$AAu?$AAa?$AAl?$AAS?$AAc?$AAr?$AAe?$AAe?$AAn?$AAC?$AAo?$AAo?$AAr?$AAd?$AAi?$AAn@ 1000e6f8     TInput.obj
 0002:0000172c       ??_C@_1DM@NKPDFCOO@?$AAp?$AAu?$AAt?$AA_?$AAA?$AAb?$AAs?$AAo?$AAl?$AAu?$AAt?$AAe?$AAS?$AAc?$AAr?$AAe?$AAe?$AAn?$AAC?$AAo@ 1000e72c     TInput.obj
 0002:00001768       ??_C@_1DM@KPCPMNAN@?$AAg?$AAe?$AAt?$AA_?$AAA?$AAb?$AAs?$AAo?$AAl?$AAu?$AAt?$AAe?$AAS?$AAc?$AAr?$AAe?$AAe?$AAn?$AAC?$AAo@ 1000e768     TInput.obj
 0002:000017a4       ??_C@_1DE@HEILFLLD@?$AAA?$AAb?$AAs?$AAo?$AAl?$AAu?$AAt?$AAe?$AAS?$AAc?$AAr?$AAe?$AAe?$AAn?$AAC?$AAo?$AAo?$AAr?$AAd?$AAi@ 1000e7a4     TInput.obj
 0002:000017d8       ??_C@_1CC@LICMLAEB@?$AAp?$AAu?$AAt?$AA_?$AAM?$AAu?$AAl?$AAt?$AAi?$AAM?$AAo?$AAn?$AAi?$AAt?$AAo?$AAr?$AA?$AA@ 1000e7d8     TInput.obj
 0002:000017fc       ??_C@_1CC@HPEMHAIJ@?$AAg?$AAe?$AAt?$AA_?$AAM?$AAu?$AAl?$AAt?$AAi?$AAM?$AAo?$AAn?$AAi?$AAt?$AAo?$AAr?$AA?$AA@ 1000e7fc     TInput.obj
 0002:00001820       ??_C@_19MLCNHMBE@?$AAp?$AAV?$AAa?$AAl?$AA?$AA@ 1000e820     TInput.obj
 0002:0000182c       ??_C@_1BK@HLJNIKGL@?$AAM?$AAu?$AAl?$AAt?$AAi?$AAM?$AAo?$AAn?$AAi?$AAt?$AAo?$AAr?$AA?$AA@ 1000e82c     TInput.obj
 0002:00001848       __GUID_9ee83f0e_21f9_45d7_974d_fae9a57438da 1000e848     TInput.obj
 0002:00001858       __GUID_b196b286_bab4_101a_b69c_00aa00341d07 1000e858     TNotify.obj
 0002:00001868       __GUID_698e7564_2a64_4988_8f1d_58131b6aa9ca 1000e868     TNotify.obj
 0002:00001878       ??_7?$CComObject@V?$CComEnum@UIEnumConnections@@$1?_GUID_b196b287_bab4_101a_b69c_00aa00341d07@@3U__s_GUID@@BUtagCONNECTDATA@@V?$_Copy@UtagCONNECTDATA@@@ATL@@VCComSingleThreadModel@6@@ATL@@@ATL@@6B@ 1000e878     TNotify.obj
 0002:00001898       ??_7?$CComContainedObject@VTNotify@@@ATL@@6BISupportErrorInfo@@@ 1000e898     TNotify.obj
 0002:000018a8       ??_7?$CComContainedObject@VTNotify@@@ATL@@6B?$IPropertyNotifySinkCP@VTNotify@@VCComDynamicUnkArray@ATL@@@1@@ 1000e8a8     TNotify.obj
 0002:000018c8       ??_7?$CComContainedObject@VTNotify@@@ATL@@6B?$IConnectionPointContainerImpl@VTNotify@@@1@@ 1000e8c8     TNotify.obj
 0002:000018dc       ??_7?$CComContainedObject@VTNotify@@@ATL@@6BITNotify@@@ 1000e8dc     TNotify.obj
 0002:00001904       ??_7?$CComContainedObject@VTNotify@@@ATL@@6B?$IConnectionPointImpl@VTNotify@@$1?_GUID_698e7564_2a64_4988_8f1d_58131b6aa9ca@@3U__s_GUID@@BVCComDynamicUnkArray@ATL@@@1@@ 1000e904     TNotify.obj
 0002:00001924       ??_7?$CComContainedObject@VTNotify@@@ATL@@6B?$IProvideClassInfo2Impl@$1?_GUID_dec3f5eb_6169_48cc_816b_1ee00bd26541@@3U__s_GUID@@B$1?_GUID_698e7564_2a64_4988_8f1d_58131b6aa9ca@@3U2@B$1?m_libid@CAtlModule@ATL@@2U_GUID@@A$00$0A@VCComTypeInfoHolder@ATL@@@1@@ 1000e924     TNotify.obj
 0002:00001938       ??_7?$CComObject@V?$CComEnum@UIEnumConnectionPoints@@$1?_GUID_b196b285_bab4_101a_b69c_00aa00341d07@@3U__s_GUID@@BPAUIConnectionPoint@@V?$_CopyInterface@UIConnectionPoint@@@ATL@@VCComSingleThreadModel@6@@ATL@@@ATL@@6B@ 1000e938     TNotify.obj
 0002:00001958       ??_7?$CComAggObject@VTNotify@@@ATL@@6B@ 1000e958     TNotify.obj
 0002:00001968       ??_7?$CComObject@VTNotify@@@ATL@@6BISupportErrorInfo@@@ 1000e968     TNotify.obj
 0002:00001978       ??_7?$CComObject@VTNotify@@@ATL@@6B?$IPropertyNotifySinkCP@VTNotify@@VCComDynamicUnkArray@ATL@@@1@@ 1000e978     TNotify.obj
 0002:00001998       ??_7?$CComObject@VTNotify@@@ATL@@6B?$IConnectionPointContainerImpl@VTNotify@@@1@@ 1000e998     TNotify.obj
 0002:000019ac       ??_7?$CComObject@VTNotify@@@ATL@@6BITNotify@@@ 1000e9ac     TNotify.obj
 0002:000019d4       ??_7?$CComObject@VTNotify@@@ATL@@6B?$IConnectionPointImpl@VTNotify@@$1?_GUID_698e7564_2a64_4988_8f1d_58131b6aa9ca@@3U__s_GUID@@BVCComDynamicUnkArray@ATL@@@1@@ 1000e9d4     TNotify.obj
 0002:000019f4       ??_7?$CComObject@VTNotify@@@ATL@@6B?$IProvideClassInfo2Impl@$1?_GUID_dec3f5eb_6169_48cc_816b_1ee00bd26541@@3U__s_GUID@@B$1?_GUID_698e7564_2a64_4988_8f1d_58131b6aa9ca@@3U2@B$1?m_libid@CAtlModule@ATL@@2U_GUID@@A$00$0A@VCComTypeInfoHolder@ATL@@@1@@ 1000e9f4     TNotify.obj
 0002:00001a0c       ?_entries@?1??_GetEntries@?$CComEnum@UIEnumConnections@@$1?_GUID_b196b287_bab4_101a_b69c_00aa00341d07@@3U__s_GUID@@BUtagCONNECTDATA@@V?$_Copy@UtagCONNECTDATA@@@ATL@@VCComSingleThreadModel@6@@ATL@@SGPBU_ATL_INTMAP_ENTRY@3@XZ@4QBU43@B 1000ea0c     TNotify.obj
 0002:00001a24       __GUID_b196b287_bab4_101a_b69c_00aa00341d07 1000ea24     TNotify.obj
 0002:00001a34       ?_entries@?1??_GetEntries@?$CComEnum@UIEnumConnectionPoints@@$1?_GUID_b196b285_bab4_101a_b69c_00aa00341d07@@3U__s_GUID@@BPAUIConnectionPoint@@V?$_CopyInterface@UIConnectionPoint@@@ATL@@VCComSingleThreadModel@6@@ATL@@SGPBU_ATL_INTMAP_ENTRY@3@XZ@4QBU43@B 1000ea34     TNotify.obj
 0002:00001a4c       __GUID_b196b285_bab4_101a_b69c_00aa00341d07 1000ea4c     TNotify.obj
 0002:00001a60       ?_entries@?1??_GetEntries@TNotify@@SGPBU_ATL_INTMAP_ENTRY@ATL@@XZ@4QBU34@B 1000ea60     TNotify.obj
 0002:00001ab4       __GUID_b196b284_bab4_101a_b69c_00aa00341d07 1000eab4     TNotify.obj
 0002:00001ac4       __GUID_f49728cd_95af_4bd7_b160_ea5116a59acc 1000eac4     TNotify.obj
 0002:00001ad4       __GUID_a6bc3ac0_dbaa_11ce_9de3_00aa004bb851 1000ead4     TNotify.obj
 0002:00001ae4       ??_C@_1BO@INMFOKHP@?$AAT?$AAN?$AAo?$AAt?$AAi?$AAf?$AAy?$AA?5?$AAO?$AAb?$AAj?$AAe?$AAc?$AAt?$AA?$AA@ 1000eae4     TNotify.obj
 0002:00001b04       ??_C@_1BO@JLLFGHBG@?$AAT?$AAe?$AAs?$AAt?$AAe?$AAr?$AA?4?$AAT?$AAN?$AAo?$AAt?$AAi?$AAf?$AAy?$AA?$AA@ 1000eb04     TNotify.obj
 0002:00001b28       ??_C@_1EO@DPDAEIII@?$AA?$HL?$AAD?$AAE?$AAC?$AA3?$AAF?$AA5?$AAE?$AAB?$AA?9?$AA6?$AA1?$AA6?$AA9?$AA?9?$AA4?$AA8?$AAC?$AAC?$AA?9@ 1000eb28     TNotify.obj
 0002:00001b78       ??_C@_1CC@LDLEDOFF@?$AAT?$AAe?$AAs?$AAt?$AAe?$AAr?$AA?4?$AAT?$AAN?$AAo?$AAt?$AAi?$AAf?$AAy?$AA?4?$AA1?$AA?$AA@ 1000eb78     TNotify.obj
 0002:00001b9c       ??_C@_1CE@JCAMMFCM@?$AAC?$AAl?$AAe?$AAa?$AAr?$AAN?$AAo?$AAt?$AAi?$AAf?$AAi?$AAc?$AAa?$AAt?$AAi?$AAo?$AAn?$AA?$AA@ 1000eb9c     TNotify.obj
 0002:00001bc0       ??_C@_1CE@GPIBIDMB@?$AAC?$AAh?$AAe?$AAc?$AAk?$AAN?$AAo?$AAt?$AAi?$AAf?$AAi?$AAc?$AAa?$AAt?$AAi?$AAo?$AAn?$AA?$AA@ 1000ebc0     TNotify.obj
 0002:00001be4       ??_C@_1CA@JOFBDFPF@?$AAA?$AAd?$AAd?$AAN?$AAo?$AAt?$AAi?$AAf?$AAi?$AAc?$AAa?$AAt?$AAi?$AAo?$AAn?$AA?$AA@ 1000ebe4     TNotify.obj
 0002:00001c04       ??_C@_1O@JMHLFGNK@?$AAW?$AAi?$AAn?$AAS?$AAt?$AAr?$AA?$AA@ 1000ec04     TNotify.obj
 0002:00001c14       ??_C@_1BG@IDBOFEGN@?$AAS?$AAe?$AAa?$AAr?$AAc?$AAh?$AAT?$AAy?$AAp?$AAe?$AA?$AA@ 1000ec14     TNotify.obj
 0002:00001c2c       ??_C@_1BG@OKINIIPA@?$AAN?$AAo?$AAt?$AAi?$AAf?$AAy?$AAT?$AAy?$AAp?$AAe?$AA?$AA@ 1000ec2c     TNotify.obj
 0002:00001c44       __GUID_dec3f5eb_6169_48cc_816b_1ee00bd26541 1000ec44     TNotify.obj
 0002:00001c54       ??_7?$CComContainedObject@VTSystem@@@ATL@@6BISupportErrorInfo@@@ 1000ec54     TSystem.obj
 0002:00001c64       ??_7?$CComContainedObject@VTSystem@@@ATL@@6B?$IProvideClassInfoImpl@$1?_GUID_70a9fc86_0989_4ebf_b2ae_b31f846a7797@@3U__s_GUID@@B$1?m_libid@CAtlModule@ATL@@2U_GUID@@A$00$0A@VCComTypeInfoHolder@ATL@@@1@@ 1000ec64     TSystem.obj
 0002:00001c78       ??_7?$CComContainedObject@VTSystem@@@ATL@@6BITSystem@@@ 1000ec78     TSystem.obj
 0002:00001cd4       ??_7?$CComAggObject@VTSystem@@@ATL@@6B@ 1000ecd4     TSystem.obj
 0002:00001ce4       ??_7?$CComObject@VTSystem@@@ATL@@6BISupportErrorInfo@@@ 1000ece4     TSystem.obj
 0002:00001cf4       ??_7?$CComObject@VTSystem@@@ATL@@6B?$IProvideClassInfoImpl@$1?_GUID_70a9fc86_0989_4ebf_b2ae_b31f846a7797@@3U__s_GUID@@B$1?m_libid@CAtlModule@ATL@@2U_GUID@@A$00$0A@VCComTypeInfoHolder@ATL@@@1@@ 1000ecf4     TSystem.obj
 0002:00001d08       ??_7?$CComObject@VTSystem@@@ATL@@6BITSystem@@@ 1000ed08     TSystem.obj
 0002:00001d68       ?_entries@?1??_GetEntries@TSystem@@SGPBU_ATL_INTMAP_ENTRY@ATL@@XZ@4QBU34@B 1000ed68     TSystem.obj
 0002:00001da4       __GUID_63fb6c3f_6398_4500_ab85_984ac82b9b95 1000eda4     TSystem.obj
 0002:00001db4       ??_C@_1BO@OJFMDGMF@?$AAT?$AAS?$AAy?$AAs?$AAt?$AAe?$AAm?$AA?5?$AAO?$AAb?$AAj?$AAe?$AAc?$AAt?$AA?$AA@ 1000edb4     TSystem.obj
 0002:00001dd4       ??_C@_1BO@PFFFOONI@?$AAT?$AAe?$AAs?$AAt?$AAe?$AAr?$AA?4?$AAT?$AAS?$AAy?$AAs?$AAt?$AAe?$AAm?$AA?$AA@ 1000edd4     TSystem.obj
 0002:00001df8       ??_C@_1EO@KMLEFHLJ@?$AA?$HL?$AA7?$AA0?$AAA?$AA9?$AAF?$AAC?$AA8?$AA6?$AA?9?$AA0?$AA9?$AA8?$AA9?$AA?9?$AA4?$AAE?$AAB?$AAF?$AA?9@ 1000edf8     TSystem.obj
 0002:00001e48       ??_C@_1CC@DPLGDINM@?$AAT?$AAe?$AAs?$AAt?$AAe?$AAr?$AA?4?$AAT?$AAS?$AAy?$AAs?$AAt?$AAe?$AAm?$AA?4?$AA1?$AA?$AA@ 1000ee48     TSystem.obj
 0002:00001e6c       ??_C@_1CC@KAIOJPLF@?$AAS?$AAe?$AAt?$AAS?$AAp?$AAe?$AAc?$AAi?$AAf?$AAi?$AAc?$AAF?$AAo?$AAc?$AAu?$AAs?$AA?$AA@ 1000ee6c     TSystem.obj
 0002:00001e90       ??_C@_1CO@ONOAJCLP@?$AAC?$AAh?$AAe?$AAc?$AAk?$AAV?$AAi?$AAr?$AAt?$AAu?$AAa?$AAl?$AAR?$AAe?$AAs?$AAo?$AAl?$AAu?$AAt?$AAi@ 1000ee90     TSystem.obj
 0002:00001ec0       ??_C@_1CA@PJLNKHAB@?$AAC?$AAh?$AAe?$AAc?$AAk?$AAR?$AAe?$AAs?$AAo?$AAl?$AAu?$AAt?$AAi?$AAo?$AAn?$AA?$AA@ 1000eec0     TSystem.obj
 0002:00001ee0       ??_C@_1M@ODIKOLHI@?$AAP?$AAa?$AAu?$AAs?$AAe?$AA?$AA@ 1000eee0     TSystem.obj
 0002:00001eec       ??_C@_1M@KPBJMFDI@?$AAS?$AAl?$AAe?$AAe?$AAp?$AA?$AA@ 1000eeec     TSystem.obj
 0002:00001ef8       ??_C@_1BA@GMIPEBEM@?$AAE?$AAx?$AAe?$AAc?$AAu?$AAt?$AAe?$AA?$AA@ 1000eef8     TSystem.obj
 0002:00001f08       ??_C@_1CM@MBBMPFHC@?$AAF?$AAi?$AAn?$AAd?$AAT?$AAo?$AAp?$AAT?$AAW?$AAi?$AAn?$AAd?$AAo?$AAw?$AAB?$AAy?$AAC?$AAl?$AAa?$AAs@ 1000ef08     TSystem.obj
 0002:00001f34       ??_C@_1CK@PBIMNPBH@?$AAF?$AAi?$AAn?$AAd?$AAT?$AAo?$AAp?$AAW?$AAi?$AAn?$AAd?$AAo?$AAw?$AAB?$AAy?$AAC?$AAl?$AAa?$AAs?$AAs@ 1000ef34     TSystem.obj
 0002:00001f60       ??_C@_1CM@OMBMLNAH@?$AAF?$AAi?$AAn?$AAd?$AAT?$AAo?$AAp?$AAT?$AAW?$AAi?$AAn?$AAd?$AAo?$AAw?$AAB?$AAy?$AAT?$AAi?$AAt?$AAl@ 1000ef60     TSystem.obj
 0002:00001f8c       ??_C@_1CK@NMIMJHGC@?$AAF?$AAi?$AAn?$AAd?$AAT?$AAo?$AAp?$AAW?$AAi?$AAn?$AAd?$AAo?$AAw?$AAB?$AAy?$AAT?$AAi?$AAt?$AAl?$AAe@ 1000ef8c     TSystem.obj
 0002:00001fb8       ??_C@_1BO@HDCNNDNE@?$AAF?$AAi?$AAn?$AAd?$AAT?$AAo?$AAp?$AAT?$AAW?$AAi?$AAn?$AAd?$AAo?$AAw?$AA?$AA@ 1000efb8     TSystem.obj
 0002:00001fd8       ??_C@_1BM@HMMEGCCD@?$AAF?$AAi?$AAn?$AAd?$AAT?$AAo?$AAp?$AAW?$AAi?$AAn?$AAd?$AAo?$AAw?$AA?$AA@ 1000efd8     TSystem.obj
 0002:00001ff4       ??_C@_1CA@BGPLFNPM@?$AAg?$AAe?$AAt?$AA_?$AAT?$AAo?$AAp?$AAT?$AAW?$AAi?$AAn?$AAd?$AAo?$AAw?$AAs?$AA?$AA@ 1000eff4     TSystem.obj
 0002:00002014       ??_C@_1BI@MKKCPMHC@?$AAT?$AAo?$AAp?$AAT?$AAW?$AAi?$AAn?$AAd?$AAo?$AAw?$AAs?$AA?$AA@ 1000f014     TSystem.obj
 0002:0000202c       ??_C@_1BO@HKDDBAEN@?$AAE?$AAn?$AAu?$AAm?$AAT?$AAo?$AAp?$AAW?$AAi?$AAn?$AAd?$AAo?$AAw?$AAs?$AA?$AA@ 1000f02c     TSystem.obj
 0002:0000204c       ??_C@_1CM@HHNBALDN@?$AAg?$AAe?$AAt?$AA_?$AAF?$AAo?$AAr?$AAe?$AAg?$AAr?$AAo?$AAu?$AAn?$AAd?$AAT?$AAW?$AAi?$AAn?$AAd?$AAo@ 1000f04c     TSystem.obj
 0002:00002078       ??_C@_1CE@HJOGMNOE@?$AAF?$AAo?$AAr?$AAe?$AAg?$AAr?$AAo?$AAu?$AAn?$AAd?$AAT?$AAW?$AAi?$AAn?$AAd?$AAo?$AAw?$AA?$AA@ 1000f078     TSystem.obj
 0002:0000209c       ??_C@_1CK@KHOCJKOP@?$AAG?$AAe?$AAt?$AAF?$AAo?$AAr?$AAe?$AAg?$AAr?$AAo?$AAu?$AAn?$AAd?$AAT?$AAW?$AAi?$AAn?$AAd?$AAo?$AAw@ 1000f09c     TSystem.obj
 0002:000020c8       __GUID_70a9fc86_0989_4ebf_b2ae_b31f846a7797 1000f0c8     TSystem.obj
 0002:000020d8       ??_7?$CComObject@V?$CComEnum@UIEnumVARIANT@@$1?IID_IEnumVARIANT@@3U_GUID@@BUtagVARIANT@@V?$_Copy@UtagVARIANT@@@ATL@@VCComSingleThreadModel@6@@ATL@@@ATL@@6B@ 1000f0d8     TWindows.obj
 0002:000020f8       ?_entries@?1??_GetEntries@?$CComEnum@UIEnumVARIANT@@$1?IID_IEnumVARIANT@@3U_GUID@@BUtagVARIANT@@V?$_Copy@UtagVARIANT@@@ATL@@VCComSingleThreadModel@6@@ATL@@SGPBU_ATL_INTMAP_ENTRY@3@XZ@4QBU43@B 1000f0f8     TWindows.obj
 0002:00002120       __real@40f0000000000000    1000f120     ParsePlayInputString.obj
 0002:00002160       __load_config_used         1000f160     MSVCRT:loadcfg.obj
 0002:000021e8       ??_R1A@?0A@A@type_info@@8  1000f1e8     MSVCRT:ti_inst.obj
 0002:00002200       ??_R2type_info@@8          1000f200     MSVCRT:ti_inst.obj
 0002:00002208       ??_R3type_info@@8          1000f208     MSVCRT:ti_inst.obj
 0002:00002218       ??_R4type_info@@6B@        1000f218     MSVCRT:ti_inst.obj
 0002:00002230       ___safe_se_handler_table   1000f230     <linker-defined>
 0002:00002300       ___rtc_iaa                 1000f300     MSVCRT:initsect.obj
 0002:00002304       ___rtc_izz                 1000f304     MSVCRT:initsect.obj
 0002:00002308       ___rtc_taa                 1000f308     MSVCRT:initsect.obj
 0002:0000230c       ___rtc_tzz                 1000f30c     MSVCRT:initsect.obj
 0002:00002310       __TI1?AVCAtlException@ATL@@ 1000f310     Helpers.obj
 0002:00002320       __CTA1?AVCAtlException@ATL@@ 1000f320     Helpers.obj
 0002:00002328       __CT??_R0?AVCAtlException@ATL@@@84 1000f328     Helpers.obj
 0002:000030c8       ___pobjMapEntryFirst       100100c8     stdafx.obj
 0002:000030cc       ___pobjMap_TWindows        100100cc     Helpers.obj
 0002:000030d0       ___pobjMap_TWindow         100100d0     Helpers.obj
 0002:000030d4       ___pobjMap_TInput          100100d4     TInput.obj
 0002:000030d8       ___pobjMap_TNotify         100100d8     TNotify.obj
 0002:000030dc       ___pobjMap_TSystem         100100dc     TSystem.obj
 0002:000030e0       ___pobjMapEntryLast        100100e0     stdafx.obj
 0002:000030e4       __IMPORT_DESCRIPTOR_TNotifyHlp 100100e4     TNotifyHlp:TNotifyHlp.dll
 0002:000030f8       __IMPORT_DESCRIPTOR_KERNEL32 100100f8     kernel32:KERNEL32.dll
 0002:0000310c       __IMPORT_DESCRIPTOR_USER32 1001010c     user32:USER32.dll
 0002:00003120       __IMPORT_DESCRIPTOR_ADVAPI32 10010120     advapi32:ADVAPI32.dll
 0002:00003134       __IMPORT_DESCRIPTOR_SHELL32 10010134     shell32:SHELL32.dll
 0002:00003148       __IMPORT_DESCRIPTOR_ole32  10010148     ole32:ole32.dll
 0002:0000315c       __IMPORT_DESCRIPTOR_OLEAUT32 1001015c     oleaut32:OLEAUT32.dll
 0002:00003170       __IMPORT_DESCRIPTOR_SHLWAPI 10010170     shlwapi:SHLWAPI.dll
 0002:00003184       __IMPORT_DESCRIPTOR_MSVCR71 10010184     MSVCRT:MSVCR71.dll
 0002:00003198       __NULL_IMPORT_DESCRIPTOR   10010198     TNotifyHlp:TNotifyHlp.dll
 0003:00000000       ___xc_a                    10011000     MSVCRT:cinitexe.obj
 0003:00000018       ___xc_z                    10011018     MSVCRT:cinitexe.obj
 0003:0000001c       ___xi_a                    1001101c     MSVCRT:cinitexe.obj
 0003:00000020       ___xi_z                    10011020     MSVCRT:cinitexe.obj
 0003:00000030       ??_R0?AVtype_info@@@8      10011030     MSVCRT:ti_inst.obj
 0003:00000048       ___security_cookie         10011048     MSVCRT:seccook.obj
 0003:0000004c       ??_R0?AVCAtlException@ATL@@@8 1001104c     Helpers.obj
 0003:0000006c       ?g_pfnGetThreadACP@ATL@@3P6GIXZA 1001106c     Helpers.obj
 0003:00000070       ?_tih@?$IProvideClassInfoImpl@$1?_GUID_8a4af30a_d1de_4123_9a91_e52861e7fea7@@3U__s_GUID@@B$1?m_libid@CAtlModule@ATL@@2U_GUID@@A$00$0A@VCComTypeInfoHolder@ATL@@@ATL@@1VCComTypeInfoHolder@2@A 10011070     Helpers.obj
 0003:0000008c       ?_tih@?$IProvideClassInfoImpl@$1?_GUID_767d32eb_7b39_44df_94ef_e7608afb0f01@@3U__s_GUID@@B$1?m_libid@CAtlModule@ATL@@2U_GUID@@A$00$0A@VCComTypeInfoHolder@ATL@@@ATL@@1VCComTypeInfoHolder@2@A 1001108c     Helpers.obj
 0003:000000a8       ?_tih@?$IDispatchImpl@UITWindow@@$1?_GUID_63690418_8142_4e20_85e6_2cb50508ca74@@3U__s_GUID@@B$1?m_libid@CAtlModule@ATL@@2U_GUID@@A$00$0A@VCComTypeInfoHolder@ATL@@@ATL@@1VCComTypeInfoHolder@2@A 100110a8     Helpers.obj
 0003:000000c4       ?rgErrorGuids@?1??InterfaceSupportsErrorInfo@TWindows@@UAGJABU_GUID@@@Z@4PAPBU3@A 100110c4     Helpers.obj
 0003:000000c8       ?rgStrings@?1??GetOpcodeStringVals@TWindows@@SAPAURGSStrings@ATL@@XZ@4PAU34@A 100110c8     Helpers.obj
 0003:00000160       ?rgOps@?1??GetOpCodes@TWindows@@SAPAKXZ@4PAKA 10011160     Helpers.obj
 0003:00000200       ?dids@?1??GetIDsOfNames@?IITWindows@TWindows@@UAGJABU_GUID@@PAPAGIKPAJ@Z@4PAJA 10011200     Helpers.obj
 0003:00000220       ?names@?1??GetIDsOfNames@?IITWindows@TWindows@@UAGJABU_GUID@@PAPAGIKPAJ@Z@4PAPAGA 10011220     Helpers.obj
 0003:00000240       ?__objMap_TWindows@@3U_ATL_OBJMAP_ENTRY30@ATL@@A 10011240     Helpers.obj
 0003:00000264       ?rgErrorGuids@?1??InterfaceSupportsErrorInfo@TWindow@@UAGJABU_GUID@@@Z@4PAPBU3@A 10011264     Helpers.obj
 0003:00000268       ?rgStrings@?1??GetOpcodeStringVals@TWindow@@SAPAURGSStrings@ATL@@XZ@4PAU34@A 10011268     Helpers.obj
 0003:00000300       ?rgOps@?1??GetOpCodes@TWindow@@SAPAKXZ@4PAKA 10011300     Helpers.obj
 0003:000003a0       ?__objMap_TWindow@@3U_ATL_OBJMAP_ENTRY30@ATL@@A 100113a0     Helpers.obj
 0003:00000694       ?_tih@?$IProvideClassInfoImpl@$1?_GUID_9ee83f0e_21f9_45d7_974d_fae9a57438da@@3U__s_GUID@@B$1?m_libid@CAtlModule@ATL@@2U_GUID@@A$00$0A@VCComTypeInfoHolder@ATL@@@ATL@@1VCComTypeInfoHolder@2@A 10011694     TInput.obj
 0003:000006b0       ?rgErrorGuids@?1??InterfaceSupportsErrorInfo@TInput@@UAGJABU_GUID@@@Z@4PAPBU3@A 100116b0     TInput.obj
 0003:000006b8       ?rgStrings@?1??GetOpcodeStringVals@TInput@@SAPAURGSStrings@ATL@@XZ@4PAU34@A 100116b8     TInput.obj
 0003:00000750       ?rgOps@?1??GetOpCodes@TInput@@SAPAKXZ@4PAKA 10011750     TInput.obj
 0003:000007f0       ?dids@?1??GetIDsOfNames@?IITInput@TInput@@UAGJABU_GUID@@PAPAGIKPAJ@Z@4PAJA 100117f0     TInput.obj
 0003:00000824       ?names@?1??GetIDsOfNames@?IITInput@TInput@@UAGJABU_GUID@@PAPAGIKPAJ@Z@4PAPAGA 10011824     TInput.obj
 0003:00000858       ?__objMap_TInput@@3U_ATL_OBJMAP_ENTRY30@ATL@@A 10011858     TInput.obj
 0003:0000087c       ?_tih@?$IProvideClassInfo2Impl@$1?_GUID_dec3f5eb_6169_48cc_816b_1ee00bd26541@@3U__s_GUID@@B$1?_GUID_698e7564_2a64_4988_8f1d_58131b6aa9ca@@3U2@B$1?m_libid@CAtlModule@ATL@@2U_GUID@@A$00$0A@VCComTypeInfoHolder@ATL@@@ATL@@1VCComTypeInfoHolder@2@A 1001187c     TNotify.obj
 0003:00000898       ?rgErrorGuids@?1??InterfaceSupportsErrorInfo@TNotify@@UAGJABU_GUID@@@Z@4PAPBU3@A 10011898     TNotify.obj
 0003:000008a0       ?rgStrings@?1??GetOpcodeStringVals@TNotify@@SAPAURGSStrings@ATL@@XZ@4PAU34@A 100118a0     TNotify.obj
 0003:00000938       ?rgOps@?1??GetOpCodes@TNotify@@SAPAKXZ@4PAKA 10011938     TNotify.obj
 0003:000009d8       ?dids@?1??GetIDsOfNames@?IITNotify@TNotify@@UAGJABU_GUID@@PAPAGIKPAJ@Z@4PAJA 100119d8     TNotify.obj
 0003:000009f4       ?names@?1??GetIDsOfNames@?IITNotify@TNotify@@UAGJABU_GUID@@PAPAGIKPAJ@Z@4PAPAGA 100119f4     TNotify.obj
 0003:00000a10       ?__objMap_TNotify@@3U_ATL_OBJMAP_ENTRY30@ATL@@A 10011a10     TNotify.obj
 0003:00000a34       ?_tih@?$IProvideClassInfoImpl@$1?_GUID_70a9fc86_0989_4ebf_b2ae_b31f846a7797@@3U__s_GUID@@B$1?m_libid@CAtlModule@ATL@@2U_GUID@@A$00$0A@VCComTypeInfoHolder@ATL@@@ATL@@1VCComTypeInfoHolder@2@A 10011a34     TSystem.obj
 0003:00000a50       ?rgErrorGuids@?1??InterfaceSupportsErrorInfo@TSystem@@UAGJABU_GUID@@@Z@4PAPBU3@A 10011a50     TSystem.obj
 0003:00000a58       ?rgStrings@?1??GetOpcodeStringVals@TSystem@@SAPAURGSStrings@ATL@@XZ@4PAU34@A 10011a58     TSystem.obj
 0003:00000af0       ?rgOps@?1??GetOpCodes@TSystem@@SAPAKXZ@4PAKA 10011af0     TSystem.obj
 0003:00000b90       ?dids@?1??GetIDsOfNames@?IITSystem@TSystem@@UAGJABU_GUID@@PAPAGIKPAJ@Z@4PAJA 10011b90     TSystem.obj
 0003:00000bd8       ?names@?1??GetIDsOfNames@?IITSystem@TSystem@@UAGJABU_GUID@@PAPAGIKPAJ@Z@4PAPAGA 10011bd8     TSystem.obj
 0003:00000c20       ?__objMap_TSystem@@3U_ATL_OBJMAP_ENTRY30@ATL@@A 10011c20     TSystem.obj
 0003:00000c50       ?_AtlBaseModule@ATL@@3VCAtlBaseModule@1@A 10011c50     atls:atlbase.obj
 0003:00000c8c       ?_AtlComModule@ATL@@3VCAtlComModule@1@A 10011c8c     atls:atlcommodule.obj
 0003:00000cb8       ?_pAtlModule@ATL@@3PAVCAtlModule@1@A 10011cb8     Helpers.obj
 0003:00000cbc       ?m_bInitFailed@CAtlBaseModule@ATL@@2_NA 10011cbc     Helpers.obj
 0003:00000cc0       ?m_libid@CAtlModule@ATL@@2U_GUID@@A 10011cc0     Helpers.obj
 0003:00000cd0       ?rgBinary@?1??GetOpcodeBinaryVals@TWindows@@SAPAURGSBinary@ATL@@XZ@4PAU34@A 10011cd0     Helpers.obj
 0003:00000cdc       ?rgDWORDS@?1??GetOpcodeDWORDVals@TWindows@@SAPAURGSDWORD@ATL@@XZ@4PAU34@A 10011cdc     Helpers.obj
 0003:00000ce4       ?rgBinary@?1??GetOpcodeBinaryVals@TWindow@@SAPAURGSBinary@ATL@@XZ@4PAU34@A 10011ce4     Helpers.obj
 0003:00000cf0       ?rgDWORDS@?1??GetOpcodeDWORDVals@TWindow@@SAPAURGSDWORD@ATL@@XZ@4PAU34@A 10011cf0     Helpers.obj
 0003:00000d04       ?g_iTimerID@@3IA           10011d04     TNotify.obj
 0003:00000d08       ?_AtlModule@@3VCTesterModule@@A 10011d08     Tester.obj
 0003:00000d34       ?g_tnArray@@3V?$CSimpleArray@PAVTNotify@@V?$CSimpleArrayEqualHelper@PAVTNotify@@@ATL@@@ATL@@A 10011d34     TNotify.obj
 0003:00000d40       ?_pPerfUnRegFunc@ATL@@3P6AJXZA 10011d40     stdafx.obj
 0003:00000d44       ?_pPerfRegFunc@ATL@@3P6AJPAUHINSTANCE__@@@ZA 10011d44     stdafx.obj
 0003:00000d48       ?map@?2??VTFromRegType@CRegParser@ATL@@KAHPBGAAG@Z@4QBUtypemap@23@B 10011d48     Tester.obj
 0003:00000d68       ?rgBinary@?1??GetOpcodeBinaryVals@TInput@@SAPAURGSBinary@ATL@@XZ@4PAU34@A 10011d68     TInput.obj
 0003:00000d74       ?rgDWORDS@?1??GetOpcodeDWORDVals@TInput@@SAPAURGSDWORD@ATL@@XZ@4PAU34@A 10011d74     TInput.obj
 0003:00000d7c       ?rgBinary@?1??GetOpcodeBinaryVals@TNotify@@SAPAURGSBinary@ATL@@XZ@4PAU34@A 10011d7c     TNotify.obj
 0003:00000d88       ?rgDWORDS@?1??GetOpcodeDWORDVals@TNotify@@SAPAURGSDWORD@ATL@@XZ@4PAU34@A 10011d88     TNotify.obj
 0003:00000d90       ?_entries@?1??GetConnMap@TNotify@@SAPBU_ATL_CONNMAP_ENTRY@ATL@@PAH@Z@4QBU34@B 10011d90     TNotify.obj
 0003:00000d9c       ?rgBinary@?1??GetOpcodeBinaryVals@TSystem@@SAPAURGSBinary@ATL@@XZ@4PAU34@A 10011d9c     TSystem.obj
 0003:00000da8       ?rgDWORDS@?1??GetOpcodeDWORDVals@TSystem@@SAPAURGSDWORD@ATL@@XZ@4PAU34@A 10011da8     TSystem.obj
 0003:00000db0       ?$S5@?1??GetConnMap@TNotify@@SAPBU_ATL_CONNMAP_ENTRY@ATL@@PAH@Z@4IA 10011db0     TNotify.obj
 0003:00000db4       ?$S4@?2??VTFromRegType@CRegParser@ATL@@KAHPBGAAG@Z@4IA 10011db4     Tester.obj
 0003:00000db8       __adjust_fdiv              10011db8     <common>
 0003:00000dbc       __pRawDllMain              10011dbc     <common>
 0003:00000dc0       ___onexitend               10011dc0     <common>
 0003:00000dc4       ___onexitbegin             10011dc4     <common>

 entry point at        0001:0000a788

 Static symbols

 0001:000005a1       $L159141                   100015a1 f i  CIL library: CIL module
 0001:00000890       $L162112                   10001890 f i  CIL library: CIL module
 0001:00000930       $L162064                   10001930 f i  CIL library: CIL module
 0001:000009b9       $L165128                   100019b9 f i  CIL library: CIL module
 0001:00000a51       $L165080                   10001a51 f i  CIL library: CIL module
 0001:00001237       $L161636                   10002237 f i  CIL library: CIL module
 0001:000013a4       $L158839                   100023a4 f i  CIL library: CIL module
 0001:00001ea9       $L158052                   10002ea9 f i  CIL library: CIL module
 0001:00002329       $L158054                   10003329 f i  CIL library: CIL module
 0001:00002af8       $L155330                   10003af8 f i  CIL library: CIL module
 0001:00002e60       ?AllocateBuffer@@YAPAUtagINPUT@@XZ 10003e60 f   ParsePlayInputString.obj
 0001:00002e9a       ?ReallocBuffer@@YAXXZ      10003e9a f   ParsePlayInputString.obj
 0001:00002ecd       ?AddKeyToInputArray@@YAXGGK@Z 10003ecd f   ParsePlayInputString.obj
 0001:00002f2c       ?AddOEMCharToInputArray@@YAXG@Z 10003f2c f   ParsePlayInputString.obj
 0001:0000302c       ?CodeCompare@@YAHPBX0@Z    1000402c f   ParsePlayInputString.obj
 0001:00003041       ?ProcessBraceStatement@@YAXPAGAAI@Z 10004041 f   ParsePlayInputString.obj
 0001:000031b5       ?ProcessMouseBraceStatement@@YAHPAG@Z 100041b5 f   ParsePlayInputString.obj
 0001:00003261       ?ParseMouseParameters@@YAHPAGHAAW4eMouseButton@@AAH2@Z 10004261 f   ParsePlayInputString.obj
 0001:00003330       ?VirtualXFromAbsoluteX@@YAHH@Z 10004330 f   ParsePlayInputString.obj
 0001:000033a5       ?VirtualYFromAbsoluteY@@YAHH@Z 100043a5 f   ParsePlayInputString.obj
 0001:0000341a       ?AddMouseEventToInputArray@@YAXKHHK@Z 1000441a f   ParsePlayInputString.obj
 0001:0000348a       ?DoMouseEvent@@YAXW4eMouseOperation@@W4eMouseButton@@HH@Z 1000448a f   ParsePlayInputString.obj
 0001:00003585       ?ProcessString@@YAKPAGAAIH@Z 10004585 f   ParsePlayInputString.obj
 0001:0000417d       ?AtlGetDirLen@ATL@@YGIPBG@Z 1000517d f   Tester.obj
 0001:000046c8       $L157510                   100056c8 f i  CIL library: CIL module
 0001:000046f9       $L157512                   100056f9 f i  CIL library: CIL module
 0001:0000489e       $L161253                   1000589e f i  CIL library: CIL module
 0001:000054b1       $L160694                   100064b1 f i  CIL library: CIL module
 0001:0000558b       $L160696                   1000658b f i  CIL library: CIL module
 0001:00005e53       $L164590                   10006e53 f i  CIL library: CIL module
 0001:00005ef0       $L164542                   10006ef0 f i  CIL library: CIL module
 0001:00006af8       $L160238                   10007af8 f i  CIL library: CIL module
 0001:00006f5a       $L164095                   10007f5a f i  CIL library: CIL module
 0001:00006ff2       $L164047                   10007ff2 f i  CIL library: CIL module
 0001:000074f0       $L159922                   100084f0 f i  CIL library: CIL module
 0001:000074f0       $L160015                   100084f0 f i  CIL library: CIL module
 0001:00007533       $L159924                   10008533 f i  CIL library: CIL module
 0001:00007533       $L160017                   10008533 f i  CIL library: CIL module
 0001:000077fd       $L154434                   100087fd f i  CIL library: CIL module
 0001:00007b83       $L154353                   10008b83 f i  CIL library: CIL module
 0001:00007c8b       $L163810                   10008c8b f i  CIL library: CIL module
 0001:00007d00       $L163774                   10008d00 f i  CIL library: CIL module
 0001:000090ab       $L163059                   1000a0ab f i  CIL library: CIL module
 0001:00009148       $L163011                   1000a148 f i  CIL library: CIL module
 0001:0000a233       $L156276                   1000b233 f i  CIL library: CIL module
 0001:0000a340       $L162410                   1000b340 f i  CIL library: CIL module
 0001:0000a86c       _report_failure            1000b86c f   MSVCRT:secchk.obj
 0001:0000abf6       __ehhandler$?Init@?$CComEnumImpl@UIEnumConnections@@$1?_GUID_b196b287_bab4_101a_b69c_00aa00341d07@@3U__s_GUID@@BUtagCONNECTDATA@@V?$_Copy@UtagCONNECTDATA@@@ATL@@@ATL@@QAEJPAUtagCONNECTDATA@@0PAUIUnknown@@W4CComEnumFlags@2@@Z 1000bbf6 f    CIL library: CIL module
 0001:0000ac00       __ehhandler$?Init@?$CComEnumImpl@UIEnumConnectionPoints@@$1?_GUID_b196b285_bab4_101a_b69c_00aa00341d07@@3U__s_GUID@@BPAUIConnectionPoint@@V?$_CopyInterface@UIConnectionPoint@@@ATL@@@ATL@@QAEJPAPAUIConnectionPoint@@0PAUIUnknown@@W4CComEnumFlags@2@@Z 1000bc00 f    CIL library: CIL module
 0001:0000ac0a       $L154519                   1000bc0a f    CIL library: CIL module
 0001:0000ac0a       $L154577                   1000bc0a f    CIL library: CIL module
 0001:0000ac15       __ehhandler$??1?$IConnectionPointImpl@VTNotify@@$1?IID_IPropertyNotifySink@@3U_GUID@@BVCComDynamicUnkArray@ATL@@@ATL@@QAE@XZ 1000bc15 f    CIL library: CIL module
 0001:0000ac15       __ehhandler$??1?$IConnectionPointImpl@VTNotify@@$1?_GUID_698e7564_2a64_4988_8f1d_58131b6aa9ca@@3U__s_GUID@@BVCComDynamicUnkArray@ATL@@@ATL@@QAE@XZ 1000bc15 f    CIL library: CIL module
 0001:0000ac1f       __ehhandler$?Allocate@?$CAutoVectorPtr@G@ATL@@QAE_NI@Z 1000bc1f f    CIL library: CIL module
 0001:0000ac29       __ehhandler$?Init@?$CComEnumImpl@UIEnumVARIANT@@$1?IID_IEnumVARIANT@@3U_GUID@@BUtagVARIANT@@V?$_Copy@UtagVARIANT@@@ATL@@@ATL@@QAEJPAUtagVARIANT@@0PAUIUnknown@@W4CComEnumFlags@2@@Z 1000bc29 f    CIL library: CIL module
 0001:0000ac33       $L156343                   1000bc33 f    CIL library: CIL module
 0001:0000ac38       __ehhandler$?InternalSetAtIndex@?$CSimpleArray@V?$CComPtr@UITWindow@@@ATL@@V?$CSimpleArrayEqualHelper@V?$CComPtr@UITWindow@@@ATL@@@2@@ATL@@QAEXHABV?$CComPtr@UITWindow@@@2@@Z 1000bc38 f    CIL library: CIL module
 0001:0000ac42       $L156800                   1000bc42 f    CIL library: CIL module
 0001:0000ac58       __ehhandler$??1TNotify@@QAE@XZ 1000bc58 f    CIL library: CIL module
 0001:0000ac62       __ehhandler$?Add@CExpansionVector@ATL@@QAEHPBG0@Z 1000bc62 f    CIL library: CIL module
 0001:0000ac6c       $L157533                   1000bc6c f    CIL library: CIL module
 0001:0000ac6c       $L164741                   1000bc6c f    CIL library: CIL module
 0001:0000ac6c       $L161309                   1000bc6c f    CIL library: CIL module
 0001:0000ac74       __ehhandler$?ResourceUnregister@CRegObject@ATL@@QAGJPBGI0@Z 1000bc74 f    CIL library: CIL module
 0001:0000ac74       __ehhandler$?AddReplacement@CRegObject@ATL@@UAGJPBG0@Z 1000bc74 f    CIL library: CIL module
 0001:0000ac74       __ehhandler$?ResourceRegister@CRegObject@ATL@@QAGJPBGI0@Z 1000bc74 f    CIL library: CIL module
 0001:0000ac7e       $L158055                   1000bc7e f    CIL library: CIL module
 0001:0000ac89       $L158060                   1000bc89 f    CIL library: CIL module
 0001:0000ac94       $L158061                   1000bc94 f    CIL library: CIL module
 0001:0000ac9f       $L158062                   1000bc9f f    CIL library: CIL module
 0001:0000acaa       $L158064                   1000bcaa f    CIL library: CIL module
 0001:0000acb5       $L158065                   1000bcb5 f    CIL library: CIL module
 0001:0000acc0       $L158067                   1000bcc0 f    CIL library: CIL module
 0001:0000accb       $L158068                   1000bccb f    CIL library: CIL module
 0001:0000acd6       $L158069                   1000bcd6 f    CIL library: CIL module
 0001:0000ace1       __ehhandler$?VMUpdateRegistryRecurse@CRegistryVirtualMachine@ATL@@QAEJPAUHKEY__@@AAPAKPAURGSStrings@2@PAURGSDWORD@2@PAURGSBinary@2@H@Z 1000bce1 f    CIL library: CIL module
 0001:0000aceb       $L158840                   1000bceb f    CIL library: CIL module
 0001:0000acf5       $L158841                   1000bcf5 f    CIL library: CIL module
 0001:0000acfd       __ehhandler$?LoadNameCache@CComTypeInfoHolder@ATL@@QAEJPAUITypeInfo@@@Z 1000bcfd f    CIL library: CIL module
 0001:0000ad07       $L159114                   1000bd07 f    CIL library: CIL module
 0001:0000ad0f       __ehhandler$??0?$CComObjectCached@VCComClassFactory@ATL@@@ATL@@QAE@PAX@Z 1000bd0f f    CIL library: CIL module
 0001:0000ad19       $L159142                   1000bd19 f    CIL library: CIL module
 0001:0000ad23       __ehhandler$?CreateInstance@?$CComCreator@V?$CComObjectCached@VCComClassFactory@ATL@@@ATL@@@ATL@@SGJPAXABU_GUID@@PAPAX@Z 1000bd23 f    CIL library: CIL module
 0001:0000ad2d       $L159666                   1000bd2d f    CIL library: CIL module
 0001:0000ad2d       $L159221                   1000bd2d f    CIL library: CIL module
 0001:0000ad2d       $L160273                   1000bd2d f    CIL library: CIL module
 0001:0000ad2d       $L160574                   1000bd2d f    CIL library: CIL module
 0001:0000ad38       $L160274                   1000bd38 f    CIL library: CIL module
 0001:0000ad38       $L159222                   1000bd38 f    CIL library: CIL module
 0001:0000ad38       $L159667                   1000bd38 f    CIL library: CIL module
 0001:0000ad38       $L160575                   1000bd38 f    CIL library: CIL module
 0001:0000ad43       $L159223                   1000bd43 f    CIL library: CIL module
 0001:0000ad43       $L160275                   1000bd43 f    CIL library: CIL module
 0001:0000ad43       $L160576                   1000bd43 f    CIL library: CIL module
 0001:0000ad43       $L159668                   1000bd43 f    CIL library: CIL module
 0001:0000ad4e       __ehhandler$?TypeInfoHelper@TInput@@QAEJABU_GUID@@KPAPAUITypeInfo@@@Z 1000bd4e f    CIL library: CIL module
 0001:0000ad4e       __ehhandler$?TypeInfoHelper@TSystem@@QAEJABU_GUID@@KPAPAUITypeInfo@@@Z 1000bd4e f    CIL library: CIL module
 0001:0000ad4e       __ehhandler$?TypeInfoHelper@TNotify@@QAEJABU_GUID@@KPAPAUITypeInfo@@@Z 1000bd4e f    CIL library: CIL module
 0001:0000ad4e       __ehhandler$?TypeInfoHelper@TWindows@@QAEJABU_GUID@@KPAPAUITypeInfo@@@Z 1000bd4e f    CIL library: CIL module
 0001:0000ad58       $L156666                   1000bd58 f    CIL library: CIL module
 0001:0000ad58       $L159428                   1000bd58 f    CIL library: CIL module
 0001:0000ad58       $L156762                   1000bd58 f    CIL library: CIL module
 0001:0000ad63       __ehhandler$??1?$CComEnumImpl@UIEnumConnectionPoints@@$1?_GUID_b196b285_bab4_101a_b69c_00aa00341d07@@3U__s_GUID@@BPAUIConnectionPoint@@V?$_CopyInterface@UIConnectionPoint@@@ATL@@@ATL@@UAE@XZ 1000bd63 f    CIL library: CIL module
 0001:0000ad63       __ehhandler$??1?$CComEnumImpl@UIEnumVARIANT@@$1?IID_IEnumVARIANT@@3U_GUID@@BUtagVARIANT@@V?$_Copy@UtagVARIANT@@@ATL@@@ATL@@UAE@XZ 1000bd63 f    CIL library: CIL module
 0001:0000ad63       __ehhandler$??1?$CComEnumImpl@UIEnumConnections@@$1?_GUID_b196b287_bab4_101a_b69c_00aa00341d07@@3U__s_GUID@@BUtagCONNECTDATA@@V?$_Copy@UtagCONNECTDATA@@@ATL@@@ATL@@UAE@XZ 1000bd63 f    CIL library: CIL module
 0001:0000ad6d       __ehhandler$?EnumConnections@?$IConnectionPointImpl@VTNotify@@$1?IID_IPropertyNotifySink@@3U_GUID@@BVCComDynamicUnkArray@ATL@@@ATL@@UAGJPAPAUIEnumConnections@@@Z 1000bd6d f    CIL library: CIL module
 0001:0000ad6d       __ehhandler$?EnumConnections@?$IConnectionPointImpl@VTNotify@@$1?_GUID_698e7564_2a64_4988_8f1d_58131b6aa9ca@@3U__s_GUID@@BVCComDynamicUnkArray@ATL@@@ATL@@UAGJPAPAUIEnumConnections@@@Z 1000bd6d f    CIL library: CIL module
 0001:0000ad77       $L160102                   1000bd77 f    CIL library: CIL module
 0001:0000ad84       __ehhandler$??1?$CComAggObject@VTNotify@@@ATL@@UAE@XZ 1000bd84 f    CIL library: CIL module
 0001:0000ad8e       $L160239                   1000bd8e f    CIL library: CIL module
 0001:0000ad96       __ehhandler$?EnumConnectionPoints@?$IConnectionPointContainerImpl@VTNotify@@@ATL@@UAGJPAPAUIEnumConnectionPoints@@@Z 1000bd96 f    CIL library: CIL module
 0001:0000ada0       $L160697                   1000bda0 f    CIL library: CIL module
 0001:0000adab       $L160699                   1000bdab f    CIL library: CIL module
 0001:0000adb6       __ehhandler$?AddValue@CRegParser@ATL@@IAEJAAVCRegKey@2@PBGPAG@Z 1000bdb6 f    CIL library: CIL module
 0001:0000adc0       $L160790                   1000bdc0 f    CIL library: CIL module
 0001:0000adcb       $L160792                   1000bdcb f    CIL library: CIL module
 0001:0000add3       __ehhandler$?RegisterSubkeys@CRegParser@ATL@@IAEJPAGPAUHKEY__@@HH@Z 1000bdd3 f    CIL library: CIL module
 0001:0000addd       $L161162                   1000bddd f    CIL library: CIL module
 0001:0000ade5       __ehhandler$?PreProcessBuffer@CRegParser@ATL@@QAEJPAGPAPAG@Z 1000bde5 f    CIL library: CIL module
 0001:0000adef       $L161254                   1000bdef f    CIL library: CIL module
 0001:0000adfa       $L161255                   1000bdfa f    CIL library: CIL module
 0001:0000ae05       __ehhandler$?RegisterFromResource@CRegObject@ATL@@IAEJPBG00H@Z 1000be05 f    CIL library: CIL module
 0001:0000ae0f       $L161327                   1000be0f f    CIL library: CIL module
 0001:0000ae17       __ehhandler$??1CExpansionVector@ATL@@QAE@XZ 1000be17 f    CIL library: CIL module
 0001:0000ae21       $L161637                   1000be21 f    CIL library: CIL module
 0001:0000ae29       __ehhandler$?AtlModuleAddTermFunc@ATL@@YGJPAU_ATL_MODULE70@1@P6GXK@ZK@Z 1000be29 f    CIL library: CIL module
 0001:0000ae33       $L161690                   1000be33 f    CIL library: CIL module
 0001:0000ae3e       $L161692                   1000be3e f    CIL library: CIL module
 0001:0000ae49       $L161693                   1000be49 f    CIL library: CIL module
 0001:0000ae51       $L161694                   1000be51 f    CIL library: CIL module
 0001:0000ae5c       __ehhandler$?GetTI@CComTypeInfoHolder@ATL@@QAEJK@Z 1000be5c f    CIL library: CIL module
 0001:0000ae66       $L162065                   1000be66 f    CIL library: CIL module
 0001:0000ae70       __ehhandler$?CreateInstance@?$CComCreator@V?$CComAggObject@VTWindow@@@ATL@@@ATL@@SGJPAXABU_GUID@@PAPAX@Z 1000be70 f    CIL library: CIL module
 0001:0000ae7a       __ehhandler$?CreateInstance@?$CComCreator@V?$CComObject@VTWindow@@@ATL@@@ATL@@SGJPAXABU_GUID@@PAPAX@Z 1000be7a f    CIL library: CIL module
 0001:0000ae84       $L162221                   1000be84 f    CIL library: CIL module
 0001:0000ae8c       __ehhandler$?BuildITWindowsFromHwndArray@@YAJAAV?$CSimpleArray@PAUHWND__@@V?$CSimpleArrayEqualHelper@PAUHWND__@@@ATL@@@ATL@@PAPAUITWindows@@@Z 1000be8c f    CIL library: CIL module
 0001:0000ae96       __ehhandler$?CreateInstance@?$CComObject@V?$CComEnum@UIEnumVARIANT@@$1?IID_IEnumVARIANT@@3U_GUID@@BUtagVARIANT@@V?$_Copy@UtagVARIANT@@@ATL@@VCComSingleThreadModel@6@@ATL@@@ATL@@SGJPAPAV12@@Z 1000be96 f    CIL library: CIL module
 0001:0000aea0       $L163847                   1000bea0 f    CIL library: CIL module
 0001:0000aea0       $L162447                   1000bea0 f    CIL library: CIL module
 0001:0000aea0       $L163912                   1000bea0 f    CIL library: CIL module
 0001:0000aeb9       __ehhandler$?Clone@?$CComEnumImpl@UIEnumVARIANT@@$1?IID_IEnumVARIANT@@3U_GUID@@BUtagVARIANT@@V?$_Copy@UtagVARIANT@@@ATL@@@ATL@@UAGJPAPAUIEnumVARIANT@@@Z 1000beb9 f    CIL library: CIL module
 0001:0000aeb9       __ehhandler$?Clone@?$CComEnumImpl@UIEnumConnections@@$1?_GUID_b196b287_bab4_101a_b69c_00aa00341d07@@3U__s_GUID@@BUtagCONNECTDATA@@V?$_Copy@UtagCONNECTDATA@@@ATL@@@ATL@@UAGJPAPAUIEnumConnections@@@Z 1000beb9 f    CIL library: CIL module
 0001:0000aeb9       __ehhandler$?Clone@?$CComEnumImpl@UIEnumConnectionPoints@@$1?_GUID_b196b285_bab4_101a_b69c_00aa00341d07@@3U__s_GUID@@BPAUIConnectionPoint@@V?$_CopyInterface@UIConnectionPoint@@@ATL@@@ATL@@UAGJPAPAUIEnumConnectionPoints@@@Z 1000beb9 f    CIL library: CIL module
 0001:0000aec3       $L162518                   1000bec3 f    CIL library: CIL module
 0001:0000aecb       $L162519                   1000becb f    CIL library: CIL module
 0001:0000aed3       __ehhandler$?Add@TWindows@@UAGJPAUtagVARIANT@@PAPAUITWindow@@@Z 1000bed3 f    CIL library: CIL module
 0001:0000aedd       $L162688                   1000bedd f    CIL library: CIL module
 0001:0000aee5       $L162689                   1000bee5 f    CIL library: CIL module
 0001:0000aeed       __ehhandler$?FindChildTWindow@TWindow@@UAGJPAG0PAPAUITWindow@@@Z 1000beed f    CIL library: CIL module
 0001:0000aef7       $L163012                   1000bef7 f    CIL library: CIL module
 0001:0000af01       __ehhandler$?CreateInstance@?$CComCreator@V?$CComAggObject@VTSystem@@@ATL@@@ATL@@SGJPAXABU_GUID@@PAPAX@Z 1000bf01 f    CIL library: CIL module
 0001:0000af0b       __ehhandler$?CreateInstance@?$CComCreator@V?$CComObject@VTSystem@@@ATL@@@ATL@@SGJPAXABU_GUID@@PAPAX@Z 1000bf0b f    CIL library: CIL module
 0001:0000af15       $L163124                   1000bf15 f    CIL library: CIL module
 0001:0000af20       $L163125                   1000bf20 f    CIL library: CIL module
 0001:0000af28       $L163126                   1000bf28 f    CIL library: CIL module
 0001:0000af33       __ehhandler$?SetSpecificFocus@TSystem@@UAGJPAG00JPAF@Z 1000bf33 f    CIL library: CIL module
 0001:0000af3d       $L163518                   1000bf3d f    CIL library: CIL module
 0001:0000af45       $L163519                   1000bf45 f    CIL library: CIL module
 0001:0000af4d       __ehhandler$?FindTopTWindow@TSystem@@UAGJPAG0PAPAUITWindow@@@Z 1000bf4d f    CIL library: CIL module
 0001:0000af57       $L162656                   1000bf57 f    CIL library: CIL module
 0001:0000af57       $L163569                   1000bf57 f    CIL library: CIL module
 0001:0000af5f       __ehhandler$?get_Children@TWindow@@UAGJPAPAUITWindows@@@Z 1000bf5f f    CIL library: CIL module
 0001:0000af5f       __ehhandler$?get_TopTWindows@TSystem@@UAGJPAPAUITWindows@@@Z 1000bf5f f    CIL library: CIL module
 0001:0000af69       $L164242                   1000bf69 f    CIL library: CIL module
 0001:0000af69       $L163736                   1000bf69 f    CIL library: CIL module
 0001:0000af69       $L164710                   1000bf69 f    CIL library: CIL module
 0001:0000af69       $L162318                   1000bf69 f    CIL library: CIL module
 0001:0000af71       __ehhandler$?GetTypeInfoCount@?IITWindows@TWindows@@UAGJPAI@Z 1000bf71 f    CIL library: CIL module
 0001:0000af71       __ehhandler$?GetTypeInfoCount@?IITSystem@TSystem@@UAGJPAI@Z 1000bf71 f    CIL library: CIL module
 0001:0000af71       __ehhandler$?GetTypeInfoCount@?IITNotify@TNotify@@UAGJPAI@Z 1000bf71 f    CIL library: CIL module
 0001:0000af71       __ehhandler$?GetTypeInfoCount@?IITInput@TInput@@UAGJPAI@Z 1000bf71 f    CIL library: CIL module
 0001:0000af7b       __ehhandler$?CreateInstance@?$CComObject@V?$CComEnum@UIEnumConnections@@$1?_GUID_b196b287_bab4_101a_b69c_00aa00341d07@@3U__s_GUID@@BUtagCONNECTDATA@@V?$_Copy@UtagCONNECTDATA@@@ATL@@VCComSingleThreadModel@6@@ATL@@@ATL@@SGJPAPAV12@@Z 1000bf7b f    CIL library: CIL module
 0001:0000af85       __ehhandler$?CreateInstance@?$CComObject@V?$CComEnum@UIEnumConnectionPoints@@$1?_GUID_b196b285_bab4_101a_b69c_00aa00341d07@@3U__s_GUID@@BPAUIConnectionPoint@@V?$_CopyInterface@UIConnectionPoint@@@ATL@@VCComSingleThreadModel@6@@ATL@@@ATL@@SGJPAPAV12@@Z 1000bf85 f    CIL library: CIL module
 0001:0000af8f       $L163994                   1000bf8f f    CIL library: CIL module
 0001:0000af9c       __ehhandler$??0?$CComAggObject@VTNotify@@@ATL@@QAE@PAX@Z 1000bf9c f    CIL library: CIL module
 0001:0000afa6       $L164048                   1000bfa6 f    CIL library: CIL module
 0001:0000afb0       __ehhandler$?CreateInstance@?$CComCreator@V?$CComAggObject@VTNotify@@@ATL@@@ATL@@SGJPAXABU_GUID@@PAPAX@Z 1000bfb0 f    CIL library: CIL module
 0001:0000afba       __ehhandler$?CreateInstance@?$CComCreator@V?$CComObject@VTNotify@@@ATL@@@ATL@@SGJPAXABU_GUID@@PAPAX@Z 1000bfba f    CIL library: CIL module
 0001:0000afc4       $L164543                   1000bfc4 f    CIL library: CIL module
 0001:0000afce       __ehhandler$?CreateInstance@?$CComCreator@V?$CComAggObject@VTInput@@@ATL@@@ATL@@SGJPAXABU_GUID@@PAPAX@Z 1000bfce f    CIL library: CIL module
 0001:0000afd8       __ehhandler$?CreateInstance@?$CComCreator@V?$CComObject@VTInput@@@ATL@@@ATL@@SGJPAXABU_GUID@@PAPAX@Z 1000bfd8 f    CIL library: CIL module
 0001:0000afe2       $L164759                   1000bfe2 f    CIL library: CIL module
 0001:0000afef       __ehhandler$??1CRegObject@ATL@@UAE@XZ 1000bfef f    CIL library: CIL module
 0001:0000aff9       $L165004                   1000bff9 f    CIL library: CIL module
 0001:0000b004       __ehhandler$??1?$CComAggObject@VTWindows@@@ATL@@UAE@XZ 1000c004 f    CIL library: CIL module
 0001:0000b00e       $L165050                   1000c00e f    CIL library: CIL module
 0001:0000b019       __ehhandler$??0?$CComAggObject@VTWindows@@@ATL@@QAE@PAX@Z 1000c019 f    CIL library: CIL module
 0001:0000b023       $L165081                   1000c023 f    CIL library: CIL module
 0001:0000b02d       __ehhandler$?CreateInstance@?$CComCreator@V?$CComAggObject@VTWindows@@@ATL@@@ATL@@SGJPAXABU_GUID@@PAPAX@Z 1000c02d f    CIL library: CIL module
 0001:0000b037       __ehhandler$?CreateInstance@?$CComCreator@V?$CComObject@VTWindows@@@ATL@@@ATL@@SGJPAXABU_GUID@@PAPAX@Z 1000c037 f    CIL library: CIL module
 0001:0000b041       $L165259                   1000c041 f    CIL library: CIL module
 0001:0000b049       __ehhandler$?AddNotify@@YAPAXPAVTNotify@@W4AddNotifyType@@W4AddNotifySearch@@PAG@Z 1000c049 f    CIL library: CIL module
 0001:0000b053       _$E5                       1000c053 f   Tester.obj
 0001:0000b06b       _$E6                       1000c06b f   TNotify.obj
 0001:0000b077       _$E5                       1000c077 f   atls:atlbase.obj
 0001:0000b08d       _$E5                       1000c08d f   atls:atlcommodule.obj
 0001:0000b0a3       _$E6                       1000c0a3 f   TNotify.obj
 0001:0000b0ae       _$E7                       1000c0ae f   TNotify.obj
 0001:0000b0bb       _$E6                       1000c0bb f   atls:atlbase.obj
 0001:0000b0c5       _$E6                       1000c0c5 f   atls:atlcommodule.obj

Line numbers for .\Release\TWindows.obj(d:\dev\booktwo\disk\tester\tester\twindows.cpp) segment .text

    13 0001:00009bc3    11 0001:00009bc3    15 0001:00009bcd    17 0001:00009bd6
    19 0001:00009bd8    22 0001:00009bdd    27 0001:00009be0    29 0001:00009be1
    33 0001:00009be9    39 0001:00009bfe    44 0001:00009c10    47 0001:00009c16
    55 0001:00009c19    58 0001:00009c1e    60 0001:00009c25    63 0001:00009c2f
    66 0001:00009c35    67 0001:00009c3b    70 0001:00009c49    81 0001:00009c55
    78 0001:00009c7d    81 0001:00009c87    85 0001:00009ca0    86 0001:00009cb0
    89 0001:00009cb4    94 0001:00009cc3    96 0001:00009ccc    97 0001:00009cd1
   101 0001:00009cd5   103 0001:00009cdf   108 0001:00009cef   111 0001:00009cf9
   113 0001:00009cfd   115 0001:00009d19   116 0001:00009d27   118 0001:00009d2b
   119 0001:00009d39   122 0001:00009d3b   124 0001:00009d62   132 0001:00009d67
   133 0001:00009d73   136 0001:00009d92   142 0001:00009d94   143 0001:00009da5
   146 0001:00009dac   147 0001:00009db6   148 0001:00009dc0   150 0001:00009dce
   151 0001:00009ddf   153 0001:00009de1   157 0001:00009df7   159 0001:00009df9
   162 0001:00009e00   166 0001:00009e14   169 0001:00009e15   170 0001:00009e1b
   176 0001:00009e2a   179 0001:00009e31   180 0001:00009e44   182 0001:00009e49
   184 0001:00009e52   186 0001:00009e57   188 0001:00009e59   172 0001:00009e5d
   193 0001:00009e64

Line numbers for .\Release\TWindows.obj(g:\vsnet\vc7\atlmfc\include\atlcomcli.h) segment .text

   206 0001:00009efa   204 0001:00009efa   207 0001:00009efe   212 0001:00009f03
   208 0001:00009f04   209 0001:00009f08   210 0001:00009f0e   211 0001:00009f14
   212 0001:00009f16

Line numbers for .\Release\TWindows.obj(g:\vsnet\vc7\atlmfc\include\atlcom.h) segment .text

  2489 0001:00009f17  2491 0001:00009f24  2492 0001:00009f2f  2496 0001:00009f32
  2497 0001:00009f3b  2502 0001:00009f42  2503 0001:00009f4d  2516 0001:00009f55
  4667 0001:00009fca  4668 0001:00009fdf  4670 0001:00009fe6  4671 0001:00009feb
  4670 0001:00009ff5  4672 0001:00009ffa  4674 0001:0000a004  4679 0001:0000a022
  4680 0001:0000a025  4681 0001:0000a02e  4682 0001:0000a031  4683 0001:0000a039
  4684 0001:0000a043  4686 0001:0000a05c  4689 0001:0000a072  4690 0001:0000a07b
  4691 0001:0000a07f  4692 0001:0000a082  4693 0001:0000a086  4694 0001:0000a08a
  4695 0001:0000a08c  4698 0001:0000a091  4699 0001:0000a0a1  4707 0001:0000a0a8
  4708 0001:0000a0ab  4696 0001:0000a0af  4710 0001:0000a0b3  4701 0001:0000a0b8
  4702 0001:0000a0bd  4701 0001:0000a0c7  4703 0001:0000a0cb  4704 0001:0000a0d2
  4705 0001:0000a0d5  4687 0001:0000a0da  4685 0001:0000a0e1  4711 0001:0000a0e9
  4715 0001:0000a0ed  4716 0001:0000a0ee  4717 0001:0000a0f6  4719 0001:0000a0fd
  4720 0001:0000a10c  4721 0001:0000a113  4722 0001:0000a11d  4723 0001:0000a128
  4727 0001:0000a12b  4730 0001:0000a137  4748 0001:0000a13c  4738 0001:0000a185
  4739 0001:0000a1b4  4741 0001:0000a1b8  4742 0001:0000a1bb  4744 0001:0000a1d3
  4745 0001:0000a1d7  4749 0001:0000a1e5  4754 0001:0000a1f7  4755 0001:0000a202
  4758 0001:0000a218  4759 0001:0000a243  4760 0001:0000a246  4761 0001:0000a24d
  4762 0001:0000a257  4764 0001:0000a25e  4765 0001:0000a265  4766 0001:0000a274
  4775 0001:0000a27b  4777 0001:0000a286  4779 0001:0000a292  4768 0001:0000a294
  4770 0001:0000a299  4769 0001:0000a2a3  4771 0001:0000a2a8  4772 0001:0000a2b0
  4773 0001:0000a2bb  4781 0001:0000a2c1  4784 0001:0000a2c7  4785 0001:0000a2d5
  4786 0001:0000a2db  4787 0001:0000a2e1  4788 0001:0000a2e3  2528 0001:0000a2f5
  2530 0001:0000a308  2531 0001:0000a311  2536 0001:0000a318  2537 0001:0000a34c
  2543 0001:0000a350  2551 0001:0000a354  2552 0001:0000a356  2553 0001:0000a359

Line numbers for .\Release\TWindows.obj(g:\vsnet\vc7\atlmfc\include\atlsimpcoll.h) segment .text

   140 0001:00009e67   139 0001:00009e67   143 0001:00009e72   144 0001:00009e7e
   145 0001:00009e8c   147 0001:00009e92   148 0001:00009e95   150 0001:00009e97
   151 0001:00009ea4   152 0001:00009ea7   153 0001:00009eab   164 0001:00009eae
   162 0001:00009eae   166 0001:00009eb7   167 0001:00009ec9   168 0001:00009ed3
   169 0001:00009eef   170 0001:00009ef2   171 0001:00009ef6   165 0001:00009ef7
   171 0001:00009ef9   246 0001:00009f91   247 0001:00009f9b   248 0001:00009fbc
   238 0001:0000a2f4   240 0001:0000a2f4

Line numbers for .\Release\TWindow.obj(d:\dev\booktwo\disk\tester\tester\twindow.cpp) segment .text

    12 0001:000093b2    16 0001:000093b2    17 0001:000093d4    22 0001:000093d7
    21 0001:000093d7    23 0001:000093e4    24 0001:000093e6    28 0001:000093e9
    27 0001:000093e9    29 0001:000093f4    30 0001:000093f6    33 0001:000093f9
    36 0001:00009409    38 0001:00009413    40 0001:00009421    43 0001:00009423
    44 0001:0000942b    45 0001:00009443    46 0001:00009452    48 0001:00009457
    50 0001:00009464    54 0001:00009474    53 0001:00009474    55 0001:00009482
    58 0001:00009485    61 0001:00009495    63 0001:0000949f    65 0001:000094ad
    68 0001:000094af    69 0001:000094c7    71 0001:000094cb    73 0001:000094d2
    75 0001:000094d4    76 0001:000094e3    78 0001:000094e8    81 0001:000094f5
    88 0001:00009505    85 0001:00009505    90 0001:00009509    92 0001:00009515
    95 0001:00009517    97 0001:0000951a    98 0001:0000952b   100 0001:0000952f
   102 0001:00009536   104 0001:00009538   108 0001:0000953a   111 0001:0000953d
   113 0001:00009544   114 0001:00009555   116 0001:00009559   119 0001:0000955f
   122 0001:00009563   124 0001:0000956a   125 0001:0000957b   127 0001:0000957f
   130 0001:00009585   133 0001:00009589   135 0001:00009590   136 0001:000095a1
   138 0001:000095a5   141 0001:000095ab   144 0001:000095af   146 0001:000095b6
   147 0001:000095c7   149 0001:000095cb   152 0001:000095d1   155 0001:000095d5
   158 0001:000095d6   160 0001:000095e1   162 0001:000095ef   164 0001:000095f1
   165 0001:000095fe   174 0001:00009609   175 0001:0000960d   178 0001:00009610
   181 0001:00009611   183 0001:0000961c   185 0001:0000962a   187 0001:0000962c
   188 0001:00009639   197 0001:00009644   198 0001:00009648   201 0001:0000964b
   204 0001:0000964b   205 0001:0000965e   207 0001:00009662   209 0001:00009668
   211 0001:0000966a   212 0001:0000967f   213 0001:0000968f   215 0001:00009693
   217 0001:0000969c   219 0001:0000969e   220 0001:000096aa   223 0001:000096b9
   224 0001:000096bd   227 0001:000096c0   230 0001:000096c4   232 0001:000096ce
   234 0001:000096dc   237 0001:000096de   238 0001:000096f1   240 0001:000096f5
   242 0001:000096f7   244 0001:000096f9   248 0001:000096fe   249 0001:00009702
   252 0001:00009706   255 0001:00009707   257 0001:00009712   259 0001:00009720
   261 0001:00009722   262 0001:00009730   264 0001:00009734   266 0001:00009736
   268 0001:00009738   272 0001:0000973a   273 0001:0000973e   276 0001:00009741
   279 0001:00009742   281 0001:0000974a   283 0001:00009756   285 0001:00009758
   286 0001:00009769   289 0001:0000976c   292 0001:0000976f   293 0001:0000976f
   301 0001:0000978b   302 0001:0000978d   308 0001:00009790   310 0001:00009793
   311 0001:000097b0   313 0001:000097b4   315 0001:000097c2   316 0001:000097c5
   319 0001:000097c9   323 0001:000097ca   327 0001:000097df   328 0001:000097e4
   329 0001:000097f4   335 0001:000097f8   337 0001:0000980c   340 0001:00009811
   345 0001:0000981a   347 0001:00009824   350 0001:0000982d   352 0001:0000982f
   359 0001:00009831   363 0001:0000983d   365 0001:0000983f   368 0001:00009846
   370 0001:00009848   373 0001:00009851   376 0001:00009854   380 0001:00009855
   384 0001:0000986a   385 0001:0000986f   386 0001:0000987f   388 0001:00009883
   389 0001:0000988d   395 0001:00009892   396 0001:000098a5   399 0001:000098aa
   403 0001:000098b3   404 0001:000098bd   407 0001:000098c6   409 0001:000098c8
   416 0001:000098ca   419 0001:000098d1   421 0001:000098d3   424 0001:000098df
   431 0001:000098e1   434 0001:000098ea   439 0001:000098ed   442 0001:000098f8
   444 0001:0000990e   445 0001:00009919   446 0001:0000992c   447 0001:0000993d
   449 0001:00009944   451 0001:0000995d   452 0001:0000996b   454 0001:0000996f
   456 0001:0000997c   458 0001:0000997e   459 0001:0000998a   462 0001:00009996
   464 0001:00009998   465 0001:0000999e   467 0001:000099a3   468 0001:000099b4
   470 0001:000099b6   471 0001:000099bc   474 0001:000099c1   479 0001:000099d2
   480 0001:000099d2   481 0001:000099e8   486 0001:000099eb   485 0001:000099eb
   487 0001:000099ff   503 0001:00009a02   504 0001:00009a02   505 0001:00009a16
   518 0001:00009a19   522 0001:00009a1a   523 0001:00009a2b   525 0001:00009a33
   526 0001:00009a36   528 0001:00009a38   529 0001:00009a3c   533 0001:00009a3f
   537 0001:00009a46   542 0001:00009a57   546 0001:00009a5d   548 0001:00009a74
   550 0001:00009a79   552 0001:00009a8e   553 0001:00009a9c   555 0001:00009aa0
   557 0001:00009aab   559 0001:00009aad   560 0001:00009ab9   563 0001:00009ac5
   566 0001:00009ac7   569 0001:00009acc   571 0001:00009ace   572 0001:00009ad4
   575 0001:00009adb   580 0001:00009adf   579 0001:00009adf   581 0001:00009af4
   585 0001:00009af7   584 0001:00009af7   586 0001:00009b08   589 0001:00009b0b
   591 0001:00009b0c   592 0001:00009b1a   593 0001:00009b1e   596 0001:00009b21
   600 0001:00009b30   602 0001:00009b41   605 0001:00009b51   606 0001:00009b63
   608 0001:00009b68   609 0001:00009b76   616 0001:00009b7c   618 0001:00009b8a
   619 0001:00009b92   621 0001:00009b94   624 0001:00009b99

Line numbers for .\Release\TWindow.obj(g:\vsnet\vc7\atlmfc\include\atlcomcli.h) segment .text

   649 0001:00009bab   648 0001:00009bab   652 0001:00009bb1   651 0001:00009bb2
   652 0001:00009bc2

Line numbers for .\Release\TSystem.obj(g:\vsnet\vc7\atlmfc\include\atlcom.h) segment .text

  4462 0001:0000900e  4463 0001:0000900f  4464 0001:00009020  1827 0001:00009023
  1832 0001:00009026  1833 0001:00009039  1832 0001:0000903e  1751 0001:00009062
  1753 0001:00009074  1754 0001:0000907e  1759 0001:00009085  1760 0001:000090b8
  1769 0001:000090bc  1770 0001:000090cd  1771 0001:000090d4  1773 0001:000090dd
  1774 0001:000090e0  1751 0001:000090f1  1753 0001:00009104  1754 0001:0000910d
  1759 0001:00009114  1760 0001:00009155  1769 0001:00009159  1770 0001:00009164
  1771 0001:0000916b  1773 0001:00009174  1774 0001:00009177  2489 0001:00009188
  2491 0001:000091a0  2492 0001:000091ab  2496 0001:000091ae  2497 0001:000091c2
  2502 0001:000091c9  2508 0001:000091d4  2509 0001:000091d4  2510 0001:000091df
  2511 0001:000091e1  2512 0001:000091ec  2513 0001:000091ef  2516 0001:000091f2
  2848 0001:0000920d  2849 0001:00009233  2850 0001:0000923e  2866 0001:00009241
  2867 0001:00009247  2872 0001:0000924e  2878 0001:00009259  2877 0001:00009259
  2879 0001:00009264  2880 0001:00009266  2881 0001:00009271  2882 0001:00009274
  2884 0001:00009277  2886 0001:0000927b  2887 0001:00009285  2891 0001:0000928c
  2893 0001:00009298  2894 0001:0000929f  2899 0001:000092a5  2900 0001:000092a7
  2901 0001:000092ba  2902 0001:000092be

Line numbers for .\Release\TSystem.obj(*d:\dev\booktwo\disk\tester\tester\release\tsystem.inj:5) segment .text

    13 0001:000080cc    21 0001:000080d3    22 0001:000080da    24 0001:000080e4
    25 0001:000080ea    27 0001:000080f5    28 0001:000080fc    30 0001:00008103
    31 0001:0000811a    35 0001:00008124    34 0001:0000812d    36 0001:0000812f
    40 0001:0000813b    43 0001:0000814f    44 0001:00008153    47 0001:0000815d
    48 0001:0000816a    50 0001:00008172    49 0001:00008175    50 0001:0000817a
    52 0001:0000817d    56 0001:00008182    57 0001:00008184    60 0001:00008186
    65 0001:00008193    69 0001:00008195    70 0001:00008197    73 0001:00008199
    78 0001:000081a6    82 0001:000081a8    83 0001:000081aa    86 0001:000081ac
    91 0001:000081b9    95 0001:000081bb    96 0001:000081be    98 0001:000081c0
    99 0001:000081c3   100 0001:000081e0   101 0001:000081e7   103 0001:000081e9
   105 0001:000081f3   106 0001:000081f9   107 0001:000081fc   111 0001:00008217
   113 0001:0000821d   115 0001:00008223   120 0001:00008232   124 0001:00008237
   125 0001:0000823a   127 0001:00008240   128 0001:00008243   132 0001:0000825e
   134 0001:00008260   135 0001:00008266   136 0001:00008269   140 0001:00008284
   142 0001:0000828a   144 0001:00008290   149 0001:0000829f   153 0001:000082a4
   154 0001:000082a6   156 0001:000082ac   157 0001:000082af   161 0001:000082ca
   163 0001:000082d0   165 0001:000082d6   170 0001:000082e4   174 0001:000082e9
   175 0001:000082eb   177 0001:000082f1   178 0001:000082f4   182 0001:0000830f
   184 0001:00008315   186 0001:0000831b   191 0001:00008329   195 0001:0000832e
   196 0001:00008330   198 0001:00008336   199 0001:00008339   203 0001:00008354
   205 0001:0000835a   207 0001:00008360   212 0001:0000836e   216 0001:00008370
   217 0001:00008372   219 0001:00008378   220 0001:0000837b   224 0001:00008396
   226 0001:0000839c   228 0001:000083a2   229 0001:000083b0   231 0001:000083b8
   233 0001:000083bb   237 0001:000083c0   238 0001:000083c2   240 0001:000083c8
   241 0001:000083cb   245 0001:000083e6   247 0001:000083ec   249 0001:000083f2
   254 0001:00008400   258 0001:00008405   259 0001:00008407   261 0001:0000840d
   262 0001:00008410   266 0001:0000842b   268 0001:00008431   269 0001:00008437
   270 0001:00008445   274 0001:0000844a   275 0001:0000844c   277 0001:00008452
   278 0001:00008455   282 0001:00008471   284 0001:00008477   285 0001:0000847d
   286 0001:00008487   290 0001:0000848c   291 0001:0000848f   293 0001:00008495
   294 0001:00008498   298 0001:000084b4   300 0001:000084ba   301 0001:000084c0
   302 0001:000084c3   306 0001:000084dc   308 0001:000084e2   310 0001:000084e8
   315 0001:000084f7   319 0001:000084fc   320 0001:000084ff   322 0001:00008505
   323 0001:00008508   324 0001:00008526   325 0001:00008531   327 0001:00008533
   329 0001:00008538   330 0001:00008541   331 0001:00008544   335 0001:0000855d
   337 0001:00008563   338 0001:0000856c   339 0001:0000856f   343 0001:00008588
   345 0001:0000858e   346 0001:00008594   347 0001:00008597   351 0001:000085b0
   353 0001:000085b6   355 0001:000085bc   360 0001:000085d1   364 0001:000085d6
   365 0001:000085d9   367 0001:000085df   368 0001:000085e2   369 0001:000085ff
   370 0001:0000860a   372 0001:00008610   374 0001:00008615   376 0001:0000861b
   377 0001:0000863f   378 0001:0000864a   380 0001:00008650   382 0001:00008655
   383 0001:0000865e   384 0001:00008661   388 0001:0000867a   390 0001:00008680
   391 0001:00008686   392 0001:00008689   393 0001:000086a7   394 0001:000086b2
   396 0001:000086b5   398 0001:000086ba   400 0001:000086c0   401 0001:000086d5
   403 0001:000086d9   410 0001:000086e6   408 0001:000086e8   411 0001:000086f0
   418 0001:00008734   426 0001:00008738   428 0001:0000874d   429 0001:0000874f
   436 0001:0000876b   431 0001:00008772   439 0001:00008789   440 0001:0000878e
   471 0001:00008792   472 0001:0000879d   473 0001:000087a4   475 0001:000087ab
   477 0001:000087b4   478 0001:000087c8   479 0001:000087de   481 0001:000087ed
   482 0001:000087ed   483 0001:000087f4   485 0001:000087fc   486 0001:0000880b
   583 0001:0000880e   584 0001:00008814   586 0001:00008821   588 0001:00008834
   589 0001:00008846   590 0001:00008872   617 0001:00008876   623 0001:00008877
   625 0001:00008879   628 0001:00008894   629 0001:00008896   626 0001:00008899

Line numbers for .\Release\TSystem.obj(d:\dev\booktwo\disk\tester\tester\tsystem.cpp) segment .text

    11 0001:0000889d    10 0001:0000889d    12 0001:000088ab    15 0001:000088ae
    18 0001:000088b1    19 0001:000088b9    21 0001:000088c9    23 0001:000088e2
    24 0001:000088f1    26 0001:000088f5    28 0001:000088fe    30 0001:00008900
    31 0001:0000890c    34 0001:0000892a    36 0001:0000892c    39 0001:00008934
    43 0001:00008937    42 0001:00008937    44 0001:00008945    54 0001:00008948
    56 0001:00008956    58 0001:00008962    59 0001:00008974    61 0001:00008979
    62 0001:00008987    69 0001:0000898d    71 0001:000089ab    72 0001:000089b3
    77 0001:000089c5    78 0001:000089c5    79 0001:000089db    84 0001:000089de
    87 0001:000089eb    88 0001:000089f6    89 0001:00008a09    90 0001:00008a15
    92 0001:00008a1c    94 0001:00008a35    95 0001:00008a43    97 0001:00008a47
    99 0001:00008a52   101 0001:00008a54   102 0001:00008a60   105 0001:00008a7e
   107 0001:00008a80   110 0001:00008a86   111 0001:00008a96   114 0001:00008aa8
   115 0001:00008aa8   116 0001:00008aba   121 0001:00008abd   120 0001:00008abd
   122 0001:00008ad1   126 0001:00008ad4   127 0001:00008ad4   128 0001:00008ae6
   133 0001:00008ae9   132 0001:00008ae9   134 0001:00008afd   137 0001:00008b00
   139 0001:00008b07   141 0001:00008b12   146 0001:00008b1d   147 0001:00008b29
   158 0001:00008b38   159 0001:00008b50   163 0001:00008b55   164 0001:00008b64
   167 0001:00008b69   169 0001:00008b6b   170 0001:00008b6e   172 0001:00008b73
   173 0001:00008b7d   175 0001:00008b7f   177 0001:00008b9d   178 0001:00008ba1
   183 0001:00008ba5   181 0001:00008ba5   184 0001:00008bc3   188 0001:00008bc6
   187 0001:00008bc6   189 0001:00008bd0   190 0001:00008bd2   195 0001:00008bd5
   198 0001:00008bd7   199 0001:00008be1   201 0001:00008be7   208 0001:00008bf3
   209 0001:00008bfb   203 0001:00008bff   204 0001:00008c07   212 0001:00008c27
   219 0001:00008c2a   222 0001:00008c2e   223 0001:00008c39   225 0001:00008c3f
   232 0001:00008c49   233 0001:00008c4d   235 0001:00008c53   242 0001:00008c5d
   243 0001:00008c64   227 0001:00008c68   228 0001:00008c70   247 0001:00008c8e
   257 0001:00008c92   261 0001:00008ca2   262 0001:00008cbb   265 0001:00008cc4
   268 0001:00008ce2   269 0001:00008ce4   271 0001:00008ce6   272 0001:00008ce9
   279 0001:00008cf7   284 0001:00008d0f   285 0001:00008d2b   286 0001:00008d38
   290 0001:00008d42   291 0001:00008d48   292 0001:00008d64   299 0001:00008d6b
   300 0001:00008d7a   306 0001:00008d88   307 0001:00008d94   310 0001:00008da9
   314 0001:00008dc1   316 0001:00008dd3   317 0001:00008de9   323 0001:00008df2
   327 0001:00008e03   328 0001:00008e21   331 0001:00008e45   335 0001:00008e55
   337 0001:00008e5f   340 0001:00008e70   342 0001:00008e72   344 0001:00008e8f
   347 0001:00008e9e   352 0001:00008eaa   356 0001:00008eb5   357 0001:00008ebe
   361 0001:00008ec7   362 0001:00008ee5   368 0001:00008ef3   371 0001:00008f06
   373 0001:00008f1b   377 0001:00008f20   379 0001:00008f2c   383 0001:00008f31
   384 0001:00008f3d   387 0001:00008f41   389 0001:00008f47   392 0001:00008f49
   395 0001:00008f5a   397 0001:00008f5c   404 0001:00008f79   406 0001:00008f86
   408 0001:00008f88   411 0001:00008f99   413 0001:00008f9b   415 0001:00008fb8
   416 0001:00008fc1   418 0001:00008fc9   420 0001:00008fd0   422 0001:00008fd2
   424 0001:00008fd8   425 0001:00008ff3

Line numbers for .\Release\TSystem.obj(g:\vsnet\vc7\atlmfc\include\atlsimpcoll.h) segment .text

   100 0001:00009043   101 0001:00009043   174 0001:00009048   173 0001:00009048
   178 0001:0000904e   179 0001:00009055   181 0001:00009059   182 0001:0000905d
   183 0001:00009061

Line numbers for .\Release\TSystem.obj(g:\vsnet\vc7\atlmfc\include\atlcomcli.h) segment .text

   963 0001:00009368   964 0001:0000936d   965 0001:00009378   966 0001:00009391
   960 0001:00009395   959 0001:00009395   961 0001:000093af

Line numbers for .\Release\TNotify.obj(d:\dev\booktwo\disk\tester\tester\tnotify.h) segment .text

    88 0001:0000629f    91 0001:000062b0    92 0001:000062bb

Line numbers for .\Release\TNotify.obj(*d:\dev\booktwo\disk\tester\tester\release\tnotify.inj:5) segment .text

    13 0001:000062bc    21 0001:000062c3    22 0001:000062ca    24 0001:000062d4
    25 0001:000062da    27 0001:000062e4    28 0001:000062ea    32 0001:000062f3
    33 0001:000062fe    34 0001:00006306    35 0001:0000630b    37 0001:0000630e
    38 0001:0000631d    44 0001:00006335    47 0001:00006344    48 0001:00006352
    52 0001:0000635e   107 0001:0000636a    39 0001:00006374    40 0001:0000637b
    42 0001:0000637d   100 0001:00006387   101 0001:00006389   103 0001:0000638b
   104 0001:0000639d    92 0001:000063a2    93 0001:000063a4    95 0001:000063a6
    96 0001:000063b8    55 0001:000063bd    56 0001:000063c4    58 0001:000063ce
    59 0001:000063d1    60 0001:000063ec    61 0001:000063f3    63 0001:000063f9
    65 0001:000063fb    66 0001:00006401    67 0001:00006404    68 0001:0000641f
    69 0001:00006426    71 0001:0000642c    73 0001:0000642e    74 0001:00006434
    75 0001:00006437    76 0001:00006452    77 0001:00006459    79 0001:0000645c
    81 0001:00006463    83 0001:00006469    84 0001:00006482    86 0001:00006489
   110 0001:00006499   117 0001:0000649d   125 0001:000064a1   127 0001:000064b6
   128 0001:000064b8   135 0001:000064d4   130 0001:000064db   138 0001:000064f2
   139 0001:000064f7   141 0001:000064fb   142 0001:00006511   143 0001:0000651a
   147 0001:00006525   148 0001:00006540   151 0001:00006550   158 0001:0000655f
   159 0001:00006565   160 0001:00006579   161 0001:00006583   162 0001:00006589
   163 0001:000065a3   164 0001:000065ad   166 0001:000065bb   167 0001:000065cf
   149 0001:000065f5   168 0001:000065fb   170 0001:00006612   171 0001:0000661d
   172 0001:00006624   174 0001:0000662b   176 0001:00006634   177 0001:00006648
   178 0001:0000665e   181 0001:0000666d   180 0001:0000666d   182 0001:00006674
   184 0001:0000667c   185 0001:0000668b   188 0001:0000668e   190 0001:00006694
   193 0001:000066a0   195 0001:000066ae   196 0001:000066c4   198 0001:000066ca
   200 0001:000066dc   201 0001:000066f2   205 0001:000066f6   206 0001:000066f9
   208 0001:000066fd   210 0001:000066ff   212 0001:00006705   215 0001:00006711
   217 0001:00006725   218 0001:0000673e   220 0001:00006744   222 0001:0000674e
   223 0001:00006751   225 0001:00006762   226 0001:00006785   230 0001:00006789
   231 0001:0000678d   233 0001:00006791

Line numbers for .\Release\TNotify.obj(*d:\dev\booktwo\disk\tester\tester\release\tnotify.inj:7) segment .text

     5 0001:00006795     4 0001:00006795     9 0001:000067a5   106 0001:000067d0
   107 0001:000067d6   109 0001:000067e3   111 0001:000067f6   112 0001:00006808
   113 0001:00006834   142 0001:00006838   148 0001:00006839   150 0001:0000683b
   153 0001:00006856   154 0001:00006858   151 0001:0000685b

Line numbers for .\Release\TNotify.obj(d:\dev\booktwo\disk\tester\tester\tnotify.cpp) segment .text

    16 0001:0000685f    17 0001:00006864    20 0001:00006868    22 0001:0000686c
    24 0001:00006871    25 0001:00006884    27 0001:0000688c    29 0001:0000688f
    31 0001:00006891    45 0001:00006896    47 0001:0000689f    48 0001:000068a2
    36 0001:000068a6    39 0001:000068c4    41 0001:000068c8    43 0001:000068cf
    52 0001:000068d1    51 0001:000068d1    53 0001:000068d9    54 0001:000068db
    57 0001:000068de    58 0001:000068df    59 0001:000068ec    60 0001:000068f2
    61 0001:000068f5    74 0001:000068f8    75 0001:000068fd    77 0001:00006911
    78 0001:00006920    79 0001:00006929    81 0001:00006934    86 0001:00006939
    88 0001:00006946    91 0001:0000694d    95 0001:00006953    99 0001:00006960
   101 0001:00006978   102 0001:00006986   104 0001:0000698a   105 0001:00006994
   107 0001:0000699e   109 0001:000069a0   114 0001:000069c1   121 0001:000069c5
   124 0001:000069d6   126 0001:000069e5   127 0001:000069f6   131 0001:000069fb
   132 0001:00006a01   135 0001:00006a0f   140 0001:00006a18   141 0001:00006a29
   143 0001:00006a32   144 0001:00006a38   145 0001:00006a3f   150 0001:00006a42
   151 0001:00006a4b   154 0001:00006a5c   153 0001:00006a5c   156 0001:00006a66
   162 0001:00006a75   164 0001:00006a7e   165 0001:00006a8c   167 0001:00006a93
   170 0001:00006a94   171 0001:00006a97   174 0001:00006a9b   176 0001:00006aac
    66 0001:0000b06b

Line numbers for .\Release\TNotify.obj(g:\vsnet\vc7\atlmfc\include\atlsimpcoll.h) segment .text

   140 0001:00006dbe   139 0001:00006dbe   143 0001:00006dc9   144 0001:00006dd5
   145 0001:00006de3   147 0001:00006de9   148 0001:00006dec   150 0001:00006dee
   151 0001:00006dfc   152 0001:00006dff   153 0001:00006e03   155 0001:00006e06
   156 0001:00006e07   157 0001:00006e14   158 0001:00006e19   159 0001:00006e1d
   160 0001:00006e25   164 0001:00006e28   162 0001:00006e28   167 0001:00006e33
   168 0001:00006e3a   169 0001:00006e57   170 0001:00006e5a   171 0001:00006e5d
   165 0001:00006e5e   171 0001:00006e60   209 0001:00006e61   208 0001:00006e61
   211 0001:00006e73   214 0001:00006e7f   215 0001:00006e83   247 0001:00006e86
   246 0001:00006e86   248 0001:00006e97

Line numbers for .\Release\TNotify.obj(g:\vsnet\vc7\atlmfc\include\atlcomcli.h) segment .text

    46 0001:00007e65    45 0001:00007e65    47 0001:00007e69    55 0001:00007e6b
    49 0001:00007e6c    50 0001:00007e70    51 0001:00007e76    52 0001:00007e7c
    53 0001:00007e82    54 0001:00007e84    55 0001:00007e86

Line numbers for .\Release\TNotify.obj(g:\vsnet\vc7\atlmfc\include\atlalloc.h) segment .text

   376 0001:00007fc4   375 0001:00007fc4   377 0001:00007fce   385 0001:00007fd3
   381 0001:00007fd4   382 0001:00007fd8   384 0001:00007fda   385 0001:00007fdd
   331 0001:00007fde   332 0001:00007fea   334 0001:00007fec   336 0001:00007ff0
   341 0001:0000800a   343 0001:00008021   344 0001:00008023   346 0001:0000802d
   347 0001:0000802f

Line numbers for .\Release\TNotify.obj(g:\vsnet\vc7\atlmfc\include\atlcom.h) segment .text

  5570 0001:00006aad  5571 0001:00006aba  5572 0001:00006ac9  5575 0001:00006ad3
  5576 0001:00006b04  5577 0001:00006b09  5580 0001:00006b13  5583 0001:00006b1d
  5584 0001:00006b27  5585 0001:00006b60  5592 0001:00006b6e  5591 0001:00006b75
  5594 0001:00006b78  5597 0001:00006b7d  5598 0001:00006b80  5599 0001:00006b87
  5601 0001:00006b89  5602 0001:00006b97  5608 0001:00006ba1  5609 0001:00006bb3
  5612 0001:00006bb9  5614 0001:00006bbb  5615 0001:00006bca  5616 0001:00006bce
  5617 0001:00006bd7  5618 0001:00006be1  5620 0001:00006bf5  5621 0001:00006c01
  5622 0001:00006c0b  5623 0001:00006c12  5625 0001:00006c16  5627 0001:00006c26
  5629 0001:00006c2e  5632 0001:00006c33  5633 0001:00006c36  5634 0001:00006c3d
  5637 0001:00006c3f  5639 0001:00006c45  5646 0001:00006c62  5627 0001:00006c65
  5639 0001:00006c6c  5641 0001:00006c6e  5642 0001:00006c70  5643 0001:00006c76
  5648 0001:00006c7b  5649 0001:00006c7f  5421 0001:00006c8c  5425 0001:00006c8d
  5426 0001:00006c95  5429 0001:00006c9c  5439 0001:00006cbe  5431 0001:00006cc5
  5432 0001:00006ccb  5436 0001:00006cd1  5440 0001:00006cd4  5443 0001:00006cd7
  5444 0001:00006cd8  5445 0001:00006ce0  5446 0001:00006ce8  5447 0001:00006cf1
  5448 0001:00006cf5  5451 0001:00006cf8  5450 0001:00006cf8  5453 0001:00006cfc
  5454 0001:00006d13  5443 0001:00006d16  5444 0001:00006d17  5445 0001:00006d1f
  5446 0001:00006d27  5447 0001:00006d30  5448 0001:00006d34  5451 0001:00006d37
  5450 0001:00006d37  5453 0001:00006d3b  5454 0001:00006d52  4485 0001:00006d55
  4486 0001:00006d56  4487 0001:00006d67  4489 0001:00006d6a  4490 0001:00006d6b
  4491 0001:00006d73  4493 0001:00006d7a  4495 0001:00006d82  4496 0001:00006d87
  4498 0001:00006d8b  4499 0001:00006d90  4500 0001:00006d9b  1827 0001:00006d9e
  1832 0001:00006da1  1833 0001:00006db4  1832 0001:00006db9  2489 0001:00006e9a
  2491 0001:00006ea7  2492 0001:00006eb2  2496 0001:00006eb5  2497 0001:00006ebe
  2502 0001:00006ec5  2503 0001:00006ed0  2508 0001:00006ed8  2509 0001:00006ed8
  2510 0001:00006ee3  2511 0001:00006ee5  2512 0001:00006ef0  2513 0001:00006ef3
  2516 0001:00006ef6  1751 0001:00006f11  1753 0001:00006f23  1754 0001:00006f2d
  1759 0001:00006f34  1760 0001:00006f67  1769 0001:00006f6b  1770 0001:00006f7c
  1771 0001:00006f83  1773 0001:00006f8c  1774 0001:00006f8f  1751 0001:00006fa0
  1753 0001:00006fb2  1754 0001:00006fbc  1759 0001:00006fc3  1760 0001:00006fff
  1769 0001:00007003  1770 0001:0000700e  1771 0001:00007015  1773 0001:0000701e
  1774 0001:00007021  2489 0001:00007068  2491 0001:00007098  2492 0001:000070a3
  2496 0001:000070a6  2498 0001:000070a9  2502 0001:000070e8  2503 0001:000070f3
  2506 0001:000070fb  2508 0001:00007108  2509 0001:00007108  2510 0001:00007113
  2511 0001:00007115  2512 0001:00007120  2513 0001:00007123  2516 0001:00007126
  2848 0001:00007141  2849 0001:00007169  2850 0001:00007174  2866 0001:00007186
  2868 0001:0000719f  2872 0001:000071b8  2873 0001:000071c3  2875 0001:000071da
  2884 0001:000071e7  2886 0001:000071eb  2887 0001:000071f5  2891 0001:000071fc
  2893 0001:00007208  2894 0001:0000720f  2899 0001:00007215  2900 0001:00007217
  2901 0001:0000722a  2902 0001:0000722e  2813 0001:00007232  2814 0001:00007242
  2816 0001:00007252  2817 0001:00007252  2818 0001:00007266  2804 0001:000072ed
  5476 0001:00007329  5480 0001:00007336  5481 0001:00007340  5482 0001:00007343
  5485 0001:0000734f  5486 0001:0000735c  5487 0001:0000736b  5490 0001:0000736f
  5491 0001:0000737c  5493 0001:0000738c  5494 0001:0000738e  5496 0001:00007397
  5497 0001:000073a1  5498 0001:000073a6  5499 0001:000073ab  5500 0001:000073ae
  5483 0001:000073b2  5501 0001:000073b7  5505 0001:000073c5  5508 0001:000073c7
  5509 0001:000073ec  5511 0001:00007407  5512 0001:0000740d  5513 0001:00007414
  5514 0001:00007418  5463 0001:0000741b  5464 0001:0000742b  5465 0001:0000743b
  5467 0001:00007451  5468 0001:00007457  5469 0001:0000745d  5470 0001:00007460
  5471 0001:00007462  5519 0001:00007481  5520 0001:0000748e  5521 0001:0000749d
  5524 0001:000074a7  5525 0001:000074c9  5526 0001:000074cd  5530 0001:000074cf
  5524 0001:000074eb  5530 0001:000074f6  5531 0001:00007514  5533 0001:0000751f
  5535 0001:00007529  5530 0001:00007533  5539 0001:00007539  5541 0001:0000755f
  5543 0001:00007565  5544 0001:0000756b  5545 0001:0000756f  5546 0001:0000757b
  5539 0001:0000757e  5550 0001:00007583  5552 0001:00007594  5553 0001:000075a9
  5554 0001:000075ad  5555 0001:000075b6  5556 0001:000075b8  4667 0001:000075c9
  4668 0001:000075de  4670 0001:000075e5  4671 0001:000075ea  4670 0001:000075f6
  4672 0001:000075fe  4674 0001:00007608  4679 0001:00007626  4680 0001:0000762b
  4681 0001:00007634  4682 0001:00007636  4683 0001:0000763d  4684 0001:00007644
  4686 0001:00007655  4689 0001:0000766b  4690 0001:00007674  4691 0001:00007678
  4692 0001:0000767b  4693 0001:0000767f  4694 0001:00007683  4696 0001:00007685
  4695 0001:0000768c  4698 0001:0000768e  4708 0001:0000769f  4710 0001:000076a9
  4687 0001:000076ae  4685 0001:000076b5  4711 0001:000076bd  4715 0001:000076c1
  4716 0001:000076c2  4717 0001:000076ca  4719 0001:000076d1  4720 0001:000076e0
  4721 0001:000076e6  4722 0001:000076ec  4723 0001:000076f6  4727 0001:000076f9
  4730 0001:00007705  4748 0001:0000770a  4738 0001:00007753  4739 0001:00007782
  4741 0001:00007786  4742 0001:00007789  4744 0001:000077a1  4745 0001:000077a5
  4749 0001:000077b3  4754 0001:000077c5  4755 0001:000077d0  4758 0001:000077e2
  4759 0001:0000780d  4760 0001:00007810  4761 0001:00007817  4762 0001:0000781e
  4765 0001:00007825  4775 0001:00007836  4777 0001:00007841  4779 0001:00007850
  4781 0001:00007852  4782 0001:00007858  4784 0001:0000785b  4785 0001:00007866
  4786 0001:0000786c  4787 0001:00007872  4788 0001:00007874  2489 0001:00007885
  2491 0001:00007892  2492 0001:0000789d  2496 0001:000078a0  2497 0001:000078a9
  2502 0001:000078b0  2503 0001:000078bb  2506 0001:000078c3  2516 0001:000078d0
  4648 0001:000078eb  4667 0001:0000791b  4668 0001:00007930  4670 0001:00007937
  4671 0001:0000793c  4670 0001:00007948  4672 0001:00007950  4674 0001:0000795a
  4679 0001:00007978  4680 0001:0000797b  4681 0001:00007984  4682 0001:00007988
  4683 0001:0000798f  4684 0001:00007999  4686 0001:000079b2  4689 0001:000079c8
  4690 0001:000079d1  4691 0001:000079d5  4692 0001:000079d8  4693 0001:000079dc
  4694 0001:000079e0  4695 0001:000079e2  4698 0001:000079e7  4699 0001:000079f2
  4707 0001:000079f9  4708 0001:000079fc  4696 0001:00007a00  4710 0001:00007a04
  4701 0001:00007a09  4702 0001:00007a0e  4701 0001:00007a1d  4703 0001:00007a21
  4704 0001:00007a28  4705 0001:00007a2b  4687 0001:00007a30  4685 0001:00007a37
  4711 0001:00007a3f  4715 0001:00007a43  4716 0001:00007a44  4717 0001:00007a4c
  4719 0001:00007a53  4720 0001:00007a62  4721 0001:00007a68  4722 0001:00007a6e
  4723 0001:00007a78  4727 0001:00007a7b  4730 0001:00007a87  4748 0001:00007a8c
  4738 0001:00007ad5  4739 0001:00007b04  4741 0001:00007b08  4742 0001:00007b0b
  4744 0001:00007b23  4745 0001:00007b27  4749 0001:00007b35  4754 0001:00007b47
  4755 0001:00007b52  4758 0001:00007b68  4759 0001:00007b93  4760 0001:00007b96
  4761 0001:00007b9d  4762 0001:00007ba7  4765 0001:00007bae  4766 0001:00007bb8
  4775 0001:00007bbf  4777 0001:00007bca  4779 0001:00007bd9  4768 0001:00007bdb
  4770 0001:00007be0  4769 0001:00007bef  4771 0001:00007bf4  4772 0001:00007bfc
  4773 0001:00007c07  4781 0001:00007c0d  4782 0001:00007c13  4784 0001:00007c16
  4785 0001:00007c21  4786 0001:00007c27  4787 0001:00007c2d  4788 0001:00007c2f
  2528 0001:00007c40  2530 0001:00007c53  2531 0001:00007c5c  2536 0001:00007c63
  2537 0001:00007c97  2543 0001:00007c9b  2551 0001:00007c9f  2552 0001:00007ca1
  2553 0001:00007ca4  2528 0001:00007cb5  2530 0001:00007cc8  2531 0001:00007cd1
  2536 0001:00007cd8  2537 0001:00007d0c  2543 0001:00007d10  2551 0001:00007d14
  2552 0001:00007d16  2553 0001:00007d19  4597 0001:00007e4c  4596 0001:00007e4c
  4598 0001:00007e56  4599 0001:00007e5c  4600 0001:00007e62  4601 0001:00007e64
  5268 0001:00007e87  5266 0001:00007e87  5273 0001:00007e94  5275 0001:00007eb6
  5277 0001:00007eba  5276 0001:00007ec0  5280 0001:00007ec4  5281 0001:00007ec9
  5376 0001:00007eca  5380 0001:00007ecb  5382 0001:00007ed8  5384 0001:00007edd
  5385 0001:00007edf  5386 0001:00007ee1  5389 0001:00007ee4  5392 0001:00007ee6
  5393 0001:00007eee  5394 0001:00007ef0  5396 0001:00007ef2  5400 0001:00007ef6
  5399 0001:00007ef7  5400 0001:00007efa  5302 0001:00007efb  5304 0001:00007efb
  5305 0001:00007f06  5309 0001:00007f10  5307 0001:00007f11  5309 0001:00007f13
  5330 0001:00007f14  5333 0001:00007f14  5336 0001:00007f1b  5373 0001:00007f21
  5339 0001:00007f22  5342 0001:00007f28  5343 0001:00007f32  5344 0001:00007f37
  5373 0001:00007f3a  5345 0001:00007f3b  5346 0001:00007f45  5347 0001:00007f4c
  5348 0001:00007f4e  5352 0001:00007f55  5354 0001:00007f77  5359 0001:00007f7c
  5356 0001:00007f82  5373 0001:00007f85  5363 0001:00007f86  5364 0001:00007f89
  5365 0001:00007f97  5366 0001:00007f9b  5368 0001:00007f9d  5369 0001:00007fb0
  5370 0001:00007fb8  5371 0001:00007fbe  5373 0001:00007fc3  5258 0001:00008038
  5257 0001:00008038  5259 0001:0000803e  5260 0001:00008047

Line numbers for .\Release\TNotify.obj(g:\vsnet\vc7\atlmfc\include\atlevent.h) segment .text

   170 0001:00008048   171 0001:0000804e   172 0001:00008057   175 0001:00008060
   177 0001:00008070   178 0001:0000809a   179 0001:0000809e   180 0001:000080a2
   182 0001:000080b3   183 0001:000080be   186 0001:000080c7   187 0001:000080ca

Line numbers for .\Release\TInput.obj(d:\dev\booktwo\disk\tester\tester\tinput.h) segment .text

    72 0001:000058ce    69 0001:000058ce    73 0001:000058e6

Line numbers for .\Release\TInput.obj(g:\vsnet\vc7\atlmfc\include\atlcomcli.h) segment .text

   573 0001:00006275   571 0001:00006275   574 0001:0000627c   581 0001:0000627f

Line numbers for .\Release\TInput.obj(*d:\dev\booktwo\disk\tester\tester\release\tinput.inj:1) segment .text

    13 0001:000058e9    21 0001:000058f0    22 0001:000058f7    24 0001:00005902
    25 0001:0000590a    27 0001:00005915    28 0001:0000591c    32 0001:00005923
    31 0001:0000592c    33 0001:0000592e    37 0001:0000593a   164 0001:0000595b
   149 0001:00005965   150 0001:00005969   152 0001:00005973   153 0001:00005976
   154 0001:00005993   155 0001:0000599a   157 0001:0000599d   159 0001:000059a7
   160 0001:000059ad   161 0001:000059b7    40 0001:000059bc    41 0001:000059c1
    42 0001:000059c3    45 0001:000059c5    46 0001:000059d2    48 0001:000059da
    50 0001:000059e7    53 0001:000059ec    54 0001:000059f1    55 0001:000059f3
    57 0001:000059f9    58 0001:000059fc    62 0001:00005a17    64 0001:00005a1d
    65 0001:00005a24    66 0001:00005a2e    71 0001:00005a33    72 0001:00005a38
    73 0001:00005a3a    76 0001:00005a40    81 0001:00005a4d    84 0001:00005a4f
    85 0001:00005a54    86 0001:00005a56    88 0001:00005a5c    89 0001:00005a5f
    93 0001:00005a7a    95 0001:00005a80    96 0001:00005a87    97 0001:00005a91
   102 0001:00005a96   103 0001:00005a9b   104 0001:00005a9d   107 0001:00005aa3
   112 0001:00005ab0   115 0001:00005ab5   116 0001:00005aba   117 0001:00005abc
   119 0001:00005ac2   120 0001:00005ac5   124 0001:00005ae0   126 0001:00005ae6
   127 0001:00005aed   128 0001:00005af7   133 0001:00005af9   134 0001:00005afb
   136 0001:00005b01   137 0001:00005b04   141 0001:00005b1f   143 0001:00005b25
   144 0001:00005b2b   167 0001:00005b38   174 0001:00005b3c   182 0001:00005b40
   184 0001:00005b55   185 0001:00005b57   192 0001:00005b73   187 0001:00005b7a
   195 0001:00005b91   196 0001:00005b96   227 0001:00005b9a   228 0001:00005ba5
   229 0001:00005bac   231 0001:00005bb3   233 0001:00005bbc   234 0001:00005bd0
   235 0001:00005be6   237 0001:00005bf5   238 0001:00005bf5   239 0001:00005bfc
   241 0001:00005c04   242 0001:00005c13   339 0001:00005c16   340 0001:00005c1c
   342 0001:00005c29   344 0001:00005c3c   345 0001:00005c4e   346 0001:00005c7a
   373 0001:00005c7e   379 0001:00005c7f   381 0001:00005c81   384 0001:00005c9c
   385 0001:00005c9e   382 0001:00005ca1

Line numbers for .\Release\TInput.obj(d:\dev\booktwo\disk\tester\tester\tinput.cpp) segment .text

    14 0001:00005ca5    15 0001:00005ca5    17 0001:00005cad    20 0001:00005cb4
    28 0001:00005cc4    29 0001:00005cc6    32 0001:00005cc9    33 0001:00005cc9
    41 0001:00005cd9    42 0001:00005cdb    47 0001:00005cde    46 0001:00005cde
    49 0001:00005ce6    51 0001:00005ced    52 0001:00005cf1    53 0001:00005cf3
    57 0001:00005cf6    58 0001:00005cf6    63 0001:00005cfe    65 0001:00005d17
    66 0001:00005d19    81 0001:00005d1c    82 0001:00005d1c    87 0001:00005d24
    89 0001:00005d3d    90 0001:00005d3f    93 0001:00005d42    95 0001:00005d48
    98 0001:00005d55    99 0001:00005d64   101 0001:00005d68   102 0001:00005d6a
   114 0001:00005d77   115 0001:00005d79   111 0001:00005d7b   112 0001:00005d7d
   108 0001:00005d7f   109 0001:00005d81   105 0001:00005d83   120 0001:00005d86
   122 0001:00005d93   123 0001:00005da0   127 0001:00005da4   126 0001:00005da4
   128 0001:00005db2

Line numbers for .\Release\TInput.obj(g:\vsnet\vc7\atlmfc\include\atlcom.h) segment .text

  3412 0001:00005db5  4462 0001:00005db8  4463 0001:00005db9  4464 0001:00005dca
  1827 0001:00005dcd  1832 0001:00005dd0  1833 0001:00005de3  1832 0001:00005de8
  3427 0001:00005ded  3426 0001:00005ded  3428 0001:00005e07  1751 0001:00005e0a
  1753 0001:00005e1c  1754 0001:00005e26  1759 0001:00005e2d  1760 0001:00005e60
  1769 0001:00005e64  1770 0001:00005e75  1771 0001:00005e7c  1773 0001:00005e85
  1774 0001:00005e88  1751 0001:00005e99  1753 0001:00005eac  1754 0001:00005eb5
  1759 0001:00005ebc  1760 0001:00005efd  1769 0001:00005f01  1770 0001:00005f0c
  1771 0001:00005f13  1773 0001:00005f1c  1774 0001:00005f1f  2489 0001:00005f30
  2491 0001:00005f48  2492 0001:00005f53  2496 0001:00005f56  2497 0001:00005f6a
  2502 0001:00005f71  2506 0001:00005f7c  2509 0001:00005f89  2508 0001:00005f89
  2510 0001:00005f94  2511 0001:00005f96  2512 0001:00005fa1  2513 0001:00005fa4
  2516 0001:00005fa7  2848 0001:00005fc2  2849 0001:00005fe8  2850 0001:00005ff3
  2866 0001:00005ff6  2867 0001:00005ffc  2872 0001:00006003  2884 0001:0000600e
  2886 0001:00006012  2887 0001:0000601c  2891 0001:00006023  2893 0001:0000602f
  2894 0001:00006036  2899 0001:0000603c  2900 0001:0000603e  2901 0001:00006051
  2902 0001:00006055  2813 0001:00006059    75 0001:000060d3    76 0001:000060d6
    77 0001:000060ef  5712 0001:000060f3  5713 0001:00006109  5717 0001:00006111
  5721 0001:00006126  5724 0001:00006143  5731 0001:00006155  5732 0001:00006160
  5735 0001:00006169  5736 0001:00006174  5738 0001:00006189  5739 0001:00006191
  5741 0001:000061a0  5742 0001:000061b0  5743 0001:000061b8  5744 0001:000061ca
  5746 0001:000061d4  5747 0001:000061e3  5749 0001:000061f2  5750 0001:000061fe
  5751 0001:0000620b  5752 0001:00006223  5753 0001:0000622d  5754 0001:00006235
  5755 0001:00006257

Line numbers for .\Release\Tester.obj(g:\vsnet\vc7\atlmfc\include\atlbase.inl) segment .text

   116 0001:000041f9   118 0001:00004202   119 0001:00004208   120 0001:00004212
   121 0001:00004216   123 0001:00004220   124 0001:00004227   125 0001:00004233
   129 0001:00004235   131 0001:0000423d   134 0001:00004243   129 0001:00004257
   134 0001:0000425f   136 0001:00004261   138 0001:00004269   139 0001:0000426c
   146 0001:0000427a   147 0001:00004283   148 0001:00004292   149 0001:0000429a
   150 0001:0000429f   156 0001:000042af   157 0001:000042bd   158 0001:000042c4
   159 0001:000042ca   407 0001:00004306   406 0001:00004306   408 0001:0000430a
   410 0001:0000431a   412 0001:0000431d   414 0001:00004322   415 0001:00004327
   416 0001:0000432a   417 0001:00004333   419 0001:00004338   420 0001:0000433d

Line numbers for .\Release\Tester.obj(g:\vsnet\vc7\atlmfc\include\atlalloc.h) segment .text

   313 0001:0000572a   312 0001:0000572a   314 0001:00005733   278 0001:00005734
   276 0001:00005734   280 0001:0000573e   282 0001:00005748   284 0001:0000574a
   287 0001:0000574f   288 0001:00005751   293 0001:00005754   292 0001:00005754
   294 0001:0000575e   296 0001:00005763   298 0001:0000576d   299 0001:00005773

Line numbers for .\Release\Tester.obj(*d:\dev\booktwo\disk\tester\tester\release\tester.inj:9) segment .text

    21 0001:00003969    22 0001:00003969    26 0001:00003973    27 0001:00003973
    28 0001:00003987    31 0001:00003988    32 0001:00003988    33 0001:0000399c
    36 0001:0000399d    37 0001:0000399d    38 0001:000039b0    43 0001:000039b1
    41 0001:000039b1    44 0001:000039c5    11 0001:000039c8    17 0001:0000b053

Line numbers for .\Release\Tester.obj(g:\vsnet\vc7\atlmfc\include\atlcomcli.h) segment .text

   248 0001:00003e45   250 0001:00003e48

Line numbers for .\Release\Tester.obj(g:\vsnet\vc7\atlmfc\include\atlbase.h) segment .text

  2949 0001:00003a2c  2951 0001:00003a36  2952 0001:00003a42  2955 0001:00003a4a
  2956 0001:00003a4b  2957 0001:00003a57  2936 0001:00003a64  2937 0001:00003a64
  2938 0001:00003a78  2863 0001:00003a80  2866 0001:00003a8b  2881 0001:00003aa2
  2873 0001:00003aa2  2888 0001:00003ab4  2889 0001:00003ac2  2894 0001:00003acb
  2905 0001:00003ace  2897 0001:00003ace  2906 0001:00003ad7  2912 0001:00003ad9
  2913 0001:00003ade  2919 0001:00003af1  2682 0001:00003af4  2685 0001:00003af5
  2686 0001:00003afd  2688 0001:00003b06  2689 0001:00003b08  2692 0001:00003b0f
  2695 0001:00003b25  2698 0001:00003b29  2699 0001:00003b2d  2701 0001:00003b35
  2702 0001:00003b3a  2672 0001:00003b3d  2673 0001:00003b3d  2674 0001:00003b40
  2667 0001:00003b41  2668 0001:00003b41  2669 0001:00003b4b  2663 0001:00003b4c
  2662 0001:00003b4c  2664 0001:00003b56  6066 0001:00003b57  6068 0001:00003b5b
  6069 0001:00003b5f  6071 0001:00003b66  6073 0001:00003b6c  6075 0001:00003b74
  6078 0001:00003b7a  6080 0001:00003b80  6083 0001:00003b90  6084 0001:00003b9e
  6086 0001:00003ba5  6087 0001:00003baa  6073 0001:00003bb1  6091 0001:00003bb9
  6092 0001:00003bc5  6094 0001:00003bd2  6095 0001:00003bd7  6099 0001:00003bdb
  6100 0001:00003bee  6105 0001:00003bfb  6110 0001:00003c05  6117 0001:00003c1a
  6118 0001:00003c34  6131 0001:00003c3c  6168 0001:00003c4d  6171 0001:00003c56
  6172 0001:00003c68  6177 0001:00003c6e  6178 0001:00003c86  6179 0001:00003c9c
  6185 0001:00003caa  6186 0001:00003cca  6188 0001:00003cce  6189 0001:00003ce5
  6190 0001:00003cfc  6192 0001:00003d09  6196 0001:00003d17  6197 0001:00003d29
  6198 0001:00003d39  6199 0001:00003d47  6200 0001:00003d5c  6202 0001:00003d60
  6203 0001:00003d77  6204 0001:00003d8a  6206 0001:00003d93  6209 0001:00003da1
  6210 0001:00003db6  6211 0001:00003dc2  6212 0001:00003dcd  6131 0001:00003ddd
  6134 0001:00003de3  6139 0001:00003dee  6141 0001:00003e0c  6145 0001:00003e0e
  6147 0001:00003e11  6154 0001:00003e19  6156 0001:00003e1c  6158 0001:00003e2a
  6161 0001:00003e2c  6164 0001:00003e2f  6147 0001:00003e40  5980 0001:00003e49
  5981 0001:00003e4e  5982 0001:00003e53  5983 0001:00003e5b  5984 0001:00003e70
  5987 0001:00003e74  5988 0001:00003e83  5990 0001:00003e87  5991 0001:00003ea5
  5994 0001:00003eb3  5995 0001:00003ec7  5913 0001:00003ecb  5915 0001:00003edd
  5918 0001:00003ef6  5919 0001:00003ef9  5921 0001:00003efb  5925 0001:00003f07
  5926 0001:00003f1f  5927 0001:00003f23  5928 0001:00003f2f  5934 0001:00003f3d
  5936 0001:00003f4a  5943 0001:00003f56  5945 0001:00003f5f  5947 0001:00003f72
  5954 0001:00003f83  5955 0001:00003f95  5959 0001:00003f99  5962 0001:00003fbf
  5968 0001:00003fcf  5970 0001:00003fdd  5972 0001:00003fe1  5973 0001:00003fee
  5974 0001:00003ff7  5976 0001:00003ffe  5916 0001:0000400e  5977 0001:00004013
  6028 0001:00004021  6030 0001:00004028  6031 0001:0000402c  6034 0001:00004033
  6036 0001:00004039  6038 0001:00004041  6041 0001:00004047  6043 0001:0000404d
  6046 0001:0000405d  6047 0001:00004062  6050 0001:00004069  6051 0001:00004077
  6036 0001:0000407e  6056 0001:00004086  6057 0001:00004092  6059 0001:0000409f
  6060 0001:000040a5  5998 0001:000040a9  5999 0001:000040bc  6000 0001:000040c7
  6001 0001:000040cf  6002 0001:000040e5  6005 0001:000040ea  6006 0001:000040fc
  6008 0001:00004107  6010 0001:0000410b  6011 0001:00004117  6012 0001:0000411c
  6013 0001:00004131  6015 0001:00004134  6016 0001:00004142  6018 0001:00004154
  6019 0001:00004165  5888 0001:0000417d  5890 0001:0000417d  5891 0001:00004181
  5905 0001:00004183  5895 0001:00004184  5897 0001:00004190  5899 0001:00004197
  5900 0001:000041ac  5895 0001:000041ae  5901 0001:000041b2  5904 0001:000041b6
  5905 0001:000041be  2615 0001:000041bf  2621 0001:000041ca  2623 0001:000041ce
  2625 0001:000041d9  2629 0001:000041eb  2632 0001:000041f2  2633 0001:000041f6
  2636 0001:000042ce  2638 0001:000042d2  2642 0001:000042da  2644 0001:000042e0
  2645 0001:000042e5  2648 0001:000042e9  2649 0001:000042f0  2651 0001:000042f6
  2653 0001:00004300  2654 0001:00004305  2351 0001:0000433e  2352 0001:0000433f
  2354 0001:00004344  2355 0001:0000434a  2352 0001:00004351  2357 0001:0000435a
  5506 0001:0000435d  5507 0001:00004378  5509 0001:00004384  5511 0001:00004388
  5514 0001:0000438a  5515 0001:00004397  5519 0001:000043a0  5520 0001:000043ab
  5528 0001:000043af  5523 0001:000043b6  5525 0001:000043bc  5526 0001:000043c6
  5527 0001:000043da  5528 0001:000043de  5529 0001:000043e8  5540 0001:000043f6
  5543 0001:00004404  5559 0001:00004414  5550 0001:00004419  5551 0001:00004433
  5552 0001:00004440  5553 0001:00004442  5555 0001:00004455  5562 0001:0000446a
  5565 0001:0000446e  5566 0001:00004480  5571 0001:00004484  5572 0001:000044b1
  5573 0001:000044c1  2766 0001:000045ee  2765 0001:000045ee  2768 0001:000045f0
  2769 0001:000045f5  2770 0001:000045fb  2771 0001:00004602  2773 0001:0000460c
  2774 0001:0000460f

Line numbers for .\Release\Tester.obj(g:\vsnet\vc7\atlmfc\include\atlsimpcoll.h) segment .text

   379 0001:00004545   377 0001:00004545   382 0001:0000454e   383 0001:00004553
   276 0001:00004582   277 0001:00004582   443 0001:00004779   442 0001:00004779
   444 0001:0000478c   445 0001:0000479b   363 0001:00004c13   364 0001:00004c14
   365 0001:00004c1f   366 0001:00004c24   367 0001:00004c28   368 0001:00004c32
   394 0001:00004c35   395 0001:00004c36   397 0001:00004c3d   400 0001:00004c59
   401 0001:00004c5d   398 0001:00004c60

Line numbers for .\Release\Tester.obj(g:\vsnet\vc7\atlmfc\include\statreg.h) segment .text

   262 0001:000044ec   260 0001:000044ec   263 0001:000044f1   273 0001:000044f4
   271 0001:000044f4   274 0001:000044f6   512 0001:000044f9   510 0001:000044f9
   515 0001:00004505   126 0001:00004508   127 0001:0000450c   129 0001:00004513
   130 0001:00004524   132 0001:0000453b   133 0001:00004541   134 0001:00004544
    88 0001:00004587    89 0001:00004599    90 0001:000045a0   276 0001:000045b4
   324 0001:00004610   325 0001:0000461c   328 0001:00004629   337 0001:00004632
   339 0001:00004649   326 0001:00004666   340 0001:0000466b    93 0001:0000467a
    95 0001:0000468a   100 0001:000046a1   103 0001:000046b4   105 0001:000046d0
   107 0001:000046dd   109 0001:00004708   113 0001:00004712   114 0001:00004720
   115 0001:0000472c   120 0001:00004743   121 0001:00004752   123 0001:0000475c
    96 0001:00004766   124 0001:00004768   428 0001:0000479e   429 0001:000047ab
   439 0001:000047b5   440 0001:000047d8   344 0001:000047ea   345 0001:00004808
   348 0001:00004816   354 0001:00004828   364 0001:0000482e   366 0001:00004840
   369 0001:0000484a   370 0001:00004851   373 0001:00004856   375 0001:00004865
   382 0001:00004867   385 0001:00004869   387 0001:00004871   391 0001:00004879
   394 0001:0000487b   398 0001:00004885   399 0001:000048b0   401 0001:000048b8
   402 0001:000048bd   406 0001:000048bf   408 0001:000048df   409 0001:000048e4
   416 0001:000048e6   418 0001:000048ec   423 0001:00004906   424 0001:00004912
   425 0001:00004936  1092 0001:00004951  1097 0001:00004973  1098 0001:00004985
  1099 0001:00004987  1104 0001:0000498d  1110 0001:00004997  1113 0001:000049a7
  1120 0001:000049bc  1123 0001:000049cc  1129 0001:000049d7  1132 0001:000049dd
  1133 0001:000049fb  1136 0001:000049ff  1137 0001:00004a02  1149 0001:00004a14
  1151 0001:00004a1d  1143 0001:00004a37  1147 0001:00004a4a  1108 0001:00004a51
  1143 0001:00004a5a  1126 0001:00004a5c  1127 0001:00004a61  1014 0001:00004a63
  1018 0001:00004a79  1021 0001:00004a8f  1022 0001:00004a92  1023 0001:00004a9b
  1024 0001:00004aa8  1025 0001:00004aad  1026 0001:00004abe  1029 0001:00004ac0
  1031 0001:00004acb  1033 0001:00004ad1  1034 0001:00004adc  1036 0001:00004ae2
  1077 0001:00004ae3  1084 0001:00004aef  1077 0001:00004aff  1087 0001:00004b01
  1088 0001:00004b0c  1044 0001:00004b1d  1045 0001:00004b26  1051 0001:00004b2b
  1058 0001:00004b36  1059 0001:00004b43  1060 0001:00004b58  1065 0001:00004b5c
  1067 0001:00004b6a  1068 0001:00004b71  1072 0001:00004b73  1071 0001:00004b7d
  1075 0001:00004b81  1053 0001:00004b86  1054 0001:00004b8d  1062 0001:00004b92
  1063 0001:00004b99  1019 0001:00004b9e  1089 0001:00004ba3   182 0001:00004bbb
   184 0001:00004bbb   185 0001:00004bc0   186 0001:00004bc5   187 0001:00004bc8
   188 0001:00004bcb   189 0001:00004bd4   190 0001:00004bdb   191 0001:00004bdf
   194 0001:00004be2   193 0001:00004be2   195 0001:00004beb   718 0001:00004bec
   719 0001:00004bed   721 0001:00004bef   734 0001:00004bf4   726 0001:00004bf5
   731 0001:00004bfc   726 0001:00004c0b   728 0001:00004c0d   733 0001:00004c0f
   734 0001:00004c12    71 0001:00004c64    70 0001:00004c64    74 0001:00004c78
   225 0001:00004c79   226 0001:00004c7d   227 0001:00004c83   228 0001:00004c89
   234 0001:00004c8f   235 0001:00004cb7   199 0001:00004cbb   197 0001:00004cbb
   202 0001:00004cc6   203 0001:00004cd8   204 0001:00004ce4   206 0001:00004ce8
   208 0001:00004ceb   209 0001:00004d01   210 0001:00004d05   211 0001:00004d0d
   212 0001:00004d13   686 0001:00004d16   709 0001:00004d17   711 0001:00004d19
   714 0001:00004d34   715 0001:00004d37   712 0001:00004d38   715 0001:00004d40
   763 0001:00004d41   764 0001:00004d4c   767 0001:00004d51   768 0001:00004d5b
   772 0001:00004d65   774 0001:00004d6f   776 0001:00004d7c   778 0001:00004d87
   779 0001:00004d8f   781 0001:00004d94   782 0001:00004d96   784 0001:00004d9c
   786 0001:00004dae   787 0001:00004db7   776 0001:00004dc7   790 0001:00004dcf
   793 0001:00004dd5   796 0001:00004dd7   797 0001:00004ddb   800 0001:00004de1
   785 0001:00004de3   803 0001:00004dea   806 0001:00004df8   807 0001:00004dff
   809 0001:00004e11   810 0001:00004e19   803 0001:00004e29   813 0001:00004e31
   815 0001:00004e35   816 0001:00004e3a   165 0001:00004e3c   744 0001:00004e58
   743 0001:00004e58   750 0001:00004e6f   754 0001:00004e72   753 0001:00004e73
   754 0001:00004e75  1154 0001:00004e76  1155 0001:00004e8b  1159 0001:00004ea1
  1163 0001:00004ea4  1164 0001:00004eba  1167 0001:00004ebf  1170 0001:00004eca
  1172 0001:00004ee6  1174 0001:00004ef9  1177 0001:00004f10  1181 0001:00004f16
  1184 0001:00004f28  1186 0001:00004f32  1188 0001:00004f35  1191 0001:00004f41
  1193 0001:00004f45  1195 0001:00004f5c  1197 0001:00004f69  1203 0001:00004f6e
  1205 0001:00004f7e  1206 0001:00004f84  1210 0001:00004f9b  1214 0001:00004faf
  1216 0001:00004fcc  1220 0001:00004fe3  1223 0001:00004fed  1227 0001:00004ff6
  1228 0001:00005000  1231 0001:00005019  1389 0001:00005021  1393 0001:00005025
  1395 0001:00005037  1397 0001:00005058  1167 0001:0000506f  1397 0001:00005079
  1238 0001:0000507e  1243 0001:0000508b  1244 0001:0000509f  1246 0001:000050a7
  1247 0001:000050b8  1259 0001:000050c5  1260 0001:000050d0  1262 0001:000050dd
  1266 0001:000050df  1269 0001:000050f1  1271 0001:000050fc  1272 0001:00005110
  1275 0001:00005114  1276 0001:00005128  1280 0001:0000512c  1281 0001:00005145
  1286 0001:0000514d  1290 0001:00005164  1292 0001:0000516e  1296 0001:0000518d
  1298 0001:00005192  1299 0001:00005197  1300 0001:000051ae  1301 0001:000051b0
  1305 0001:000051b7  1306 0001:000051bc  1317 0001:000051c3  1319 0001:000051d6
  1321 0001:000051e9  1324 0001:000051fc  1326 0001:00005202  1328 0001:0000521b
  1331 0001:00005225  1341 0001:00005238  1345 0001:0000524b  1348 0001:00005254
  1383 0001:00005260  1403 0001:00005267  1404 0001:0000527f  1358 0001:00005297
  1361 0001:000052ae  1365 0001:000052cf  1367 0001:000052e1  1370 0001:000052e6
  1371 0001:000052fa  1374 0001:00005308  1379 0001:00005314  1381 0001:00005324
  1386 0001:0000532c  1221 0001:00005331  1232 0001:00005339  1250 0001:00005344
  1251 0001:00005349  1256 0001:00005356  1257 0001:0000535b  1267 0001:00005374
  1282 0001:0000538e  1372 0001:00005393   819 0001:0000539d   827 0001:000053b9
   828 0001:000053da   829 0001:000053e0   832 0001:000053f9   835 0001:00005403
   836 0001:00005408   837 0001:00005417   839 0001:0000541d   850 0001:00005449
   851 0001:00005457   852 0001:0000545d   853 0001:00005472   858 0001:0000547c
   860 0001:00005492   861 0001:00005495   863 0001:000054a4   864 0001:000054a9
   866 0001:000054af   852 0001:000054b1   868 0001:000054b7   877 0001:000054ba
   878 0001:000054bc   858 0001:000054be   882 0001:000054c4   883 0001:000054c8
   885 0001:000054db   887 0001:000054dd   889 0001:000054e0   890 0001:000054fd
   894 0001:00005502   901 0001:00005508   903 0001:00005524   905 0001:00005535
   909 0001:00005547   910 0001:00005554   913 0001:0000555c   916 0001:0000555e
   917 0001:00005579   918 0001:00005597   919 0001:000055a1   920 0001:000055c0
   921 0001:000055d0   922 0001:000055d9   923 0001:00005612   924 0001:0000562e
   843 0001:00005649   928 0001:0000565f   931 0001:00005665   934 0001:0000566e
   935 0001:0000567b   937 0001:0000567d   938 0001:0000567f   628 0001:00005698
   618 0001:00005698   629 0001:000056bb   630 0001:000056ce   631 0001:000056e1
   636 0001:000056f5   638 0001:000056f7   645 0001:00005712   647 0001:00005715
   640 0001:00005716   641 0001:00005725   647 0001:00005729   651 0001:00005776
   650 0001:00005776   677 0001:00005797   683 0001:0000579a   670 0001:0000579b
   683 0001:0000579e   663 0001:0000579f   683 0001:000057a2   681 0001:000057a3
   683 0001:000057a5   994 0001:000057a6   998 0001:000057b0  1000 0001:000057c5
  1001 0001:000057ce  1003 0001:000057d0  1004 0001:000057d5  1005 0001:000057e2
  1006 0001:000057e4  1007 0001:000057ef  1010 0001:000057f1  1011 0001:000057f3
   950 0001:00005807   951 0001:0000580b   955 0001:0000580d   959 0001:0000582b
   962 0001:0000582f   963 0001:00005838   941 0001:0000583c   942 0001:0000583d
   943 0001:00005842   946 0001:0000585d   947 0001:00005861   944 0001:00005864
   757 0001:00005868   758 0001:00005868   759 0001:0000586a   760 0001:00005882
   460 0001:00005883   461 0001:00005890   470 0001:0000589b   471 0001:000058bc

Line numbers for .\Release\PlayInput.obj(d:\dev\booktwo\disk\tester\tester\playinput.cpp) segment .text

    37 0001:00003805    42 0001:00003811    49 0001:00003832    50 0001:00003835
    54 0001:00003838    55 0001:00003841    57 0001:0000384a    61 0001:0000384d
    68 0001:00003850    69 0001:00003869    76 0001:00003871    83 0001:00003874
    88 0001:00003887    93 0001:00003894    98 0001:000038a1   103 0001:000038ab
   115 0001:000038b1   117 0001:000038bc   119 0001:000038c9   123 0001:000038d1
   124 0001:000038df   126 0001:000038e3   129 0001:000038eb   132 0001:000038f0
   115 0001:000038f7   137 0001:00003906   140 0001:0000390e   146 0001:00003914
   151 0001:00003921   157 0001:0000392d   161 0001:0000393d   165 0001:00003944
   167 0001:0000394f    44 0001:00003957    45 0001:0000395f   168 0001:00003961

Line numbers for .\Release\ParsePlayInputString.obj(d:\dev\booktwo\disk\tester\tester\parseplayinputstring.cpp) segment .text

   300 0001:00002cf5   304 0001:00002d0b   311 0001:00002d1e   313 0001:00002d21
   316 0001:00002d24   319 0001:00002d29   320 0001:00002d33   323 0001:00002d3d
   324 0001:00002d43   327 0001:00002d4d   331 0001:00002d58   332 0001:00002d62
   340 0001:00002d73   342 0001:00002d76   344 0001:00002d8b   348 0001:00002d94
   350 0001:00002da9   354 0001:00002db2   356 0001:00002dc7   360 0001:00002dd0
   363 0001:00002de7   365 0001:00002dfe   366 0001:00002e07   368 0001:00002e0e
   369 0001:00002e1a   371 0001:00002e22   375 0001:00002e2c   378 0001:00002e36
   379 0001:00002e40   382 0001:00002e4a   306 0001:00002e4f   383 0001:00002e52
   390 0001:00002e60   389 0001:00002e60   391 0001:00002e6a   392 0001:00002e76
   393 0001:00002e87   394 0001:00002e96   395 0001:00002e99   399 0001:00002e9a
   401 0001:00002e9b   405 0001:00002ea2   407 0001:00002eb7   409 0001:00002ec5
   410 0001:00002ecc   418 0001:00002ecd   420 0001:00002ecd   422 0001:00002eda
   425 0001:00002ee4   429 0001:00002eec   430 0001:00002f20   432 0001:00002f24
   433 0001:00002f2b   437 0001:00002f2c   439 0001:00002f31   442 0001:00002f41
   444 0001:00002f4f   451 0001:00002f5d   453 0001:00002f71   457 0001:00002f82
   459 0001:00002f8d   463 0001:00002f9e   465 0001:00002fa9   475 0001:00002fbb
   479 0001:00002fcc   484 0001:00002fdd   488 0001:00002fe5   492 0001:00002ff6
   496 0001:00002ffd   500 0001:0000300e   504 0001:00003015   507 0001:00003029
   511 0001:0000302c   513 0001:0000302c   514 0001:00003040   520 0001:00003041
   522 0001:00003061   523 0001:00003065   525 0001:0000306c   534 0001:00003072
   523 0001:00003077   525 0001:0000307c   528 0001:0000307e   530 0001:00003086
   538 0001:00003087   540 0001:0000308e   544 0001:0000309c   547 0001:0000309e
   553 0001:000030a3   554 0001:000030bf   555 0001:000030cb   565 0001:000030d5
   566 0001:000030fb   568 0001:000030ff   571 0001:00003108   574 0001:00003126
   576 0001:00003144   578 0001:00003146   581 0001:0000314d   592 0001:0000314f
   593 0001:00003167   600 0001:00003170   602 0001:00003181   605 0001:00003183
   607 0001:00003191   611 0001:0000319f   614 0001:000031b5   616 0001:000031bb
   617 0001:000031be   619 0001:000031c4   620 0001:000031c6   617 0001:000031ce
   627 0001:000031d5   631 0001:000031db   633 0001:000031dd   652 0001:000031fb
   622 0001:000031fd   635 0001:00003201   640 0001:0000320b   642 0001:0000320d
   646 0001:0000320f   649 0001:00003211   651 0001:00003217   652 0001:00003219
   649 0001:00003221   667 0001:00003227   669 0001:00003241   674 0001:00003245
   676 0001:00003256   677 0001:0000325f   684 0001:00003261   687 0001:00003267
   696 0001:00003276   699 0001:00003294   703 0001:00003297   704 0001:0000329d
   706 0001:0000329f   708 0001:000032be   714 0001:000032c7   738 0001:000032cd
   746 0001:000032cf   722 0001:000032da   727 0001:000032e0   730 0001:000032fa
   727 0001:000032fc   736 0001:000032ff   742 0001:00003318   743 0001:00003320
   745 0001:0000332a   749 0001:00003330   750 0001:00003336   753 0001:00003342
   762 0001:00003347   764 0001:00003365   765 0001:0000337f   767 0001:0000338b
   769 0001:0000339b   773 0001:0000339e   777 0001:000033a3   780 0001:000033a5
   781 0001:000033ab   784 0001:000033b7   794 0001:000033bc   796 0001:000033da
   797 0001:000033f4   799 0001:00003400   801 0001:00003410   805 0001:00003413
   809 0001:00003418   816 0001:0000341a   818 0001:0000341d   820 0001:0000342a
   824 0001:00003434   826 0001:00003444   827 0001:0000344a   829 0001:00003456
   832 0001:0000345a   834 0001:0000345e   835 0001:00003477   836 0001:0000347e
   838 0001:00003482   839 0001:00003489   845 0001:0000348a   846 0001:00003498
   929 0001:000034ac   930 0001:000034bb   924 0001:000034c4   925 0001:000034d2
   846 0001:000034db   935 0001:000034e2   936 0001:000034e8   887 0001:000034ed
   888 0001:000034f9   915 0001:0000350f   916 0001:00003511   909 0001:00003513
   910 0001:0000351c   903 0001:0000351e   904 0001:00003523   898 0001:00003525
   899 0001:0000352a   893 0001:0000352c   921 0001:00003531   851 0001:00003533
   852 0001:0000353f   879 0001:00003555   880 0001:00003557   873 0001:00003559
   874 0001:00003562   867 0001:00003564   868 0001:00003569   862 0001:0000356b
   863 0001:00003570   857 0001:00003572   941 0001:00003583   949 0001:00003585
   955 0001:00003589   957 0001:000035ac   959 0001:000035b3  1113 0001:000035e3
  1114 0001:000035f1   964 0001:000035f6   965 0001:00003607   966 0001:0000360c
  1020 0001:00003611  1025 0001:00003617  1032 0001:00003625  1035 0001:0000362f
  1037 0001:00003636  1040 0001:0000363c  1042 0001:0000363d  1045 0001:00003643
  1047 0001:00003644  1052 0001:00003646  1035 0001:0000364b  1056 0001:00003650
  1061 0001:00003656  1068 0001:00003664  1071 0001:00003678  1073 0001:0000367f
  1077 0001:0000368f  1079 0001:000036a0  1083 0001:000036ab  1085 0001:000036bc
  1089 0001:000036c7  1094 0001:000036d8   976 0001:000036e5   977 0001:000036f6
   978 0001:000036fb   959 0001:00003700  1118 0001:0000371d  1120 0001:00003724
  1124 0001:0000372f  1126 0001:00003741  1130 0001:0000374c  1132 0001:0000375e
  1136 0001:00003769  1140 0001:0000377b  1141 0001:0000377f   981 0001:00003781
   982 0001:00003786   985 0001:00003793   986 0001:000037a3   990 0001:000037a5
   992 0001:000037a6  1013 0001:000037b3   971 0001:000037b8   972 0001:000037c9
  1144 0001:000037ce  1146 0001:000037de  1147 0001:000037e6  1099 0001:000037e9
  1101 0001:000037ef  1104 0001:000037fd  1105 0001:00003800

Line numbers for .\Release\Helpers.obj(d:\dev\booktwo\disk\tester\tester\helpers.cpp) segment .text

    10 0001:000003d3    14 0001:000003e3    16 0001:000003fa    17 0001:00000409
    20 0001:00000411    21 0001:00000417    25 0001:00000421    26 0001:00000426
    27 0001:00000440    29 0001:00000444    30 0001:00000459    37 0001:0000045d
    39 0001:00000460    41 0001:00000467    43 0001:00000482    45 0001:0000048b
    52 0001:0000048d    54 0001:00000492    56 0001:000004ac    58 0001:000004ae
    61 0001:000004b3

Line numbers for .\Release\Helpers.obj(d:\dev\booktwo\disk\tester\tester\twindows.h) segment .text

    75 0001:0000008f    77 0001:0000009d

Line numbers for .\Release\Helpers.obj(g:\vsnet\vc7\atlmfc\include\atlbase.inl) segment .text

   375 0001:00001202   376 0001:00001215   377 0001:0000121c   380 0001:00001223
   381 0001:00001227   382 0001:00001243   383 0001:00001247   384 0001:0000124c
   386 0001:0000124e   387 0001:00001253   388 0001:00001259   389 0001:0000125f
   392 0001:00001266   401 0001:0000126c   402 0001:0000127d   403 0001:0000127f
   240 0001:000018dc   244 0001:000018e0   249 0001:000018ee   250 0001:000018f2
   252 0001:000018f9   267 0001:00001908   268 0001:0000190e   269 0001:00001914
   270 0001:00001916   261 0001:0000191a   262 0001:00001923   264 0001:00001936
   275 0001:0000193b   276 0001:00001947   280 0001:00001955   259 0001:00001958
   282 0001:0000195f   245 0001:00001966   283 0001:0000196d

Line numbers for .\Release\Helpers.obj(*d:\dev\booktwo\disk\tester\tester\release\helpers.inj:1) segment .text

    99 0001:00000000   100 0001:00000006   102 0001:00000013   104 0001:00000026
   105 0001:00000038   106 0001:00000064   133 0001:00000068   138 0001:00000069
   140 0001:0000006b   143 0001:00000086   144 0001:00000088   141 0001:0000008b

Line numbers for .\Release\Helpers.obj(*d:\dev\booktwo\disk\tester\tester\release\helpers.inj:3) segment .text

    13 0001:0000009e    21 0001:000000a5    22 0001:000000ac    24 0001:000000b6
    25 0001:000000bc    27 0001:000000c7    28 0001:000000ce    30 0001:000000d5
    31 0001:000000eb    35 0001:000000f5    34 0001:000000fe    36 0001:00000100
    40 0001:0000010c   131 0001:00000132   111 0001:0000013c   112 0001:00000140
   114 0001:0000014a   115 0001:0000014d   116 0001:0000016a   117 0001:00000171
   119 0001:00000174   121 0001:0000017e   123 0001:00000184   128 0001:00000192
    90 0001:00000197    91 0001:00000199    93 0001:0000019b    94 0001:0000019e
    98 0001:000001ba   100 0001:000001bc   102 0001:000001c2   107 0001:000001d0
    77 0001:000001d2    78 0001:000001d4    81 0001:000001da    82 0001:000001e7
    83 0001:000001eb    86 0001:000001f0    56 0001:000001f2    57 0001:000001f4
    59 0001:000001fa    60 0001:000001fd    64 0001:00000218    66 0001:0000021e
    68 0001:00000224    69 0001:00000232    71 0001:00000236    73 0001:0000023e
    43 0001:00000240    44 0001:00000242    47 0001:00000248    48 0001:00000255
    49 0001:00000259    50 0001:0000025e   134 0001:00000266   141 0001:0000026a
   149 0001:0000026e   151 0001:00000283   152 0001:00000285   159 0001:000002a1
   154 0001:000002a8   162 0001:000002bf   163 0001:000002c4   194 0001:000002c8
   195 0001:000002d3   196 0001:000002da   198 0001:000002e1   200 0001:000002ea
   201 0001:000002fe   202 0001:00000314   204 0001:00000323   205 0001:00000323
   206 0001:0000032a   208 0001:00000332   209 0001:00000341   306 0001:00000344
   307 0001:0000034a   309 0001:00000357   311 0001:0000036a   312 0001:0000037c
   313 0001:000003a8   340 0001:000003ac   345 0001:000003ad   347 0001:000003af
   350 0001:000003ca   351 0001:000003cc   348 0001:000003cf

Line numbers for .\Release\Helpers.obj(g:\vsnet\vc7\atlmfc\include\atlcore.h) segment .text

   157 0001:00000e82   159 0001:00000e89   160 0001:00000e90   161 0001:00000e94
   162 0001:00000e9a   114 0001:00000e9d   116 0001:00000e9e   117 0001:00000ead
   129 0001:00000eb1   130 0001:00000ebd   131 0001:00000ebf   133 0001:00000ec2
   136 0001:00000ecb   138 0001:00000edc   143 0001:00000ef9   144 0001:00000efb

Line numbers for .\Release\Helpers.obj(g:\vsnet\vc7\atlmfc\include\atlexcept.h) segment .text

    61 0001:00000f01    73 0001:00000f04

Line numbers for .\Release\Helpers.obj(g:\vsnet\vc7\atlmfc\include\atlalloc.h) segment .text

   393 0001:000015e4   387 0001:000015e4   391 0001:000015e6   392 0001:000015e8
   393 0001:000015ea   389 0001:000015f4   395 0001:000015f9   226 0001:00002803
   225 0001:00002803   228 0001:0000280a   230 0001:0000280f   276 0001:00002868
   278 0001:00002868   280 0001:00002872   282 0001:0000287c   284 0001:0000287e
   287 0001:00002883   288 0001:00002885

Line numbers for .\Release\Helpers.obj(g:\vsnet\vc7\atlmfc\include\atlconv.h) segment .text

   134 0001:000015fa   139 0001:00001613   140 0001:00001624   143 0001:0000162e
   147 0001:00001635   149 0001:0000163a   151 0001:00001646   152 0001:0000164c
   128 0001:0000165f   127 0001:0000165f   129 0001:00001662   101 0001:00001663
   102 0001:00001672   104 0001:00001674   110 0001:0000167a   113 0001:00001690
   116 0001:0000169a   120 0001:000016ab   121 0001:000016af   124 0001:000016b7

Line numbers for .\Release\Helpers.obj(g:\vsnet\vc7\atlmfc\include\atlevent.h) segment .text

   108 0001:000016c4   110 0001:000016cf   138 0001:000016e3   139 0001:000016ea
   142 0001:000016ef   143 0001:0000170b   146 0001:00001715   147 0001:00001745
   148 0001:00001754   150 0001:0000176b   152 0001:0000176f   153 0001:00001778
   154 0001:00001788   155 0001:0000178c   156 0001:000017a9   159 0001:000017ab
   160 0001:000017b3   162 0001:000017bc   111 0001:000017c0   164 0001:000017c8

Line numbers for .\Release\Helpers.obj(g:\vsnet\vc7\platformsdk\include\guiddef.h) segment .text

   161 0001:00001843   160 0001:00001843   162 0001:0000185a   156 0001:000018b7
   151 0001:000018b7   157 0001:000018d8   156 0001:000018d9   157 0001:000018db

Line numbers for .\Release\Helpers.obj(g:\vsnet\vc7\atlmfc\include\atlplus.h) segment .text

   103 0001:000017f5   104 0001:000017f6   105 0001:000017fe   106 0001:00001805
   107 0001:00001808   112 0001:00001830   109 0001:00001837   110 0001:0000183d
   113 0001:00001840   116 0001:0000185b   230 0001:00001861   233 0001:00001862
   235 0001:0000186e   236 0001:00001879   238 0001:0000188c   240 0001:00001895
   241 0001:00001898   244 0001:00001971   246 0001:00001974   249 0001:00001980
   251 0001:00001985   254 0001:00001995   258 0001:0000199c   247 0001:000019c8
   259 0001:000019cd   403 0001:000019d1   404 0001:000019ec   411 0001:000019fd
   726 0001:00001a3a   412 0001:00001a3d   414 0001:00001a46   417 0001:00001a52
   420 0001:00001a6e   422 0001:00001a7f   423 0001:00001a99   424 0001:00001aa1
   428 0001:00001aa7   430 0001:00001aac   432 0001:00001ab2   433 0001:00001ac7
   434 0001:00001acb   439 0001:00001ad7   443 0001:00001add   444 0001:00001b14
   445 0001:00001b1e   448 0001:00001b34   449 0001:00001b39   450 0001:00001b5d
   451 0001:00001b66   452 0001:00001b78   453 0001:00001b7f   454 0001:00001b90
   469 0001:00001b95   470 0001:00001bb9   471 0001:00001bc1   472 0001:00001bc7
   473 0001:00001bde   475 0001:00001bf4   479 0001:00001bfd   480 0001:00001c1d
   481 0001:00001c2b   484 0001:00001c30   486 0001:00001c37   494 0001:00001c3c
   499 0001:00001c68   502 0001:00001c72   504 0001:00001c82   505 0001:00001c8b
   510 0001:00001c92   511 0001:00001ce5   512 0001:00001cf3   515 0001:00001d16
   516 0001:00001d1a   517 0001:00001d20   518 0001:00001d22   520 0001:00001d25
   522 0001:00001d63   523 0001:00001d67   524 0001:00001d9f   525 0001:00001da8
   527 0001:00001dae   530 0001:00001dbf   534 0001:00001dc4   537 0001:00001dce
   539 0001:00001ddf   540 0001:00001de8   542 0001:00001def   545 0001:00001e13
   546 0001:00001e40   547 0001:00001e4e   551 0001:00001e71   552 0001:00001e81
   553 0001:00001e8e   554 0001:00001e95   555 0001:00001ebc   558 0001:00001eca
   562 0001:00001ed2   563 0001:00001ed9   565 0001:00001ee8   566 0001:00001eed
   568 0001:00001ef7   570 0001:00001ef9   579 0001:00001efc   580 0001:00001efe
   560 0001:00001f00   584 0001:00001f06   587 0001:00001f0a   588 0001:00001f0e
   592 0001:00001f1a   594 0001:00001f2f   595 0001:00001f33   590 0001:00001f69
   592 0001:00001f72   596 0001:00001f84   597 0001:00001f8d   603 0001:00001f94
   604 0001:00001fc7   605 0001:00001fcf   606 0001:00001ff0   601 0001:00001ff5
   611 0001:0000202c   614 0001:00002037   616 0001:00002046   617 0001:0000204f
   619 0001:00002056   623 0001:0000207a   624 0001:000020a7   626 0001:000020b2
   627 0001:000020cf   628 0001:000020d5   629 0001:000020f7   632 0001:00002101
   636 0001:00002122   637 0001:0000212e   640 0001:00002151   641 0001:00002155
   642 0001:0000215b   643 0001:0000215d   645 0001:00002166   647 0001:00002189
   648 0001:0000218d   649 0001:000021af   650 0001:000021b8   652 0001:000021bf
   655 0001:000021d0   659 0001:000021d5   662 0001:000021e0   664 0001:000021ee
   665 0001:000021f7   667 0001:000021fe   668 0001:00002222   669 0001:00002228
   671 0001:0000222e   673 0001:00002234   674 0001:00002261   676 0001:00002270
   677 0001:0000228d   679 0001:00002296   681 0001:000022a2   682 0001:000022ae
   685 0001:000022b8   687 0001:00002306   688 0001:00002311   689 0001:0000233c
   691 0001:00002348   694 0001:00002391   695 0001:000023a7   696 0001:000023af
   699 0001:000023ea   700 0001:000023f8   703 0001:0000241b   704 0001:0000241f
   705 0001:00002425   706 0001:00002427   708 0001:0000242a   710 0001:00002451
   711 0001:00002455   712 0001:000024a3   713 0001:000024ac   715 0001:000024b2
   716 0001:000024e5   726 0001:000024eb   727 0001:000024f0   729 0001:000024f3
   730 0001:0000250e   385 0001:0000259d   388 0001:000025a5   389 0001:000025c7
   390 0001:000025cb   393 0001:000025d8   395 0001:000025fa   396 0001:00002617
   397 0001:0000261b   399 0001:0000262c   400 0001:00002639   363 0001:00002686
   365 0001:0000268c   366 0001:00002698   367 0001:0000269d   368 0001:000026b1
   369 0001:000026b3   372 0001:000026b5   373 0001:000026bc   374 0001:000026cf
   378 0001:000026dd   381 0001:000026e4   382 0001:000026ef   299 0001:00002888
   300 0001:00002896   301 0001:0000289d   304 0001:000028a4   305 0001:000028ac
   306 0001:000028b2   308 0001:000028b7   310 0001:000028bf   311 0001:000028c7
   312 0001:000028c9   313 0001:000028cc   315 0001:000028ce   317 0001:000028d2
   318 0001:000028dd   319 0001:000028e3   342 0001:000028e4   343 0001:000028ec
   345 0001:000028fd   347 0001:00002906   348 0001:0000290a   322 0001:00002917
   323 0001:00002922   328 0001:00002928   329 0001:0000292c   332 0001:00002931
   333 0001:0000293e   334 0001:0000294d   336 0001:00002951   337 0001:00002959
   338 0001:0000296c   341 0001:0000296e   335 0001:00002973    89 0001:0000297a
    90 0001:0000297d    91 0001:00002987    92 0001:0000298c    93 0001:00002990
    94 0001:0000299a    70 0001:0000299d    71 0001:0000299e    73 0001:000029a5
    76 0001:000029c0    77 0001:000029c4    74 0001:000029c7   199 0001:00002a01
   201 0001:00002a07   207 0001:00002a1d   209 0001:00002a2e   211 0001:00002a3f
   212 0001:00002a4d   213 0001:00002a52   214 0001:00002a57   216 0001:00002a65
   217 0001:00002a6e   219 0001:00002a8e   220 0001:00002a90   221 0001:00002a93
   224 0001:00002a96   226 0001:00002a9f   202 0001:00002aae   227 0001:00002ab4
   141 0001:00002b55   142 0001:00002b70   145 0001:00002b76   146 0001:00002b7c
   147 0001:00002b90   148 0001:00002b94   149 0001:00002b9e   150 0001:00002ba2
   153 0001:00002bac   168 0001:00002bbc   160 0001:00002bc4   161 0001:00002be1
   162 0001:00002bee   163 0001:00002bf0   164 0001:00002c03   171 0001:00002c15
   172 0001:00002c17   174 0001:00002c1d   175 0001:00002c2f   176 0001:00002c31
   180 0001:00002c33   181 0001:00002c42   182 0001:00002c44   183 0001:00002c46
   184 0001:00002c54   185 0001:00002c5f   186 0001:00002c63   188 0001:00002c67
   189 0001:00002c86   190 0001:00002c8f   191 0001:00002c91   193 0001:00002c9f
   194 0001:00002ca3   196 0001:00002caf   135 0001:00002cd9   136 0001:00002cdc
   137 0001:00002ce8

Line numbers for .\Release\Helpers.obj(g:\vsnet\vc7\atlmfc\include\atlbase.h) segment .text

   736 0001:00000e42   727 0001:00000e42   738 0001:00000e62   736 0001:00000e63
   738 0001:00000e65   303 0001:000011a3   304 0001:000011a6   306 0001:000011ac
   308 0001:000011b9  2678 0001:000011e6  2677 0001:000011e6  2679 0001:000011ff
  4900 0001:00002557  4902 0001:0000255b  4903 0001:00002562  4904 0001:00002577
  4906 0001:0000257b  4908 0001:00002580  4911 0001:00002586  4842 0001:0000258a
  4844 0001:0000258a  4846 0001:00002592  4847 0001:00002599  4850 0001:0000259c
  4883 0001:0000263d  4886 0001:00002642  4888 0001:00002648  4889 0001:0000266a
  4890 0001:0000266e  4891 0001:00002673  4893 0001:00002677  4894 0001:0000267c
  4897 0001:00002682  5246 0001:000026f3  5248 0001:00002709  5249 0001:0000272d
  5255 0001:00002731  5261 0001:00002743  5263 0001:0000274b  5264 0001:00002757
  5261 0001:0000275e  5266 0001:00002771  5268 0001:0000277e  5269 0001:00002791
  5270 0001:000027ad  5265 0001:000027c5  5179 0001:000027d8  5184 0001:000027db
  5185 0001:000027ff  5188 0001:00002810  5200 0001:00002811  5203 0001:00002818
  5204 0001:00002820  5205 0001:00002825  5206 0001:00002827  5209 0001:0000282c
  5210 0001:00002847  5169 0001:0000284a  5167 0001:0000284a  5170 0001:00002865
  4803 0001:000029ed   810 0001:00002ab8   812 0001:00002ac3   813 0001:00002ade
   819 0001:00002ae4   812 0001:00002af8

Line numbers for .\Release\Helpers.obj(g:\vsnet\vc7\atlmfc\include\atlsimpcoll.h) segment .text

   194 0001:000006cf   196 0001:000006cf   200 0001:000006d8   201 0001:000006dd
   173 0001:0000070c   174 0001:0000070d   176 0001:00000714   177 0001:0000071d
   178 0001:0000072d   179 0001:00000736   181 0001:00000739   182 0001:0000073c
   183 0001:00000740   140 0001:00001565   139 0001:00001565   143 0001:00001570
   144 0001:0000157c   145 0001:00001588   147 0001:0000158e   148 0001:00001591
   150 0001:00001593   151 0001:000015a1   152 0001:000015a4   153 0001:000015a8
   247 0001:000015ab   246 0001:000015ab   248 0001:000015be   100 0001:000015c1
   101 0001:000015c1   173 0001:000015c6   174 0001:000015c9   178 0001:000015cf
   179 0001:000015d6   181 0001:000015da   182 0001:000015de   183 0001:000015e3
   332 0001:000017cc   333 0001:000017cc   340 0001:000017d9   341 0001:000017dc
   343 0001:000017e0   345 0001:000017e7   346 0001:000017ea   349 0001:000017ef
   350 0001:000017f4   387 0001:000029cb   385 0001:000029cb   390 0001:000029d4
   391 0001:000029da   286 0001:00002afe   288 0001:00002afe   289 0001:00002b14
   290 0001:00002b18   291 0001:00002b1a   293 0001:00002b1c   294 0001:00002b2c
   295 0001:00002b32   297 0001:00002b36   298 0001:00002b4b   299 0001:00002b4e
   300 0001:00002b52

Line numbers for .\Release\Helpers.obj(g:\vsnet\vc7\atlmfc\include\atlcomcli.h) segment .text

    58 0001:000011ba    59 0001:000011ba    60 0001:000011be    62 0001:000011c3
    63 0001:000011c5    64 0001:000011c8    65 0001:000011cc    66 0001:000011d6
    67 0001:000011da    68 0001:000011e0    69 0001:000011e3   629 0001:00001312
   628 0001:00001312   630 0001:0000131a    32 0001:000029f2    33 0001:000029f2
    34 0001:00002a00    27 0001:00002cc4    26 0001:00002cc4    28 0001:00002cca
    29 0001:00002cd8

Line numbers for .\Release\Helpers.obj(g:\vsnet\vc7\atlmfc\include\atlcom.h) segment .text

  4392 0001:000004c4  4391 0001:000004c4  4393 0001:000004cc  4394 0001:000004d3
  4395 0001:000004d9  4396 0001:000004db  4398 0001:000004de  4399 0001:000004df
  4400 0001:000004f2  4403 0001:000004f5  4404 0001:000004f5  4405 0001:0000050f
  4409 0001:00000512  4411 0001:00000516  4412 0001:00000539  4462 0001:0000053d
  4463 0001:0000053e  4464 0001:0000054f  1751 0001:00000552  1753 0001:0000055f
  1754 0001:0000056e  1759 0001:00000575  1760 0001:000005ae  1769 0001:000005b2
  1770 0001:000005c3  1771 0001:000005ca  1773 0001:000005d3  1774 0001:000005d6
  1827 0001:000005e7  1832 0001:000005ea  1833 0001:000005fd  1832 0001:00000602
  4462 0001:00000607  4463 0001:00000608  4464 0001:00000619  1827 0001:0000061c
  1832 0001:0000061f  1833 0001:00000632  1832 0001:00000637  2489 0001:0000063c
  2491 0001:00000657  2492 0001:00000662  2496 0001:00000665  2497 0001:0000067c
  2502 0001:00000683  2503 0001:0000068e  2508 0001:00000696  2509 0001:00000696
  2510 0001:000006a1  2511 0001:000006a3  2512 0001:000006ae  2513 0001:000006b1
  2516 0001:000006b4  2564 0001:00000741  2568 0001:00000779  2574 0001:0000077d
  2578 0001:000007a5  2579 0001:000007a7  2580 0001:000007b6  2581 0001:000007c0
  2582 0001:000007c7  2583 0001:000007d2  2584 0001:000007db  2585 0001:000007de
  2587 0001:000007e1  2588 0001:000007e4  2589 0001:000007f2  2590 0001:000007fc
  2591 0001:000007fe  2592 0001:00000805  2593 0001:00000809  2594 0001:00000812
  2595 0001:00000819  2596 0001:00000825  2597 0001:00000829  2600 0001:0000082c
  1751 0001:00000847  1753 0001:00000859  1754 0001:00000863  1759 0001:0000086a
  1760 0001:0000089d  1769 0001:000008a1  1770 0001:000008b2  1771 0001:000008b9
  1773 0001:000008c5  1774 0001:000008c8  1751 0001:000008d9  1753 0001:000008ec
  1754 0001:000008f5  1759 0001:000008fc  1760 0001:0000093d  1769 0001:00000941
  1770 0001:0000094c  1771 0001:00000953  1773 0001:0000095c  1774 0001:0000095f
  1751 0001:00000970  1753 0001:00000982  1754 0001:0000098c  1759 0001:00000993
  1760 0001:000009c6  1769 0001:000009ca  1770 0001:000009db  1771 0001:000009e2
  1773 0001:000009eb  1774 0001:000009ee  1751 0001:000009ff  1753 0001:00000a11
  1754 0001:00000a1b  1759 0001:00000a22  1760 0001:00000a5e  1769 0001:00000a62
  1770 0001:00000a6d  1771 0001:00000a74  1773 0001:00000a7d  1774 0001:00000a80
  2489 0001:00000ae5  2491 0001:00000b01  2492 0001:00000b0c  2496 0001:00000b0f
  2497 0001:00000b23  2502 0001:00000b2a  2509 0001:00000b35  2508 0001:00000b35
  2510 0001:00000b40  2511 0001:00000b42  2512 0001:00000b50  2513 0001:00000b53
  2516 0001:00000b56  2848 0001:00000b71  2849 0001:00000b83  2850 0001:00000b8e
  2866 0001:00000b91  2867 0001:00000b97  2872 0001:00000b9e  2884 0001:00000ba9
  2886 0001:00000bad  2887 0001:00000bb7  2891 0001:00000bbe  2893 0001:00000bca
  2894 0001:00000bd1  2899 0001:00000bd7  2900 0001:00000bd9  2901 0001:00000bec
  2902 0001:00000bf0  2848 0001:00000bf4  2849 0001:00000c1b  2850 0001:00000c26
  2866 0001:00000c37  2867 0001:00000c52  2872 0001:00000c59  2873 0001:00000c64
  2884 0001:00000c79  2886 0001:00000c7d  2887 0001:00000c87  2891 0001:00000c8e
  2893 0001:00000c9a  2894 0001:00000ca1  2899 0001:00000ca7  2900 0001:00000ca9
  2901 0001:00000cbc  2902 0001:00000cc0  2814 0001:00000cc4  2817 0001:00000cd4
  2816 0001:00000cd4  2818 0001:00000ce8  2804 0001:00000d4c  2804 0001:00000d6c
  3187 0001:00000de8  3186 0001:00000de8  3188 0001:00000ded  3189 0001:00000dfa
  3190 0001:00000dfc  3191 0001:00000dff  3192 0001:00000e01  3166 0001:00000e04
  3169 0001:00000e08  3171 0001:00000e14  3174 0001:00000e17  3177 0001:00000e29
  3179 0001:00000e2e  3180 0001:00000e30  3183 0001:00000e3e  3161 0001:00000f19
  3162 0001:00000f1f  3584 0001:00000f2a  3585 0001:00000f2d  3586 0001:00000f37
  3587 0001:00000f3d  3589 0001:00000f5b  3520 0001:00000f5f  3521 0001:00000f62
  3522 0001:00000f64  3523 0001:00000f6e  3525 0001:00000f78  3632 0001:00000f7b
  3637 0001:00000f91  3638 0001:00000fa0  3640 0001:00000fa7  3641 0001:00000fb6
  3649 0001:00000fc0  3652 0001:00000fda  3655 0001:00001003  3656 0001:0000101c
  3658 0001:0000102c  3664 0001:00001032  3665 0001:00001049  3667 0001:00001057
  3669 0001:00001059  3720 0001:0000107e  3722 0001:0000108a  3723 0001:00001090
  3724 0001:000010a9  3726 0001:000010b7  3727 0001:000010d0  3728 0001:000010d6
  3729 0001:000010ef  3731 0001:00001102  3733 0001:00001105  3735 0001:0000111b
  3736 0001:00001140  3737 0001:0000114c  3739 0001:0000115f  3742 0001:00001161
  3745 0001:00001167  3746 0001:00001174  3748 0001:0000117b  3749 0001:0000118c
  3530 0001:00001290  3532 0001:00001291  3536 0001:00001299  3537 0001:000012a0
  3538 0001:000012a6  3539 0001:000012ab  3540 0001:000012b9  3541 0001:000012bf
  3591 0001:0000131b  3593 0001:00001329  3594 0001:0000133e  3597 0001:00001348
  3599 0001:0000134f  3601 0001:0000135e  3602 0001:000013b4  3604 0001:000013ba
  3605 0001:000013c3  3608 0001:000013cf  3611 0001:000013de  3613 0001:000013ef
  3614 0001:000013f4  3616 0001:00001411  3617 0001:00001427  3618 0001:0000142f
  3620 0001:0000143d  3621 0001:00001446  3623 0001:00001465  3624 0001:00001468
  3626 0001:00001474  3627 0001:00001476  3477 0001:00001487  3549 0001:00001495
  3550 0001:00001499  3551 0001:000014a3  3557 0001:000014a9  3559 0001:000014b7
  3560 0001:000014c2  3563 0001:000014d1  3560 0001:000014f9  3575 0001:00001501
  3579 0001:00001516  3565 0001:0000151a  3566 0001:00001529  3573 0001:0000152b
  3502 0001:0000152d  3504 0001:0000152d  3505 0001:00001534  3507 0001:0000153b
  3508 0001:0000153d  3509 0001:00001542  3510 0001:0000154b  3511 0001:00001550
  3513 0001:00001556  3514 0001:0000155f  3517 0001:00001562  2155 0001:00002cf2

Line numbers for G:\VSNET\Vc7\atlmfc\lib\atls.lib(f:\vs70builds\3036\vc\mfcatl\ship\atlmfc\src\atl\atls\atlbase.cpp) segment .text

    67 0001:0000a3ad    68 0001:0000a3b0    69 0001:0000a3ba    29 0001:0000a3c3
    32 0001:0000a3de    36 0001:0000a3e3    38 0001:0000a406    39 0001:0000a417
    41 0001:0000a41d    46 0001:0000a423    49 0001:0000a42b    51 0001:0000a439
    58 0001:0000a43d    62 0001:0000a457    64 0001:0000a45e   126 0001:0000b077

Line numbers for G:\VSNET\Vc7\atlmfc\lib\atls.lib(f:\vs70builds\3036\vc\mfcatl\ship\atlmfc\include\atlsimpcoll.h) segment .text

   173 0001:0000a376   174 0001:0000a379   178 0001:0000a37f   179 0001:0000a385
   181 0001:0000a389   182 0001:0000a38d   183 0001:0000a392

Line numbers for G:\VSNET\Vc7\atlmfc\lib\atls.lib(f:\vs70builds\3036\vc\mfcatl\ship\atlmfc\src\atl\atls\atlcommodule.cpp) segment .text

    20 0001:0000b08d

Line numbers for G:\VSNET\Vc7\atlmfc\lib\atls.lib(f:\vs70builds\3036\vc\mfcatl\ship\atlmfc\include\atlbase.h) segment .text

  2272 0001:0000a46e  2273 0001:0000a471  2276 0001:0000a477  2278 0001:0000a480
  2281 0001:0000a486  2282 0001:0000a48d  2283 0001:0000a493  2276 0001:0000a497
  2286 0001:0000a4a0  2290 0001:0000a4aa  2291 0001:0000a4af  2248 0001:0000a4b0
  2257 0001:0000a4be  2261 0001:0000a4e4  2263 0001:0000a4ec

Line numbers for G:\VSNET\Vc7\lib\MSVCRT.lib(F:\VS70Builds\3036\vc\crtbld\crt\src\intel\chkstk.asm) segment .text

    69 0001:0000ab80    65 0001:0000ab80    70 0001:0000ab85    72 0001:0000ab87
    73 0001:0000ab89    74 0001:0000ab8b    75 0001:0000ab8e    76 0001:0000ab90
    77 0001:0000ab91    78 0001:0000ab93    79 0001:0000ab94    82 0001:0000ab95
    83 0001:0000ab96    88 0001:0000ab9a    89 0001:0000aba0    91 0001:0000aba5
    93 0001:0000aba7    94 0001:0000abac    97 0001:0000abae    98 0001:0000abb0
   100 0001:0000abb2   102 0001:0000abb4   104 0001:0000abb6   105 0001:0000abb8
   107 0001:0000abbb   109 0001:0000abbc

Line numbers for G:\VSNET\Vc7\lib\MSVCRT.lib(f:\vs70builds\3036\vc\crtbld\crt\src\atonexit.c) segment .text

    81 0001:0000a4f6    76 0001:0000a4f6    90 0001:0000a51b    96 0001:0000a51c
    95 0001:0000a51c    97 0001:0000a52d

Line numbers for G:\VSNET\Vc7\lib\MSVCRT.lib(f:\vs70builds\3036\vc\crtbld\crt\src\crtdll.c) segment .text

   134 0001:0000a6ca   129 0001:0000a6ca   135 0001:0000a6d2   136 0001:0000a6da
   158 0001:0000a6e0   163 0001:0000a6f3   168 0001:0000a708   170 0001:0000a70c
   172 0001:0000a70f   178 0001:0000a719   179 0001:0000a71e   184 0001:0000a728
   189 0001:0000a739   192 0001:0000a740   219 0001:0000a746   220 0001:0000a74f
   225 0001:0000a751   226 0001:0000a75d   234 0001:0000a773   236 0001:0000a77a
   234 0001:0000a781   240 0001:0000a782   241 0001:0000a785   249 0001:0000a788
   250 0001:0000a794   252 0001:0000a79a   257 0001:0000a79f   258 0001:0000a7ac
   260 0001:0000a7b2   262 0001:0000a7bb   263 0001:0000a7c4   265 0001:0000a7d0
   266 0001:0000a7d9   268 0001:0000a7e8   269 0001:0000a7ea   272 0001:0000a7ec
   275 0001:0000a7fc   283 0001:0000a805   286 0001:0000a80f   288 0001:0000a818
   289 0001:0000a826   291 0001:0000a829   292 0001:0000a837   298 0001:0000a845
   294 0001:0000a84a   295 0001:0000a862   299 0001:0000a864

Line numbers for G:\VSNET\Vc7\lib\MSVCRT.lib(f:\vs70builds\3036\vc\crtbld\crt\src\secchk.c) segment .text

   114 0001:0000a86c   116 0001:0000a878   117 0001:0000a87c   119 0001:0000a889
   123 0001:0000a894   100 0001:0000a89d   103 0001:0000a89d   104 0001:0000a8a3
   105 0001:0000a8a5   107 0001:0000a8a6

Line numbers for G:\VSNET\Vc7\lib\MSVCRT.lib(f:\vs70builds\3036\vc\crtbld\crt\src\seccinit.c) segment .text

    49 0001:0000a9a4    58 0001:0000a9aa    67 0001:0000a9bb    70 0001:0000a9c5
    75 0001:0000a9cb    76 0001:0000a9d3    77 0001:0000a9db    79 0001:0000a9e3
    93 0001:0000a9ed    94 0001:0000aa08

 Exports

  ordinal    name

        1    _DllCanUnloadNow@0
               exported name: DllCanUnloadNow
        2    _DllGetClassObject@12
               exported name: DllGetClassObject
        3    _DllMain@12
               exported name: DllMain
        4    _DllRegisterServer@0
               exported name: DllRegisterServer
        5    _DllUnregisterServer@0
               exported name: DllUnregisterServer
