 VSNetToolHostShim

 Timestamp is 3e4e5822 (Sat Feb 15 10:09:22 2003)

 Preferred load address is 10000000

 Start         Length     Name                   Class
 0001:00000000 0000d47dH .text                   CODE
 0001:0000d47d 0000058aH .text$x                 CODE
 0001:0000da07 0000005aH .text$yc                CODE
 0001:0000da61 00000029H .text$yd                CODE
 0002:00000000 0000002bH .orpc                   CODE
 0003:00000000 000003ccH .idata$5                DATA
 0003:000003d0 00001798H .rdata                  DATA
 0003:00001b68 0000004aH .rdata$debug            DATA
 0003:00001bb4 00000044H .rdata$r                DATA
 0003:00001c00 000000e0H .rdata$sxdata           DATA
 0003:00001ce0 00000004H .rtc$IAA                DATA
 0003:00001ce4 00000004H .rtc$IZZ                DATA
 0003:00001ce8 00000004H .rtc$TAA                DATA
 0003:00001cec 00000004H .rtc$TZZ                DATA
 0003:00001cf0 00000c78H .xdata$x                DATA
 0003:00002968 00000004H ATL$__a                 DATA
 0003:0000296c 00000004H ATL$__m                 DATA
 0003:00002970 00000004H ATL$__z                 DATA
 0003:00002974 000000c8H .idata$2                DATA
 0003:00002a3c 00000014H .idata$3                DATA
 0003:00002a50 000003ccH .idata$4                DATA
 0003:00002e1c 00000ec6H .idata$6                DATA
 0003:00003cf0 000000aeH .edata                  DATA
 0004:00000000 00000004H .CRT$XCA                DATA
 0004:00000004 00000004H .CRT$XCAA               DATA
 0004:00000008 00000008H .CRT$XCL                DATA
 0004:00000010 00000008H .CRT$XCU                DATA
 0004:00000018 00000004H .CRT$XCZ                DATA
 0004:0000001c 00000004H .CRT$XIA                DATA
 0004:00000020 00000004H .CRT$XIZ                DATA
 0004:00000030 000002e0H .data                   DATA
 0004:00000310 00000154H .bss                    DATA
 0005:00000000 00000214H .rsrc$01                DATA
 0005:00000220 000012d8H .rsrc$02                DATA

  Address         Publics by Value              Rva+Base     Lib:Object

 0000:00000000       __except_list              00000000     <absolute>
 0000:00000038       ___safe_se_handler_count   00000038     <absolute>
 0000:00009876       __ldused                   00009876     <absolute>
 0000:00009876       __fltused                  00009876     <absolute>
 0000:00000000       ___ImageBase               10000000     <linker-defined>
 0001:00000000       _PrxDllGetClassObject@12   10001000 f   dlldatax.obj
 0001:00000034       _PrxDllCanUnloadNow@0      10001034 f   dlldatax.obj
 0001:00000040       _CStdStubBuffer2_Release@4 10001040 f   dlldatax.obj
 0001:00000051       __purecall                 10001051 f   dlldatax.obj
 0001:00000052       _PrxDllMain@12             10001052 f   dlldatax.obj
 0001:00000064       _PrxDllRegisterServer@0    10001064 f   dlldatax.obj
 0001:0000008b       _PrxDllUnregisterServer@0  1000108b f   dlldatax.obj
 0001:000000b2       ?_AtlGetThreadACPFake@ATL@@YGIXZ 100010b2 f i stdafx.obj
 0001:00000113       ?_AtlGetThreadACPReal@ATL@@YGIXZ 10001113 f i stdafx.obj
 0001:00000117       ?_AtlGetThreadACPThunk@ATL@@YGIXZ 10001117 f i stdafx.obj
 0001:0000017c       ??0CComCriticalSection@ATL@@QAE@XZ 1000117c f i stdafx.obj
 0001:00000190       ?Init@CComCriticalSection@ATL@@QAEJXZ 10001190 f i stdafx.obj
 0001:000001e0       ??1CComBSTR@ATL@@QAE@XZ    100011e0 f i stdafx.obj
 0001:000001e9       ??0CAtlWinModule@ATL@@QAE@XZ 100011e9 f i stdafx.obj
 0001:0000020c       ??1CAtlWinModule@ATL@@QAE@XZ 1000120c f i stdafx.obj
 0001:00000224       ??0_ATL_WIN_MODULE70@ATL@@QAE@XZ 10001224 f i stdafx.obj
 0001:0000023e       ?AtlWinModuleTerm@ATL@@YGJPAU_ATL_WIN_MODULE70@1@PAUHINSTANCE__@@@Z 1000123e f i stdafx.obj
 0001:0000029e       ?AtlWinModuleInit@ATL@@YGJPAU_ATL_WIN_MODULE70@1@@Z 1000129e f i stdafx.obj
 0001:000002c1       ??_Estringdispid@CComTypeInfoHolder@ATL@@QAEPAXI@Z 100012c1 f i stdafx.obj
 0001:00000308       ??1stringdispid@CComTypeInfoHolder@ATL@@QAE@XZ 10001308 f i stdafx.obj
 0001:00000311       ?RemoveAll@?$CSimpleArray@GV?$CSimpleArrayEqualHelper@G@ATL@@@ATL@@QAEXXZ 10001311 f i stdafx.obj
 0001:0000032f       ??A?$CSimpleArray@GV?$CSimpleArrayEqualHelper@G@ATL@@@ATL@@QAEAAGH@Z 1000132f f i stdafx.obj
 0001:00000356       ?UpdateRegistryAppId@CVSNetToolHostShimModule@@SGJH@Z 10001356 f i VSNetToolHostShim.obj
 0001:00000389       ??0CVSNetToolHostShimModule@@QAE@XZ 10001389 f i VSNetToolHostShim.obj
 0001:00000398       ??1CVSNetToolHostShimModule@@UAE@XZ 10001398 f i VSNetToolHostShim.obj
 0001:0000039d       ??_ECVSNetToolHostShimModule@@UAEPAXI@Z 1000139d f i VSNetToolHostShim.obj
 0001:0000039d       ??_GCVSNetToolHostShimModule@@UAEPAXI@Z 1000139d f i VSNetToolHostShim.obj
 0001:000003ba       _DllMain@12                100013ba f   VSNetToolHostShim.obj
 0001:000003e2       _DllCanUnloadNow@0         100013e2 f   VSNetToolHostShim.obj
 0001:000003ff       _DllGetClassObject@12      100013ff f   VSNetToolHostShim.obj
 0001:00000423       _DllRegisterServer@0       10001423 f   VSNetToolHostShim.obj
 0001:00000441       _DllUnregisterServer@0     10001441 f   VSNetToolHostShim.obj
 0001:00000468       ??0?$CAtlDllModuleT@VCVSNetToolHostShimModule@@@ATL@@QAE@XZ 10001468 f i VSNetToolHostShim.obj
 0001:00000486       ??1?$CAtlDllModuleT@VCVSNetToolHostShimModule@@@ATL@@UAE@XZ 10001486 f i VSNetToolHostShim.obj
 0001:000004a0       ?AddCommonRGSReplacements@?$CAtlModuleT@VCVSNetToolHostShimModule@@@ATL@@UAEJPAUIRegistrarBase@@@Z 100014a0 f i VSNetToolHostShim.obj
 0001:000004b7       ??1?$CAtlModuleT@VCVSNetToolHostShimModule@@@ATL@@UAE@XZ 100014b7 f i VSNetToolHostShim.obj
 0001:000004bc       ??0?$CAtlModuleT@VCVSNetToolHostShimModule@@@ATL@@QAE@XZ 100014bc f i VSNetToolHostShim.obj
 0001:000004de       ?RegisterServer@?$CAtlModuleT@VCVSNetToolHostShimModule@@@ATL@@QAEJHPBU_GUID@@@Z 100014de f i VSNetToolHostShim.obj
 0001:0000050a       ?UnregisterServer@?$CAtlModuleT@VCVSNetToolHostShimModule@@@ATL@@QAEJHPBU_GUID@@@Z 1000150a f i VSNetToolHostShim.obj
 0001:00000530       ?GetGITPtr@CAtlModule@ATL@@UAEJPAPAUIGlobalInterfaceTable@@@Z 10001530 f i VSNetToolHostShim.obj
 0001:00000579       ?GetLockCount@CAtlModule@ATL@@UAEJXZ 10001579 f i VSNetToolHostShim.obj
 0001:0000057d       ?Unlock@CAtlModule@ATL@@UAEJXZ 1000157d f i VSNetToolHostShim.obj
 0001:00000588       ?Lock@CAtlModule@ATL@@UAEJXZ 10001588 f i VSNetToolHostShim.obj
 0001:00000593       ?AtlComModuleUnregisterServer@ATL@@YGJPAU_ATL_COM_MODULE70@1@HPBU_GUID@@@Z 10001593 f i VSNetToolHostShim.obj
 0001:00000617       _IsEqualGUID               10001617 f i VSNetToolHostShim.obj
 0001:0000062f       ?AtlRegisterClassCategoriesHelper@ATL@@YGJABU_GUID@@PBU_ATL_CATMAP_ENTRY@1@H@Z 1000162f f i VSNetToolHostShim.obj
 0001:00000899       _InlineIsEqualGUID         10001899 f i VSNetToolHostShim.obj
 0001:000008be       ??1?$CAtlSafeAllocBufferManager@VCCRTAllocator@ATL@@@_ATL_SAFE_ALLOCA_IMPL@ATL@@QAE@XZ 100018be f i VSNetToolHostShim.obj
 0001:000008d4       ??1CRegKey@ATL@@QAE@XZ     100018d4 f i VSNetToolHostShim.obj
 0001:000008d9       ?Open@CRegKey@ATL@@QAEJPAUHKEY__@@PBGK@Z 100018d9 f i VSNetToolHostShim.obj
 0001:0000090c       ?Close@CRegKey@ATL@@QAEJXZ 1000190c f i VSNetToolHostShim.obj
 0001:0000091f       ?AtlUnRegisterTypeLib@ATL@@YGJPAUHINSTANCE__@@PBG@Z 1000191f f i VSNetToolHostShim.obj
 0001:000009a1       ?AtlLoadTypeLib@ATL@@YGJPAUHINSTANCE__@@PBGPAPAGPAPAUITypeLib@@@Z 100019a1 f i VSNetToolHostShim.obj
 0001:00000af7       ?AtlHresultFromLastError@ATL@@YAJXZ 10001af7 f i VSNetToolHostShim.obj
 0001:00000b0c       ?AtlComModuleRegisterServer@ATL@@YGJPAU_ATL_COM_MODULE70@1@HPBU_GUID@@@Z 10001b0c f i VSNetToolHostShim.obj
 0001:00000b94       ?AtlRegisterTypeLib@ATL@@YGJPAUHINSTANCE__@@PBG@Z 10001b94 f i VSNetToolHostShim.obj
 0001:00000caa       ??0CAtlModule@ATL@@QAE@XZ  10001caa f i VSNetToolHostShim.obj
 0001:00000ce4       ?AtlComModuleGetClassObject@ATL@@YGJPAU_ATL_COM_MODULE70@1@ABU_GUID@@1PAPAX@Z 10001ce4 f i VSNetToolHostShim.obj
 0001:00000db9       ?AtlThrow@ATL@@YGXJ@Z      10001db9 f i VSNetToolHostShim.obj
 0001:00000dd1       ??1?$CComCritSecLock@VCComCriticalSection@ATL@@@ATL@@QAE@XZ 10001dd1 f i VSNetToolHostShim.obj
 0001:00000de8       ?Term@CAtlModule@ATL@@QAEXXZ 10001de8 f i VSNetToolHostShim.obj
 0001:00000e20       ?AtlCallTermFunc@ATL@@YGXPAU_ATL_MODULE70@1@@Z 10001e20 f i VSNetToolHostShim.obj
 0001:00000e58       ?ExecuteObjectMain@CAtlComModule@ATL@@QAEX_N@Z 10001e58 f i VSNetToolHostShim.obj
 0001:00000e77       ?UpdateRegistryFromResourceS@CAtlModule@ATL@@QAGJIHPAU_ATL_REGMAP_ENTRY@2@@Z 10001e77 f i VSNetToolHostShim.obj
 0001:00000ff4       ??0CRegObject@ATL@@QAE@XZ  10001ff4 f i VSNetToolHostShim.obj
 0001:00001006       ?GetRect@?$IViewObjectExImpl@VCVSNetToolWinShim@@@ATL@@UAGJKPAU_RECTL@@@Z 10002006 f i VSNetToolWinShim.obj
 0001:00001006       ?Scroll@CAxHostWindow@ATL@@UAGJUtagSIZE@@@Z 10002006 f i VSNetToolWinShim.obj
 0001:00001006       ?GetClipboardData@?$IOleObjectImpl@VCVSNetToolWinShim@@@ATL@@UAGJKPAPAUIDataObject@@@Z 10002006 f i VSNetToolWinShim.obj
 0001:00001006       ?GetDataHere@?$IDataObjectImpl@VCVSNetToolWinShim@@@ATL@@UAGJPAUtagFORMATETC@@PAUtagSTGMEDIUM@@@Z 10002006 f i VSNetToolWinShim.obj
 0001:00001006       ?EnumFormatEtc@?$IDataObjectImpl@VCVSNetToolWinShim@@@ATL@@UAGJKPAPAUIEnumFORMATETC@@@Z 10002006 f i VSNetToolWinShim.obj
 0001:00001006       ?GetCanonicalFormatEtc@?$IDataObjectImpl@VCVSNetToolWinShim@@@ATL@@UAGJPAUtagFORMATETC@@0@Z 10002006 f i VSNetToolWinShim.obj
 0001:00001006       ?QueryInterface@CRegObject@ATL@@UAGJABU_GUID@@PAPAX@Z 10002006 f i VSNetToolHostShim.obj
 0001:00001006       ?SetMoniker@?$IOleObjectImpl@VCVSNetToolWinShim@@@ATL@@UAGJKPAUIMoniker@@@Z 10002006 f i VSNetToolWinShim.obj
 0001:0000100e       ?AddRef@CRegObject@ATL@@UAGKXZ 1000200e f i VSNetToolHostShim.obj
 0001:00001014       ?ClearReplacements@CRegObject@ATL@@UAGJXZ 10002014 f i VSNetToolHostShim.obj
 0001:00001023       ?ClearReplacements@CExpansionVector@ATL@@QAEJXZ 10002023 f i VSNetToolHostShim.obj
 0001:00001060       ?GetKeyAt@?$CSimpleMap@PAGPAGVCExpansionVectorEqualHelper@ATL@@@ATL@@QBEAAPAGH@Z 10002060 f i VSNetToolHostShim.obj
 0001:00001081       ?GetValueAt@?$CSimpleMap@PAGPAGVCExpansionVectorEqualHelper@ATL@@@ATL@@QBEAAPAGH@Z 10002081 f i VSNetToolHostShim.obj
 0001:000010a3       ?RemoveAll@?$CSimpleMap@PAGPAGVCExpansionVectorEqualHelper@ATL@@@ATL@@QAEXXZ 100020a3 f i VSNetToolHostShim.obj
 0001:000010cc       ??_GCRegObject@ATL@@UAEPAXI@Z 100020cc f i VSNetToolHostShim.obj
 0001:000010cc       ??_ECRegObject@ATL@@UAEPAXI@Z 100020cc f i VSNetToolHostShim.obj
 0001:000010e8       ??1?$CSimpleMap@PAGPAGVCExpansionVectorEqualHelper@ATL@@@ATL@@QAE@XZ 100020e8 f i VSNetToolHostShim.obj
 0001:000010ed       ??1CExpansionVector@ATL@@QAE@XZ 100020ed f i VSNetToolHostShim.obj
 0001:0000111a       ??1CRegObject@ATL@@UAE@XZ  1000211a f i VSNetToolHostShim.obj
 0001:00001154       ?EscapeSingleQuote@CAtlModule@ATL@@SAXPAGPBG@Z 10002154 f i VSNetToolHostShim.obj
 0001:00001176       ?AddReplacement@CRegObject@ATL@@UAGJPBG0@Z 10002176 f i VSNetToolHostShim.obj
 0001:000011e0       ?Add@CExpansionVector@ATL@@QAEHPBG0@Z 100021e0 f i VSNetToolHostShim.obj
 0001:000012df       ?Add@?$CSimpleMap@PAGPAGVCExpansionVectorEqualHelper@ATL@@@ATL@@QAEHABQAG0@Z 100022df f i VSNetToolHostShim.obj
 0001:00001336       ?InternalSetAtIndex@?$CSimpleMap@PAGPAGVCExpansionVectorEqualHelper@ATL@@@ATL@@QAEXHABQAG0@Z 10002336 f i VSNetToolHostShim.obj
 0001:0000135b       ?ResourceRegister@CRegObject@ATL@@QAGJPBGI0@Z 1000235b f i VSNetToolHostShim.obj
 0001:000013a7       ?RegisterFromResource@CRegObject@ATL@@IAEJPBG00H@Z 100023a7 f i VSNetToolHostShim.obj
 0001:0000150e       ?AllocateBytes@?$CTempBuffer@G$0EAA@VCCRTAllocator@ATL@@@ATL@@QAEPAGI@Z 1000250e f i VSNetToolHostShim.obj
 0001:0000152e       ?RegisterBuffer@CRegParser@ATL@@QAEJPAGH@Z 1000252e f i VSNetToolHostShim.obj
 0001:00001640       ?PreProcessBuffer@CRegParser@ATL@@QAEJPAGPAPAG@Z 10002640 f i VSNetToolHostShim.obj
 0001:00001798       ??0CParseBuffer@CRegParser@ATL@@QAE@H@Z 10002798 f i VSNetToolHostShim.obj
 0001:000017bf       ??1CParseBuffer@CRegParser@ATL@@QAE@XZ 100027bf f i VSNetToolHostShim.obj
 0001:000017c9       ?StrChrW@CRegParser@ATL@@KAPAGPAGG@Z 100027c9 f i VSNetToolHostShim.obj
 0001:000017f0       ?Lookup@?$CSimpleMap@PAGPAGVCExpansionVectorEqualHelper@ATL@@@ATL@@QBEPAGABQAG@Z 100027f0 f i VSNetToolHostShim.obj
 0001:00001812       ?FindKey@?$CSimpleMap@PAGPAGVCExpansionVectorEqualHelper@ATL@@@ATL@@QBEHABQAG@Z 10002812 f i VSNetToolHostShim.obj
 0001:00001841       ?IsEqualKey@CExpansionVectorEqualHelper@ATL@@SA_NQAG0@Z 10002841 f i VSNetToolHostShim.obj
 0001:00001856       ?AddString@CParseBuffer@CRegParser@ATL@@QAEHPBG@Z 10002856 f i VSNetToolHostShim.obj
 0001:00001898       ?Append@CParseBuffer@CRegParser@ATL@@QAEHPBGH@Z 10002898 f i VSNetToolHostShim.obj
 0001:000018f3       ?HKeyFromString@CRegParser@ATL@@KAPAUHKEY__@@PAG@Z 100028f3 f i VSNetToolHostShim.obj
 0001:0000191e       ?NextToken@CRegParser@ATL@@IAEJPAG@Z 1000291e f i VSNetToolHostShim.obj
 0001:00001a19       ?EndOfVar@CRegParser@ATL@@IAEHXZ 10002a19 f i VSNetToolHostShim.obj
 0001:00001a35       ?IsSpace@CRegParser@ATL@@IAEHG@Z 10002a35 f i VSNetToolHostShim.obj
 0001:00001a53       ?RegisterSubkeys@CRegParser@ATL@@IAEJPAGPAUHKEY__@@HH@Z 10002a53 f i VSNetToolHostShim.obj
 0001:00001f7a       ?Create@CRegKey@ATL@@QAEJPAUHKEY__@@PBGPAGKKPAU_SECURITY_ATTRIBUTES@@PAK@Z 10002f7a f i VSNetToolHostShim.obj
 0001:00001fc3       ?AddValue@CRegParser@ATL@@IAEJAAVCRegKey@2@PBGPAG@Z 10002fc3 f i VSNetToolHostShim.obj
 0001:000022be       ?VTFromRegType@CRegParser@ATL@@KAHPBGAAG@Z 100032be f i VSNetToolHostShim.obj
 0001:00002350       ?SetStringValue@CRegKey@ATL@@QAEJPBG0K@Z 10003350 f i VSNetToolHostShim.obj
 0001:0000237b       ?FreeHeap@?$CTempBuffer@G$0EAA@VCCRTAllocator@ATL@@@ATL@@AAEXXZ 1000337b f i VSNetToolHostShim.obj
 0001:0000237b       ?FreeHeap@?$CTempBuffer@E$0BAA@VCCRTAllocator@ATL@@@ATL@@AAEXXZ 1000337b f i VSNetToolHostShim.obj
 0001:0000237b       ?FreeHeap@?$CTempBuffer@G$0BAA@VCCRTAllocator@ATL@@@ATL@@AAEXXZ 1000337b f i VSNetToolHostShim.obj
 0001:00002385       ?AllocateBytes@?$CTempBuffer@G$0BAA@VCCRTAllocator@ATL@@@ATL@@QAEPAGI@Z 10003385 f i VSNetToolHostShim.obj
 0001:00002385       ?AllocateBytes@?$CTempBuffer@E$0BAA@VCCRTAllocator@ATL@@@ATL@@QAEPAEI@Z 10003385 f i VSNetToolHostShim.obj
 0001:000023a5       ?AllocateHeap@?$CTempBuffer@G$0BAA@VCCRTAllocator@ATL@@@ATL@@AAEXI@Z 100033a5 f i VSNetToolHostShim.obj
 0001:000023a5       ?AllocateHeap@?$CTempBuffer@E$0BAA@VCCRTAllocator@ATL@@@ATL@@AAEXI@Z 100033a5 f i VSNetToolHostShim.obj
 0001:000023a5       ?AllocateHeap@?$CTempBuffer@G$0EAA@VCCRTAllocator@ATL@@@ATL@@AAEXI@Z 100033a5 f i VSNetToolHostShim.obj
 0001:000023c7       ?SetMultiStringValue@CRegKey@ATL@@QAEJPBG0@Z 100033c7 f i VSNetToolHostShim.obj
 0001:00002401       ?SetDWORDValue@CRegKey@ATL@@QAEJPBGK@Z 10003401 f i VSNetToolHostShim.obj
 0001:0000241f       ??1?$CTempBuffer@G$0EAA@VCCRTAllocator@ATL@@@ATL@@QAE@XZ 1000341f f i VSNetToolHostShim.obj
 0001:0000241f       ??1?$CTempBuffer@E$0BAA@VCCRTAllocator@ATL@@@ATL@@QAE@XZ 1000341f f i VSNetToolHostShim.obj
 0001:0000241f       ??1?$CTempBuffer@G$0BAA@VCCRTAllocator@ATL@@@ATL@@QAE@XZ 1000341f f i VSNetToolHostShim.obj
 0001:0000242c       ?ChToByte@CRegParser@ATL@@KAEG@Z 1000342c f i VSNetToolHostShim.obj
 0001:0000245c       ?SkipAssignment@CRegParser@ATL@@IAEJPAG@Z 1000345c f i VSNetToolHostShim.obj
 0001:000024bd       ?HasSubKeys@CRegParser@ATL@@IAEHPAUHKEY__@@@Z 100034bd f i VSNetToolHostShim.obj
 0001:000024f2       ?CanForceRemoveKey@CRegParser@ATL@@IAEHPBG@Z 100034f2 f i VSNetToolHostShim.obj
 0001:0000251e       ?RecurseDeleteKey@CRegKey@ATL@@QAEJPBG@Z 1000351e f i VSNetToolHostShim.obj
 0001:00002603       ?AtlHresultFromWin32@ATL@@YAJK@Z 10003603 f i VSNetToolHostShim.obj
 0001:00002612       ?SkipWhiteSpace@CRegParser@ATL@@IAEXXZ 10003612 f i VSNetToolHostShim.obj
 0001:0000262d       ?ResourceUnregister@CRegObject@ATL@@QAGJPBGI0@Z 1000362d f i VSNetToolHostShim.obj
 0001:00002678       ??0_ATL_MSG@ATL@@QAE@PAUHWND__@@IIJH@Z 10003678 f i VSNetToolWinShim.obj
 0001:000026ab       ?Register@_ATL_WNDCLASSINFOW@ATL@@QAEGPAP6GJPAUHWND__@@IIJ@Z@Z 100036ab f i VSNetToolWinShim.obj
 0001:000026ca       ?FindFirstDlgItem@_DialogSplitHelper@ATL@@SAPAUDLGITEMTEMPLATE@@PBUDLGTEMPLATE@@@Z 100036ca f i VSNetToolWinShim.obj
 0001:00002746       ?FindNextDlgItem@_DialogSplitHelper@ATL@@SAPAUDLGITEMTEMPLATE@@PAU3@H@Z 10003746 f i VSNetToolWinShim.obj
 0001:000027a5       ?FindCreateData@_DialogSplitHelper@ATL@@SAKKPAEPAPAE@Z 100037a5 f i VSNetToolWinShim.obj
 0001:000027df       ?IsActiveXControl@_DialogSplitHelper@ATL@@SA_NPAUDLGITEMTEMPLATE@@H@Z 100037df f i VSNetToolWinShim.obj
 0001:000027f6       ?SplitDialogTemplate@_DialogSplitHelper@ATL@@SAPAUDLGTEMPLATE@@PAU3@PAE@Z 100037f6 f i VSNetToolWinShim.obj
 0001:00002913       ?ParseInitData@_DialogSplitHelper@ATL@@SAJPAUIStream@@PAPAG@Z 10003913 f i VSNetToolWinShim.obj
 0001:00002ab0       ?Create@CWindow@ATL@@QAEPAUHWND__@@PBGPAU3@V_U_RECT@2@0KKV_U_MENUorID@2@PAX@Z 10003ab0 f i VSNetToolWinShim.obj
 0001:00002afe       ?IsParentDialog@CWindow@ATL@@QAEHXZ 10003afe f i VSNetToolWinShim.obj
 0001:00002b48       ?Init@CWndProcThunk@ATL@@QAEXP6GJPAUHWND__@@IIJ@ZPAX@Z 10003b48 f i VSNetToolWinShim.obj
 0001:00002b5f       ?GetDialogSize@_DialogSizeHelper@ATL@@SAXPBUDLGTEMPLATE@@PAUtagSIZE@@_N@Z 10003b5f f i VSNetToolWinShim.obj
 0001:00002bb7       ?GetFontDimensions@_DialogSizeHelper@ATL@@SAXPBGGPAUtagSIZE@@PAJ@Z 10003bb7 f i VSNetToolWinShim.obj
 0001:00002ccd       ?ConvertDialogUnitsToPixels@_DialogSizeHelper@ATL@@SAXPBGGPAUtagSIZE@@_N@Z 10003ccd f i VSNetToolWinShim.obj
 0001:00002db2       ?HasFont@_DialogSizeHelper@ATL@@SAHPBUDLGTEMPLATE@@@Z 10003db2 f i VSNetToolWinShim.obj
 0001:00002dc5       ?GetFontSizeField@_DialogSizeHelper@ATL@@SAPAEPBUDLGTEMPLATE@@@Z 10003dc5 f i VSNetToolWinShim.obj
 0001:00002e0c       ?GetFont@_DialogSizeHelper@ATL@@SAHPBUDLGTEMPLATE@@PAG1@Z 10003e0c f i VSNetToolWinShim.obj
 0001:00002e63       ?GetSizeInDialogUnits@_DialogSizeHelper@ATL@@SAXPBUDLGTEMPLATE@@PAUtagSIZE@@@Z 10003e63 f i VSNetToolWinShim.obj
 0001:00003029       ?FinalRelease@CAxFrameWindow@ATL@@QAEXXZ 10004029 f i VSNetToolWinShim.obj
 0001:00003029       ?FinalRelease@CAxUIWindow@ATL@@QAEXXZ 10004029 f i VSNetToolWinShim.obj
 0001:0000304d       ?GetWindow@CAxFrameWindow@ATL@@UAGJPAPAUHWND__@@@Z 1000404d f i VSNetToolWinShim.obj
 0001:00003096       ?SetActiveObject@CAxFrameWindow@ATL@@UAGJPAUIOleInPlaceActiveObject@@PBG@Z 10004096 f i VSNetToolWinShim.obj
 0001:00003096       ?SetActiveObject@CAxUIWindow@ATL@@UAGJPAUIOleInPlaceActiveObject@@PBG@Z 10004096 f i VSNetToolWinShim.obj
 0001:000030af       ?SetMenu@CAxFrameWindow@ATL@@UAGJPAUHMENU__@@PAXPAUHWND__@@@Z 100040af f i VSNetToolWinShim.obj
 0001:000030af       ?ResizeBorder@?$IOleInPlaceActiveObjectImpl@VCVSNetToolWinShim@@@ATL@@UAGJPBUtagRECT@@PAUIOleInPlaceUIWindow@@H@Z 100040af f i VSNetToolWinShim.obj
 0001:000030b4       ?TranslateAcceleratorW@CAxFrameWindow@ATL@@UAGJPAUtagMSG@@G@Z 100040b4 f i VSNetToolWinShim.obj
 0001:000030b4       ?TranslateAcceleratorW@CAxHostWindow@ATL@@UAGJPAUtagMSG@@K@Z 100040b4 f i VSNetToolWinShim.obj
 0001:000030ba       ??0CAxFrameWindow@ATL@@QAE@XZ 100040ba f i VSNetToolWinShim.obj
 0001:000030ba       ??0CAxUIWindow@ATL@@QAE@XZ 100040ba f i VSNetToolWinShim.obj
 0001:000030d8       ?ProcessWindowMessage@CAxFrameWindow@ATL@@UAEHPAUHWND__@@IIJAAJK@Z 100040d8 f i VSNetToolWinShim.obj
 0001:000030d8       ?ProcessWindowMessage@CAxUIWindow@ATL@@UAEHPAUHWND__@@IIJAAJK@Z 100040d8 f i VSNetToolWinShim.obj
 0001:000030dd       ?GetWindow@CAxUIWindow@ATL@@UAGJPAPAUHWND__@@@Z 100040dd f i VSNetToolWinShim.obj
 0001:00003119       ?RequestBorderSpace@CAxFrameWindow@ATL@@UAGJPBUtagRECT@@@Z 10004119 f i VSNetToolWinShim.obj
 0001:00003119       ?RequestBorderSpace@CAxUIWindow@ATL@@UAGJPBUtagRECT@@@Z 10004119 f i VSNetToolWinShim.obj
 0001:00003121       ?ContextSensitiveHelp@CAxFrameWindow@ATL@@UAGJH@Z 10004121 f i VSNetToolWinShim.obj
 0001:00003121       ?EnableModeless@?$IOleInPlaceActiveObjectImpl@VCVSNetToolWinShim@@@ATL@@UAGJH@Z 10004121 f i VSNetToolWinShim.obj
 0001:00003121       ?SaveCompleted@?$IPersistStorageImpl@VCVSNetToolWinShim@@@ATL@@UAGJPAUIStorage@@@Z 10004121 f i VSNetToolWinShim.obj
 0001:00003121       ?LockInPlaceActive@CAxHostWindow@ATL@@UAGJH@Z 10004121 f i VSNetToolWinShim.obj
 0001:00003121       ?SetStatusText@CAxFrameWindow@ATL@@UAGJPBG@Z 10004121 f i VSNetToolWinShim.obj
 0001:00003121       ?ContextSensitiveHelp@CAxUIWindow@ATL@@UAGJH@Z 10004121 f i VSNetToolWinShim.obj
 0001:00003121       ?EnableModeless@CAxFrameWindow@ATL@@UAGJH@Z 10004121 f i VSNetToolWinShim.obj
 0001:00003121       ?GetBorder@CAxFrameWindow@ATL@@UAGJPAUtagRECT@@@Z 10004121 f i VSNetToolWinShim.obj
 0001:00003121       ?AdjustRect@CAxHostWindow@ATL@@UAGJPAUtagRECT@@@Z 10004121 f i VSNetToolWinShim.obj
 0001:00003121       ?GetBorder@CAxUIWindow@ATL@@UAGJPAUtagRECT@@@Z 10004121 f i VSNetToolWinShim.obj
 0001:00003121       ?RemoveMenus@CAxFrameWindow@ATL@@UAGJPAUHMENU__@@@Z 10004121 f i VSNetToolWinShim.obj
 0001:00003121       ?SetBorderSpace@CAxUIWindow@ATL@@UAGJPBUtagRECT@@@Z 10004121 f i VSNetToolWinShim.obj
 0001:00003121       ?SetBorderSpace@CAxFrameWindow@ATL@@UAGJPBUtagRECT@@@Z 10004121 f i VSNetToolWinShim.obj
 0001:00003121       ?OnFrameWindowActivate@?$IOleInPlaceActiveObjectImpl@VCVSNetToolWinShim@@@ATL@@UAGJH@Z 10004121 f i VSNetToolWinShim.obj
 0001:00003126       ??1CAxUIWindow@ATL@@UAE@XZ 10004126 f i VSNetToolWinShim.obj
 0001:00003126       ??1CAxFrameWindow@ATL@@UAE@XZ 10004126 f i VSNetToolWinShim.obj
 0001:0000313b       ??0CAxHostWindow@ATL@@QAE@XZ 1000413b f i VSNetToolWinShim.obj
 0001:00003200       ??1CAxHostWindow@ATL@@UAE@XZ 10004200 f i VSNetToolWinShim.obj
 0001:000032d7       ?OnFinalMessage@CAxHostWindow@ATL@@UAEXPAUHWND__@@@Z 100042d7 f i VSNetToolWinShim.obj
 0001:000032e5       ?ProcessWindowMessage@CAxHostWindow@ATL@@UAEHPAUHWND__@@IIJAAJK@Z 100042e5 f i VSNetToolWinShim.obj
 0001:000036ad       ?OnForwardMsg@CAxHostWindow@ATL@@QAEJIIJAAH@Z 100046ad f i VSNetToolWinShim.obj
 0001:00003717       ?ReleaseAll@CAxHostWindow@ATL@@QAEXXZ 10004717 f i VSNetToolWinShim.obj
 0001:0000386a       ?OnMouseActivate@CAxHostWindow@ATL@@QAEJIIJAAH@Z 1000486a f i VSNetToolWinShim.obj
 0001:000038fe       ?OnSetFocus@CAxHostWindow@ATL@@QAEJIIJAAH@Z 100048fe f i VSNetToolWinShim.obj
 0001:000039c1       ?OnSize@CAxHostWindow@ATL@@QAEJIIJAAH@Z 100049c1 f i VSNetToolWinShim.obj
 0001:00003a4e       ?OnDestroy@CAxHostWindow@ATL@@QAEJIIJAAH@Z 10004a4e f i VSNetToolWinShim.obj
 0001:00003a81       ?OnWindowMessage@CAxHostWindow@ATL@@QAEJIIJAAH@Z 10004a81 f i VSNetToolWinShim.obj
 0001:00003ac3       ?OnWindowlessMouseMessage@CAxHostWindow@ATL@@QAEJIIJAAH@Z 10004ac3 f i VSNetToolWinShim.obj
 0001:00003b00       ?OnPaint@CAxHostWindow@ATL@@QAEJIIJAAH@Z 10004b00 f i VSNetToolWinShim.obj
 0001:00003c75       ?CreateControl@CAxHostWindow@ATL@@UAGJPBGPAUHWND__@@PAUIStream@@@Z 10004c75 f i VSNetToolWinShim.obj
 0001:00003ccc       ?CreateControlEx@CAxHostWindow@ATL@@UAGJPBGPAUHWND__@@PAUIStream@@PAPAUIUnknown@@ABU_GUID@@PAU5@@Z 10004ccc f i VSNetToolWinShim.obj
 0001:00003cf0       ?AttachControl@CAxHostWindow@ATL@@UAGJPAUIUnknown@@PAUHWND__@@@Z 10004cf0 f i VSNetToolWinShim.obj
 0001:00003d99       ?QueryControl@CAxHostWindow@ATL@@UAGJABU_GUID@@PAPAX@Z 10004d99 f i VSNetToolWinShim.obj
 0001:00003dc8       ?SetExternalDispatch@CAxHostWindow@ATL@@UAGJPAUIDispatch@@@Z 10004dc8 f i VSNetToolWinShim.obj
 0001:00003de1       ?SetExternalUIHandler@CAxHostWindow@ATL@@UAGJPAUIDocHostUIHandlerDispatch@@@Z 10004de1 f i VSNetToolWinShim.obj
 0001:00003dfa       ?CreateControlLic@CAxHostWindow@ATL@@UAGJPBGPAUHWND__@@PAUIStream@@PAG@Z 10004dfa f i VSNetToolWinShim.obj
 0001:00003e52       ?CreateControlLicEx@CAxHostWindow@ATL@@UAGJPBGPAUHWND__@@PAUIStream@@PAPAUIUnknown@@ABU_GUID@@PAU5@PAG@Z 10004e52 f i VSNetToolWinShim.obj
 0001:00004200       ?ShowContextMenu@CAxHostWindow@ATL@@UAGJKPAUtagPOINT@@PAUIUnknown@@PAUIDispatch@@@Z 10005200 f i VSNetToolWinShim.obj
 0001:0000423e       ?GetHostInfo@CAxHostWindow@ATL@@UAGJPAU_DOCHOSTUIINFO@@@Z 1000523e f i VSNetToolWinShim.obj
 0001:00004281       ?ShowUI@CAxHostWindow@ATL@@UAGJKPAUIOleInPlaceActiveObject@@PAUIOleCommandTarget@@PAUIOleInPlaceFrame@@PAUIOleInPlaceUIWindow@@@Z 10005281 f i VSNetToolWinShim.obj
 0001:000042bd       ?HideUI@CAxHostWindow@ATL@@UAGJXZ 100052bd f i VSNetToolWinShim.obj
 0001:000042d3       ?UpdateUI@CAxHostWindow@ATL@@UAGJXZ 100052d3 f i VSNetToolWinShim.obj
 0001:000042e9       ?EnableModeless@CAxHostWindow@ATL@@UAGJH@Z 100052e9 f i VSNetToolWinShim.obj
 0001:00004308       ?OnDocWindowActivate@CAxHostWindow@ATL@@UAGJH@Z 10005308 f i VSNetToolWinShim.obj
 0001:00004327       ?OnFrameWindowActivate@CAxHostWindow@ATL@@UAGJH@Z 10005327 f i VSNetToolWinShim.obj
 0001:00004346       ?ResizeBorder@CAxHostWindow@ATL@@UAGJPBUtagRECT@@PAUIOleInPlaceUIWindow@@H@Z 10005346 f i VSNetToolWinShim.obj
 0001:00004378       ?TranslateAcceleratorW@CAxHostWindow@ATL@@UAGJPAUtagMSG@@PBU_GUID@@K@Z 10005378 f i VSNetToolWinShim.obj
 0001:000043e1       ?GetOptionKeyPath@CAxHostWindow@ATL@@UAGJPAPAGK@Z 100053e1 f i VSNetToolWinShim.obj
 0001:00004468       ?GetDropTarget@CAxHostWindow@ATL@@UAGJPAUIDropTarget@@PAPAU3@@Z 10005468 f i VSNetToolWinShim.obj
 0001:000044ee       ?GetExternal@CAxHostWindow@ATL@@UAGJPAPAUIDispatch@@@Z 100054ee f i VSNetToolWinShim.obj
 0001:00004533       ?TranslateUrl@CAxHostWindow@ATL@@UAGJKPAGPAPAG@Z 10005533 f i VSNetToolWinShim.obj
 0001:00004600       ?FilterDataObject@CAxHostWindow@ATL@@UAGJPAUIDataObject@@PAPAU3@@Z 10005600 f i VSNetToolWinShim.obj
 0001:00004687       ?FireAmbientPropertyChange@CAxHostWindow@ATL@@QAEJJ@Z 10005687 f i VSNetToolWinShim.obj
 0001:000046dc       ?Invoke@CAxHostWindow@ATL@@UAGJJABU_GUID@@KGPAUtagDISPPARAMS@@PAUtagVARIANT@@PAUtagEXCEPINFO@@PAI@Z 100056dc f i VSNetToolWinShim.obj
 0001:0000474f       ?put_AllowWindowlessActivation@CAxHostWindow@ATL@@UAGJF@Z 1000574f f i VSNetToolWinShim.obj
 0001:00004765       ?get_AllowWindowlessActivation@CAxHostWindow@ATL@@UAGJPAF@Z 10005765 f i VSNetToolWinShim.obj
 0001:0000478a       ?put_BackColor@CAxHostWindow@ATL@@UAGJK@Z 1000578a f i VSNetToolWinShim.obj
 0001:000047ba       ?get_BackColor@CAxHostWindow@ATL@@UAGJPAK@Z 100057ba f i VSNetToolWinShim.obj
 0001:000047da       ?put_ForeColor@CAxHostWindow@ATL@@UAGJK@Z 100057da f i VSNetToolWinShim.obj
 0001:000047fb       ?get_ForeColor@CAxHostWindow@ATL@@UAGJPAK@Z 100057fb f i VSNetToolWinShim.obj
 0001:0000481b       ?put_LocaleID@CAxHostWindow@ATL@@UAGJK@Z 1000581b f i VSNetToolWinShim.obj
 0001:0000483c       ?get_LocaleID@CAxHostWindow@ATL@@UAGJPAK@Z 1000583c f i VSNetToolWinShim.obj
 0001:0000485c       ?put_UserMode@CAxHostWindow@ATL@@UAGJF@Z 1000585c f i VSNetToolWinShim.obj
 0001:00004883       ?get_UserMode@CAxHostWindow@ATL@@UAGJPAF@Z 10005883 f i VSNetToolWinShim.obj
 0001:000048a8       ?put_DisplayAsDefault@CAxHostWindow@ATL@@UAGJF@Z 100058a8 f i VSNetToolWinShim.obj
 0001:000048d0       ?get_DisplayAsDefault@CAxHostWindow@ATL@@UAGJPAF@Z 100058d0 f i VSNetToolWinShim.obj
 0001:000048f5       ?put_Font@CAxHostWindow@ATL@@UAGJPAUIFontDisp@@@Z 100058f5 f i VSNetToolWinShim.obj
 0001:00004921       ?get_Font@CAxHostWindow@ATL@@UAGJPAPAUIFontDisp@@@Z 10005921 f i VSNetToolWinShim.obj
 0001:00004a6b       ?put_MessageReflect@CAxHostWindow@ATL@@UAGJF@Z 10005a6b f i VSNetToolWinShim.obj
 0001:00004a93       ?get_MessageReflect@CAxHostWindow@ATL@@UAGJPAF@Z 10005a93 f i VSNetToolWinShim.obj
 0001:00004ab8       ?get_ShowGrabHandles@CAxHostWindow@ATL@@UAGJPAF@Z 10005ab8 f i VSNetToolWinShim.obj
 0001:00004ac5       ?get_ShowHatching@CAxHostWindow@ATL@@UAGJPAF@Z 10005ac5 f i VSNetToolWinShim.obj
 0001:00004add       ?put_DocHostFlags@CAxHostWindow@ATL@@UAGJK@Z 10005add f i VSNetToolWinShim.obj
 0001:00004afb       ?get_DocHostFlags@CAxHostWindow@ATL@@UAGJPAK@Z 10005afb f i VSNetToolWinShim.obj
 0001:00004b1b       ?put_DocHostDoubleClickFlags@CAxHostWindow@ATL@@UAGJK@Z 10005b1b f i VSNetToolWinShim.obj
 0001:00004b2e       ?get_DocHostDoubleClickFlags@CAxHostWindow@ATL@@UAGJPAK@Z 10005b2e f i VSNetToolWinShim.obj
 0001:00004b4e       ?put_AllowContextMenu@CAxHostWindow@ATL@@UAGJF@Z 10005b4e f i VSNetToolWinShim.obj
 0001:00004b68       ?get_AllowContextMenu@CAxHostWindow@ATL@@UAGJPAF@Z 10005b68 f i VSNetToolWinShim.obj
 0001:00004b8d       ?put_AllowShowUI@CAxHostWindow@ATL@@UAGJF@Z 10005b8d f i VSNetToolWinShim.obj
 0001:00004ba7       ?get_AllowShowUI@CAxHostWindow@ATL@@UAGJPAF@Z 10005ba7 f i VSNetToolWinShim.obj
 0001:00004bcc       ?put_OptionKeyPath@CAxHostWindow@ATL@@UAGJPAG@Z 10005bcc f i VSNetToolWinShim.obj
 0001:00004be6       ?get_OptionKeyPath@CAxHostWindow@ATL@@UAGJPAPAG@Z 10005be6 f i VSNetToolWinShim.obj
 0001:00004c06       ?SetAmbientDispatch@CAxHostWindow@ATL@@UAGJPAUIDispatch@@@Z 10005c06 f i VSNetToolWinShim.obj
 0001:00004c1f       ?SetSite@CAxHostWindow@ATL@@UAGJPAUIUnknown@@@Z 10005c1f f i VSNetToolWinShim.obj
 0001:00004c72       ?GetContainer@CAxHostWindow@ATL@@UAGJPAPAUIOleContainer@@@Z 10005c72 f i VSNetToolWinShim.obj
 0001:00004cb0       ?ShowObject@CAxHostWindow@ATL@@UAGJXZ 10005cb0 f i VSNetToolWinShim.obj
 0001:00004d00       ?GetWindow@CAxHostWindow@ATL@@UAGJPAPAUHWND__@@@Z 10005d00 f i VSNetToolWinShim.obj
 0001:00004d12       ?SetColorScheme@?$IOleObjectImpl@VCVSNetToolWinShim@@@ATL@@UAGJPAUtagLOGPALETTE@@@Z 10005d12 f i VSNetToolWinShim.obj
 0001:00004d12       ?OnPosRectChange@CAxHostWindow@ATL@@UAGJPBUtagRECT@@@Z 10005d12 f i VSNetToolWinShim.obj
 0001:00004d12       ?Unfreeze@?$IViewObjectExImpl@VCVSNetToolWinShim@@@ATL@@UAGJK@Z 10005d12 f i VSNetToolWinShim.obj
 0001:00004d12       ?QueryGetData@?$IDataObjectImpl@VCVSNetToolWinShim@@@ATL@@UAGJPAUtagFORMATETC@@@Z 10005d12 f i VSNetToolWinShim.obj
 0001:00004d12       ?GetDropTarget@?$IOleInPlaceObjectWindowlessImpl@VCVSNetToolWinShim@@@ATL@@UAGJPAPAUIDropTarget@@@Z 10005d12 f i VSNetToolWinShim.obj
 0001:00004d12       ?ContextSensitiveHelp@?$IOleInPlaceObjectWindowlessImpl@VCVSNetToolWinShim@@@ATL@@UAGJH@Z 10005d12 f i VSNetToolWinShim.obj
 0001:00004d12       ?OnMnemonic@?$IOleControlImpl@VCVSNetToolWinShim@@@ATL@@UAGJPAUtagMSG@@@Z 10005d12 f i VSNetToolWinShim.obj
 0001:00004d12       ?ContextSensitiveHelp@CAxHostWindow@ATL@@UAGJH@Z 10005d12 f i VSNetToolWinShim.obj
 0001:00004d12       ?OnShowWindow@CAxHostWindow@ATL@@UAGJH@Z 10005d12 f i VSNetToolWinShim.obj
 0001:00004d12       ?GetControlInfo@?$IOleControlImpl@VCVSNetToolWinShim@@@ATL@@UAGJPAUtagCONTROLINFO@@@Z 10005d12 f i VSNetToolWinShim.obj
 0001:00004d12       ?ContextSensitiveHelp@?$IOleInPlaceActiveObjectImpl@VCVSNetToolWinShim@@@ATL@@UAGJH@Z 10005d12 f i VSNetToolWinShim.obj
 0001:00004d1a       ?OnInPlaceActivate@CAxHostWindow@ATL@@UAGJXZ 10005d1a f i VSNetToolWinShim.obj
 0001:00004d4b       ?OnUIActivate@CAxHostWindow@ATL@@UAGJXZ 10005d4b f i VSNetToolWinShim.obj
 0001:00004d58       ?GetWindowContext@CAxHostWindow@ATL@@UAGJPAPAUIOleInPlaceFrame@@PAPAUIOleInPlaceUIWindow@@PAUtagRECT@@2PAUtagOIFI@@@Z 10005d58 f i VSNetToolWinShim.obj
 0001:00004e73       ?OnUIDeactivate@CAxHostWindow@ATL@@UAGJH@Z 10005e73 f i VSNetToolWinShim.obj
 0001:00004e80       ?OnInPlaceDeactivate@CAxHostWindow@ATL@@UAGJXZ 10005e80 f i VSNetToolWinShim.obj
 0001:00004e9e       ?OnInPlaceActivateEx@CAxHostWindow@ATL@@UAGJPAHK@Z 10005e9e f i VSNetToolWinShim.obj
 0001:00004f05       ?OnInPlaceDeactivateEx@CAxHostWindow@ATL@@UAGJH@Z 10005f05 f i VSNetToolWinShim.obj
 0001:00004f23       ?CanWindowlessActivate@CAxHostWindow@ATL@@UAGJXZ 10005f23 f i VSNetToolWinShim.obj
 0001:00004f35       ?GetCapture@CAxHostWindow@ATL@@UAGJXZ 10005f35 f i VSNetToolWinShim.obj
 0001:00004f47       ?SetCapture@CAxHostWindow@ATL@@UAGJH@Z 10005f47 f i VSNetToolWinShim.obj
 0001:00004f76       ?GetFocus@CAxHostWindow@ATL@@UAGJXZ 10005f76 f i VSNetToolWinShim.obj
 0001:00004f88       ?SetFocus@CAxHostWindow@ATL@@UAGJH@Z 10005f88 f i VSNetToolWinShim.obj
 0001:00004fa1       ?GetDC@CAxHostWindow@ATL@@UAGJPBUtagRECT@@KPAPAUHDC__@@@Z 10005fa1 f i VSNetToolWinShim.obj
 0001:00005074       ?ReleaseDC@CAxHostWindow@ATL@@UAGJPAUHDC__@@@Z 10006074 f i VSNetToolWinShim.obj
 0001:000050e0       ?InvalidateRect@CAxHostWindow@ATL@@UAGJPBUtagRECT@@H@Z 100060e0 f i VSNetToolWinShim.obj
 0001:000050fa       ?InvalidateRgn@CAxHostWindow@ATL@@UAGJPAUHRGN__@@H@Z 100060fa f i VSNetToolWinShim.obj
 0001:00005114       ?ScrollRect@CAxHostWindow@ATL@@UAGJHHPBUtagRECT@@0@Z 10006114 f i VSNetToolWinShim.obj
 0001:00005119       ?OnDefWindowMessage@CAxHostWindow@ATL@@UAGJIIJPAJ@Z 10006119 f i VSNetToolWinShim.obj
 0001:0000513b       ?GetExtendedControl@CAxHostWindow@ATL@@UAGJPAPAUIDispatch@@@Z 1000613b f i VSNetToolWinShim.obj
 0001:00005161       ?SetData@?$IDataObjectImpl@VCVSNetToolWinShim@@@ATL@@UAGJPAUtagFORMATETC@@PAUtagSTGMEDIUM@@H@Z 10006161 f i VSNetToolWinShim.obj
 0001:00005161       ?InitFromData@?$IOleObjectImpl@VCVSNetToolWinShim@@@ATL@@UAGJPAUIDataObject@@HK@Z 10006161 f i VSNetToolWinShim.obj
 0001:00005161       ?TransformCoords@CAxHostWindow@ATL@@UAGJPAU_POINTL@@PAUtagPOINTF@@K@Z 10006161 f i VSNetToolWinShim.obj
 0001:00005161       ?GetMoniker@CAxHostWindow@ATL@@UAGJKKPAPAUIMoniker@@@Z 10006161 f i VSNetToolWinShim.obj
 0001:00005161       ?GetMoniker@?$IOleObjectImpl@VCVSNetToolWinShim@@@ATL@@UAGJKKPAPAUIMoniker@@@Z 10006161 f i VSNetToolWinShim.obj
 0001:00005169       ?OnFocus@CAxHostWindow@ATL@@UAGJH@Z 10006169 f i VSNetToolWinShim.obj
 0001:00005182       ?RequestNewObjectLayout@CAxHostWindow@ATL@@UAGJXZ 10006182 f i VSNetToolWinShim.obj
 0001:00005182       ?ReactivateAndUndo@?$IOleInPlaceObjectWindowlessImpl@VCVSNetToolWinShim@@@ATL@@UAGJXZ 10006182 f i VSNetToolWinShim.obj
 0001:00005182       ?ShowPropertyFrame@CAxHostWindow@ATL@@UAGJXZ 10006182 f i VSNetToolWinShim.obj
 0001:00005182       ?DiscardUndoState@CAxHostWindow@ATL@@UAGJXZ 10006182 f i VSNetToolWinShim.obj
 0001:00005182       ?DeactivateAndUndo@CAxHostWindow@ATL@@UAGJXZ 10006182 f i VSNetToolWinShim.obj
 0001:00005182       ?SaveObject@CAxHostWindow@ATL@@UAGJXZ 10006182 f i VSNetToolWinShim.obj
 0001:0000518a       ?OnDataChange@CAxHostWindow@ATL@@UAGXPAUtagFORMATETC@@PAUtagSTGMEDIUM@@@Z 1000618a f i VSNetToolWinShim.obj
 0001:0000518a       ?OnViewChange@CAxHostWindow@ATL@@UAGXKJ@Z 1000618a f i VSNetToolWinShim.obj
 0001:0000518d       ?OnRename@CAxHostWindow@ATL@@UAGXPAUIMoniker@@@Z 1000618d f i VSNetToolWinShim.obj
 0001:00005190       ?ParseDisplayName@CAxHostWindow@ATL@@UAGJPAUIBindCtx@@PAGPAKPAPAUIMoniker@@@Z 10006190 f i VSNetToolWinShim.obj
 0001:00005190       ?Freeze@?$IViewObjectExImpl@VCVSNetToolWinShim@@@ATL@@UAGJKJPAXPAK@Z 10006190 f i VSNetToolWinShim.obj
 0001:00005198       ?EnumObjects@CAxHostWindow@ATL@@UAGJKPAPAUIEnumUnknown@@@Z 10006198 f i VSNetToolWinShim.obj
 0001:00005249       ?LockContainer@CAxHostWindow@ATL@@UAGJH@Z 10006249 f i VSNetToolWinShim.obj
 0001:00005265       ?ActivateAx@CAxHostWindow@ATL@@QAEJPAUIUnknown@@_NPAUIStream@@@Z 10006265 f i VSNetToolWinShim.obj
 0001:00005614       ?SubclassWindow@CAxHostWindow@ATL@@QAEXPAUHWND__@@@Z 10006614 f i VSNetToolWinShim.obj
 0001:0000562e       ?ReleaseWindow@CAxHostWindow@ATL@@QAEXXZ 1000662e f i VSNetToolWinShim.obj
 0001:00005659       ?ReflectNotifications@CAxHostWindow@ATL@@QAEJIIJAAH@Z 10006659 f i VSNetToolWinShim.obj
 0001:0000576d       ?QueryService@CAxHostWindow@ATL@@UAGJABU_GUID@@0PAPAX@Z 1000676d f i VSNetToolWinShim.obj
 0001:000057a4       ??1?$CWindowImpl@VCAxHostWindow@ATL@@VCWindow@2@V?$CWinTraits@$0FGAAAAAA@$0A@@2@@ATL@@UAE@XZ 100067a4 f i VSNetToolWinShim.obj
 0001:000057ac       ??1?$CComPtr@UIStream@@@ATL@@QAE@XZ 100067ac f i VSNetToolWinShim.obj
 0001:000057ac       ??1?$CComPtr@UIOleControlSite@@@ATL@@QAE@XZ 100067ac f i VSNetToolWinShim.obj
 0001:000057ac       ??1?$CComPtr@UWindow@EnvDTE@@@ATL@@QAE@XZ 100067ac f i VSNetToolWinShim.obj
 0001:000057ac       ??1?$CComPtr@UIOleInPlaceObject@@@ATL@@QAE@XZ 100067ac f i VSNetToolWinShim.obj
 0001:000057ac       ??1?$CComPtr@UIUnknown@@@ATL@@QAE@XZ 100067ac f i VSNetToolWinShim.obj
 0001:000057ac       ??1?$CComPtr@U_ObjectHandle@mscorlib@@@ATL@@QAE@XZ 100067ac f i VSNetToolWinShim.obj
 0001:000057ac       ??1?$CComPtr@UIPersist@@@ATL@@QAE@XZ 100067ac f i VSNetToolWinShim.obj
 0001:000057ac       ??1?$CComPtr@UIAdviseSink@@@ATL@@QAE@XZ 100067ac f i VSNetToolWinShim.obj
 0001:000057ac       ??1?$CComPtr@UIOleClientSite@@@ATL@@QAE@XZ 100067ac f i VSNetToolWinShim.obj
 0001:000057ac       ??1?$CComPtr@UIWin32Window@@@ATL@@QAE@XZ 100067ac f i VSNetToolWinShim.obj
 0001:000057ac       ??1?$CComPtr@UIOleControl@@@ATL@@QAE@XZ 100067ac f i VSNetToolWinShim.obj
 0001:000057ac       ??1?$CComPtr@UIOleInPlaceUIWindow@@@ATL@@QAE@XZ 100067ac f i VSNetToolWinShim.obj
 0001:000057ac       ??1?$CComPtr@UISpecifyPropertyPages@@@ATL@@QAE@XZ 100067ac f i VSNetToolWinShim.obj
 0001:000057ac       ??1?$CComPtr@U_AppDomain@mscorlib@@@ATL@@QAE@XZ 100067ac f i VSNetToolWinShim.obj
 0001:000057ac       ??1?$CComPtr@UIPersistStreamInit@@@ATL@@QAE@XZ 100067ac f i VSNetToolWinShim.obj
 0001:000057ac       ??1?$CComPtr@UIDataObject@@@ATL@@QAE@XZ 100067ac f i VSNetToolWinShim.obj
 0001:000057ac       ??1?$CComPtr@UIOleObject@@@ATL@@QAE@XZ 100067ac f i VSNetToolWinShim.obj
 0001:000057ac       ??1?$CComPtr@UIDispatch@@@ATL@@QAE@XZ 100067ac f i VSNetToolWinShim.obj
 0001:000057ac       ??1?$CComPtr@UIOleInPlaceFrame@@@ATL@@QAE@XZ 100067ac f i VSNetToolWinShim.obj
 0001:000057ac       ??1?$CComPtr@UITypeLib@@@ATL@@QAE@XZ 100067ac f i VSNetToolHostShim.obj
 0001:000057ac       ??1?$CComPtr@UIPictureDisp@@@ATL@@QAE@XZ 100067ac f i VSNetToolWinShim.obj
 0001:000057ac       ??1?$CComPtr@UITypeInfo@@@ATL@@QAE@XZ 100067ac f i VSNetToolWinShim.obj
 0001:000057ac       ??1?$CComPtr@UIViewObjectEx@@@ATL@@QAE@XZ 100067ac f i VSNetToolWinShim.obj
 0001:000057ac       ??1?$CComPtr@UIConnectionPointContainer@@@ATL@@QAE@XZ 100067ac f i VSNetToolWinShim.obj
 0001:000057ac       ??1?$CComPtr@UIPersistStream@@@ATL@@QAE@XZ 100067ac f i VSNetToolWinShim.obj
 0001:000057ac       ??1?$CComPtr@UIAxWinHostWindowLic@@@ATL@@QAE@XZ 100067ac f i VSNetToolWinShim.obj
 0001:000057ac       ??1?$CComPtr@UITypeInfo2@@@ATL@@QAE@XZ 100067ac f i VSNetToolWinShim.obj
 0001:000057ac       ??1?$CComPtr@UIPointerInactive@@@ATL@@QAE@XZ 100067ac f i VSNetToolWinShim.obj
 0001:000057ac       ??1?$CComPtr@UIClassFactory2@@@ATL@@QAE@XZ 100067ac f i VSNetToolWinShim.obj
 0001:000057ac       ??1?$CComPtr@UICorRuntimeHost@@@ATL@@QAE@XZ 100067ac f i VSNetToolWinShim.obj
 0001:000057ac       ??1?$CComPtr@UIAxWinAmbientDispatch@@@ATL@@QAE@XZ 100067ac f i VSNetToolWinShim.obj
 0001:000057ac       ??1?$CComPtr@UIWebBrowser2@@@ATL@@QAE@XZ 100067ac f i VSNetToolWinShim.obj
 0001:000057ac       ??1?$CComPtr@UICatRegister@@@ATL@@QAE@XZ 100067ac f i VSNetToolHostShim.obj
 0001:000057ac       ??1?$CComPtr@UIObjectWithSite@@@ATL@@QAE@XZ 100067ac f i VSNetToolWinShim.obj
 0001:000057ac       ??1?$CComPtr@UIOleInPlaceActiveObject@@@ATL@@QAE@XZ 100067ac f i VSNetToolWinShim.obj
 0001:000057ac       ??1?$CComPtr@UIConnectionPoint@@@ATL@@QAE@XZ 100067ac f i VSNetToolWinShim.obj
 0001:000057ac       ??1?$CComPtr@UIProvideClassInfo2@@@ATL@@QAE@XZ 100067ac f i VSNetToolWinShim.obj
 0001:00005b9e       _AtlAxCreateControlLic@20  10006b9e f i VSNetToolWinShim.obj
 0001:00005bbf       _AtlAxCreateControlLicEx@32 10006bbf f i VSNetToolWinShim.obj
 0001:00005c8c       _AtlAxWinInit@0            10006c8c f i VSNetToolWinShim.obj
 0001:00005dc7       _AtlAxGetControl@8         10006dc7 f i VSNetToolWinShim.obj
 0001:00005df9       _AtlAxGetHost@8            10006df9 f i VSNetToolWinShim.obj
 0001:00005e2b       ?FormatWindowClassName@AtlModuleRegisterWndClassInfoParamW@ATL@@SAXPAGPAX@Z 10006e2b f i VSNetToolWinShim.obj
 0001:00005e42       ?AtlWinModuleRegisterClassExW@ATL@@YGGPAU_ATL_WIN_MODULE70@1@PBUtagWNDCLASSEXW@@@Z 10006e42 f i VSNetToolWinShim.obj
 0001:00005e78       ?AtlCreateTargetDC@ATL@@YGPAUHDC__@@PAU2@PAUtagDVTARGETDEVICE@@@Z 10006e78 f i VSNetToolWinShim.obj
 0001:00005eda       ?AtlHiMetricToPixel@ATL@@YGXPBUtagSIZE@@PAU2@@Z 10006eda f i VSNetToolWinShim.obj
 0001:00005f31       ?AtlPixelToHiMetric@ATL@@YGXPBUtagSIZE@@PAU2@@Z 10006f31 f i VSNetToolWinShim.obj
 0001:00005f88       ??0CComControlBase@ATL@@QAE@AAPAUHWND__@@@Z 10006f88 f i VSNetToolWinShim.obj
 0001:00005fc2       ??1CComControlBase@ATL@@UAE@XZ 10006fc2 f i VSNetToolWinShim.obj
 0001:00006025       ?OnSetFocus@CComControlBase@ATL@@QAEJIIJAAH@Z 10007025 f i VSNetToolWinShim.obj
 0001:000060cd       ?OnKillFocus@CComControlBase@ATL@@QAEJIIJAAH@Z 100070cd f i VSNetToolWinShim.obj
 0001:0000613d       ?OnMouseActivate@CComControlBase@ATL@@QAEJIIJAAH@Z 1000713d f i VSNetToolWinShim.obj
 0001:000061c7       ?GetAmbientProperty@CComControlBase@ATL@@QAEJJAAUtagVARIANT@@@Z 100071c7 f i VSNetToolWinShim.obj
 0001:000061e5       ?GetAmbientBackColor@CComControlBase@ATL@@QAEJAAK@Z 100071e5 f i VSNetToolWinShim.obj
 0001:00006222       ?GetAmbientLocaleID@CComControlBase@ATL@@QAEJAAK@Z 10007222 f i VSNetToolWinShim.obj
 0001:0000625f       ?GetAmbientUserMode@CComControlBase@ATL@@QAEJAAH@Z 1000725f f i VSNetToolWinShim.obj
 0001:000062b4       ?InternalGetSite@CComControlBase@ATL@@QAEJABU_GUID@@PAPAX@Z 100072b4 f i VSNetToolWinShim.obj
 0001:000062db       ?DoesVerbUIActivate@CComControlBase@ATL@@QAEHJ@Z 100072db f i VSNetToolWinShim.obj
 0001:00006306       ?DoesVerbActivate@CComControlBase@ATL@@QAEHJ@Z 10007306 f i VSNetToolWinShim.obj
 0001:0000631f       ??1?$CComQIPtr@UIOleClientSite@@$1?_GUID_00000118_0000_0000_c000_000000000046@@3U__s_GUID@@B@ATL@@QAE@XZ 1000731f f i VSNetToolWinShim.obj
 0001:0000631f       ??1?$CComQIPtr@UIPersistStreamInit@@$1?_GUID_7fd52380_4e07_101b_ae2d_08002b2ec713@@3U__s_GUID@@B@ATL@@QAE@XZ 1000731f f i VSNetToolWinShim.obj
 0001:0000631f       ??1?$CComQIPtr@UIOleControlSite@@$1?_GUID_b196b289_bab4_101a_b69c_00aa00341d07@@3U__s_GUID@@B@ATL@@QAE@XZ 1000731f f i VSNetToolWinShim.obj
 0001:0000631f       ??1?$CComQIPtr@UWindow@EnvDTE@@$1?_GUID_0beab46b_4c07_4f94_a8d7_1626020e4e53@@3U__s_GUID@@B@ATL@@QAE@XZ 1000731f f i VSNetToolWinShim.obj
 0001:0000631f       ??1?$CComQIPtr@UISpecifyPropertyPages@@$1?_GUID_b196b28b_bab4_101a_b69c_00aa00341d07@@3U__s_GUID@@B@ATL@@QAE@XZ 1000731f f i VSNetToolWinShim.obj
 0001:0000631f       ??1?$CComQIPtr@UIOleInPlaceActiveObject@@$1?_GUID_00000117_0000_0000_c000_000000000046@@3U__s_GUID@@B@ATL@@QAE@XZ 1000731f f i VSNetToolWinShim.obj
 0001:0000631f       ??1?$CComQIPtr@UIOleObject@@$1?_GUID_00000112_0000_0000_c000_000000000046@@3U__s_GUID@@B@ATL@@QAE@XZ 1000731f f i VSNetToolWinShim.obj
 0001:0000631f       ??1?$CComQIPtr@UIOleControl@@$1?_GUID_b196b288_bab4_101a_b69c_00aa00341d07@@3U__s_GUID@@B@ATL@@QAE@XZ 1000731f f i VSNetToolWinShim.obj
 0001:0000631f       ??1?$CComQIPtr@UIPersistStream@@$1?_GUID_00000109_0000_0000_c000_000000000046@@3U__s_GUID@@B@ATL@@QAE@XZ 1000731f f i VSNetToolWinShim.obj
 0001:0000631f       ??1?$CComQIPtr@UIAdviseSink@@$1?_GUID_0000010f_0000_0000_c000_000000000046@@3U__s_GUID@@B@ATL@@QAE@XZ 1000731f f i VSNetToolWinShim.obj
 0001:00006324       ?IQuickActivate_QuickActivate@CComControlBase@ATL@@QAEJPAUtagQACONTAINER@@PAUtagQACONTROL@@@Z 10007324 f i VSNetToolWinShim.obj
 0001:000065a9       ?SetControlFocus@CComControlBase@ATL@@QAEHH@Z 100075a9 f i VSNetToolWinShim.obj
 0001:00006638       ?DoVerbProperties@CComControlBase@ATL@@QAEJPBUtagRECT@@PAUHWND__@@@Z 10007638 f i VSNetToolWinShim.obj
 0001:000067ce       ?InPlaceActivate@CComControlBase@ATL@@QAEJJPBUtagRECT@@@Z 100077ce f i VSNetToolWinShim.obj
 0001:00006aca       ?SendOnDataChange@CComControlBase@ATL@@QAEJK@Z 10007aca f i VSNetToolWinShim.obj
 0001:00006b2f       ?IOleObject_SetClientSite@CComControlBase@ATL@@QAEJPAUIOleClientSite@@@Z 10007b2f f i VSNetToolWinShim.obj
 0001:00006b63       ?IOleObject_GetClientSite@CComControlBase@ATL@@QAEJPAPAUIOleClientSite@@@Z 10007b63 f i VSNetToolWinShim.obj
 0001:00006b84       ?IOleObject_Advise@CComControlBase@ATL@@QAEJPAUIAdviseSink@@PAK@Z 10007b84 f i VSNetToolWinShim.obj
 0001:00006bae       ?IOleObject_Close@CComControlBase@ATL@@QAEJK@Z 10007bae f i VSNetToolWinShim.obj
 0001:00006cab       ?IOleInPlaceObject_InPlaceDeactivate@CComControlBase@ATL@@QAEJXZ 10007cab f i VSNetToolWinShim.obj
 0001:00006d36       ?IOleInPlaceObject_UIDeactivate@CComControlBase@ATL@@QAEJXZ 10007d36 f i VSNetToolWinShim.obj
 0001:00006e03       ?IOleInPlaceObject_SetObjectRects@CComControlBase@ATL@@QAEJPBUtagRECT@@0@Z 10007e03 f i VSNetToolWinShim.obj
 0001:00006ebb       ?IOleObject_SetExtent@CComControlBase@ATL@@QAEJKPAUtagSIZE@@@Z 10007ebb f i VSNetToolWinShim.obj
 0001:00006f7b       ?IViewObject_Draw@CComControlBase@ATL@@QAEJKJPAXPAUtagDVTARGETDEVICE@@PAUHDC__@@2PBU_RECTL@@3@Z 10007f7b f i VSNetToolWinShim.obj
 0001:00007022       ?IDataObject_GetData@CComControlBase@ATL@@QAEJPAUtagFORMATETC@@PAUtagSTGMEDIUM@@@Z 10008022 f i VSNetToolWinShim.obj
 0001:000071a2       ?FireViewChange@CComControlBase@ATL@@QAEJXZ 100081a2 f i VSNetToolWinShim.obj
 0001:000071ec       ?GetZoomInfo@CComControlBase@ATL@@QAEXAAUATL_DRAWINFO@@@Z 100081ec f i VSNetToolWinShim.obj
 0001:0000727c       ?OnDrawAdvanced@CComControlBase@ATL@@UAEJAAUATL_DRAWINFO@@@Z 1000827c f i VSNetToolWinShim.obj
 0001:00007354       ??0CVSNetToolWinShim@@QAE@XZ 10008354 f i VSNetToolWinShim.obj
 0001:000073bf       ?UpdateRegistry@CVSNetToolWinShim@@SGJH@Z 100083bf f i VSNetToolWinShim.obj
 0001:00007438       ?ProcessWindowMessage@CVSNetToolWinShim@@UAEHPAUHWND__@@IIJAAJK@Z 10008438 f i VSNetToolWinShim.obj
 0001:0000747f       ?_GetSinkMap@CVSNetToolWinShim@@SAPBU?$_ATL_EVENT_ENTRY@VCVSNetToolWinShim@@@ATL@@XZ 1000847f f i VSNetToolWinShim.obj
 0001:000074aa       ?OnAmbientPropertyChange@CVSNetToolWinShim@@UAGJJ@Z 100084aa f i VSNetToolWinShim.obj
 0001:000074ce       ?InterfaceSupportsErrorInfo@CVSNetToolWinShim@@UAGJABU_GUID@@@Z 100084ce f i VSNetToolWinShim.obj
 0001:000074f5       ??1CVSNetToolWinShim@@UAE@XZ 100084f5 f i VSNetToolWinShim.obj
 0001:00007546       ?OnSize@CVSNetToolWinShim@@QAEJIIJAAH@Z 10008546 f   VSNetToolWinShim.obj
 0001:0000756f       ?Reset@CVSNetToolWinShim@@QAEXXZ 1000856f f   VSNetToolWinShim.obj
 0001:000075aa       ?HostUserControl2@CVSNetToolWinShim@@UAGJPAUIUnknown@@PAG11HPAPAU2@@Z 100085aa f   VSNetToolWinShim.obj
 0001:00007824       ?HostUserControl@CVSNetToolWinShim@@UAGJPAG0PAPAUIDispatch@@@Z 10008824 f   VSNetToolWinShim.obj
 0001:000079b1       ?FinalConstruct@CVSNetToolWinShim@@QAEJXZ 100089b1 f   VSNetToolWinShim.obj
 0001:00007a70       ?CreateDIBPalette@@YAPAUHPALETTE__@@PAUtagBITMAPINFO@@PAH@Z 10008a70 f   VSNetToolWinShim.obj
 0001:00007b12       ?LoadResourceBitmap@@YAPAUHBITMAP__@@PAUHINSTANCE__@@PAGPAPAUHPALETTE__@@@Z 10008b12 f   VSNetToolWinShim.obj
 0001:00007ba4       ?Add@?$CSimpleArray@GV?$CSimpleArrayEqualHelper@G@ATL@@@ATL@@QAEHABG@Z 10008ba4 f i VSNetToolWinShim.obj
 0001:00007bea       ?Create@?$CWindowImpl@VCAxFrameWindow@ATL@@VCWindow@2@V?$CWinTraits@$0FGAAAAAA@$0A@@2@@ATL@@QAEPAUHWND__@@PAU3@V_U_RECT@2@PBGKKV_U_MENUorID@2@PAX@Z 10008bea f i VSNetToolWinShim.obj
 0001:00007c44       ?GetWindowProc@?$CWindowImplBaseT@VCWindow@ATL@@V?$CWinTraits@$0FGAAAAAA@$0A@@2@@ATL@@UAEP6GJPAUHWND__@@IIJ@ZXZ 10008c44 f i VSNetToolWinShim.obj
 0001:00007c4a       ?DefWindowProcW@?$CWindowImplBaseT@VCWindow@ATL@@V?$CWinTraits@$0FGAAAAAA@$0A@@2@@ATL@@QAEJXZ 10008c4a f i VSNetToolWinShim.obj
 0001:00007c64       ?DefWindowProcW@?$CWindowImplBaseT@VCWindow@ATL@@V?$CWinTraits@$0FGAAAAAA@$0A@@2@@ATL@@QAEJIIJ@Z 10008c64 f i VSNetToolWinShim.obj
 0001:00007c7f       ?Create@?$CWindowImpl@VCAxUIWindow@ATL@@VCWindow@2@V?$CWinTraits@$0FGAAAAAA@$0A@@2@@ATL@@QAEPAUHWND__@@PAU3@V_U_RECT@2@PBGKKV_U_MENUorID@2@PAX@Z 10008c7f f i VSNetToolWinShim.obj
 0001:00007cd9       ?SetSite@?$IObjectWithSiteImpl@VCAxHostWindow@ATL@@@ATL@@UAGJPAUIUnknown@@@Z 10008cd9 f i VSNetToolWinShim.obj
 0001:00007cfb       ?GetSite@?$IObjectWithSiteImpl@VCAxHostWindow@ATL@@@ATL@@UAGJABU_GUID@@PAPAX@Z 10008cfb f i VSNetToolWinShim.obj
 0001:00007d33       ?GetTypeInfo@?$IDispatchImpl@UIAxWinAmbientDispatchEx@@$1?_GUID_b2d0778b_ac99_4c58_a5c8_e7724e5316b5@@3U__s_GUID@@B$1?m_libid@CAtlModule@ATL@@2U_GUID@@A$0PPPP@$0PPPP@VCComTypeInfoHolder@ATL@@@ATL@@UAGJIKPAPAUITypeInfo@@@Z 10008d33 f i VSNetToolWinShim.obj
 0001:00007d4a       ?GetIDsOfNames@?$IDispatchImpl@UIAxWinAmbientDispatchEx@@$1?_GUID_b2d0778b_ac99_4c58_a5c8_e7724e5316b5@@3U__s_GUID@@B$1?m_libid@CAtlModule@ATL@@2U_GUID@@A$0PPPP@$0PPPP@VCComTypeInfoHolder@ATL@@@ATL@@UAGJABU_GUID@@PAPAGIKPAJ@Z 10008d4a f i VSNetToolWinShim.obj
 0001:00007d67       ?Invoke@?$IDispatchImpl@UIAxWinAmbientDispatchEx@@$1?_GUID_b2d0778b_ac99_4c58_a5c8_e7724e5316b5@@3U__s_GUID@@B$1?m_libid@CAtlModule@ATL@@2U_GUID@@A$0PPPP@$0PPPP@VCComTypeInfoHolder@ATL@@@ATL@@UAGJJABU_GUID@@KGPAUtagDISPPARAMS@@PAUtagVARIANT@@PAUtagEXCEPINFO@@PAI@Z 10008d67 f i VSNetToolWinShim.obj
 0001:00007d92       ?CopyTo@?$CComPtrBase@UIOleInPlaceUIWindow@@@ATL@@QAEJPAPAUIOleInPlaceUIWindow@@@Z 10008d92 f i VSNetToolWinShim.obj
 0001:00007d92       ?CopyTo@?$CComPtrBase@UIDispatch@@@ATL@@QAEJPAPAUIDispatch@@@Z 10008d92 f i VSNetToolWinShim.obj
 0001:00007d92       ?CopyTo@?$CComPtrBase@UIOleInPlaceFrame@@@ATL@@QAEJPAPAUIOleInPlaceFrame@@@Z 10008d92 f i VSNetToolWinShim.obj
 0001:00007d92       ?CopyTo@?$CComPtrBase@UIFontDisp@@@ATL@@QAEJPAPAUIFontDisp@@@Z 10008d92 f i VSNetToolWinShim.obj
 0001:00007daf       ??0?$CComQIPtr@UIOleInPlaceActiveObject@@$1?_GUID_00000117_0000_0000_c000_000000000046@@3U__s_GUID@@B@ATL@@QAE@PAUIUnknown@@@Z 10008daf f i VSNetToolWinShim.obj
 0001:00007dd1       ??0?$CComQIPtr@UIOleControl@@$1?_GUID_b196b288_bab4_101a_b69c_00aa00341d07@@3U__s_GUID@@B@ATL@@QAE@PAUIUnknown@@@Z 10008dd1 f i VSNetToolWinShim.obj
 0001:00007df3       ??1?$CComObject@VCAxFrameWindow@ATL@@@ATL@@UAE@XZ 10008df3 f i VSNetToolWinShim.obj
 0001:00007e23       ?Release@?$CComObject@VCAxFrameWindow@ATL@@@ATL@@UAGKXZ 10008e23 f i VSNetToolWinShim.obj
 0001:00007e23       ?Release@?$CComObject@VCAxUIWindow@ATL@@@ATL@@UAGKXZ 10008e23 f i VSNetToolWinShim.obj
 0001:00007e44       ?QueryInterface@?$CComObject@VCAxFrameWindow@ATL@@@ATL@@UAGJABU_GUID@@PAPAX@Z 10008e44 f i VSNetToolWinShim.obj
 0001:00007e63       ??1?$CComObject@VCAxUIWindow@ATL@@@ATL@@UAE@XZ 10008e63 f i VSNetToolWinShim.obj
 0001:00007e93       ?AddRef@?$CComObject@VCAxUIWindow@ATL@@@ATL@@UAGKXZ 10008e93 f i VSNetToolWinShim.obj
 0001:00007e93       ?AddRef@?$CComPolyObject@VCAxHostWindow@ATL@@@ATL@@UAGKXZ 10008e93 f i VSNetToolWinShim.obj
 0001:00007e93       ?AddRef@?$CComObject@VCAxFrameWindow@ATL@@@ATL@@UAGKXZ 10008e93 f i VSNetToolWinShim.obj
 0001:00007e93       ?AddRef@?$CComAggObject@VCVSNetToolWinShim@@@ATL@@UAGKXZ 10008e93 f i VSNetToolWinShim.obj
 0001:00007ea0       ?QueryInterface@?$CComObject@VCAxUIWindow@ATL@@@ATL@@UAGJABU_GUID@@PAPAX@Z 10008ea0 f i VSNetToolWinShim.obj
 0001:00007ebf       ??0?$CComObject@V?$CComEnum@UIEnumUnknown@@$1?_GUID_00000100_0000_0000_c000_000000000046@@3U__s_GUID@@BPAUIUnknown@@V?$_CopyInterface@UIUnknown@@@ATL@@VCComSingleThreadModel@6@@ATL@@@ATL@@QAE@PAX@Z 10008ebf f i VSNetToolWinShim.obj
 0001:00007eda       ??1?$CComObject@V?$CComEnum@UIEnumUnknown@@$1?_GUID_00000100_0000_0000_c000_000000000046@@3U__s_GUID@@BPAUIUnknown@@V?$_CopyInterface@UIUnknown@@@ATL@@VCComSingleThreadModel@6@@ATL@@@ATL@@UAE@XZ 10008eda f i VSNetToolWinShim.obj
 0001:00007efd       ?AddRef@?$CComObject@V?$CComEnum@UIEnumUnknown@@$1?_GUID_00000100_0000_0000_c000_000000000046@@3U__s_GUID@@BPAUIUnknown@@V?$_CopyInterface@UIUnknown@@@ATL@@VCComSingleThreadModel@6@@ATL@@@ATL@@UAGKXZ 10008efd f i VSNetToolWinShim.obj
 0001:00007f0a       ?Release@?$CComObject@V?$CComEnum@UIEnumUnknown@@$1?_GUID_00000100_0000_0000_c000_000000000046@@3U__s_GUID@@BPAUIUnknown@@V?$_CopyInterface@UIUnknown@@@ATL@@VCComSingleThreadModel@6@@ATL@@@ATL@@UAGKXZ 10008f0a f i VSNetToolWinShim.obj
 0001:00007f28       ?QueryInterface@?$CComObject@V?$CComEnum@UIEnumUnknown@@$1?_GUID_00000100_0000_0000_c000_000000000046@@3U__s_GUID@@BPAUIUnknown@@V?$_CopyInterface@UIUnknown@@@ATL@@VCComSingleThreadModel@6@@ATL@@@ATL@@UAGJABU_GUID@@PAPAX@Z 10008f28 f i VSNetToolWinShim.obj
 0001:00007f43       ?Reset@?$CComEnumImpl@UIEnumUnknown@@$1?_GUID_00000100_0000_0000_c000_000000000046@@3U__s_GUID@@BPAUIUnknown@@V?$_CopyInterface@UIUnknown@@@ATL@@@ATL@@UAGJXZ 10008f43 f i VSNetToolWinShim.obj
 0001:00007f52       ??0?$CComQIPtr@UIOleClientSite@@$1?_GUID_00000118_0000_0000_c000_000000000046@@3U__s_GUID@@B@ATL@@QAE@PAUIUnknown@@@Z 10008f52 f i VSNetToolWinShim.obj
 0001:00007f74       ??0?$CComQIPtr@UIPersistStreamInit@@$1?_GUID_7fd52380_4e07_101b_ae2d_08002b2ec713@@3U__s_GUID@@B@ATL@@QAE@PAUIUnknown@@@Z 10008f74 f i VSNetToolWinShim.obj
 0001:00007f96       ??0?$CComQIPtr@UIPersistStream@@$1?_GUID_00000109_0000_0000_c000_000000000046@@3U__s_GUID@@B@ATL@@QAE@PAUIUnknown@@@Z 10008f96 f i VSNetToolWinShim.obj
 0001:00007fb8       ??0?$CComQIPtr@UIAdviseSink@@$1?_GUID_0000010f_0000_0000_c000_000000000046@@3U__s_GUID@@B@ATL@@QAE@PAUIUnknown@@@Z 10008fb8 f i VSNetToolWinShim.obj
 0001:00007fda       ?CreateInstance@?$CComCreator@V?$CComPolyObject@VCAxHostWindow@ATL@@@ATL@@@ATL@@SGJPAXABU_GUID@@PAPAX@Z 10008fda f i VSNetToolWinShim.obj
 0001:00008075       ??0?$CComQIPtr@UIOleControlSite@@$1?_GUID_b196b289_bab4_101a_b69c_00aa00341d07@@3U__s_GUID@@B@ATL@@QAE@PAUIUnknown@@@Z 10009075 f i VSNetToolWinShim.obj
 0001:00008097       ?GetTypeInfoCount@?$IDispatchImpl@UIAxWinAmbientDispatchEx@@$1?_GUID_b2d0778b_ac99_4c58_a5c8_e7724e5316b5@@3U__s_GUID@@B$1?m_libid@CAtlModule@ATL@@2U_GUID@@A$0PPPP@$0PPPP@VCComTypeInfoHolder@ATL@@@ATL@@UAGJPAI@Z 10009097 f i VSNetToolWinShim.obj
 0001:00008097       ?GetTypeInfoCount@?$IDispatchImpl@UIVSNetToolWinShim@@$1?IID_IVSNetToolWinShim@@3U_GUID@@B$1?LIBID_VSNetToolHostShimLib@@3U3@B$00$0A@VCComTypeInfoHolder@ATL@@@ATL@@UAGJPAI@Z 10009097 f i VSNetToolWinShim.obj
 0001:000080b1       ?GetTypeInfo@?$IDispatchImpl@UIVSNetToolWinShim@@$1?IID_IVSNetToolWinShim@@3U_GUID@@B$1?LIBID_VSNetToolHostShimLib@@3U3@B$00$0A@VCComTypeInfoHolder@ATL@@@ATL@@UAGJIKPAPAUITypeInfo@@@Z 100090b1 f i VSNetToolWinShim.obj
 0001:000080c8       ?GetIDsOfNames@?$IDispatchImpl@UIVSNetToolWinShim@@$1?IID_IVSNetToolWinShim@@3U_GUID@@B$1?LIBID_VSNetToolHostShimLib@@3U3@B$00$0A@VCComTypeInfoHolder@ATL@@@ATL@@UAGJABU_GUID@@PAPAGIKPAJ@Z 100090c8 f i VSNetToolWinShim.obj
 0001:000080e5       ?Invoke@?$IDispatchImpl@UIVSNetToolWinShim@@$1?IID_IVSNetToolWinShim@@3U_GUID@@B$1?LIBID_VSNetToolHostShimLib@@3U3@B$00$0A@VCComTypeInfoHolder@ATL@@@ATL@@UAGJJABU_GUID@@KGPAUtagDISPPARAMS@@PAUtagVARIANT@@PAUtagEXCEPINFO@@PAI@Z 100090e5 f i VSNetToolWinShim.obj
 0001:00008110       ?IsDirty@?$IPersistStreamInitImpl@VCVSNetToolWinShim@@@ATL@@UAGJXZ 10009110 f i VSNetToolWinShim.obj
 0001:0000812d       ?Load@?$IPersistStreamInitImpl@VCVSNetToolWinShim@@@ATL@@UAGJPAUIStream@@@Z 1000912d f i VSNetToolWinShim.obj
 0001:0000814e       ?Save@?$IPersistStreamInitImpl@VCVSNetToolWinShim@@@ATL@@UAGJPAUIStream@@H@Z 1000914e f i VSNetToolWinShim.obj
 0001:0000817a       ?GetSizeMax@?$IPersistStreamInitImpl@VCVSNetToolWinShim@@@ATL@@UAGJPAT_ULARGE_INTEGER@@@Z 1000917a f i VSNetToolWinShim.obj
 0001:000082aa       ?InitNew@?$IPersistStreamInitImpl@VCVSNetToolWinShim@@@ATL@@UAGJXZ 100092aa f i VSNetToolWinShim.obj
 0001:000082c0       ?FreezeEvents@?$IOleControlImpl@VCVSNetToolWinShim@@@ATL@@UAGJH@Z 100092c0 f i VSNetToolWinShim.obj
 0001:000082e1       ?SetClientSite@?$IOleObjectImpl@VCVSNetToolWinShim@@@ATL@@UAGJPAUIOleClientSite@@@Z 100092e1 f i VSNetToolWinShim.obj
 0001:000082ff       ?GetClientSite@?$IOleObjectImpl@VCVSNetToolWinShim@@@ATL@@UAGJPAPAUIOleClientSite@@@Z 100092ff f i VSNetToolWinShim.obj
 0001:0000831b       ?InsertMenus@CAxFrameWindow@ATL@@UAGJPAUHMENU__@@PAUtagOleMenuGroupWidths@@@Z 1000931b f i VSNetToolWinShim.obj
 0001:0000831b       ?SetHostNames@?$IOleObjectImpl@VCVSNetToolWinShim@@@ATL@@UAGJPBG0@Z 1000931b f i VSNetToolWinShim.obj
 0001:00008320       ?Close@?$IOleObjectImpl@VCVSNetToolWinShim@@@ATL@@UAGJK@Z 10009320 f i VSNetToolWinShim.obj
 0001:0000833e       ?DoVerb@?$IOleObjectImpl@VCVSNetToolWinShim@@@ATL@@UAGJJPAUtagMSG@@PAUIOleClientSite@@JPAUHWND__@@PBUtagRECT@@@Z 1000933e f i VSNetToolWinShim.obj
 0001:00008405       ?EnumVerbs@?$IOleObjectImpl@VCVSNetToolWinShim@@@ATL@@UAGJPAPAUIEnumOLEVERB@@@Z 10009405 f i VSNetToolWinShim.obj
 0001:00008425       ?Release@CRegObject@ATL@@UAGKXZ 10009425 f i VSNetToolHostShim.obj
 0001:00008425       ?HandsOffStorage@?$IPersistStorageImpl@VCVSNetToolWinShim@@@ATL@@UAGJXZ 10009425 f i VSNetToolWinShim.obj
 0001:00008425       ?IsUpToDate@?$IOleObjectImpl@VCVSNetToolWinShim@@@ATL@@UAGJXZ 10009425 f i VSNetToolWinShim.obj
 0001:00008425       ?RequestUIActivate@CAxHostWindow@ATL@@UAGJXZ 10009425 f i VSNetToolWinShim.obj
 0001:00008425       ?CanInPlaceActivate@CAxHostWindow@ATL@@UAGJXZ 10009425 f i VSNetToolWinShim.obj
 0001:00008425       ?OnControlInfoChanged@CAxHostWindow@ATL@@UAGJXZ 10009425 f i VSNetToolWinShim.obj
 0001:00008425       ?Update@?$IOleObjectImpl@VCVSNetToolWinShim@@@ATL@@UAGJXZ 10009425 f i VSNetToolWinShim.obj
 0001:0000842a       ?GetUserType@?$IOleObjectImpl@VCVSNetToolWinShim@@@ATL@@UAGJKPAPAG@Z 1000942a f i VSNetToolWinShim.obj
 0001:00008440       ?SetExtent@?$IOleObjectImpl@VCVSNetToolWinShim@@@ATL@@UAGJKPAUtagSIZE@@@Z 10009440 f i VSNetToolWinShim.obj
 0001:00008465       ?GetExtent@?$IOleObjectImpl@VCVSNetToolWinShim@@@ATL@@UAGJKPAUtagSIZE@@@Z 10009465 f i VSNetToolWinShim.obj
 0001:000084a1       ?Advise@?$IOleObjectImpl@VCVSNetToolWinShim@@@ATL@@UAGJPAUIAdviseSink@@PAK@Z 100094a1 f i VSNetToolWinShim.obj
 0001:000084c1       ?Unadvise@?$IOleObjectImpl@VCVSNetToolWinShim@@@ATL@@UAGJK@Z 100094c1 f i VSNetToolWinShim.obj
 0001:000084e7       ?EnumAdvise@?$IOleObjectImpl@VCVSNetToolWinShim@@@ATL@@UAGJPAPAUIEnumSTATDATA@@@Z 100094e7 f i VSNetToolWinShim.obj
 0001:0000851c       ?GetMiscStatus@?$IOleObjectImpl@VCVSNetToolWinShim@@@ATL@@UAGJKPAK@Z 1000951c f i VSNetToolWinShim.obj
 0001:00008532       ?GetWindow@?$IOleInPlaceActiveObjectImpl@VCVSNetToolWinShim@@@ATL@@UAGJPAPAUHWND__@@@Z 10009532 f i VSNetToolWinShim.obj
 0001:00008570       ?TranslateAcceleratorW@?$IOleInPlaceActiveObjectImpl@VCVSNetToolWinShim@@@ATL@@UAGJPAUtagMSG@@@Z 10009570 f i VSNetToolWinShim.obj
 0001:0000862e       ?OnDocWindowActivate@?$IOleInPlaceActiveObjectImpl@VCVSNetToolWinShim@@@ATL@@UAGJH@Z 1000962e f i VSNetToolWinShim.obj
 0001:00008651       ?Draw@?$IViewObjectExImpl@VCVSNetToolWinShim@@@ATL@@UAGJKJPAXPAUtagDVTARGETDEVICE@@PAUHDC__@@2PBU_RECTL@@3P6GHK@ZK@Z 10009651 f i VSNetToolWinShim.obj
 0001:00008686       ?GetColorSet@?$IViewObjectExImpl@VCVSNetToolWinShim@@@ATL@@UAGJKJPAXPAUtagDVTARGETDEVICE@@PAUHDC__@@PAPAUtagLOGPALETTE@@@Z 10009686 f i VSNetToolWinShim.obj
 0001:0000868e       ?SetAdvise@?$IViewObjectExImpl@VCVSNetToolWinShim@@@ATL@@UAGJKKPAUIAdviseSink@@@Z 1000968e f i VSNetToolWinShim.obj
 0001:000086b0       ?GetAdvise@?$IViewObjectExImpl@VCVSNetToolWinShim@@@ATL@@UAGJPAK0PAPAUIAdviseSink@@@Z 100096b0 f i VSNetToolWinShim.obj
 0001:000086e3       ?GetExtent@?$IViewObjectExImpl@VCVSNetToolWinShim@@@ATL@@UAGJKJPAUtagDVTARGETDEVICE@@PAUtagSIZE@@@Z 100096e3 f i VSNetToolWinShim.obj
 0001:00008711       ?GetViewStatus@?$IViewObjectExImpl@VCVSNetToolWinShim@@@ATL@@UAGJPAK@Z 10009711 f i VSNetToolWinShim.obj
 0001:0000872b       ?QueryHitPoint@?$IViewObjectExImpl@VCVSNetToolWinShim@@@ATL@@UAGJKPBUtagRECT@@UtagPOINT@@JPAK@Z 1000972b f i VSNetToolWinShim.obj
 0001:0000876c       ?QueryHitRect@?$IViewObjectExImpl@VCVSNetToolWinShim@@@ATL@@UAGJKPBUtagRECT@@0JPAK@Z 1000976c f i VSNetToolWinShim.obj
 0001:000087b1       ?GetNaturalExtent@?$IViewObjectExImpl@VCVSNetToolWinShim@@@ATL@@UAGJKJPAUtagDVTARGETDEVICE@@PAUHDC__@@PAUtagExtentInfo@@PAUtagSIZE@@@Z 100097b1 f i VSNetToolWinShim.obj
 0001:000087f9       ?GetWindow@?$IOleInPlaceObjectWindowlessImpl@VCVSNetToolWinShim@@@ATL@@UAGJPAPAUHWND__@@@Z 100097f9 f i VSNetToolWinShim.obj
 0001:00008837       ?InPlaceDeactivate@?$IOleInPlaceObjectWindowlessImpl@VCVSNetToolWinShim@@@ATL@@UAGJXZ 10009837 f i VSNetToolWinShim.obj
 0001:00008851       ?UIDeactivate@?$IOleInPlaceObjectWindowlessImpl@VCVSNetToolWinShim@@@ATL@@UAGJXZ 10009851 f i VSNetToolWinShim.obj
 0001:0000886b       ?SetObjectRects@?$IOleInPlaceObjectWindowlessImpl@VCVSNetToolWinShim@@@ATL@@UAGJPBUtagRECT@@0@Z 1000986b f i VSNetToolWinShim.obj
 0001:0000888e       ?OnWindowMessage@?$IOleInPlaceObjectWindowlessImpl@VCVSNetToolWinShim@@@ATL@@UAGJIIJPAJ@Z 1000988e f i VSNetToolWinShim.obj
 0001:000088f7       ?GetClassID@?$IPersistStorageImpl@VCVSNetToolWinShim@@@ATL@@UAGJPAU_GUID@@@Z 100098f7 f i VSNetToolWinShim.obj
 0001:000088f7       ?GetClassID@?$IPersistStreamInitImpl@VCVSNetToolWinShim@@@ATL@@UAGJPAU_GUID@@@Z 100098f7 f i VSNetToolWinShim.obj
 0001:000088f7       ?GetUserClassID@?$IOleObjectImpl@VCVSNetToolWinShim@@@ATL@@UAGJPAU_GUID@@@Z 100098f7 f i VSNetToolWinShim.obj
 0001:00008918       ?IsDirty@?$IPersistStorageImpl@VCVSNetToolWinShim@@@ATL@@UAGJXZ 10009918 f i VSNetToolWinShim.obj
 0001:0000896d       ?InitNew@?$IPersistStorageImpl@VCVSNetToolWinShim@@@ATL@@UAGJPAUIStorage@@@Z 1000996d f i VSNetToolWinShim.obj
 0001:000089c2       ?Load@?$IPersistStorageImpl@VCVSNetToolWinShim@@@ATL@@UAGJPAUIStorage@@@Z 100099c2 f i VSNetToolWinShim.obj
 0001:00008a5d       ?Save@?$IPersistStorageImpl@VCVSNetToolWinShim@@@ATL@@UAGJPAUIStorage@@H@Z 10009a5d f i VSNetToolWinShim.obj
 0001:00008aff       ?GetPages@?$ISpecifyPropertyPagesImpl@VCVSNetToolWinShim@@@ATL@@UAGJPAUtagCAUUID@@@Z 10009aff f i VSNetToolWinShim.obj
 0001:00008b10       ?QuickActivate@?$IQuickActivateImpl@VCVSNetToolWinShim@@@ATL@@UAGJPAUtagQACONTAINER@@PAUtagQACONTROL@@@Z 10009b10 f i VSNetToolWinShim.obj
 0001:00008b30       ?SetContentExtent@?$IQuickActivateImpl@VCVSNetToolWinShim@@@ATL@@UAGJPAUtagSIZE@@@Z 10009b30 f i VSNetToolWinShim.obj
 0001:00008b51       ?GetContentExtent@?$IQuickActivateImpl@VCVSNetToolWinShim@@@ATL@@UAGJPAUtagSIZE@@@Z 10009b51 f i VSNetToolWinShim.obj
 0001:00008b72       ?GetData@?$IDataObjectImpl@VCVSNetToolWinShim@@@ATL@@UAGJPAUtagFORMATETC@@PAUtagSTGMEDIUM@@@Z 10009b72 f i VSNetToolWinShim.obj
 0001:00008b92       ?DAdvise@?$IDataObjectImpl@VCVSNetToolWinShim@@@ATL@@UAGJPAUtagFORMATETC@@KPAUIAdviseSink@@PAK@Z 10009b92 f i VSNetToolWinShim.obj
 0001:00008bd3       ?DUnadvise@?$IDataObjectImpl@VCVSNetToolWinShim@@@ATL@@UAGJK@Z 10009bd3 f i VSNetToolWinShim.obj
 0001:00008bfb       ?EnumDAdvise@?$IDataObjectImpl@VCVSNetToolWinShim@@@ATL@@UAGJPAPAUIEnumSTATDATA@@@Z 10009bfb f i VSNetToolWinShim.obj
 0001:00008c32       ?GetClassInfoW@?$IProvideClassInfo2Impl@$1?CLSID_VSNetToolWinShim@@3U_GUID@@B$0A@$1?LIBID_VSNetToolHostShimLib@@3U2@B$00$0A@VCComTypeInfoHolder@ATL@@@ATL@@UAGJPAPAUITypeInfo@@@Z 10009c32 f i VSNetToolWinShim.obj
 0001:00008c47       ?GetGUID@?$IProvideClassInfo2Impl@$1?CLSID_VSNetToolWinShim@@3U_GUID@@B$0A@$1?LIBID_VSNetToolHostShimLib@@3U2@B$00$0A@VCComTypeInfoHolder@ATL@@@ATL@@UAGJKPAU_GUID@@@Z 10009c47 f i VSNetToolWinShim.obj
 0001:00008c6b       ??0?$CComCompositeControl@VCVSNetToolWinShim@@@ATL@@QAE@XZ 10009c6b f i VSNetToolWinShim.obj
 0001:00008c8a       ??1?$CComCompositeControl@VCVSNetToolWinShim@@@ATL@@UAE@XZ 10009c8a f i VSNetToolWinShim.obj
 0001:00008caa       ?SetBackgroundColorFromAmbient@?$CComCompositeControl@VCVSNetToolWinShim@@@ATL@@QAEJXZ 10009caa f i VSNetToolWinShim.obj
 0001:00008d03       ?CalcExtent@?$CComCompositeControl@VCVSNetToolWinShim@@@ATL@@QAEHAAUtagSIZE@@@Z 10009d03 f i VSNetToolWinShim.obj
 0001:00008d4e       ?CreateControlWindow@?$CComCompositeControl@VCVSNetToolWinShim@@@ATL@@UAEPAUHWND__@@PAU3@AAUtagRECT@@@Z 10009d4e f i VSNetToolWinShim.obj
 0001:00008d81       ?OnDraw@?$CComCompositeControl@VCVSNetToolWinShim@@@ATL@@UAEJAAUATL_DRAWINFO@@@Z 10009d81 f i VSNetToolWinShim.obj
 0001:00008e03       ?ProcessWindowMessage@?$CComCompositeControl@VCVSNetToolWinShim@@@ATL@@UAEHPAUHWND__@@IIJAAJK@Z 10009e03 f i VSNetToolWinShim.obj
 0001:00008f1c       ?ControlQueryInterface@?$CComControl@VCVSNetToolWinShim@@V?$CAxDialogImpl@VCVSNetToolWinShim@@VCWindow@ATL@@@ATL@@@ATL@@UAEJABU_GUID@@PAPAX@Z 10009f1c f i VSNetToolWinShim.obj
 0001:00008f37       ?GetDialogProc@?$CAxDialogImpl@VCVSNetToolWinShim@@VCWindow@ATL@@@ATL@@UAEP6GHPAUHWND__@@IIJ@ZXZ 10009f37 f i VSNetToolWinShim.obj
 0001:00008f3d       ?CreateActiveXControls@?$CAxDialogImpl@VCVSNetToolWinShim@@VCWindow@ATL@@@ATL@@UAEJI@Z 10009f3d f i VSNetToolWinShim.obj
 0001:0000926f       ?CreateInstance@?$CComCreator@V?$CComObjectCached@VCComClassFactory@ATL@@@ATL@@@ATL@@SGJPAXABU_GUID@@PAPAX@Z 1000a26f f i VSNetToolWinShim.obj
 0001:00009304       ?CreateInstance@?$CComCreator2@V?$CComCreator@V?$CComObject@VCVSNetToolWinShim@@@ATL@@@ATL@@V?$CComCreator@V?$CComAggObject@VCVSNetToolWinShim@@@ATL@@@2@@ATL@@SGJPAXABU_GUID@@PAPAX@Z 1000a304 f i VSNetToolWinShim.obj
 0001:00009324       ??0?$CComQIPtr@UWindow@EnvDTE@@$1?_GUID_0beab46b_4c07_4f94_a8d7_1626020e4e53@@3U__s_GUID@@B@ATL@@QAE@PAUIUnknown@@@Z 1000a324 f i VSNetToolWinShim.obj
 0001:00009346       ??_G?$CComObject@VCAxFrameWindow@ATL@@@ATL@@UAEPAXI@Z 1000a346 f i VSNetToolWinShim.obj
 0001:00009346       ??_E?$CComObject@VCAxFrameWindow@ATL@@@ATL@@UAEPAXI@Z 1000a346 f i VSNetToolWinShim.obj
 0001:00009362       ??_E?$CComObject@VCAxUIWindow@ATL@@@ATL@@UAEPAXI@Z 1000a362 f i VSNetToolWinShim.obj
 0001:00009362       ??_G?$CComObject@VCAxUIWindow@ATL@@@ATL@@UAEPAXI@Z 1000a362 f i VSNetToolWinShim.obj
 0001:0000937e       ??_G?$CComObject@V?$CComEnum@UIEnumUnknown@@$1?_GUID_00000100_0000_0000_c000_000000000046@@3U__s_GUID@@BPAUIUnknown@@V?$_CopyInterface@UIUnknown@@@ATL@@VCComSingleThreadModel@6@@ATL@@@ATL@@UAEPAXI@Z 1000a37e f i VSNetToolWinShim.obj
 0001:0000937e       ??_E?$CComObject@V?$CComEnum@UIEnumUnknown@@$1?_GUID_00000100_0000_0000_c000_000000000046@@3U__s_GUID@@BPAUIUnknown@@V?$_CopyInterface@UIUnknown@@@ATL@@VCComSingleThreadModel@6@@ATL@@@ATL@@UAEPAXI@Z 1000a37e f i VSNetToolWinShim.obj
 0001:0000939a       ??0?$CComEnum@UIEnumUnknown@@$1?_GUID_00000100_0000_0000_c000_000000000046@@3U__s_GUID@@BPAUIUnknown@@V?$_CopyInterface@UIUnknown@@@ATL@@VCComSingleThreadModel@6@@ATL@@QAE@XZ 1000a39a f i VSNetToolWinShim.obj
 0001:000093af       ??1?$CComEnum@UIEnumUnknown@@$1?_GUID_00000100_0000_0000_c000_000000000046@@3U__s_GUID@@BPAUIUnknown@@V?$_CopyInterface@UIUnknown@@@ATL@@VCComSingleThreadModel@6@@ATL@@UAE@XZ 1000a3af f i VSNetToolWinShim.obj
 0001:000093b4       ??_G?$CComCompositeControl@VCVSNetToolWinShim@@@ATL@@UAEPAXI@Z 1000a3b4 f i VSNetToolWinShim.obj
 0001:000093b4       ??_E?$CComCompositeControl@VCVSNetToolWinShim@@@ATL@@UAEPAXI@Z 1000a3b4 f i VSNetToolWinShim.obj
 0001:000093d2       ??1?$CComControl@VCVSNetToolWinShim@@V?$CAxDialogImpl@VCVSNetToolWinShim@@VCWindow@ATL@@@ATL@@@ATL@@UAE@XZ 1000a3d2 f i VSNetToolWinShim.obj
 0001:000093ec       ?InternalSetAtIndex@?$CSimpleArray@GV?$CSimpleArrayEqualHelper@G@ATL@@@ATL@@QAEXHABG@Z 1000a3ec f i VSNetToolWinShim.obj
 0001:00009402       ?Create@?$CAxWindow2T@VCWindow@ATL@@@ATL@@QAEPAUHWND__@@PAU3@V_U_RECT@2@PBGKKV_U_MENUorID@2@PAX@Z 1000a402 f i VSNetToolWinShim.obj
 0001:0000942b       ?CreateControlLic@?$CAxWindow2T@VCWindow@ATL@@@ATL@@QAEJPBGPAUIStream@@PAPAUIUnknown@@PAG@Z 1000a42b f i VSNetToolWinShim.obj
 0001:0000944c       ??0?$CComPtr@UIOleInPlaceActiveObject@@@ATL@@QAE@XZ 1000a44c f i VSNetToolWinShim.obj
 0001:0000944c       ??0?$CComPtr@UIUnknown@@@ATL@@QAE@XZ 1000a44c f i VSNetToolWinShim.obj
 0001:0000944c       ??0?$CComPtr@UIConnectionPointContainer@@@ATL@@QAE@XZ 1000a44c f i VSNetToolWinShim.obj
 0001:0000944c       ??0?$CComPtr@UWindow@EnvDTE@@@ATL@@QAE@XZ 1000a44c f i VSNetToolWinShim.obj
 0001:0000944c       ??0?$CComPtr@UIPersistStream@@@ATL@@QAE@XZ 1000a44c f i VSNetToolWinShim.obj
 0001:0000944c       ??0?$CComPtr@UIAxWinHostWindowLic@@@ATL@@QAE@XZ 1000a44c f i VSNetToolWinShim.obj
 0001:0000944c       ??0?$CComPtr@UIOleControlSite@@@ATL@@QAE@XZ 1000a44c f i VSNetToolWinShim.obj
 0001:0000944c       ??0?$CComPtr@UIAdviseSink@@@ATL@@QAE@XZ 1000a44c f i VSNetToolWinShim.obj
 0001:0000944c       ??0?$CComPtr@UIDispatch@@@ATL@@QAE@XZ 1000a44c f i VSNetToolWinShim.obj
 0001:0000944c       ??0?$CComPtr@UITypeLib@@@ATL@@QAE@XZ 1000a44c f i VSNetToolHostShim.obj
 0001:0000944c       ??0?$CComPtr@UIPersistStreamInit@@@ATL@@QAE@XZ 1000a44c f i VSNetToolWinShim.obj
 0001:0000944c       ??0?$CComPtr@UICatRegister@@@ATL@@QAE@XZ 1000a44c f i VSNetToolHostShim.obj
 0001:0000944c       ??0?$CComPtr@UIPersist@@@ATL@@QAE@XZ 1000a44c f i VSNetToolWinShim.obj
 0001:0000944c       ??0?$CComPtr@UIProvideClassInfo2@@@ATL@@QAE@XZ 1000a44c f i VSNetToolWinShim.obj
 0001:0000944c       ??0?$CComPtr@UIOleControl@@@ATL@@QAE@XZ 1000a44c f i VSNetToolWinShim.obj
 0001:0000944c       ??0?$CComPtr@UIConnectionPoint@@@ATL@@QAE@XZ 1000a44c f i VSNetToolWinShim.obj
 0001:0000944c       ??0?$CComPtr@UIOleClientSite@@@ATL@@QAE@XZ 1000a44c f i VSNetToolWinShim.obj
 0001:0000944c       ??0?$CComPtr@UITypeInfo@@@ATL@@QAE@XZ 1000a44c f i VSNetToolWinShim.obj
 0001:00009450       ?IPersistStreamInit_Load@?$IPersistStreamInitImpl@VCVSNetToolWinShim@@@ATL@@QAEJPAUIStream@@PAUATL_PROPMAP_ENTRY@2@@Z 1000a450 f i VSNetToolWinShim.obj
 0001:00009477       ?DoVerbPrimary@?$IOleObjectImpl@VCVSNetToolWinShim@@@ATL@@QAEJPBUtagRECT@@PAUHWND__@@@Z 1000a477 f i VSNetToolWinShim.obj
 0001:000094f7       ?DoVerbShow@?$IOleObjectImpl@VCVSNetToolWinShim@@@ATL@@QAEJPBUtagRECT@@PAUHWND__@@@Z 1000a4f7 f i VSNetToolWinShim.obj
 0001:00009517       ?DoVerbInPlaceActivate@?$IOleObjectImpl@VCVSNetToolWinShim@@@ATL@@QAEJPBUtagRECT@@PAUHWND__@@@Z 1000a517 f i VSNetToolWinShim.obj
 0001:00009548       ?DoVerbUIActivate@?$IOleObjectImpl@VCVSNetToolWinShim@@@ATL@@QAEJPBUtagRECT@@PAUHWND__@@@Z 1000a548 f i VSNetToolWinShim.obj
 0001:00009570       ?DoVerbHide@?$IOleObjectImpl@VCVSNetToolWinShim@@@ATL@@QAEJPBUtagRECT@@PAUHWND__@@@Z 1000a570 f i VSNetToolWinShim.obj
 0001:0000959c       ?GetPagesHelper@?$ISpecifyPropertyPagesImpl@VCVSNetToolWinShim@@@ATL@@IAEJPAUtagCAUUID@@PAUATL_PROPMAP_ENTRY@2@@Z 1000a59c f i VSNetToolWinShim.obj
 0001:00009694       ?AdviseSinkMap@?$CComCompositeControl@VCVSNetToolWinShim@@@ATL@@QAEJ_N@Z 1000a694 f i VSNetToolWinShim.obj
 0001:000096bf       ?BackgroundColorEnumProc@?$CComCompositeControl@VCVSNetToolWinShim@@@ATL@@SGHPAUHWND__@@J@Z 1000a6bf f i VSNetToolWinShim.obj
 0001:00009722       ?OnDialogColor@?$CComCompositeControl@VCVSNetToolWinShim@@@ATL@@QAEJIIJAAH@Z 1000a722 f i VSNetToolWinShim.obj
 0001:0000977d       ?Create@?$CComCompositeControl@VCVSNetToolWinShim@@@ATL@@QAEPAUHWND__@@PAU3@AAUtagRECT@@J@Z 1000a77d f i VSNetToolWinShim.obj
 0001:000097ac       ?PreTranslateAccelerator@?$CComCompositeControl@VCVSNetToolWinShim@@@ATL@@QAEHPAUtagMSG@@AAJ@Z 1000a7ac f i VSNetToolWinShim.obj
 0001:00009ab7       ?IOleInPlaceObject_InPlaceDeactivate@?$CComCompositeControl@VCVSNetToolWinShim@@@ATL@@QAEJXZ 1000aab7 f i VSNetToolWinShim.obj
 0001:00009ad1       ?IOleInPlaceObject_UIDeactivate@?$CComCompositeControl@VCVSNetToolWinShim@@@ATL@@QAEJXZ 1000aad1 f i VSNetToolWinShim.obj
 0001:00009b75       ?OnSetFocus@?$CComCompositeControl@VCVSNetToolWinShim@@@ATL@@QAEJIIJAAH@Z 1000ab75 f i VSNetToolWinShim.obj
 0001:00009c25       ?OnMouseActivate@?$CComCompositeControl@VCVSNetToolWinShim@@@ATL@@QAEJIIJAAH@Z 1000ac25 f i VSNetToolWinShim.obj
 0001:00009cfe       ??0?$CComControl@VCVSNetToolWinShim@@V?$CAxDialogImpl@VCVSNetToolWinShim@@VCWindow@ATL@@@ATL@@@ATL@@QAE@XZ 1000acfe f i VSNetToolWinShim.obj
 0001:00009d1d       ??0?$CComPolyObject@VCAxHostWindow@ATL@@@ATL@@QAE@PAX@Z 1000ad1d f i VSNetToolWinShim.obj
 0001:00009d67       ??1?$CComPolyObject@VCAxHostWindow@ATL@@@ATL@@UAE@XZ 1000ad67 f i VSNetToolWinShim.obj
 0001:00009db3       ?Release@?$CComPolyObject@VCAxHostWindow@ATL@@@ATL@@UAGKXZ 1000adb3 f i VSNetToolWinShim.obj
 0001:00009db3       ?Release@?$CComAggObject@VCVSNetToolWinShim@@@ATL@@UAGKXZ 1000adb3 f i VSNetToolWinShim.obj
 0001:00009dd1       ?QueryInterface@?$CComPolyObject@VCAxHostWindow@ATL@@@ATL@@UAGJABU_GUID@@PAPAX@Z 1000add1 f i VSNetToolWinShim.obj
 0001:00009e1c       ?AddRef@?$CComContainedObject@VCAxHostWindow@ATL@@@ATL@@UAGKXZ 1000ae1c f i VSNetToolWinShim.obj
 0001:00009e2c       ?Release@?$CComContainedObject@VCAxHostWindow@ATL@@@ATL@@UAGKXZ 1000ae2c f i VSNetToolWinShim.obj
 0001:00009e3c       ?QueryInterface@?$CComContainedObject@VCAxHostWindow@ATL@@@ATL@@UAGJABU_GUID@@PAPAX@Z 1000ae3c f i VSNetToolWinShim.obj
 0001:00009e53       ?GetControllingUnknown@?$CComContainedObject@VCAxHostWindow@ATL@@@ATL@@UAEPAUIUnknown@@XZ 1000ae53 f i VSNetToolWinShim.obj
 0001:00009e57       ??0?$CComObjectCached@VCComClassFactory@ATL@@@ATL@@QAE@PAX@Z 1000ae57 f i VSNetToolWinShim.obj
 0001:00009e8f       ??1?$CComObjectCached@VCComClassFactory@ATL@@@ATL@@UAE@XZ 1000ae8f f i VSNetToolWinShim.obj
 0001:00009ebb       ?AddRef@?$CComObjectCached@VCComClassFactory@ATL@@@ATL@@UAGKXZ 1000aebb f i VSNetToolWinShim.obj
 0001:00009ef7       ?Release@?$CComObjectCached@VCComClassFactory@ATL@@@ATL@@UAGKXZ 1000aef7 f i VSNetToolWinShim.obj
 0001:00009f42       ?QueryInterface@?$CComObjectCached@VCComClassFactory@ATL@@@ATL@@UAGJABU_GUID@@PAPAX@Z 1000af42 f i VSNetToolWinShim.obj
 0001:00009f5d       ?CreateInstance@?$CComCreator@V?$CComObject@VCVSNetToolWinShim@@@ATL@@@ATL@@SGJPAXABU_GUID@@PAPAX@Z 1000af5d f i VSNetToolWinShim.obj
 0001:0000a008       ?CreateInstance@?$CComCreator@V?$CComAggObject@VCVSNetToolWinShim@@@ATL@@@ATL@@SGJPAXABU_GUID@@PAPAX@Z 1000b008 f i VSNetToolWinShim.obj
 0001:0000a0b3       ??_G?$CComPolyObject@VCAxHostWindow@ATL@@@ATL@@UAEPAXI@Z 1000b0b3 f i VSNetToolWinShim.obj
 0001:0000a0b3       ??_E?$CComPolyObject@VCAxHostWindow@ATL@@@ATL@@UAEPAXI@Z 1000b0b3 f i VSNetToolWinShim.obj
 0001:0000a0cf       ??1?$CComContainedObject@VCAxHostWindow@ATL@@@ATL@@UAE@XZ 1000b0cf f i VSNetToolWinShim.obj
 0001:0000a0d4       ??_G?$CComObjectCached@VCComClassFactory@ATL@@@ATL@@UAEPAXI@Z 1000b0d4 f i VSNetToolWinShim.obj
 0001:0000a0d4       ??_E?$CComObjectCached@VCComClassFactory@ATL@@@ATL@@UAEPAXI@Z 1000b0d4 f i VSNetToolWinShim.obj
 0001:0000a0f0       ??0CComClassFactory@ATL@@QAE@XZ 1000b0f0 f i VSNetToolWinShim.obj
 0001:0000a107       ?ExecuteDlgInit@?$CDialogImplBaseT@VCWindow@ATL@@@ATL@@QAEHH@Z 1000b107 f i VSNetToolWinShim.obj
 0001:0000a23c       ?CreateControlLicEx@?$CAxWindow2T@VCWindow@ATL@@@ATL@@QAEJPBGPAUIStream@@PAPAUIUnknown@@2ABU_GUID@@PAU4@PAG@Z 1000b23c f i VSNetToolWinShim.obj
 0001:0000a315       ?Create@?$CAxDialogImpl@VCVSNetToolWinShim@@VCWindow@ATL@@@ATL@@QAEPAUHWND__@@PAU3@J@Z 1000b315 f i VSNetToolWinShim.obj
 0001:0000a346       ??0?$CComContainedObject@VCAxHostWindow@ATL@@@ATL@@QAE@PAX@Z 1000b346 f i VSNetToolWinShim.obj
 0001:0000a3a7       ??0?$CComObject@VCVSNetToolWinShim@@@ATL@@QAE@PAX@Z 1000b3a7 f i VSNetToolWinShim.obj
 0001:0000a423       ??1?$CComObject@VCVSNetToolWinShim@@@ATL@@UAE@XZ 1000b423 f i VSNetToolWinShim.obj
 0001:0000a4ab       ?AddRef@?$CComObject@VCVSNetToolWinShim@@@ATL@@UAGKXZ 1000b4ab f i VSNetToolWinShim.obj
 0001:0000a4bb       ?Release@?$CComObject@VCVSNetToolWinShim@@@ATL@@UAGKXZ 1000b4bb f i VSNetToolWinShim.obj
 0001:0000a4df       ?QueryInterface@?$CComObject@VCVSNetToolWinShim@@@ATL@@UAGJABU_GUID@@PAPAX@Z 1000b4df f i VSNetToolWinShim.obj
 0001:0000a4fa       ??0?$CComAggObject@VCVSNetToolWinShim@@@ATL@@QAE@PAX@Z 1000b4fa f i VSNetToolWinShim.obj
 0001:0000a53f       ??1?$CComAggObject@VCVSNetToolWinShim@@@ATL@@UAE@XZ 1000b53f f i VSNetToolWinShim.obj
 0001:0000a585       ?QueryInterface@?$CComAggObject@VCVSNetToolWinShim@@@ATL@@UAGJABU_GUID@@PAPAX@Z 1000b585 f i VSNetToolWinShim.obj
 0001:0000a5d0       ?AddRef@?$CComContainedObject@VCVSNetToolWinShim@@@ATL@@UAGKXZ 1000b5d0 f i VSNetToolWinShim.obj
 0001:0000a5e3       ?Release@?$CComContainedObject@VCVSNetToolWinShim@@@ATL@@UAGKXZ 1000b5e3 f i VSNetToolWinShim.obj
 0001:0000a5f6       ?QueryInterface@?$CComContainedObject@VCVSNetToolWinShim@@@ATL@@UAGJABU_GUID@@PAPAX@Z 1000b5f6 f i VSNetToolWinShim.obj
 0001:0000a610       ??_E?$CComContainedObject@VCAxHostWindow@ATL@@@ATL@@UAEPAXI@Z 1000b610 f i VSNetToolWinShim.obj
 0001:0000a610       ??_G?$CComContainedObject@VCAxHostWindow@ATL@@@ATL@@UAEPAXI@Z 1000b610 f i VSNetToolWinShim.obj
 0001:0000a62d       ??_E?$CComObject@VCVSNetToolWinShim@@@ATL@@UAEPAXI@Z 1000b62d f i VSNetToolWinShim.obj
 0001:0000a62d       ??_G?$CComObject@VCVSNetToolWinShim@@@ATL@@UAEPAXI@Z 1000b62d f i VSNetToolWinShim.obj
 0001:0000a649       ??_E?$CComAggObject@VCVSNetToolWinShim@@@ATL@@UAEPAXI@Z 1000b649 f i VSNetToolWinShim.obj
 0001:0000a649       ??_G?$CComAggObject@VCVSNetToolWinShim@@@ATL@@UAEPAXI@Z 1000b649 f i VSNetToolWinShim.obj
 0001:0000a665       ??1?$CComContainedObject@VCVSNetToolWinShim@@@ATL@@UAE@XZ 1000b665 f i VSNetToolWinShim.obj
 0001:0000a66a       ??0?$CComContainedObject@VCVSNetToolWinShim@@@ATL@@QAE@PAX@Z 1000b66a f i VSNetToolWinShim.obj
 0001:0000a6e7       ??_E?$CComContainedObject@VCVSNetToolWinShim@@@ATL@@UAEPAXI@Z 1000b6e7 f i VSNetToolWinShim.obj
 0001:0000a6e7       ??_G?$CComContainedObject@VCVSNetToolWinShim@@@ATL@@UAEPAXI@Z 1000b6e7 f i VSNetToolWinShim.obj
 0001:0000a705       ?StartDialogProc@?$CDialogImplBaseT@VCWindow@ATL@@@ATL@@SGHPAUHWND__@@IIJ@Z 1000b705 f i VSNetToolWinShim.obj
 0001:0000a74c       ?DialogProc@?$CDialogImplBaseT@VCWindow@ATL@@@ATL@@SGHPAUHWND__@@IIJ@Z 1000b74c f i VSNetToolWinShim.obj
 0001:0000a814       ?StartWindowProc@?$CWindowImplBaseT@VCWindow@ATL@@V?$CWinTraits@$0FGAAAAAA@$0A@@2@@ATL@@SGJPAUHWND__@@IIJ@Z 1000b814 f i VSNetToolWinShim.obj
 0001:0000a85b       ?WindowProc@?$CWindowImplBaseT@VCWindow@ATL@@V?$CWinTraits@$0FGAAAAAA@$0A@@2@@ATL@@SGJPAUHWND__@@IIJ@Z 1000b85b f i VSNetToolWinShim.obj
 0001:0000a93d       ?Create@?$CWindowImplBaseT@VCWindow@ATL@@V?$CWinTraits@$0FGAAAAAA@$0A@@2@@ATL@@QAEPAUHWND__@@PAU3@V_U_RECT@2@PBGKKV_U_MENUorID@2@GPAX@Z 1000b93d f i VSNetToolWinShim.obj
 0001:0000a9b3       ?SubclassWindow@?$CWindowImplBaseT@VCWindow@ATL@@V?$CWinTraits@$0FGAAAAAA@$0A@@2@@ATL@@QAEHPAUHWND__@@@Z 1000b9b3 f i VSNetToolWinShim.obj
 0001:0000a9df       ?UnsubclassWindow@?$CWindowImplBaseT@VCWindow@ATL@@V?$CWinTraits@$0FGAAAAAA@$0A@@2@@ATL@@QAEPAUHWND__@@H@Z 1000b9df f i VSNetToolWinShim.obj
 0001:0000aa24       ?CreateInstance@?$CComObject@VCAxFrameWindow@ATL@@@ATL@@SGJPAPAV12@@Z 1000ba24 f i VSNetToolWinShim.obj
 0001:0000aa99       ?CreateInstance@?$CComObject@VCAxUIWindow@ATL@@@ATL@@SGJPAPAV12@@Z 1000ba99 f i VSNetToolWinShim.obj
 0001:0000ab0e       ??1?$CComEnumImpl@UIEnumUnknown@@$1?_GUID_00000100_0000_0000_c000_000000000046@@3U__s_GUID@@BPAUIUnknown@@V?$_CopyInterface@UIUnknown@@@ATL@@@ATL@@UAE@XZ 1000bb0e f i VSNetToolWinShim.obj
 0001:0000ab6b       ?Next@?$CComEnumImpl@UIEnumUnknown@@$1?_GUID_00000100_0000_0000_c000_000000000046@@3U__s_GUID@@BPAUIUnknown@@V?$_CopyInterface@UIUnknown@@@ATL@@@ATL@@UAGJKPAPAUIUnknown@@PAK@Z 1000bb6b f i VSNetToolWinShim.obj
 0001:0000ac06       ?Skip@?$CComEnumImpl@UIEnumUnknown@@$1?_GUID_00000100_0000_0000_c000_000000000046@@3U__s_GUID@@BPAUIUnknown@@V?$_CopyInterface@UIUnknown@@@ATL@@@ATL@@UAGJK@Z 1000bc06 f i VSNetToolWinShim.obj
 0001:0000ac3e       ?Clone@?$CComEnumImpl@UIEnumUnknown@@$1?_GUID_00000100_0000_0000_c000_000000000046@@3U__s_GUID@@BPAUIUnknown@@V?$_CopyInterface@UIUnknown@@@ATL@@@ATL@@UAGJPAPAUIEnumUnknown@@@Z 1000bc3e f i VSNetToolWinShim.obj
 0001:0000ad0a       ?Init@?$CComEnumImpl@UIEnumUnknown@@$1?_GUID_00000100_0000_0000_c000_000000000046@@3U__s_GUID@@BPAUIUnknown@@V?$_CopyInterface@UIUnknown@@@ATL@@@ATL@@QAEJPAPAUIUnknown@@0PAU3@W4CComEnumFlags@2@@Z 1000bd0a f i VSNetToolWinShim.obj
 0001:0000adca       ??$AtlAxDialogCreateT@PBGV_AtlCreateDialogIndirectParamHelper@ATL@@$1?CreateDialogIndirectParamW@@YGPAUHWND__@@PAUHINSTANCE__@@PBUDLGTEMPLATE@@PAU4@P6GH2IIJ@ZJ@Z@ATL@@YAPAUHWND__@@PAUHINSTANCE__@@PBGPAU1@P6GH2IIJ@ZJ@Z 1000bdca f i VSNetToolWinShim.obj
 0001:0000ae91       ??$AtlModuleRegisterWndClassInfoT@VAtlModuleRegisterWndClassInfoParamW@ATL@@@ATL@@YAGPAU_ATL_BASE_MODULE70@0@PAU_ATL_WIN_MODULE70@0@PAU_ATL_WNDCLASSINFOW@0@PAP6GJPAUHWND__@@IIJ@ZVAtlModuleRegisterWndClassInfoParamW@0@@Z 1000be91 f i VSNetToolWinShim.obj
 0001:0000afcf       ?IPSI_GetIPersistStreamInit@?$IPersistStorageImpl@VCVSNetToolWinShim@@@ATL@@AAEPAUIPersistStreamInit@@XZ 1000bfcf f i VSNetToolWinShim.obj
 0001:0000b00b       ?DialogProc@?$CAxDialogImpl@VCVSNetToolWinShim@@VCWindow@ATL@@@ATL@@SGHPAUHWND__@@IIJ@Z 1000c00b f i VSNetToolWinShim.obj
 0001:0000b05a       ??$AtlAdviseSinkMap@VCVSNetToolWinShim@@@ATL@@YAJPAVCVSNetToolWinShim@@_N@Z 1000c05a f i VSNetToolWinShim.obj
 0001:0000b177       ?QueryHost@?$CAxWindowT@VCWindow@ATL@@@ATL@@QAEJABU_GUID@@PAPAX@Z 1000c177 f i VSNetToolWinShim.obj
 0001:0000b1da       ??0?$CComObject@VCAxFrameWindow@ATL@@@ATL@@QAE@PAX@Z 1000c1da f i VSNetToolWinShim.obj
 0001:0000b1fc       ??0?$CComObject@VCAxUIWindow@ATL@@@ATL@@QAE@PAX@Z 1000c1fc f i VSNetToolWinShim.obj
 0001:0000b21e       ?CreateInstance@?$CComObject@V?$CComEnum@UIEnumUnknown@@$1?_GUID_00000100_0000_0000_c000_000000000046@@3U__s_GUID@@BPAUIUnknown@@V?$_CopyInterface@UIUnknown@@@ATL@@VCComSingleThreadModel@6@@ATL@@@ATL@@SGJPAPAV12@@Z 1000c21e f i VSNetToolWinShim.obj
 0001:0000b293       ?QueryInterface@?$CComContainedObject@VCVSNetToolWinShim@@@ATL@@W3AGJABU_GUID@@PAPAX@Z 1000c293 f i VSNetToolWinShim.obj
 0001:0000b29d       ?AddRef@?$CComContainedObject@VCVSNetToolWinShim@@@ATL@@W3AGKXZ 1000c29d f i VSNetToolWinShim.obj
 0001:0000b2a7       ?Release@?$CComContainedObject@VCVSNetToolWinShim@@@ATL@@W3AGKXZ 1000c2a7 f i VSNetToolWinShim.obj
 0001:0000b2b1       ?QueryInterface@?$CComContainedObject@VCVSNetToolWinShim@@@ATL@@W7AGJABU_GUID@@PAPAX@Z 1000c2b1 f i VSNetToolWinShim.obj
 0001:0000b2bb       ?AddRef@?$CComContainedObject@VCVSNetToolWinShim@@@ATL@@W7AGKXZ 1000c2bb f i VSNetToolWinShim.obj
 0001:0000b2c5       ?Release@?$CComContainedObject@VCVSNetToolWinShim@@@ATL@@W7AGKXZ 1000c2c5 f i VSNetToolWinShim.obj
 0001:0000b2cf       ?QueryInterface@?$CComContainedObject@VCVSNetToolWinShim@@@ATL@@WM@AGJABU_GUID@@PAPAX@Z 1000c2cf f i VSNetToolWinShim.obj
 0001:0000b2d9       ?AddRef@?$CComContainedObject@VCVSNetToolWinShim@@@ATL@@WM@AGKXZ 1000c2d9 f i VSNetToolWinShim.obj
 0001:0000b2e3       ?Release@?$CComContainedObject@VCVSNetToolWinShim@@@ATL@@WM@AGKXZ 1000c2e3 f i VSNetToolWinShim.obj
 0001:0000b2ed       ?QueryInterface@?$CComContainedObject@VCVSNetToolWinShim@@@ATL@@WBA@AGJABU_GUID@@PAPAX@Z 1000c2ed f i VSNetToolWinShim.obj
 0001:0000b2f7       ?AddRef@?$CComContainedObject@VCVSNetToolWinShim@@@ATL@@WBA@AGKXZ 1000c2f7 f i VSNetToolWinShim.obj
 0001:0000b301       ?Release@?$CComContainedObject@VCVSNetToolWinShim@@@ATL@@WBA@AGKXZ 1000c301 f i VSNetToolWinShim.obj
 0001:0000b30b       ?QueryInterface@?$CComContainedObject@VCVSNetToolWinShim@@@ATL@@WBE@AGJABU_GUID@@PAPAX@Z 1000c30b f i VSNetToolWinShim.obj
 0001:0000b315       ?AddRef@?$CComContainedObject@VCVSNetToolWinShim@@@ATL@@WBE@AGKXZ 1000c315 f i VSNetToolWinShim.obj
 0001:0000b31f       ?Release@?$CComContainedObject@VCVSNetToolWinShim@@@ATL@@WBE@AGKXZ 1000c31f f i VSNetToolWinShim.obj
 0001:0000b329       ?QueryInterface@?$CComContainedObject@VCVSNetToolWinShim@@@ATL@@WBI@AGJABU_GUID@@PAPAX@Z 1000c329 f i VSNetToolWinShim.obj
 0001:0000b333       ?AddRef@?$CComContainedObject@VCVSNetToolWinShim@@@ATL@@WBI@AGKXZ 1000c333 f i VSNetToolWinShim.obj
 0001:0000b33d       ?Release@?$CComContainedObject@VCVSNetToolWinShim@@@ATL@@WBI@AGKXZ 1000c33d f i VSNetToolWinShim.obj
 0001:0000b347       ?QueryInterface@?$CComContainedObject@VCVSNetToolWinShim@@@ATL@@WBM@AGJABU_GUID@@PAPAX@Z 1000c347 f i VSNetToolWinShim.obj
 0001:0000b351       ?AddRef@?$CComContainedObject@VCVSNetToolWinShim@@@ATL@@WBM@AGKXZ 1000c351 f i VSNetToolWinShim.obj
 0001:0000b35b       ?Release@?$CComContainedObject@VCVSNetToolWinShim@@@ATL@@WBM@AGKXZ 1000c35b f i VSNetToolWinShim.obj
 0001:0000b365       ?QueryInterface@?$CComContainedObject@VCVSNetToolWinShim@@@ATL@@WCA@AGJABU_GUID@@PAPAX@Z 1000c365 f i VSNetToolWinShim.obj
 0001:0000b36f       ?AddRef@?$CComContainedObject@VCVSNetToolWinShim@@@ATL@@WCA@AGKXZ 1000c36f f i VSNetToolWinShim.obj
 0001:0000b379       ?Release@?$CComContainedObject@VCVSNetToolWinShim@@@ATL@@WCA@AGKXZ 1000c379 f i VSNetToolWinShim.obj
 0001:0000b383       ?QueryInterface@?$CComContainedObject@VCVSNetToolWinShim@@@ATL@@WCE@AGJABU_GUID@@PAPAX@Z 1000c383 f i VSNetToolWinShim.obj
 0001:0000b38d       ?AddRef@?$CComContainedObject@VCVSNetToolWinShim@@@ATL@@WCE@AGKXZ 1000c38d f i VSNetToolWinShim.obj
 0001:0000b397       ?Release@?$CComContainedObject@VCVSNetToolWinShim@@@ATL@@WCE@AGKXZ 1000c397 f i VSNetToolWinShim.obj
 0001:0000b3a1       ?QueryInterface@?$CComContainedObject@VCVSNetToolWinShim@@@ATL@@WCI@AGJABU_GUID@@PAPAX@Z 1000c3a1 f i VSNetToolWinShim.obj
 0001:0000b3ab       ?AddRef@?$CComContainedObject@VCVSNetToolWinShim@@@ATL@@WCI@AGKXZ 1000c3ab f i VSNetToolWinShim.obj
 0001:0000b3b5       ?Release@?$CComContainedObject@VCVSNetToolWinShim@@@ATL@@WCI@AGKXZ 1000c3b5 f i VSNetToolWinShim.obj
 0001:0000b3bf       ?QueryInterface@?$CComContainedObject@VCVSNetToolWinShim@@@ATL@@WCM@AGJABU_GUID@@PAPAX@Z 1000c3bf f i VSNetToolWinShim.obj
 0001:0000b3c9       ?AddRef@?$CComContainedObject@VCVSNetToolWinShim@@@ATL@@WCM@AGKXZ 1000c3c9 f i VSNetToolWinShim.obj
 0001:0000b3d3       ?Release@?$CComContainedObject@VCVSNetToolWinShim@@@ATL@@WCM@AGKXZ 1000c3d3 f i VSNetToolWinShim.obj
 0001:0000b3dd       ?QueryInterface@?$CComContainedObject@VCVSNetToolWinShim@@@ATL@@WDA@AGJABU_GUID@@PAPAX@Z 1000c3dd f i VSNetToolWinShim.obj
 0001:0000b3e7       ?AddRef@?$CComContainedObject@VCVSNetToolWinShim@@@ATL@@WDA@AGKXZ 1000c3e7 f i VSNetToolWinShim.obj
 0001:0000b3f1       ?Release@?$CComContainedObject@VCVSNetToolWinShim@@@ATL@@WDA@AGKXZ 1000c3f1 f i VSNetToolWinShim.obj
 0001:0000b3fb       ??_E?$CComContainedObject@VCVSNetToolWinShim@@@ATL@@WDE@AEPAXI@Z 1000c3fb f i VSNetToolWinShim.obj
 0001:0000b403       ??_E?$CComContainedObject@VCVSNetToolWinShim@@@ATL@@WHM@AEPAXI@Z 1000c403 f i VSNetToolWinShim.obj
 0001:0000b40b       ?QueryInterface@?$CComObject@VCVSNetToolWinShim@@@ATL@@W3AGJABU_GUID@@PAPAX@Z 1000c40b f i VSNetToolWinShim.obj
 0001:0000b415       ?AddRef@?$CComObject@VCVSNetToolWinShim@@@ATL@@W3AGKXZ 1000c415 f i VSNetToolWinShim.obj
 0001:0000b41f       ?Release@?$CComObject@VCVSNetToolWinShim@@@ATL@@W3AGKXZ 1000c41f f i VSNetToolWinShim.obj
 0001:0000b429       ?QueryInterface@?$CComObject@VCVSNetToolWinShim@@@ATL@@W7AGJABU_GUID@@PAPAX@Z 1000c429 f i VSNetToolWinShim.obj
 0001:0000b433       ?AddRef@?$CComObject@VCVSNetToolWinShim@@@ATL@@W7AGKXZ 1000c433 f i VSNetToolWinShim.obj
 0001:0000b43d       ?Release@?$CComObject@VCVSNetToolWinShim@@@ATL@@W7AGKXZ 1000c43d f i VSNetToolWinShim.obj
 0001:0000b447       ?QueryInterface@?$CComObject@VCVSNetToolWinShim@@@ATL@@WM@AGJABU_GUID@@PAPAX@Z 1000c447 f i VSNetToolWinShim.obj
 0001:0000b451       ?AddRef@?$CComObject@VCVSNetToolWinShim@@@ATL@@WM@AGKXZ 1000c451 f i VSNetToolWinShim.obj
 0001:0000b45b       ?Release@?$CComObject@VCVSNetToolWinShim@@@ATL@@WM@AGKXZ 1000c45b f i VSNetToolWinShim.obj
 0001:0000b465       ?QueryInterface@?$CComObject@VCVSNetToolWinShim@@@ATL@@WBA@AGJABU_GUID@@PAPAX@Z 1000c465 f i VSNetToolWinShim.obj
 0001:0000b46f       ?AddRef@?$CComObject@VCVSNetToolWinShim@@@ATL@@WBA@AGKXZ 1000c46f f i VSNetToolWinShim.obj
 0001:0000b479       ?Release@?$CComObject@VCVSNetToolWinShim@@@ATL@@WBA@AGKXZ 1000c479 f i VSNetToolWinShim.obj
 0001:0000b483       ?QueryInterface@?$CComObject@VCVSNetToolWinShim@@@ATL@@WBE@AGJABU_GUID@@PAPAX@Z 1000c483 f i VSNetToolWinShim.obj
 0001:0000b48d       ?AddRef@?$CComObject@VCVSNetToolWinShim@@@ATL@@WBE@AGKXZ 1000c48d f i VSNetToolWinShim.obj
 0001:0000b497       ?Release@?$CComObject@VCVSNetToolWinShim@@@ATL@@WBE@AGKXZ 1000c497 f i VSNetToolWinShim.obj
 0001:0000b4a1       ?QueryInterface@?$CComObject@VCVSNetToolWinShim@@@ATL@@WBI@AGJABU_GUID@@PAPAX@Z 1000c4a1 f i VSNetToolWinShim.obj
 0001:0000b4ab       ?AddRef@?$CComObject@VCVSNetToolWinShim@@@ATL@@WBI@AGKXZ 1000c4ab f i VSNetToolWinShim.obj
 0001:0000b4b5       ?Release@?$CComObject@VCVSNetToolWinShim@@@ATL@@WBI@AGKXZ 1000c4b5 f i VSNetToolWinShim.obj
 0001:0000b4bf       ?QueryInterface@?$CComObject@VCVSNetToolWinShim@@@ATL@@WBM@AGJABU_GUID@@PAPAX@Z 1000c4bf f i VSNetToolWinShim.obj
 0001:0000b4c9       ?AddRef@?$CComObject@VCVSNetToolWinShim@@@ATL@@WBM@AGKXZ 1000c4c9 f i VSNetToolWinShim.obj
 0001:0000b4d3       ?Release@?$CComObject@VCVSNetToolWinShim@@@ATL@@WBM@AGKXZ 1000c4d3 f i VSNetToolWinShim.obj
 0001:0000b4dd       ?QueryInterface@?$CComObject@VCVSNetToolWinShim@@@ATL@@WCA@AGJABU_GUID@@PAPAX@Z 1000c4dd f i VSNetToolWinShim.obj
 0001:0000b4e7       ?AddRef@?$CComObject@VCVSNetToolWinShim@@@ATL@@WCA@AGKXZ 1000c4e7 f i VSNetToolWinShim.obj
 0001:0000b4f1       ?Release@?$CComObject@VCVSNetToolWinShim@@@ATL@@WCA@AGKXZ 1000c4f1 f i VSNetToolWinShim.obj
 0001:0000b4fb       ?QueryInterface@?$CComObject@VCVSNetToolWinShim@@@ATL@@WCE@AGJABU_GUID@@PAPAX@Z 1000c4fb f i VSNetToolWinShim.obj
 0001:0000b505       ?AddRef@?$CComObject@VCVSNetToolWinShim@@@ATL@@WCE@AGKXZ 1000c505 f i VSNetToolWinShim.obj
 0001:0000b50f       ?Release@?$CComObject@VCVSNetToolWinShim@@@ATL@@WCE@AGKXZ 1000c50f f i VSNetToolWinShim.obj
 0001:0000b519       ?QueryInterface@?$CComObject@VCVSNetToolWinShim@@@ATL@@WCI@AGJABU_GUID@@PAPAX@Z 1000c519 f i VSNetToolWinShim.obj
 0001:0000b523       ?AddRef@?$CComObject@VCVSNetToolWinShim@@@ATL@@WCI@AGKXZ 1000c523 f i VSNetToolWinShim.obj
 0001:0000b52d       ?Release@?$CComObject@VCVSNetToolWinShim@@@ATL@@WCI@AGKXZ 1000c52d f i VSNetToolWinShim.obj
 0001:0000b537       ?QueryInterface@?$CComObject@VCVSNetToolWinShim@@@ATL@@WCM@AGJABU_GUID@@PAPAX@Z 1000c537 f i VSNetToolWinShim.obj
 0001:0000b541       ?AddRef@?$CComObject@VCVSNetToolWinShim@@@ATL@@WCM@AGKXZ 1000c541 f i VSNetToolWinShim.obj
 0001:0000b54b       ?Release@?$CComObject@VCVSNetToolWinShim@@@ATL@@WCM@AGKXZ 1000c54b f i VSNetToolWinShim.obj
 0001:0000b555       ?QueryInterface@?$CComObject@VCVSNetToolWinShim@@@ATL@@WDA@AGJABU_GUID@@PAPAX@Z 1000c555 f i VSNetToolWinShim.obj
 0001:0000b55f       ?AddRef@?$CComObject@VCVSNetToolWinShim@@@ATL@@WDA@AGKXZ 1000c55f f i VSNetToolWinShim.obj
 0001:0000b569       ?Release@?$CComObject@VCVSNetToolWinShim@@@ATL@@WDA@AGKXZ 1000c569 f i VSNetToolWinShim.obj
 0001:0000b573       ??_E?$CComObject@VCVSNetToolWinShim@@@ATL@@WDE@AEPAXI@Z 1000c573 f i VSNetToolWinShim.obj
 0001:0000b57b       ??_E?$CComObject@VCVSNetToolWinShim@@@ATL@@WHM@AEPAXI@Z 1000c57b f i VSNetToolWinShim.obj
 0001:0000b583       ?QueryInterface@?$CComContainedObject@VCAxHostWindow@ATL@@@ATL@@W3AGJABU_GUID@@PAPAX@Z 1000c583 f i VSNetToolWinShim.obj
 0001:0000b58d       ?AddRef@?$CComContainedObject@VCAxHostWindow@ATL@@@ATL@@W3AGKXZ 1000c58d f i VSNetToolWinShim.obj
 0001:0000b597       ?Release@?$CComContainedObject@VCAxHostWindow@ATL@@@ATL@@W3AGKXZ 1000c597 f i VSNetToolWinShim.obj
 0001:0000b5a1       ?QueryInterface@?$CComContainedObject@VCAxHostWindow@ATL@@@ATL@@W7AGJABU_GUID@@PAPAX@Z 1000c5a1 f i VSNetToolWinShim.obj
 0001:0000b5ab       ?AddRef@?$CComContainedObject@VCAxHostWindow@ATL@@@ATL@@W7AGKXZ 1000c5ab f i VSNetToolWinShim.obj
 0001:0000b5b5       ?Release@?$CComContainedObject@VCAxHostWindow@ATL@@@ATL@@W7AGKXZ 1000c5b5 f i VSNetToolWinShim.obj
 0001:0000b5bf       ?QueryInterface@?$CComContainedObject@VCAxHostWindow@ATL@@@ATL@@WM@AGJABU_GUID@@PAPAX@Z 1000c5bf f i VSNetToolWinShim.obj
 0001:0000b5c9       ?AddRef@?$CComContainedObject@VCAxHostWindow@ATL@@@ATL@@WM@AGKXZ 1000c5c9 f i VSNetToolWinShim.obj
 0001:0000b5d3       ?Release@?$CComContainedObject@VCAxHostWindow@ATL@@@ATL@@WM@AGKXZ 1000c5d3 f i VSNetToolWinShim.obj
 0001:0000b5dd       ?QueryInterface@?$CComContainedObject@VCAxHostWindow@ATL@@@ATL@@WBA@AGJABU_GUID@@PAPAX@Z 1000c5dd f i VSNetToolWinShim.obj
 0001:0000b5e7       ?AddRef@?$CComContainedObject@VCAxHostWindow@ATL@@@ATL@@WBA@AGKXZ 1000c5e7 f i VSNetToolWinShim.obj
 0001:0000b5f1       ?Release@?$CComContainedObject@VCAxHostWindow@ATL@@@ATL@@WBA@AGKXZ 1000c5f1 f i VSNetToolWinShim.obj
 0001:0000b5fb       ?QueryInterface@?$CComContainedObject@VCAxHostWindow@ATL@@@ATL@@WBE@AGJABU_GUID@@PAPAX@Z 1000c5fb f i VSNetToolWinShim.obj
 0001:0000b605       ?AddRef@?$CComContainedObject@VCAxHostWindow@ATL@@@ATL@@WBE@AGKXZ 1000c605 f i VSNetToolWinShim.obj
 0001:0000b60f       ?Release@?$CComContainedObject@VCAxHostWindow@ATL@@@ATL@@WBE@AGKXZ 1000c60f f i VSNetToolWinShim.obj
 0001:0000b619       ??_E?$CComContainedObject@VCAxHostWindow@ATL@@@ATL@@WDI@AEPAXI@Z 1000c619 f i VSNetToolWinShim.obj
 0001:0000b621       ?QueryInterface@?$CComContainedObject@VCAxHostWindow@ATL@@@ATL@@WBM@AGJABU_GUID@@PAPAX@Z 1000c621 f i VSNetToolWinShim.obj
 0001:0000b62b       ?AddRef@?$CComContainedObject@VCAxHostWindow@ATL@@@ATL@@WBM@AGKXZ 1000c62b f i VSNetToolWinShim.obj
 0001:0000b635       ?Release@?$CComContainedObject@VCAxHostWindow@ATL@@@ATL@@WBM@AGKXZ 1000c635 f i VSNetToolWinShim.obj
 0001:0000b63f       ?QueryInterface@?$CComContainedObject@VCAxHostWindow@ATL@@@ATL@@WCA@AGJABU_GUID@@PAPAX@Z 1000c63f f i VSNetToolWinShim.obj
 0001:0000b649       ?AddRef@?$CComContainedObject@VCAxHostWindow@ATL@@@ATL@@WCA@AGKXZ 1000c649 f i VSNetToolWinShim.obj
 0001:0000b653       ?Release@?$CComContainedObject@VCAxHostWindow@ATL@@@ATL@@WCA@AGKXZ 1000c653 f i VSNetToolWinShim.obj
 0001:0000b65d       ?QueryInterface@?$CComContainedObject@VCAxHostWindow@ATL@@@ATL@@WCE@AGJABU_GUID@@PAPAX@Z 1000c65d f i VSNetToolWinShim.obj
 0001:0000b667       ?AddRef@?$CComContainedObject@VCAxHostWindow@ATL@@@ATL@@WCE@AGKXZ 1000c667 f i VSNetToolWinShim.obj
 0001:0000b671       ?Release@?$CComContainedObject@VCAxHostWindow@ATL@@@ATL@@WCE@AGKXZ 1000c671 f i VSNetToolWinShim.obj
 0001:0000b67b       ?QueryInterface@?$CComContainedObject@VCAxHostWindow@ATL@@@ATL@@WCI@AGJABU_GUID@@PAPAX@Z 1000c67b f i VSNetToolWinShim.obj
 0001:0000b685       ?AddRef@?$CComContainedObject@VCAxHostWindow@ATL@@@ATL@@WCI@AGKXZ 1000c685 f i VSNetToolWinShim.obj
 0001:0000b68f       ?Release@?$CComContainedObject@VCAxHostWindow@ATL@@@ATL@@WCI@AGKXZ 1000c68f f i VSNetToolWinShim.obj
 0001:0000b699       ??_E?$CComCompositeControl@VCVSNetToolWinShim@@@ATL@@WEI@AEPAXI@Z 1000c699 f i VSNetToolWinShim.obj
 0001:0000b6a1       ?LockServer@CComClassFactory@ATL@@UAGJH@Z 1000c6a1 f i VSNetToolWinShim.obj
 0001:0000b6bd       ?CreateInstance@CComClassFactory@ATL@@UAGJPAUIUnknown@@ABU_GUID@@PAPAX@Z 1000c6bd f i VSNetToolWinShim.obj
 0001:0000b6fb       ?AtlGetObjectSourceInterface@ATL@@YGJPAUIUnknown@@PAU_GUID@@1PAG2@Z 1000c6fb f i VSNetToolWinShim.obj
 0001:0000b9a5       ?AtlWinModuleExtractCreateWndData@ATL@@YGPAXPAU_ATL_WIN_MODULE70@1@@Z 1000c9a5 f i VSNetToolWinShim.obj
 0001:0000ba05       ?AtlWinModuleAddCreateWndData@ATL@@YGXPAU_ATL_WIN_MODULE70@1@PAU_AtlCreateWndData@1@PAX@Z 1000ca05 f i VSNetToolWinShim.obj
 0001:0000ba57       ?AtlA2WHelper@@YGPAGPAGPBDHI@Z 1000ca57 f i VSNetToolWinShim.obj
 0001:0000ba89       ??_GCComClassFactory@ATL@@UAEPAXI@Z 1000ca89 f i VSNetToolWinShim.obj
 0001:0000ba89       ??_ECComClassFactory@ATL@@UAEPAXI@Z 1000ca89 f i VSNetToolWinShim.obj
 0001:0000baa5       ??0CComAutoCriticalSection@ATL@@QAE@XZ 1000caa5 f i VSNetToolWinShim.obj
 0001:0000bac0       ??1CComClassFactory@ATL@@UAE@XZ 1000cac0 f i VSNetToolWinShim.obj
 0001:0000bad1       ?InlineIsEqualUnknown@ATL@@YGHABU_GUID@@@Z 1000cad1 f i VSNetToolWinShim.obj
 0001:0000baf5       ?AtlIPersistStreamInit_Save@ATL@@YGJPAUIStream@@HPAUATL_PROPMAP_ENTRY@1@PAXPAUIUnknown@@@Z 1000caf5 f i VSNetToolWinShim.obj
 0001:0000bc58       ?WriteToStream@CComBSTR@ATL@@QAEJPAUIStream@@@Z 1000cc58 f i VSNetToolWinShim.obj
 0001:0000bcaf       ?WriteToStream@CComVariant@ATL@@QAEJPAUIStream@@@Z 1000ccaf f i VSNetToolWinShim.obj
 0001:0000be3d       ?AtlIPersistStreamInit_Load@ATL@@YGJPAUIStream@@PAUATL_PROPMAP_ENTRY@1@PAXPAUIUnknown@@@Z 1000ce3d f i VSNetToolWinShim.obj
 0001:0000bfb9       ?ReadFromStream@CComBSTR@ATL@@QAEJPAUIStream@@@Z 1000cfb9 f i VSNetToolWinShim.obj
 0001:0000c044       ?ReadFromStream@CComVariant@ATL@@QAEJPAUIStream@@@Z 1000d044 f i VSNetToolWinShim.obj
 0001:0000c1c8       ?PutProperty@?$CComPtr@UIDispatch@@@ATL@@SAJPAUIDispatch@@JPAUtagVARIANT@@@Z 1000d1c8 f i VSNetToolWinShim.obj
 0001:0000c251       ??1CDynamicStdCallThunk@ATL@@QAE@XZ 1000d251 f i VSNetToolWinShim.obj
 0001:0000c268       ?GetSize@CComVariant@ATL@@QBEKXZ 1000d268 f i VSNetToolWinShim.obj
 0001:0000c3ba       ?AtlComQIPtrAssign@ATL@@YGPAUIUnknown@@PAPAU2@PAU2@ABU_GUID@@@Z 1000d3ba f i VSNetToolWinShim.obj
 0001:0000c3e6       ?Invoke@CComTypeInfoHolder@ATL@@QAEJPAUIDispatch@@JABU_GUID@@KGPAUtagDISPPARAMS@@PAUtagVARIANT@@PAUtagEXCEPINFO@@PAI@Z 1000d3e6 f i VSNetToolWinShim.obj
 0001:0000c41b       ?EnsureTI@CComTypeInfoHolder@ATL@@QAEJK@Z 1000d41b f i VSNetToolWinShim.obj
 0001:0000c437       ?GetTI@CComTypeInfoHolder@ATL@@QAEJK@Z 1000d437 f i VSNetToolWinShim.obj
 0001:0000c65f       ?AddTermFunc@CAtlModule@ATL@@QAEJP6GXK@ZK@Z 1000d65f f i VSNetToolWinShim.obj
 0001:0000c67b       ?AtlModuleAddTermFunc@ATL@@YGJPAU_ATL_MODULE70@1@P6GXK@ZK@Z 1000d67b f i VSNetToolWinShim.obj
 0001:0000c709       ?Cleanup@CComTypeInfoHolder@ATL@@SGXK@Z 1000d709 f i VSNetToolWinShim.obj
 0001:0000c73b       ?LoadNameCache@CComTypeInfoHolder@ATL@@QAEJPAUITypeInfo@@@Z 1000d73b f i VSNetToolWinShim.obj
 0001:0000c8a7       ??0stringdispid@CComTypeInfoHolder@ATL@@QAE@XZ 1000d8a7 f i VSNetToolWinShim.obj
 0001:0000c8b5       ?GetIDsOfNames@CComTypeInfoHolder@ATL@@QAEJABU_GUID@@PAPAGIKPAJ@Z 1000d8b5 f i VSNetToolWinShim.obj
 0001:0000c94d       ?GetTI@CComTypeInfoHolder@ATL@@QAEJKPAPAUITypeInfo@@@Z 1000d94d f i VSNetToolWinShim.obj
 0001:0000c985       ?AtlComPtrAssign@ATL@@YGPAUIUnknown@@PAPAU2@PAU2@@Z 1000d985 f i VSNetToolWinShim.obj
 0001:0000c9a7       ?OnSave@CAxHostWindow@ATL@@UAGXXZ 1000d9a7 f i VSNetToolWinShim.obj
 0001:0000c9a7       ?OnClose@CAxHostWindow@ATL@@UAGXXZ 1000d9a7 f i VSNetToolWinShim.obj
 0001:0000c9a7       ?OnFinalMessage@?$CWindowImplBaseT@VCWindow@ATL@@V?$CWinTraits@$0FGAAAAAA@$0A@@2@@ATL@@UAEXPAUHWND__@@@Z 1000d9a7 f i VSNetToolWinShim.obj
 0001:0000c9a7       ?ObjectMain@CComObjectRootBase@ATL@@SGX_N@Z 1000d9a7 f i VSNetToolWinShim.obj
 0001:0000c9a7       ?OnFinalMessage@?$CDialogImplBaseT@VCWindow@ATL@@@ATL@@UAEXPAUHWND__@@@Z 1000d9a7 f i VSNetToolWinShim.obj
 0001:0000c9aa       ?GetCategoryMap@CComObjectRootBase@ATL@@SAPBU_ATL_CATMAP_ENTRY@2@XZ 1000d9aa f i VSNetToolWinShim.obj
 0001:0000c9aa       ?GetObjectDescription@?$CComCoClass@VCVSNetToolWinShim@@$1?CLSID_VSNetToolWinShim@@3U_GUID@@B@ATL@@SGPBGXZ 1000d9aa f i VSNetToolWinShim.obj
 0001:0000c9ad       ?GetProperty@?$CComPtr@UIDispatch@@@ATL@@SAJPAUIDispatch@@JPAUtagVARIANT@@@Z 1000d9ad f i VSNetToolWinShim.obj
 0001:0000c9f8       ??4CComBSTR@ATL@@QAEAAV01@PBG@Z 1000d9f8 f i VSNetToolWinShim.obj
 0001:0000ca30       ??0CComBSTR@ATL@@QAE@PBG@Z 1000da30 f i VSNetToolWinShim.obj
 0001:0000ca5a       ??0CComBSTR@ATL@@QAE@ABU_GUID@@@Z 1000da5a f i VSNetToolWinShim.obj
 0001:0000caa8       ??4CComVariant@ATL@@QAEAAV01@PBG@Z 1000daa8 f i VSNetToolWinShim.obj
 0001:0000cadc       ??1CComVariant@ATL@@QAE@XZ 1000dadc f i VSNetToolWinShim.obj
 0001:0000cae4       ?AtlAdvise@ATL@@YGJPAUIUnknown@@0ABU_GUID@@PAK@Z 1000dae4 f i VSNetToolWinShim.obj
 0001:0000cb59       ?AtlUnadvise@ATL@@YGJPAUIUnknown@@ABU_GUID@@K@Z 1000db59 f i VSNetToolWinShim.obj
 0001:0000cbcb       ?AtlInternalQueryInterface@ATL@@YGJPAXPBU_ATL_INTMAP_ENTRY@1@ABU_GUID@@PAPAX@Z 1000dbcb f i VSNetToolWinShim.obj
 0001:0000cc60       ?FindOneOf@CAtlModule@ATL@@SAPBGPBG0@Z 1000dc60 f i VSNetToolWinShim.obj
 0001:0000cca3       ?Init@CDynamicStdCallThunk@ATL@@QAEXKPAX@Z 1000dca3 f i VSNetToolWinShim.obj
 0001:0000cccd       ?Init@_stdcallthunk@ATL@@QAEXKPAX@Z 1000dccd f i VSNetToolWinShim.obj
 0001:0000ccf3       ??0CComBSTR@ATL@@QAE@H@Z   1000dcf3 f i VSNetToolWinShim.obj
 0001:0000cd20       _CorBindToRuntimeEx@24     1000dd20 f   mscoree:mscoree.dll
 0001:0000cd26       _BSTR_UserSize@12          1000dd26 f   oleaut32:OLEAUT32.dll
 0001:0000cd2c       _BSTR_UserMarshal@12       1000dd2c f   oleaut32:OLEAUT32.dll
 0001:0000cd32       _BSTR_UserUnmarshal@12     1000dd32 f   oleaut32:OLEAUT32.dll
 0001:0000cd38       _BSTR_UserFree@8           1000dd38 f   oleaut32:OLEAUT32.dll
 0001:0000cd3e       _IUnknown_QueryInterface_Proxy@12 1000dd3e f   rpcrt4:RPCRT4.dll
 0001:0000cd44       _NdrOleFree@4              1000dd44 f   rpcrt4:RPCRT4.dll
 0001:0000cd4a       _NdrStubForwardingFunction@16 1000dd4a f   rpcrt4:RPCRT4.dll
 0001:0000cd50       _NdrOleAllocate@4          1000dd50 f   rpcrt4:RPCRT4.dll
 0001:0000cd56       _NdrStubCall2@16           1000dd56 f   rpcrt4:RPCRT4.dll
 0001:0000cd5c       _IUnknown_Release_Proxy@4  1000dd5c f   rpcrt4:RPCRT4.dll
 0001:0000cd62       _NdrCStdStubBuffer2_Release@8 1000dd62 f   rpcrt4:RPCRT4.dll
 0001:0000cd68       _IUnknown_AddRef_Proxy@4   1000dd68 f   rpcrt4:RPCRT4.dll
 0001:0000cd6e       _memcmp                    1000dd6e f   MSVCRT:MSVCR71.dll
 0001:0000cd74       _free                      1000dd74 f   MSVCRT:MSVCR71.dll
 0001:0000cd7a       ?__ArrayUnwind@@YGXPAXIHP6EX0@Z@Z 1000dd7a f   MSVCRT:ehvecdtr.obj
 0001:0000cdd8       ??_M@YGXPAXIHP6EX0@Z@Z     1000ddd8 f   MSVCRT:ehvecdtr.obj
 0001:0000ce38       __onexit                   1000de38 f   MSVCRT:atonexit.obj
 0001:0000ce5e       _atexit                    1000de5e f   MSVCRT:atonexit.obj
 0001:0000ce70       _memset                    1000de70 f   MSVCRT:MSVCR71.dll
 0001:0000ce76       ??_V@YAXPAX@Z              1000de76 f   MSVCRT:MSVCR71.dll
 0001:0000ce7c       ??3@YAXPAX@Z               1000de7c f   MSVCRT:MSVCR71.dll
 0001:0000ce82       _memcpy                    1000de82 f   MSVCRT:MSVCR71.dll
 0001:0000ce88       ??_U@YAPAXI@Z              1000de88 f   MSVCRT:MSVCR71.dll
 0001:0000ce8e       ??_Etype_info@@UAEPAXI@Z   1000de8e f i MSVCRT:ti_inst.obj
 0001:0000ceda       ??2@YAPAXI@Z               1000deda f   MSVCRT:MSVCR71.dll
 0001:0000cee0       ??_L@YGXPAXIHP6EX0@Z1@Z    1000dee0 f   MSVCRT:ehvecctr.obj
 0001:0000cf42       __CRT_INIT@12              1000df42 f   MSVCRT:crtdll.obj
 0001:0000d000       __DllMainCRTStartup@12     1000e000 f   MSVCRT:crtdll.obj
 0001:0000d0e4       ?terminate@@YAXXZ          1000e0e4 f   MSVCRT:MSVCR71.dll
 0001:0000d0ec       __SEH_prolog               1000e0ec f   MSVCRT:sehprolg.obj
 0001:0000d127       __SEH_epilog               1000e127 f   MSVCRT:sehprolg.obj
 0001:0000d138       __except_handler3          1000e138 f   MSVCRT:MSVCR71.dll
 0001:0000d13e       ___dllonexit               1000e13e f   MSVCRT:MSVCR71.dll
 0001:0000d144       ??1type_info@@UAE@XZ       1000e144 f   MSVCRT:MSVCR71.dll
 0001:0000d14a       __initterm                 1000e14a f   MSVCRT:MSVCR71.dll
 0001:0000d150       __RTC_Initialize           1000e150 f   MSVCRT:initsect.obj
 0001:0000d194       __RTC_Terminate            1000e194 f   MSVCRT:initsect.obj
 0001:0000d1d8       ___CppXcptFilter           1000e1d8 f   MSVCRT:MSVCR71.dll
 0001:0000d1de       ?RemoveAll@?$CSimpleArray@PAUHINSTANCE__@@V?$CSimpleArrayEqualHelper@PAUHINSTANCE__@@@ATL@@@ATL@@QAEXXZ 1000e1de f i atls:atlbase.obj
 0001:0000d1fb       ??0_ATL_BASE_MODULE70@ATL@@QAE@XZ 1000e1fb f i atls:atlbase.obj
 0001:0000d215       ??1CAtlBaseModule@ATL@@QAE@XZ 1000e215 f   atls:atlbase.obj
 0001:0000d22b       ??0CAtlBaseModule@ATL@@QAE@XZ 1000e22b f   atls:atlbase.obj
 0001:0000d2d6       ?Term@CAtlComModule@ATL@@QAEXXZ 1000e2d6 f i atls:atlcommodule.obj
 0001:0000d318       ??0CAtlComModule@ATL@@QAE@XZ 1000e318 f i atls:atlcommodule.obj
 0001:0000d389       @__security_check_cookie@4 1000e389 f   MSVCRT:secchk.obj
 0001:0000d397       ___security_init_cookie    1000e397 f   MSVCRT:seccinit.obj
 0001:0000d3fe       ___security_error_handler  1000e3fe f   MSVCRT:MSVCR71.dll
 0001:0000d404       ___CxxFrameHandler         1000e404 f   MSVCRT:MSVCR71.dll
 0001:0000d410       __EH_prolog                1000e410 f   MSVCRT:ehprolog.obj
 0001:0000d430       __CxxThrowException@8      1000e430 f   MSVCRT:MSVCR71.dll
 0001:0000d440       __chkstk                   1000e440 f   MSVCRT:chkstk.obj
 0001:0000d440       __alloca_probe             1000e440     MSVCRT:chkstk.obj
 0002:00000000       __VSNetToolHostShim_IID_Lookup@8 1000f000 f   dlldatax.obj
 0003:00000000       __imp__RegQueryInfoKeyW@48 10010000     advapi32:ADVAPI32.dll
 0003:00000004       __imp__RegCloseKey@4       10010004     advapi32:ADVAPI32.dll
 0003:00000008       __imp__RegDeleteKeyW@8     10010008     advapi32:ADVAPI32.dll
 0003:0000000c       __imp__RegDeleteValueW@8   1001000c     advapi32:ADVAPI32.dll
 0003:00000010       __imp__RegCreateKeyExW@36  10010010     advapi32:ADVAPI32.dll
 0003:00000014       __imp__RegSetValueExW@24   10010014     advapi32:ADVAPI32.dll
 0003:00000018       __imp__RegEnumKeyExW@32    10010018     advapi32:ADVAPI32.dll
 0003:0000001c       __imp__RegOpenKeyExW@20    1001001c     advapi32:ADVAPI32.dll
 0003:00000020       \177ADVAPI32_NULL_THUNK_DATA 10010020     advapi32:ADVAPI32.dll
 0003:00000024       __imp__BitBlt@36           10010024     gdi32:GDI32.dll
 0003:00000028       __imp__DeleteDC@4          10010028     gdi32:GDI32.dll
 0003:0000002c       __imp__GetStockObject@4    1001002c     gdi32:GDI32.dll
 0003:00000030       __imp__CreateDCW@16        10010030     gdi32:GDI32.dll
 0003:00000034       __imp__CreateRectRgnIndirect@4 10010034     gdi32:GDI32.dll
 0003:00000038       __imp__CreateMetaFileW@4   10010038     gdi32:GDI32.dll
 0003:0000003c       __imp__SaveDC@4            1001003c     gdi32:GDI32.dll
 0003:00000040       __imp__SetWindowOrgEx@16   10010040     gdi32:GDI32.dll
 0003:00000044       __imp__SetWindowExtEx@16   10010044     gdi32:GDI32.dll
 0003:00000048       __imp__RestoreDC@8         10010048     gdi32:GDI32.dll
 0003:0000004c       __imp__CloseMetaFile@4     1001004c     gdi32:GDI32.dll
 0003:00000050       __imp__CreateCompatibleDC@4 10010050     gdi32:GDI32.dll
 0003:00000054       __imp__LPtoDP@12           10010054     gdi32:GDI32.dll
 0003:00000058       __imp__SetMapMode@8        10010058     gdi32:GDI32.dll
 0003:0000005c       __imp__SetViewportOrgEx@16 1001005c     gdi32:GDI32.dll
 0003:00000060       __imp__CreatePalette@4     10010060     gdi32:GDI32.dll
 0003:00000064       __imp__SelectPalette@12    10010064     gdi32:GDI32.dll
 0003:00000068       __imp__RealizePalette@4    10010068     gdi32:GDI32.dll
 0003:0000006c       __imp__CreateDIBitmap@24   1001006c     gdi32:GDI32.dll
 0003:00000070       __imp__Rectangle@20        10010070     gdi32:GDI32.dll
 0003:00000074       __imp__SetTextColor@8      10010074     gdi32:GDI32.dll
 0003:00000078       __imp__SetBkMode@8         10010078     gdi32:GDI32.dll
 0003:0000007c       __imp__SetBkColor@8        1001007c     gdi32:GDI32.dll
 0003:00000080       __imp__GetDeviceCaps@8     10010080     gdi32:GDI32.dll
 0003:00000084       __imp__CreateFontIndirectW@4 10010084     gdi32:GDI32.dll
 0003:00000088       __imp__SelectObject@8      10010088     gdi32:GDI32.dll
 0003:0000008c       __imp__GetTextMetricsW@8   1001008c     gdi32:GDI32.dll
 0003:00000090       __imp__GetTextExtentPointW@16 10010090     gdi32:GDI32.dll
 0003:00000094       __imp__DeleteObject@4      10010094     gdi32:GDI32.dll
 0003:00000098       __imp__CreateSolidBrush@4  10010098     gdi32:GDI32.dll
 0003:0000009c       __imp__DeleteMetaFile@4    1001009c     gdi32:GDI32.dll
 0003:000000a0       __imp__GetObjectW@12       100100a0     gdi32:GDI32.dll
 0003:000000a4       __imp__CreateCompatibleBitmap@12 100100a4     gdi32:GDI32.dll
 0003:000000a8       \177GDI32_NULL_THUNK_DATA  100100a8     gdi32:GDI32.dll
 0003:000000ac       __imp__GetCurrentThreadId@0 100100ac     kernel32:KERNEL32.dll
 0003:000000b0       __imp__GlobalHandle@4      100100b0     kernel32:KERNEL32.dll
 0003:000000b4       __imp__SetLastError@4      100100b4     kernel32:KERNEL32.dll
 0003:000000b8       __imp__GetSystemTimeAsFileTime@4 100100b8     kernel32:KERNEL32.dll
 0003:000000bc       __imp__GetCurrentProcessId@0 100100bc     kernel32:KERNEL32.dll
 0003:000000c0       __imp__GetTickCount@0      100100c0     kernel32:KERNEL32.dll
 0003:000000c4       __imp__QueryPerformanceCounter@4 100100c4     kernel32:KERNEL32.dll
 0003:000000c8       __imp__ExitProcess@4       100100c8     kernel32:KERNEL32.dll
 0003:000000cc       __imp__GetLocaleInfoA@16   100100cc     kernel32:KERNEL32.dll
 0003:000000d0       __imp__InitializeCriticalSection@4 100100d0     kernel32:KERNEL32.dll
 0003:000000d4       __imp__GetVersionExA@4     100100d4     kernel32:KERNEL32.dll
 0003:000000d8       __imp__GetVersionExW@4     100100d8     kernel32:KERNEL32.dll
 0003:000000dc       __imp__GetACP@0            100100dc     kernel32:KERNEL32.dll
 0003:000000e0       __imp__RaiseException@16   100100e0     kernel32:KERNEL32.dll
 0003:000000e4       __imp__InterlockedExchange@8 100100e4     kernel32:KERNEL32.dll
 0003:000000e8       __imp__GetProcessHeap@0    100100e8     kernel32:KERNEL32.dll
 0003:000000ec       __imp__GetThreadLocale@0   100100ec     kernel32:KERNEL32.dll
 0003:000000f0       __imp__DeleteCriticalSection@4 100100f0     kernel32:KERNEL32.dll
 0003:000000f4       __imp__FreeLibrary@4       100100f4     kernel32:KERNEL32.dll
 0003:000000f8       __imp__lstrcmpiW@8         100100f8     kernel32:KERNEL32.dll
 0003:000000fc       __imp__lstrcpynW@12        100100fc     kernel32:KERNEL32.dll
 0003:00000100       __imp__MultiByteToWideChar@24 10010100     kernel32:KERNEL32.dll
 0003:00000104       __imp__SizeofResource@8    10010104     kernel32:KERNEL32.dll
 0003:00000108       __imp__LoadResource@8      10010108     kernel32:KERNEL32.dll
 0003:0000010c       __imp__FindResourceW@12    1001010c     kernel32:KERNEL32.dll
 0003:00000110       __imp__LoadLibraryExW@12   10010110     kernel32:KERNEL32.dll
 0003:00000114       __imp__GetModuleHandleW@4  10010114     kernel32:KERNEL32.dll
 0003:00000118       __imp__EnterCriticalSection@4 10010118     kernel32:KERNEL32.dll
 0003:0000011c       __imp__lstrlenW@4          1001011c     kernel32:KERNEL32.dll
 0003:00000120       __imp__GetLastError@0      10010120     kernel32:KERNEL32.dll
 0003:00000124       __imp__GetModuleFileNameW@12 10010124     kernel32:KERNEL32.dll
 0003:00000128       __imp__lstrcatW@8          10010128     kernel32:KERNEL32.dll
 0003:0000012c       __imp__FreeResource@4      1001012c     kernel32:KERNEL32.dll
 0003:00000130       __imp__LockResource@4      10010130     kernel32:KERNEL32.dll
 0003:00000134       __imp__GlobalUnlock@4      10010134     kernel32:KERNEL32.dll
 0003:00000138       __imp__GlobalLock@4        10010138     kernel32:KERNEL32.dll
 0003:0000013c       __imp__LoadLibraryW@4      1001013c     kernel32:KERNEL32.dll
 0003:00000140       __imp__MulDiv@12           10010140     kernel32:KERNEL32.dll
 0003:00000144       __imp__FlushInstructionCache@12 10010144     kernel32:KERNEL32.dll
 0003:00000148       __imp__GetCurrentProcess@0 10010148     kernel32:KERNEL32.dll
 0003:0000014c       __imp__lstrcmpW@8          1001014c     kernel32:KERNEL32.dll
 0003:00000150       __imp__lstrlenA@4          10010150     kernel32:KERNEL32.dll
 0003:00000154       __imp__GlobalFree@4        10010154     kernel32:KERNEL32.dll
 0003:00000158       __imp__GlobalAlloc@8       10010158     kernel32:KERNEL32.dll
 0003:0000015c       __imp__HeapFree@12         1001015c     kernel32:KERNEL32.dll
 0003:00000160       __imp__HeapAlloc@12        10010160     kernel32:KERNEL32.dll
 0003:00000164       __imp__InterlockedDecrement@4 10010164     kernel32:KERNEL32.dll
 0003:00000168       __imp__InterlockedIncrement@4 10010168     kernel32:KERNEL32.dll
 0003:0000016c       __imp__LeaveCriticalSection@4 1001016c     kernel32:KERNEL32.dll
 0003:00000170       __imp__lstrcpyW@8          10010170     kernel32:KERNEL32.dll
 0003:00000174       \177KERNEL32_NULL_THUNK_DATA 10010174     kernel32:KERNEL32.dll
 0003:00000178       __imp__memcmp              10010178     MSVCRT:MSVCR71.dll
 0003:0000017c       __imp__free                1001017c     MSVCRT:MSVCR71.dll
 0003:00000180       __imp__memset              10010180     MSVCRT:MSVCR71.dll
 0003:00000184       __imp_??_V@YAXPAX@Z        10010184     MSVCRT:MSVCR71.dll
 0003:00000188       __imp_??3@YAXPAX@Z         10010188     MSVCRT:MSVCR71.dll
 0003:0000018c       __imp__malloc              1001018c     MSVCRT:MSVCR71.dll
 0003:00000190       __imp__realloc             10010190     MSVCRT:MSVCR71.dll
 0003:00000194       __imp__memcpy              10010194     MSVCRT:MSVCR71.dll
 0003:00000198       __imp_??_U@YAPAXI@Z        10010198     MSVCRT:MSVCR71.dll
 0003:0000019c       __imp__wcsncpy             1001019c     MSVCRT:MSVCR71.dll
 0003:000001a0       __imp__wcslen              100101a0     MSVCRT:MSVCR71.dll
 0003:000001a4       __imp_??2@YAPAXI@Z         100101a4     MSVCRT:MSVCR71.dll
 0003:000001a8       __imp___CxxThrowException@8 100101a8     MSVCRT:MSVCR71.dll
 0003:000001ac       __imp_?terminate@@YAXXZ    100101ac     MSVCRT:MSVCR71.dll
 0003:000001b0       __imp___except_handler3    100101b0     MSVCRT:MSVCR71.dll
 0003:000001b4       __imp____dllonexit         100101b4     MSVCRT:MSVCR71.dll
 0003:000001b8       __imp___onexit             100101b8     MSVCRT:MSVCR71.dll
 0003:000001bc       __imp___initterm           100101bc     MSVCRT:MSVCR71.dll
 0003:000001c0       __imp___adjust_fdiv        100101c0     MSVCRT:MSVCR71.dll
 0003:000001c4       __imp____CppXcptFilter     100101c4     MSVCRT:MSVCR71.dll
 0003:000001c8       __imp____security_error_handler 100101c8     MSVCRT:MSVCR71.dll
 0003:000001cc       __imp____CxxFrameHandler   100101cc     MSVCRT:MSVCR71.dll
 0003:000001d0       __imp_??1type_info@@UAE@XZ 100101d0     MSVCRT:MSVCR71.dll
 0003:000001d4       \177MSVCR71_NULL_THUNK_DATA 100101d4     MSVCRT:MSVCR71.dll
 0003:000001d8       __imp__UnRegisterTypeLib@20 100101d8     oleaut32:OLEAUT32.dll
 0003:000001dc       __imp__BSTR_UserMarshal@12 100101dc     oleaut32:OLEAUT32.dll
 0003:000001e0       __imp__BSTR_UserUnmarshal@12 100101e0     oleaut32:OLEAUT32.dll
 0003:000001e4       __imp__BSTR_UserFree@8     100101e4     oleaut32:OLEAUT32.dll
 0003:000001e8       __imp__SysFreeString@4     100101e8     oleaut32:OLEAUT32.dll
 0003:000001ec       __imp__VarUI4FromStr@16    100101ec     oleaut32:OLEAUT32.dll
 0003:000001f0       __imp__RegisterTypeLib@12  100101f0     oleaut32:OLEAUT32.dll
 0003:000001f4       __imp__SysAllocString@4    100101f4     oleaut32:OLEAUT32.dll
 0003:000001f8       __imp__LoadTypeLib@8       100101f8     oleaut32:OLEAUT32.dll
 0003:000001fc       __imp__SysAllocStringLen@8 100101fc     oleaut32:OLEAUT32.dll
 0003:00000200       __imp__VariantInit@4       10010200     oleaut32:OLEAUT32.dll
 0003:00000204       __imp__OleCreateFontIndirect@12 10010204     oleaut32:OLEAUT32.dll
 0003:00000208       __imp__OleCreatePropertyFrame@44 10010208     oleaut32:OLEAUT32.dll
 0003:0000020c       __imp__OleCreatePictureIndirect@16 1001020c     oleaut32:OLEAUT32.dll
 0003:00000210       __imp__SysStringByteLen@4  10010210     oleaut32:OLEAUT32.dll
 0003:00000214       __imp__VariantChangeType@16 10010214     oleaut32:OLEAUT32.dll
 0003:00000218       __imp__SysAllocStringByteLen@8 10010218     oleaut32:OLEAUT32.dll
 0003:0000021c       __imp__VariantClear@4      1001021c     oleaut32:OLEAUT32.dll
 0003:00000220       __imp__OleTranslateColor@12 10010220     oleaut32:OLEAUT32.dll
 0003:00000224       __imp__LoadRegTypeLib@20   10010224     oleaut32:OLEAUT32.dll
 0003:00000228       __imp__SysStringLen@4      10010228     oleaut32:OLEAUT32.dll
 0003:0000022c       __imp__BSTR_UserSize@12    1001022c     oleaut32:OLEAUT32.dll
 0003:00000230       \177OLEAUT32_NULL_THUNK_DATA 10010230     oleaut32:OLEAUT32.dll
 0003:00000234       __imp__NdrOleFree@4        10010234     rpcrt4:RPCRT4.dll
 0003:00000238       __imp__NdrStubForwardingFunction@16 10010238     rpcrt4:RPCRT4.dll
 0003:0000023c       __imp__NdrOleAllocate@4    1001023c     rpcrt4:RPCRT4.dll
 0003:00000240       __imp__NdrDllRegisterProxy@12 10010240     rpcrt4:RPCRT4.dll
 0003:00000244       __imp__NdrDllCanUnloadNow@4 10010244     rpcrt4:RPCRT4.dll
 0003:00000248       __imp__NdrStubCall2@16     10010248     rpcrt4:RPCRT4.dll
 0003:0000024c       __imp__IUnknown_Release_Proxy@4 1001024c     rpcrt4:RPCRT4.dll
 0003:00000250       __imp__NdrCStdStubBuffer2_Release@8 10010250     rpcrt4:RPCRT4.dll
 0003:00000254       __imp__IUnknown_AddRef_Proxy@4 10010254     rpcrt4:RPCRT4.dll
 0003:00000258       __imp__NdrDllGetClassObject@24 10010258     rpcrt4:RPCRT4.dll
 0003:0000025c       __imp__NdrDllUnregisterProxy@12 1001025c     rpcrt4:RPCRT4.dll
 0003:00000260       __imp__IUnknown_QueryInterface_Proxy@12 10010260     rpcrt4:RPCRT4.dll
 0003:00000264       \177RPCRT4_NULL_THUNK_DATA 10010264     rpcrt4:RPCRT4.dll
 0003:00000268       __imp__PathFindExtensionW@4 10010268     shlwapi:SHLWAPI.dll
 0003:0000026c       \177SHLWAPI_NULL_THUNK_DATA 1001026c     shlwapi:SHLWAPI.dll
 0003:00000270       __imp__DestroyWindow@4     10010270     user32:USER32.dll
 0003:00000274       __imp__SendMessageW@16     10010274     user32:USER32.dll
 0003:00000278       __imp__SetWindowTextW@8    10010278     user32:USER32.dll
 0003:0000027c       __imp__CreateWindowExW@48  1001027c     user32:USER32.dll
 0003:00000280       __imp__GetWindowLongW@8    10010280     user32:USER32.dll
 0003:00000284       __imp__SetWindowLongW@12   10010284     user32:USER32.dll
 0003:00000288       __imp__CharNextW@4         10010288     user32:USER32.dll
 0003:0000028c       __imp__GetWindowTextLengthW@4 1001028c     user32:USER32.dll
 0003:00000290       __imp__MoveWindow@24       10010290     user32:USER32.dll
 0003:00000294       __imp__SetWindowPos@28     10010294     user32:USER32.dll
 0003:00000298       __imp__GetWindowRect@8     10010298     user32:USER32.dll
 0003:0000029c       __imp__GetClientRect@8     1001029c     user32:USER32.dll
 0003:000002a0       __imp__BeginPaint@8        100102a0     user32:USER32.dll
 0003:000002a4       __imp__EndPaint@8          100102a4     user32:USER32.dll
 0003:000002a8       __imp__GetDC@4             100102a8     user32:USER32.dll
 0003:000002ac       __imp__ReleaseDC@8         100102ac     user32:USER32.dll
 0003:000002b0       __imp__UnregisterClassW@8  100102b0     user32:USER32.dll
 0003:000002b4       __imp__SetParent@8         100102b4     user32:USER32.dll
 0003:000002b8       __imp__GetDlgItem@8        100102b8     user32:USER32.dll
 0003:000002bc       __imp__SetWindowContextHelpId@8 100102bc     user32:USER32.dll
 0003:000002c0       __imp__IsDialogMessageW@8  100102c0     user32:USER32.dll
 0003:000002c4       __imp__SetWindowRgn@12     100102c4     user32:USER32.dll
 0003:000002c8       __imp__IsWindow@4          100102c8     user32:USER32.dll
 0003:000002cc       __imp__GetClassNameW@12    100102cc     user32:USER32.dll
 0003:000002d0       __imp__SystemParametersInfoW@16 100102d0     user32:USER32.dll
 0003:000002d4       __imp__GetDialogBaseUnits@0 100102d4     user32:USER32.dll
 0003:000002d8       __imp__GetSysColor@4       100102d8     user32:USER32.dll
 0003:000002dc       __imp__DestroyAcceleratorTable@4 100102dc     user32:USER32.dll
 0003:000002e0       __imp__GetFocus@0          100102e0     user32:USER32.dll
 0003:000002e4       __imp__FillRect@12         100102e4     user32:USER32.dll
 0003:000002e8       __imp__GetDesktopWindow@0  100102e8     user32:USER32.dll
 0003:000002ec       __imp__CreateAcceleratorTableW@8 100102ec     user32:USER32.dll
 0003:000002f0       __imp__ReleaseCapture@0    100102f0     user32:USER32.dll
 0003:000002f4       __imp__DefWindowProcW@16   100102f4     user32:USER32.dll
 0003:000002f8       __imp__CreateDialogIndirectParamW@20 100102f8     user32:USER32.dll
 0003:000002fc       __imp__RegisterWindowMessageW@4 100102fc     user32:USER32.dll
 0003:00000300       __imp__GetClassInfoExW@12  10010300     user32:USER32.dll
 0003:00000304       __imp__LoadCursorW@8       10010304     user32:USER32.dll
 0003:00000308       __imp__RegisterClassExW@4  10010308     user32:USER32.dll
 0003:0000030c       __imp__wsprintfW           1001030c     user32:USER32.dll
 0003:00000310       __imp__IntersectRect@12    10010310     user32:USER32.dll
 0003:00000314       __imp__EqualRect@8         10010314     user32:USER32.dll
 0003:00000318       __imp__OffsetRect@12       10010318     user32:USER32.dll
 0003:0000031c       __imp__CallWindowProcW@20  1001031c     user32:USER32.dll
 0003:00000320       __imp__GetKeyState@4       10010320     user32:USER32.dll
 0003:00000324       __imp__PtInRect@12         10010324     user32:USER32.dll
 0003:00000328       __imp__UnionRect@12        10010328     user32:USER32.dll
 0003:0000032c       __imp__EnumChildWindows@12 1001032c     user32:USER32.dll
 0003:00000330       __imp__DrawTextW@20        10010330     user32:USER32.dll
 0003:00000334       __imp__MapDialogRect@8     10010334     user32:USER32.dll
 0003:00000338       __imp__CopyAcceleratorTableW@12 10010338     user32:USER32.dll
 0003:0000033c       __imp__GetWindowTextW@12   1001033c     user32:USER32.dll
 0003:00000340       __imp__GetParent@4         10010340     user32:USER32.dll
 0003:00000344       __imp__IsChild@8           10010344     user32:USER32.dll
 0003:00000348       __imp__GetWindow@8         10010348     user32:USER32.dll
 0003:0000034c       __imp__SendDlgItemMessageW@20 1001034c     user32:USER32.dll
 0003:00000350       __imp__GetNextDlgTabItem@12 10010350     user32:USER32.dll
 0003:00000354       __imp__SetFocus@4          10010354     user32:USER32.dll
 0003:00000358       __imp__SetCapture@4        10010358     user32:USER32.dll
 0003:0000035c       __imp__RedrawWindow@16     1001035c     user32:USER32.dll
 0003:00000360       __imp__ShowWindow@8        10010360     user32:USER32.dll
 0003:00000364       __imp__InvalidateRgn@12    10010364     user32:USER32.dll
 0003:00000368       __imp__InvalidateRect@12   10010368     user32:USER32.dll
 0003:0000036c       \177USER32_NULL_THUNK_DATA 1001036c     user32:USER32.dll
 0003:00000370       __imp__CorBindToRuntimeEx@24 10010370     mscoree:mscoree.dll
 0003:00000374       \177mscoree_NULL_THUNK_DATA 10010374     mscoree:mscoree.dll
 0003:00000378       __imp__WriteClassStm@8     10010378     ole32:ole32.dll
 0003:0000037c       __imp__OleLoadFromStream@12 1001037c     ole32:ole32.dll
 0003:00000380       __imp__CreateDataAdviseHolder@4 10010380     ole32:ole32.dll
 0003:00000384       __imp__OleRegGetMiscStatus@12 10010384     ole32:ole32.dll
 0003:00000388       __imp__OleRegGetUserType@12 10010388     ole32:ole32.dll
 0003:0000038c       __imp__OleRegEnumVerbs@8   1001038c     ole32:ole32.dll
 0003:00000390       __imp__CreateOleAdviseHolder@4 10010390     ole32:ole32.dll
 0003:00000394       __imp__OleUninitialize@0   10010394     ole32:ole32.dll
 0003:00000398       __imp__OleInitialize@4     10010398     ole32:ole32.dll
 0003:0000039c       __imp__OleSaveToStream@8   1001039c     ole32:ole32.dll
 0003:000003a0       __imp__CreateStreamOnHGlobal@12 100103a0     ole32:ole32.dll
 0003:000003a4       __imp__CoGetClassObject@20 100103a4     ole32:ole32.dll
 0003:000003a8       __imp__CLSIDFromProgID@8   100103a8     ole32:ole32.dll
 0003:000003ac       __imp__CLSIDFromString@8   100103ac     ole32:ole32.dll
 0003:000003b0       __imp__CoCreateInstance@20 100103b0     ole32:ole32.dll
 0003:000003b4       __imp__StringFromGUID2@12  100103b4     ole32:ole32.dll
 0003:000003b8       __imp__CoTaskMemAlloc@4    100103b8     ole32:ole32.dll
 0003:000003bc       __imp__CoTaskMemRealloc@8  100103bc     ole32:ole32.dll
 0003:000003c0       __imp__CoTaskMemFree@4     100103c0     ole32:ole32.dll
 0003:000003c4       __imp__OleLockRunning@12   100103c4     ole32:ole32.dll
 0003:000003c8       \177ole32_NULL_THUNK_DATA  100103c8     ole32:ole32.dll
 0003:000003ec       _CLSID_StdComponentCategoriesMgr 100103ec     uuid:ieguids.obj
 0003:000003fc       _GUID_NULL                 100103fc     uuid:cguid_i.obj
 0003:0000040c       _IID_IPictureDisp          1001040c     uuid:ocidl_i.obj
 0003:00000440       ??_7type_info@@6B@         10010440     MSVCRT:ti_inst.obj
 0003:00000484       _GUID_ATLVer30             10010484     atls:atlbase.obj
 0003:00000494       _GUID_ATLVer70             10010494     atls:atlbase.obj
 0003:000004b8       _IID_IVSNetToolWinShim     100104b8     VSNetToolHostShim_i.obj
 0003:00000654       __VSNetToolHostShim_InterfaceNamesList 10010654     dlldatax.obj
 0003:0000065c       _VSNetToolHostShim_ProxyFileInfo 1001065c     dlldatax.obj
 0003:000006c4       _LIBID_VSNetToolHostShimLib 100106c4     VSNetToolHostShim_i.obj
 0003:000006d4       _CLSID_VSNetToolWinShim    100106d4     VSNetToolHostShim_i.obj
 0003:00000704       _IID_IWin32Window          10010704     VSNetToolHostShim_i.obj
 0003:00000714       ??_C@_0BC@IAMOMHMH@IVSNetToolWinShim?$AA@ 10010714     dlldatax.obj
 0003:00000728       ?rgszNeverDelete@CRegParser@ATL@@1QBQBGB 10010728     stdafx.obj
 0003:00000758       ??_C@_1BA@JIHHIEDE@?$AAT?$AAy?$AAp?$AAe?$AAL?$AAi?$AAb?$AA?$AA@ 10010758     stdafx.obj
 0003:00000768       ??_C@_1BC@EAHCMADO@?$AAS?$AAo?$AAf?$AAt?$AAw?$AAa?$AAr?$AAe?$AA?$AA@ 10010768     stdafx.obj
 0003:0000077c       ??_C@_1O@GBFINDKL@?$AAS?$AAY?$AAS?$AAT?$AAE?$AAM?$AA?$AA@ 1001077c     stdafx.obj
 0003:0000078c       ??_C@_1BC@IBECJAAI@?$AAS?$AAE?$AAC?$AAU?$AAR?$AAI?$AAT?$AAY?$AA?$AA@ 1001078c     stdafx.obj
 0003:000007a0       ??_C@_17OMAOINJK@?$AAS?$AAA?$AAM?$AA?$AA@ 100107a0     stdafx.obj
 0003:000007a8       ??_C@_19HLLLM@?$AAM?$AAi?$AAm?$AAe?$AA?$AA@ 100107a8     stdafx.obj
 0003:000007b4       ??_C@_1BC@MAICEHGI@?$AAH?$AAa?$AAr?$AAd?$AAw?$AAa?$AAr?$AAe?$AA?$AA@ 100107b4     stdafx.obj
 0003:000007c8       ??_C@_1BE@EKPAFMCP@?$AAI?$AAn?$AAt?$AAe?$AAr?$AAf?$AAa?$AAc?$AAe?$AA?$AA@ 100107c8     stdafx.obj
 0003:000007dc       ??_C@_1BC@NKMMNMGL@?$AAF?$AAi?$AAl?$AAe?$AAT?$AAy?$AAp?$AAe?$AA?$AA@ 100107dc     stdafx.obj
 0003:000007f0       ??_C@_1CK@OEKPKBNA@?$AAC?$AAo?$AAm?$AAp?$AAo?$AAn?$AAe?$AAn?$AAt?$AA?5?$AAC?$AAa?$AAt?$AAe?$AAg?$AAo?$AAr?$AAi?$AAe?$AAs@ 100107f0     stdafx.obj
 0003:0000081c       ??_C@_1O@JDLOHAN@?$AAD?$AAe?$AAl?$AAe?$AAt?$AAe?$AA?$AA@ 1001081c     stdafx.obj
 0003:0000082c       ??_C@_1BC@GCKHIPE@?$AAN?$AAo?$AAR?$AAe?$AAm?$AAo?$AAv?$AAe?$AA?$AA@ 1001082c     stdafx.obj
 0003:00000840       ??_C@_1BI@JFAIJMHL@?$AAF?$AAo?$AAr?$AAc?$AAe?$AAR?$AAe?$AAm?$AAo?$AAv?$AAe?$AA?$AA@ 10010840     stdafx.obj
 0003:00000858       ??_C@_17LLMMEOJD@?$AAV?$AAa?$AAl?$AA?$AA@ 10010858     stdafx.obj
 0003:00000860       ??_C@_13OPKGLAFF@?$AAB?$AA?$AA@ 10010860     stdafx.obj
 0003:00000864       ??_C@_13MKMNOPIJ@?$AAD?$AA?$AA@ 10010864     stdafx.obj
 0003:00000868       ??_C@_13LHMFKAAD@?$AAM?$AA?$AA@ 10010868     stdafx.obj
 0003:0000086c       ??_C@_13HADIAKP@?$AAS?$AA?$AA@ 1001086c     stdafx.obj
 0003:00000870       ??_C@_1M@EJNEECMJ@?$AAA?$AAp?$AAp?$AAI?$AAD?$AA?$AA@ 10010870     stdafx.obj
 0003:0000087c       ??_C@_1M@KANJNLFF@?$AAC?$AAL?$AAS?$AAI?$AAD?$AA?$AA@ 1001087c     stdafx.obj
 0003:00000888       _CLSID_StdGlobalInterfaceTable 10010888     stdafx.obj
 0003:00000898       __GUID_0002e012_0000_0000_c000_000000000046 10010898     VSNetToolHostShim.obj
 0003:000008a8       __GUID_00000146_0000_0000_c000_000000000046 100108a8     VSNetToolHostShim.obj
 0003:000008b8       __GUID_00000000_0000_0000_c000_000000000046 100108b8     VSNetToolHostShim.obj
 0003:000008b8       _IID_IUnknown              100108b8     uuid:unknwn_i.obj
 0003:000008c8       ??_7CRegObject@ATL@@6B@    100108c8     VSNetToolHostShim.obj
 0003:000008e0       ??_C@_1M@PPPPCDEP@?$AAA?$AAP?$AAP?$AAI?$AAD?$AA?$AA@ 100108e0     VSNetToolHostShim.obj
 0003:000008ec       ??_C@_1DA@BIHALFED@?$AA?2?$AAI?$AAm?$AAp?$AAl?$AAe?$AAm?$AAe?$AAn?$AAt?$AAe?$AAd?$AA?5?$AAC?$AAa?$AAt?$AAe?$AAg?$AAo?$AAr@ 100108ec     VSNetToolHostShim.obj
 0003:0000091c       ??_C@_1CK@IFBKBFAA@?$AA?2?$AAR?$AAe?$AAq?$AAu?$AAi?$AAr?$AAe?$AAd?$AA?5?$AAC?$AAa?$AAt?$AAe?$AAg?$AAo?$AAr?$AAi?$AAe?$AAs@ 1001091c     VSNetToolHostShim.obj
 0003:00000948       ??_C@_1O@FHBGLCIO@?$AAC?$AAL?$AAS?$AAI?$AAD?$AA?2?$AA?$AA@ 10010948     VSNetToolHostShim.obj
 0003:00000958       ??_C@_19ILOCMLCJ@?$AA?4?$AAt?$AAl?$AAb?$AA?$AA@ 10010958     VSNetToolHostShim.obj
 0003:00000964       ??_C@_1BC@KAILKFFG@?$AAR?$AAE?$AAG?$AAI?$AAS?$AAT?$AAR?$AAY?$AA?$AA@ 10010964     VSNetToolHostShim.obj
 0003:00000978       ??_C@_1BG@JBACFMF@?$AAM?$AAo?$AAd?$AAu?$AAl?$AAe?$AA_?$AAR?$AAa?$AAw?$AA?$AA@ 10010978     VSNetToolHostShim.obj
 0003:00000990       ??_C@_1O@MNLDABAF@?$AAM?$AAo?$AAd?$AAu?$AAl?$AAe?$AA?$AA@ 10010990     VSNetToolHostShim.obj
 0003:000009a0       ?map@?2??HKeyFromString@CRegParser@ATL@@KAPAUHKEY__@@PAG@Z@4QBUkeymap@23@B 100109a0     VSNetToolHostShim.obj
 0003:00000a10       ??_C@_1CI@BBJOACGG@?$AAH?$AAK?$AAE?$AAY?$AA_?$AAC?$AAU?$AAR?$AAR?$AAE?$AAN?$AAT?$AA_?$AAC?$AAO?$AAN?$AAF?$AAI?$AAG?$AA?$AA@ 10010a10     VSNetToolHostShim.obj
 0003:00000a38       ??_C@_1BM@HAGMMHIA@?$AAH?$AAK?$AAE?$AAY?$AA_?$AAD?$AAY?$AAN?$AA_?$AAD?$AAA?$AAT?$AAA?$AA?$AA@ 10010a38     VSNetToolHostShim.obj
 0003:00000a54       ??_C@_1CM@KHNNAOIC@?$AAH?$AAK?$AAE?$AAY?$AA_?$AAP?$AAE?$AAR?$AAF?$AAO?$AAR?$AAM?$AAA?$AAN?$AAC?$AAE?$AA_?$AAD?$AAA?$AAT@ 10010a54     VSNetToolHostShim.obj
 0003:00000a80       ??_C@_1BG@BGODANIO@?$AAH?$AAK?$AAE?$AAY?$AA_?$AAU?$AAS?$AAE?$AAR?$AAS?$AA?$AA@ 10010a80     VSNetToolHostShim.obj
 0003:00000a98       ??_C@_1CG@GFBEANJL@?$AAH?$AAK?$AAE?$AAY?$AA_?$AAL?$AAO?$AAC?$AAA?$AAL?$AA_?$AAM?$AAA?$AAC?$AAH?$AAI?$AAN?$AAE?$AA?$AA@ 10010a98     VSNetToolHostShim.obj
 0003:00000ac0       ??_C@_1CE@HLHNCBPM@?$AAH?$AAK?$AAE?$AAY?$AA_?$AAC?$AAU?$AAR?$AAR?$AAE?$AAN?$AAT?$AA_?$AAU?$AAS?$AAE?$AAR?$AA?$AA@ 10010ac0     VSNetToolHostShim.obj
 0003:00000ae4       ??_C@_1CE@PACHPJFI@?$AAH?$AAK?$AAE?$AAY?$AA_?$AAC?$AAL?$AAA?$AAS?$AAS?$AAE?$AAS?$AA_?$AAR?$AAO?$AAO?$AAT?$AA?$AA@ 10010ae4     VSNetToolHostShim.obj
 0003:00000b08       ??_C@_19OFICIBHH@?$AAH?$AAK?$AAC?$AAC?$AA?$AA@ 10010b08     VSNetToolHostShim.obj
 0003:00000b14       ??_C@_19GFFAIJHG@?$AAH?$AAK?$AAD?$AAD?$AA?$AA@ 10010b14     VSNetToolHostShim.obj
 0003:00000b20       ??_C@_19PNBHMJPL@?$AAH?$AAK?$AAP?$AAD?$AA?$AA@ 10010b20     VSNetToolHostShim.obj
 0003:00000b2c       ??_C@_17PJOJPMPB@?$AAH?$AAK?$AAU?$AA?$AA@ 10010b2c     VSNetToolHostShim.obj
 0003:00000b34       ??_C@_19PEALEEJB@?$AAH?$AAK?$AAL?$AAM?$AA?$AA@ 10010b34     VSNetToolHostShim.obj
 0003:00000b40       ??_C@_19JAPAIJDE@?$AAH?$AAK?$AAC?$AAU?$AA?$AA@ 10010b40     VSNetToolHostShim.obj
 0003:00000b4c       ??_C@_19NCHLBIN@?$AAH?$AAK?$AAC?$AAR?$AA?$AA@ 10010b4c     VSNetToolHostShim.obj
 0003:00000b58       ??_7CVSNetToolHostShimModule@@6B@ 10010b58     VSNetToolHostShim.obj
 0003:00000b70       ??_C@_1EO@NPCDJOOP@?$AA?$HL?$AA7?$AAC?$AA7?$AAD?$AAA?$AA4?$AAC?$AA9?$AA?9?$AA6?$AAA?$AA8?$AA1?$AA?9?$AA4?$AA0?$AA5?$AA9?$AA?9@ 10010b70     VSNetToolHostShim.obj
 0003:00000bc0       __GUID_0beab46b_4c07_4f94_a8d7_1626020e4e53 10010bc0     VSNetToolWinShim.obj
 0003:00000bd0       __GUID_05f696dc_2b29_3663_ad8b_c4389cf2a713 10010bd0     VSNetToolWinShim.obj
 0003:00000be0       __GUID_00020412_0000_0000_c000_000000000046 10010be0     VSNetToolWinShim.obj
 0003:00000bf0       __GUID_00020401_0000_0000_c000_000000000046 10010bf0     VSNetToolWinShim.obj
 0003:00000c00       __GUID_9bfbbc02_eff1_101a_84ed_00aa00341d07 10010c00     VSNetToolWinShim.obj
 0003:00000c10       __GUID_55980ba0_35aa_11cf_b671_00aa004cd6d8 10010c10     VSNetToolWinShim.obj
 0003:00000c20       __GUID_bef6e003_a874_101a_8bba_00aa00300cab 10010c20     VSNetToolWinShim.obj
 0003:00000c30       __GUID_00000122_0000_0000_c000_000000000046 10010c30     VSNetToolWinShim.obj
 0003:00000c40       __GUID_b196b28f_bab4_101a_b69c_00aa00341d07 10010c40     VSNetToolWinShim.obj
 0003:00000c50       __GUID_b196b284_bab4_101a_b69c_00aa00341d07 10010c50     VSNetToolWinShim.obj
 0003:00000c60       __GUID_00000109_0000_0000_c000_000000000046 10010c60     VSNetToolWinShim.obj
 0003:00000c70       ??_7CComClassFactory@ATL@@6B@ 10010c70     VSNetToolWinShim.obj
 0003:00000c88       ?_entries@?1??_GetEntries@CComClassFactory@ATL@@SGPBU_ATL_INTMAP_ENTRY@3@XZ@4QBU43@B 10010c88     VSNetToolWinShim.obj
 0003:00000ca0       __GUID_00000001_0000_0000_c000_000000000046 10010ca0     VSNetToolWinShim.obj
 0003:00000cb0       ??_C@_11LOCGONAA@?$AA?$AA@ 10010cb0     VSNetToolWinShim.obj
 0003:00000cb4       __GUID_cb2f6722_ab3a_11d2_9c40_00c04fa30a3e 10010cb4     VSNetToolWinShim.obj
 0003:00000cc4       __GUID_cb2f6723_ab3a_11d2_9c40_00c04fa30a3e 10010cc4     VSNetToolWinShim.obj
 0003:00000cd4       __GUID_d30c1661_cdaf_11d0_8a3e_00c04fc9e26e 10010cd4     VSNetToolWinShim.obj
 0003:00000ce4       __GUID_8856f961_340a_11d0_a96b_00c04fd705a2 10010ce4     VSNetToolWinShim.obj
 0003:00000cf4       __GUID_25336920_03f9_11cf_8fd0_00aa00686f13 10010cf4     VSNetToolWinShim.obj
 0003:00000d04       ??_7?$CComObject@VCAxFrameWindow@ATL@@@ATL@@6BIOleInPlaceFrame@@@ 10010d04     VSNetToolWinShim.obj
 0003:00000d40       ??_7?$CComObject@VCAxFrameWindow@ATL@@@ATL@@6B?$CWindowImpl@VCAxFrameWindow@ATL@@VCWindow@2@V?$CWinTraits@$0FGAAAAAA@$0A@@2@@1@@ 10010d40     VSNetToolWinShim.obj
 0003:00000d50       ??_7?$CComPolyObject@VCAxHostWindow@ATL@@@ATL@@6B@ 10010d50     VSNetToolWinShim.obj
 0003:00000d60       ??_7?$CComCompositeControl@VCVSNetToolWinShim@@@ATL@@6B?$CAxDialogImpl@VCVSNetToolWinShim@@VCWindow@ATL@@@1@@ 10010d60     VSNetToolWinShim.obj
 0003:00000d74       ??_7?$CComCompositeControl@VCVSNetToolWinShim@@@ATL@@6BCComControlBase@1@@ 10010d74     VSNetToolWinShim.obj
 0003:00000d88       ??_7?$CComObject@V?$CComEnum@UIEnumUnknown@@$1?_GUID_00000100_0000_0000_c000_000000000046@@3U__s_GUID@@BPAUIUnknown@@V?$_CopyInterface@UIUnknown@@@ATL@@VCComSingleThreadModel@6@@ATL@@@ATL@@6B@ 10010d88     VSNetToolWinShim.obj
 0003:00000da8       ??_7?$CComContainedObject@VCAxHostWindow@ATL@@@ATL@@6B?$IDispatchImpl@UIAxWinAmbientDispatchEx@@$1?_GUID_b2d0778b_ac99_4c58_a5c8_e7724e5316b5@@3U__s_GUID@@B$1?m_libid@CAtlModule@ATL@@2U_GUID@@A$0PPPP@$0PPPP@VCComTypeInfoHolder@ATL@@@1@@ 10010da8     VSNetToolWinShim.obj
 0003:00000e38       ??_7?$CComContainedObject@VCAxHostWindow@ATL@@@ATL@@6BIDocHostUIHandler@@@ 10010e38     VSNetToolWinShim.obj
 0003:00000e80       ??_7?$CComContainedObject@VCAxHostWindow@ATL@@@ATL@@6BIAdviseSink@@@ 10010e80     VSNetToolWinShim.obj
 0003:00000ea0       ??_7?$CComContainedObject@VCAxHostWindow@ATL@@@ATL@@6BIServiceProvider@@@ 10010ea0     VSNetToolWinShim.obj
 0003:00000eb0       ??_7?$CComContainedObject@VCAxHostWindow@ATL@@@ATL@@6B?$IObjectWithSiteImpl@VCAxHostWindow@ATL@@@1@@ 10010eb0     VSNetToolWinShim.obj
 0003:00000ec8       ??_7?$CComContainedObject@VCAxHostWindow@ATL@@@ATL@@6BIOleContainer@@@ 10010ec8     VSNetToolWinShim.obj
 0003:00000ee0       ??_7?$CComContainedObject@VCAxHostWindow@ATL@@@ATL@@6BIOleControlSite@@@ 10010ee0     VSNetToolWinShim.obj
 0003:00000f08       ??_7?$CComContainedObject@VCAxHostWindow@ATL@@@ATL@@6BIOleInPlaceSiteWindowless@@@ 10010f08     VSNetToolWinShim.obj
 0003:00000f80       ??_7?$CComContainedObject@VCAxHostWindow@ATL@@@ATL@@6BIOleClientSite@@@ 10010f80     VSNetToolWinShim.obj
 0003:00000fa4       ??_7?$CComContainedObject@VCAxHostWindow@ATL@@@ATL@@6BIAxWinHostWindowLic@@@ 10010fa4     VSNetToolWinShim.obj
 0003:00000fd0       ??_7?$CComContainedObject@VCAxHostWindow@ATL@@@ATL@@6B?$CWindowImpl@VCAxHostWindow@ATL@@VCWindow@2@V?$CWinTraits@$0FGAAAAAA@$0A@@2@@1@@ 10010fd0     VSNetToolWinShim.obj
 0003:00000fe4       ??_7?$CComAggObject@VCVSNetToolWinShim@@@ATL@@6B@ 10010fe4     VSNetToolWinShim.obj
 0003:00000ff4       ??_7?$CComObject@VCVSNetToolWinShim@@@ATL@@6B?$CAxDialogImpl@VCVSNetToolWinShim@@VCWindow@ATL@@@1@@ 10010ff4     VSNetToolWinShim.obj
 0003:00001008       ??_7?$CComObject@VCVSNetToolWinShim@@@ATL@@6BCComControlBase@1@@ 10011008     VSNetToolWinShim.obj
 0003:0000101c       ??_7?$CComObject@VCVSNetToolWinShim@@@ATL@@6B?$IProvideClassInfo2Impl@$1?CLSID_VSNetToolWinShim@@3U_GUID@@B$0A@$1?LIBID_VSNetToolHostShimLib@@3U2@B$00$0A@VCComTypeInfoHolder@ATL@@@1@@ 1001101c     VSNetToolWinShim.obj
 0003:00001030       ??_7?$CComObject@VCVSNetToolWinShim@@@ATL@@6B?$IDataObjectImpl@VCVSNetToolWinShim@@@1@@ 10011030     VSNetToolWinShim.obj
 0003:00001060       ??_7?$CComObject@VCVSNetToolWinShim@@@ATL@@6B?$IQuickActivateImpl@VCVSNetToolWinShim@@@1@@ 10011060     VSNetToolWinShim.obj
 0003:00001078       ??_7?$CComObject@VCVSNetToolWinShim@@@ATL@@6B?$ISpecifyPropertyPagesImpl@VCVSNetToolWinShim@@@1@@ 10011078     VSNetToolWinShim.obj
 0003:00001088       ??_7?$CComObject@VCVSNetToolWinShim@@@ATL@@6B?$IPersistStorageImpl@VCVSNetToolWinShim@@@1@@ 10011088     VSNetToolWinShim.obj
 0003:000010b0       ??_7?$CComObject@VCVSNetToolWinShim@@@ATL@@6BISupportErrorInfo@@@ 100110b0     VSNetToolWinShim.obj
 0003:000010c0       ??_7?$CComObject@VCVSNetToolWinShim@@@ATL@@6B?$IOleInPlaceObjectWindowlessImpl@VCVSNetToolWinShim@@@1@@ 100110c0     VSNetToolWinShim.obj
 0003:000010ec       ??_7?$CComObject@VCVSNetToolWinShim@@@ATL@@6B?$IViewObjectExImpl@VCVSNetToolWinShim@@@1@@ 100110ec     VSNetToolWinShim.obj
 0003:00001128       ??_7?$CComObject@VCVSNetToolWinShim@@@ATL@@6B?$IOleInPlaceActiveObjectImpl@VCVSNetToolWinShim@@@1@@ 10011128     VSNetToolWinShim.obj
 0003:00001150       ??_7?$CComObject@VCVSNetToolWinShim@@@ATL@@6B?$IOleObjectImpl@VCVSNetToolWinShim@@@1@@ 10011150     VSNetToolWinShim.obj
 0003:000011b0       ??_7?$CComObject@VCVSNetToolWinShim@@@ATL@@6B?$IOleControlImpl@VCVSNetToolWinShim@@@1@@ 100111b0     VSNetToolWinShim.obj
 0003:000011cc       ??_7?$CComObject@VCVSNetToolWinShim@@@ATL@@6B?$IPersistStreamInitImpl@VCVSNetToolWinShim@@@1@@ 100111cc     VSNetToolWinShim.obj
 0003:000011f0       ??_7?$CComObject@VCVSNetToolWinShim@@@ATL@@6B?$IDispatchImpl@UIVSNetToolWinShim@@$1?IID_IVSNetToolWinShim@@3U_GUID@@B$1?LIBID_VSNetToolHostShimLib@@3U3@B$00$0A@VCComTypeInfoHolder@ATL@@@1@@ 100111f0     VSNetToolWinShim.obj
 0003:00001214       ??_7?$CComObject@VCAxUIWindow@ATL@@@ATL@@6BIOleInPlaceUIWindow@@@ 10011214     VSNetToolWinShim.obj
 0003:00001238       ??_7?$CComObject@VCAxUIWindow@ATL@@@ATL@@6B?$CWindowImpl@VCAxUIWindow@ATL@@VCWindow@2@V?$CWinTraits@$0FGAAAAAA@$0A@@2@@1@@ 10011238     VSNetToolWinShim.obj
 0003:00001248       ??_7?$CComObjectCached@VCComClassFactory@ATL@@@ATL@@6B@ 10011248     VSNetToolWinShim.obj
 0003:00001260       ??_7?$CComContainedObject@VCVSNetToolWinShim@@@ATL@@6B?$CAxDialogImpl@VCVSNetToolWinShim@@VCWindow@ATL@@@1@@ 10011260     VSNetToolWinShim.obj
 0003:00001274       ??_7?$CComContainedObject@VCVSNetToolWinShim@@@ATL@@6BCComControlBase@1@@ 10011274     VSNetToolWinShim.obj
 0003:00001288       ??_7?$CComContainedObject@VCVSNetToolWinShim@@@ATL@@6B?$IProvideClassInfo2Impl@$1?CLSID_VSNetToolWinShim@@3U_GUID@@B$0A@$1?LIBID_VSNetToolHostShimLib@@3U2@B$00$0A@VCComTypeInfoHolder@ATL@@@1@@ 10011288     VSNetToolWinShim.obj
 0003:0000129c       ??_7?$CComContainedObject@VCVSNetToolWinShim@@@ATL@@6B?$IDataObjectImpl@VCVSNetToolWinShim@@@1@@ 1001129c     VSNetToolWinShim.obj
 0003:000012cc       ??_7?$CComContainedObject@VCVSNetToolWinShim@@@ATL@@6B?$IQuickActivateImpl@VCVSNetToolWinShim@@@1@@ 100112cc     VSNetToolWinShim.obj
 0003:000012e4       ??_7?$CComContainedObject@VCVSNetToolWinShim@@@ATL@@6B?$ISpecifyPropertyPagesImpl@VCVSNetToolWinShim@@@1@@ 100112e4     VSNetToolWinShim.obj
 0003:000012f4       ??_7?$CComContainedObject@VCVSNetToolWinShim@@@ATL@@6B?$IPersistStorageImpl@VCVSNetToolWinShim@@@1@@ 100112f4     VSNetToolWinShim.obj
 0003:0000131c       ??_7?$CComContainedObject@VCVSNetToolWinShim@@@ATL@@6BISupportErrorInfo@@@ 1001131c     VSNetToolWinShim.obj
 0003:0000132c       ??_7?$CComContainedObject@VCVSNetToolWinShim@@@ATL@@6B?$IOleInPlaceObjectWindowlessImpl@VCVSNetToolWinShim@@@1@@ 1001132c     VSNetToolWinShim.obj
 0003:00001358       ??_7?$CComContainedObject@VCVSNetToolWinShim@@@ATL@@6B?$IViewObjectExImpl@VCVSNetToolWinShim@@@1@@ 10011358     VSNetToolWinShim.obj
 0003:00001394       ??_7?$CComContainedObject@VCVSNetToolWinShim@@@ATL@@6B?$IOleInPlaceActiveObjectImpl@VCVSNetToolWinShim@@@1@@ 10011394     VSNetToolWinShim.obj
 0003:000013c0       ??_7?$CComContainedObject@VCVSNetToolWinShim@@@ATL@@6B?$IOleObjectImpl@VCVSNetToolWinShim@@@1@@ 100113c0     VSNetToolWinShim.obj
 0003:00001420       ??_7?$CComContainedObject@VCVSNetToolWinShim@@@ATL@@6B?$IOleControlImpl@VCVSNetToolWinShim@@@1@@ 10011420     VSNetToolWinShim.obj
 0003:0000143c       ??_7?$CComContainedObject@VCVSNetToolWinShim@@@ATL@@6B?$IPersistStreamInitImpl@VCVSNetToolWinShim@@@1@@ 1001143c     VSNetToolWinShim.obj
 0003:00001460       ??_7?$CComContainedObject@VCVSNetToolWinShim@@@ATL@@6B?$IDispatchImpl@UIVSNetToolWinShim@@$1?IID_IVSNetToolWinShim@@3U_GUID@@B$1?LIBID_VSNetToolHostShimLib@@3U3@B$00$0A@VCComTypeInfoHolder@ATL@@@1@@ 10011460     VSNetToolWinShim.obj
 0003:00001484       ?_entries@?1??_GetEntries@?$CComEnum@UIEnumUnknown@@$1?_GUID_00000100_0000_0000_c000_000000000046@@3U__s_GUID@@BPAUIUnknown@@V?$_CopyInterface@UIUnknown@@@ATL@@VCComSingleThreadModel@6@@ATL@@SGPBU_ATL_INTMAP_ENTRY@3@XZ@4QBU43@B 10011484     VSNetToolWinShim.obj
 0003:0000149c       __GUID_00000100_0000_0000_c000_000000000046 1001149c     VSNetToolWinShim.obj
 0003:000014ac       ??_C@_1CM@JLHALFCJ@?$AAA?$AAT?$AAL?$AA?5?$AAC?$AAo?$AAm?$AAp?$AAo?$AAs?$AAi?$AAt?$AAe?$AA?5?$AAC?$AAo?$AAn?$AAt?$AAr?$AAo@ 100114ac     VSNetToolWinShim.obj
 0003:000014d8       ??_C@_1BC@ENICKDH@?$AAC?$AAo?$AAn?$AAt?$AAe?$AAn?$AAt?$AAs?$AA?$AA@ 100114d8     VSNetToolWinShim.obj
 0003:000014ec       ??_C@_1BM@PFJJOBHC@?$AAA?$AAt?$AAl?$AAA?$AAx?$AAW?$AAi?$AAn?$AAL?$AAi?$AAc?$AA7?$AA1?$AA?$AA@ 100114ec     VSNetToolWinShim.obj
 0003:00001508       __GUID_066b8de9_9f7b_4b37_900f_f7ef7558e719 10011508     VSNetToolWinShim.obj
 0003:00001518       ??_C@_17IOIMFDBO@?$AA_?$AAc?$AAy?$AA?$AA@ 10011518     VSNetToolWinShim.obj
 0003:00001520       ??_C@_17DGDADEHL@?$AA_?$AAc?$AAx?$AA?$AA@ 10011520     VSNetToolWinShim.obj
 0003:00001528       ?_entries@?1??_GetEntries@CVSNetToolWinShim@@SGPBU_ATL_INTMAP_ENTRY@ATL@@XZ@4QBU34@B 10011528     VSNetToolWinShim.obj
 0003:00001624       __GUID_a6bc3ac0_dbaa_11ce_9de3_00aa004bb851 10011624     VSNetToolWinShim.obj
 0003:00001634       __GUID_b196b283_bab4_101a_b69c_00aa00341d07 10011634     VSNetToolWinShim.obj
 0003:00001644       __GUID_0000010e_0000_0000_c000_000000000046 10011644     VSNetToolWinShim.obj
 0003:00001654       __GUID_0000010a_0000_0000_c000_000000000046 10011654     VSNetToolWinShim.obj
 0003:00001664       __GUID_cf51ed10_62fe_11cf_bf86_00a0c9034836 10011664     VSNetToolWinShim.obj
 0003:00001674       __GUID_b196b28b_bab4_101a_b69c_00aa00341d07 10011674     VSNetToolWinShim.obj
 0003:00001684       __GUID_df0b3d60_548f_101b_8e65_08002b2bd119 10011684     VSNetToolWinShim.obj
 0003:00001694       __GUID_0000010c_0000_0000_c000_000000000046 10011694     VSNetToolWinShim.obj
 0003:000016a4       __GUID_7fd52380_4e07_101b_ae2d_08002b2ec713 100116a4     VSNetToolWinShim.obj
 0003:000016b4       __GUID_00000112_0000_0000_c000_000000000046 100116b4     VSNetToolWinShim.obj
 0003:000016c4       __GUID_b196b288_bab4_101a_b69c_00aa00341d07 100116c4     VSNetToolWinShim.obj
 0003:000016d4       __GUID_00000117_0000_0000_c000_000000000046 100116d4     VSNetToolWinShim.obj
 0003:000016e4       __GUID_00000113_0000_0000_c000_000000000046 100116e4     VSNetToolWinShim.obj
 0003:000016f4       __GUID_1c2056cc_5ef4_101b_8bc8_00aa003e3b29 100116f4     VSNetToolWinShim.obj
 0003:00001704       __GUID_0000010d_0000_0000_c000_000000000046 10011704     VSNetToolWinShim.obj
 0003:00001714       __GUID_00000127_0000_0000_c000_000000000046 10011714     VSNetToolWinShim.obj
 0003:00001724       __GUID_3af24292_0c96_11ce_a0cf_00aa00600ab8 10011724     VSNetToolWinShim.obj
 0003:00001734       __GUID_3a5d66e9_bfe1_4006_a8cf_22d75a82467a 10011734     VSNetToolWinShim.obj
 0003:00001744       ??_C@_15KNBIKKIN@?$AA?$CF?$AAd?$AA?$AA@ 10011744     VSNetToolWinShim.obj
 0003:0000174c       ??_C@_1BA@COHBFLAK@?$AAO?$AAL?$AAE?$AAM?$AAI?$AAS?$AAC?$AA?$AA@ 1001174c     VSNetToolWinShim.obj
 0003:0000175c       ??_C@_1BA@PICGEGJB@?$AAD?$AAI?$AAS?$AAP?$AAL?$AAA?$AAY?$AA?$AA@ 1001175c     VSNetToolWinShim.obj
 0003:0000176c       ??_C@_1BE@DOFEADIM@?$AAA?$AAT?$AAL?$AA?3?$AA?$CF?$AA8?$AA?4?$AA8?$AAX?$AA?$AA@ 1001176c     VSNetToolWinShim.obj
 0003:00001780       ??_C@_1CC@NLKMIAFC@?$AAW?$AAM?$AA_?$AAA?$AAT?$AAL?$AAG?$AAE?$AAT?$AAC?$AAO?$AAN?$AAT?$AAR?$AAO?$AAL?$AA?$AA@ 10011780     VSNetToolWinShim.obj
 0003:000017a4       ??_C@_1BM@JBPKDEJM@?$AAW?$AAM?$AA_?$AAA?$AAT?$AAL?$AAG?$AAE?$AAT?$AAH?$AAO?$AAS?$AAT?$AA?$AA@ 100117a4     VSNetToolWinShim.obj
 0003:000017c0       ??_C@_1M@IJFAIKMG@?$AAA?$AAX?$AAW?$AAI?$AAN?$AA?$AA@ 100117c0     VSNetToolWinShim.obj
 0003:000017cc       ??_C@_1BG@FIBFEEFK@?$AAA?$AAt?$AAl?$AAA?$AAx?$AAW?$AAi?$AAn?$AA7?$AA1?$AA?$AA@ 100117cc     VSNetToolWinShim.obj
 0003:000017e8       ?_entries@?1??_GetEntries@CAxHostWindow@ATL@@SGPBU_ATL_INTMAP_ENTRY@3@XZ@4QBU43@B 100117e8     VSNetToolWinShim.obj
 0003:000018b4       __GUID_0000010f_0000_0000_c000_000000000046 100118b4     VSNetToolWinShim.obj
 0003:000018c4       __GUID_bd3f23c0_d43e_11cf_893b_00aa00bdce1a 100118c4     VSNetToolWinShim.obj
 0003:000018d4       __GUID_b6ea2051_048a_11d1_82b9_00c04fb9942e 100118d4     VSNetToolWinShim.obj
 0003:000018e4       __GUID_b2d0778b_ac99_4c58_a5c8_e7724e5316b5 100118e4     VSNetToolWinShim.obj
 0003:000018f4       __GUID_6d5140c1_7436_11ce_8034_00aa006009fa 100118f4     VSNetToolWinShim.obj
 0003:00001904       __GUID_fc4801a3_2ba9_11cf_a229_00aa003d7352 10011904     VSNetToolWinShim.obj
 0003:00001914       __GUID_0000011b_0000_0000_c000_000000000046 10011914     VSNetToolWinShim.obj
 0003:00001924       __GUID_b196b289_bab4_101a_b69c_00aa00341d07 10011924     VSNetToolWinShim.obj
 0003:00001934       __GUID_00000119_0000_0000_c000_000000000046 10011934     VSNetToolWinShim.obj
 0003:00001944       __GUID_9c2cad80_3424_11cf_b670_00aa004cd6d8 10011944     VSNetToolWinShim.obj
 0003:00001954       __GUID_922eada0_3424_11cf_b670_00aa004cd6d8 10011954     VSNetToolWinShim.obj
 0003:00001964       __GUID_00000118_0000_0000_c000_000000000046 10011964     VSNetToolWinShim.obj
 0003:00001974       __GUID_3935bda8_4ed9_495c_8650_e01fc1e38a4b 10011974     VSNetToolWinShim.obj
 0003:00001984       __GUID_b6ea2050_048a_11d1_82b9_00c04fb9942e 10011984     VSNetToolWinShim.obj
 0003:00001994       _IID_IDispatch             10011994     uuid:oaidl_i.obj
 0003:00001994       __GUID_00020400_0000_0000_c000_000000000046 10011994     VSNetToolWinShim.obj
 0003:000019a4       ??_C@_1CA@DCFIAPHF@?$AAA?$AAX?$AAW?$AAI?$AAN?$AA?5?$AAU?$AAI?$AA?5?$AAW?$AAi?$AAn?$AAd?$AAo?$AAw?$AA?$AA@ 100119a4     VSNetToolWinShim.obj
 0003:000019c4       ?_entries@?1??_GetEntries@CAxUIWindow@ATL@@SGPBU_ATL_INTMAP_ENTRY@3@XZ@4QBU43@B 100119c4     VSNetToolWinShim.obj
 0003:000019e8       ??_C@_1CG@HJNEDPEL@?$AAA?$AAX?$AAW?$AAI?$AAN?$AA?5?$AAF?$AAr?$AAa?$AAm?$AAe?$AA?5?$AAW?$AAi?$AAn?$AAd?$AAo?$AAw?$AA?$AA@ 100119e8     VSNetToolWinShim.obj
 0003:00001a10       ?_entries@?1??_GetEntries@CAxFrameWindow@ATL@@SGPBU_ATL_INTMAP_ENTRY@3@XZ@4QBU43@B 10011a10     VSNetToolWinShim.obj
 0003:00001a40       __GUID_00000114_0000_0000_c000_000000000046 10011a40     VSNetToolWinShim.obj
 0003:00001a50       __GUID_00000115_0000_0000_c000_000000000046 10011a50     VSNetToolWinShim.obj
 0003:00001a60       __GUID_00000116_0000_0000_c000_000000000046 10011a60     VSNetToolWinShim.obj
 0003:00001a70       ??_C@_13EBCNDICG@?$AA?3?$AA?$AA@ 10011a70     VSNetToolWinShim.obj
 0003:00001a74       ??_C@_1BK@GNOGOAOP@?$AAC?$AAO?$AAM?$AAC?$AAT?$AAL?$AA3?$AA2?$AA?4?$AAD?$AAL?$AAL?$AA?$AA@ 10011a74     VSNetToolWinShim.obj
 0003:00001a90       ??_C@_1GK@BCKENLDE@?$AAA?$AAB?$AAC?$AAD?$AAE?$AAF?$AAG?$AAH?$AAI?$AAJ?$AAK?$AAL?$AAM?$AAN?$AAO?$AAP?$AAQ?$AAR?$AAS?$AAT@ 10011a90     VSNetToolWinShim.obj
 0003:00001afc       ??_C@_1O@PGKMPIBK@?$AA?$CD?$AA3?$AA2?$AA7?$AA7?$AA0?$AA?$AA@ 10011afc     VSNetToolWinShim.obj
 0003:00001b20       __load_config_used         10011b20     MSVCRT:loadcfg.obj
 0003:00001bb4       ??_R1A@?0A@A@type_info@@8  10011bb4     MSVCRT:ti_inst.obj
 0003:00001bcc       ??_R2type_info@@8          10011bcc     MSVCRT:ti_inst.obj
 0003:00001bd4       ??_R3type_info@@8          10011bd4     MSVCRT:ti_inst.obj
 0003:00001be4       ??_R4type_info@@6B@        10011be4     MSVCRT:ti_inst.obj
 0003:00001c00       ___safe_se_handler_table   10011c00     <linker-defined>
 0003:00001ce0       ___rtc_iaa                 10011ce0     MSVCRT:initsect.obj
 0003:00001ce4       ___rtc_izz                 10011ce4     MSVCRT:initsect.obj
 0003:00001ce8       ___rtc_taa                 10011ce8     MSVCRT:initsect.obj
 0003:00001cec       ___rtc_tzz                 10011cec     MSVCRT:initsect.obj
 0003:00001cf0       __TI1?AVCAtlException@ATL@@ 10011cf0     VSNetToolHostShim.obj
 0003:00001d00       __CTA1?AVCAtlException@ATL@@ 10011d00     VSNetToolHostShim.obj
 0003:00001d08       __CT??_R0?AVCAtlException@ATL@@@84 10011d08     VSNetToolHostShim.obj
 0003:00002968       ___pobjMapEntryFirst       10012968     stdafx.obj
 0003:0000296c       ___pobjMap_CVSNetToolWinShim 1001296c     VSNetToolWinShim.obj
 0003:00002970       ___pobjMapEntryLast        10012970     stdafx.obj
 0003:00002974       __IMPORT_DESCRIPTOR_mscoree 10012974     mscoree:mscoree.dll
 0003:00002988       __IMPORT_DESCRIPTOR_KERNEL32 10012988     kernel32:KERNEL32.dll
 0003:0000299c       __IMPORT_DESCRIPTOR_USER32 1001299c     user32:USER32.dll
 0003:000029b0       __IMPORT_DESCRIPTOR_GDI32  100129b0     gdi32:GDI32.dll
 0003:000029c4       __IMPORT_DESCRIPTOR_ADVAPI32 100129c4     advapi32:ADVAPI32.dll
 0003:000029d8       __IMPORT_DESCRIPTOR_ole32  100129d8     ole32:ole32.dll
 0003:000029ec       __IMPORT_DESCRIPTOR_OLEAUT32 100129ec     oleaut32:OLEAUT32.dll
 0003:00002a00       __IMPORT_DESCRIPTOR_RPCRT4 10012a00     rpcrt4:RPCRT4.dll
 0003:00002a14       __IMPORT_DESCRIPTOR_MSVCR71 10012a14     MSVCRT:MSVCR71.dll
 0003:00002a28       __IMPORT_DESCRIPTOR_SHLWAPI 10012a28     shlwapi:SHLWAPI.dll
 0003:00002a3c       __NULL_IMPORT_DESCRIPTOR   10012a3c     mscoree:mscoree.dll
 0004:00000000       ___xc_a                    10014000     MSVCRT:cinitexe.obj
 0004:00000018       ___xc_z                    10014018     MSVCRT:cinitexe.obj
 0004:0000001c       ___xi_a                    1001401c     MSVCRT:cinitexe.obj
 0004:00000020       ___xi_z                    10014020     MSVCRT:cinitexe.obj
 0004:00000030       ??_R0?AVtype_info@@@8      10014030     MSVCRT:ti_inst.obj
 0004:00000048       ___security_cookie         10014048     MSVCRT:seccook.obj
 0004:0000004c       __IVSNetToolWinShimProxyVtbl 1001404c     dlldatax.obj
 0004:00000078       __VSNetToolHostShim_ProxyVtblList 10014078     dlldatax.obj
 0004:00000080       __IVSNetToolWinShimStubVtbl 10014080     dlldatax.obj
 0004:000000b8       __VSNetToolHostShim_StubVtblList 100140b8     dlldatax.obj
 0004:000000c0       __VSNetToolHostShim_BaseIIDList 100140c0     dlldatax.obj
 0004:000000c8       _aProxyFileList            100140c8     dlldatax.obj
 0004:000000e4       ?g_pfnGetThreadACP@ATL@@3P6GIXZA 100140e4     stdafx.obj
 0004:000000e8       ??_R0?AVCAtlException@ATL@@@8 100140e8     VSNetToolHostShim.obj
 0004:00000108       ?_tih@?$IProvideClassInfo2Impl@$1?CLSID_VSNetToolWinShim@@3U_GUID@@B$0A@$1?LIBID_VSNetToolHostShimLib@@3U2@B$00$0A@VCComTypeInfoHolder@ATL@@@ATL@@1VCComTypeInfoHolder@2@A 10014108     VSNetToolWinShim.obj
 0004:00000124       ?_tih@?$IDispatchImpl@UIVSNetToolWinShim@@$1?IID_IVSNetToolWinShim@@3U_GUID@@B$1?LIBID_VSNetToolHostShimLib@@3U3@B$00$0A@VCComTypeInfoHolder@ATL@@@ATL@@1VCComTypeInfoHolder@2@A 10014124     VSNetToolWinShim.obj
 0004:00000140       ?_tih@?$IDispatchImpl@UIAxWinAmbientDispatchEx@@$1?_GUID_b2d0778b_ac99_4c58_a5c8_e7724e5316b5@@3U__s_GUID@@B$1?m_libid@CAtlModule@ATL@@2U_GUID@@A$0PPPP@$0PPPP@VCComTypeInfoHolder@ATL@@@ATL@@1VCComTypeInfoHolder@2@A 10014140     VSNetToolWinShim.obj
 0004:00000160       ?wc@?1??GetWndClassInfo@?$CWindowImpl@VCAxUIWindow@ATL@@VCWindow@2@V?$CWinTraits@$0FGAAAAAA@$0A@@2@@ATL@@SAAAU_ATL_WNDCLASSINFOW@3@XZ@4U43@A 10014160     VSNetToolWinShim.obj
 0004:000001f0       ?wc@?1??GetWndClassInfo@?$CWindowImpl@VCAxFrameWindow@ATL@@VCWindow@2@V?$CWinTraits@$0FGAAAAAA@$0A@@2@@ATL@@SAAAU_ATL_WNDCLASSINFOW@3@XZ@4U43@A 100141f0     VSNetToolWinShim.obj
 0004:0000027c       ?vszContents@?6??Save@?$IPersistStorageImpl@VCVSNetToolWinShim@@@ATL@@UAGJPAUIStorage@@H@Z@4PBGB 1001427c     VSNetToolWinShim.obj
 0004:00000280       ?__objMap_CVSNetToolWinShim@@3U_ATL_OBJMAP_ENTRY30@ATL@@A 10014280     VSNetToolWinShim.obj
 0004:000002a4       ?arr@?1??InterfaceSupportsErrorInfo@CVSNetToolWinShim@@UAGJABU_GUID@@@Z@4PAPBU3@A 100142a4     VSNetToolWinShim.obj
 0004:000002a8       ?pPropMap@?1??GetPropertyMap@CVSNetToolWinShim@@SAPAUATL_PROPMAP_ENTRY@ATL@@XZ@4PAU34@A 100142a8     VSNetToolWinShim.obj
 0004:000002fc       ?m_dwOleMisc@?1??_GetMiscStatus@CVSNetToolWinShim@@SAKXZ@4KA 100142fc     VSNetToolWinShim.obj
 0004:00000300       ?rcDefault@CWindow@ATL@@2UtagRECT@@A 10014300     VSNetToolWinShim.obj
 0004:00000314       ?_AtlBaseModule@ATL@@3VCAtlBaseModule@1@A 10014314     atls:atlbase.obj
 0004:00000350       ?_AtlComModule@ATL@@3VCAtlComModule@1@A 10014350     atls:atlcommodule.obj
 0004:00000378       _gPFactory                 10014378     dlldatax.obj
 0004:00000388       _hProxyDll                 10014388     dlldatax.obj
 0004:0000038c       ?_AtlModule@@3VCVSNetToolHostShimModule@@A 1001438c     VSNetToolHostShim.obj
 0004:000003b8       ?m_libid@CAtlModule@ATL@@2U_GUID@@A 100143b8     stdafx.obj
 0004:000003c8       ?_pAtlModule@ATL@@3PAVCAtlModule@1@A 100143c8     stdafx.obj
 0004:000003cc       ?_pPerfUnRegFunc@ATL@@3P6AJXZA 100143cc     stdafx.obj
 0004:000003d0       ?_pPerfRegFunc@ATL@@3P6AJPAUHINSTANCE__@@@ZA 100143d0     stdafx.obj
 0004:000003d4       ?m_bInitFailed@CAtlBaseModule@ATL@@2_NA 100143d4     stdafx.obj
 0004:000003d8       ?map@?2??VTFromRegType@CRegParser@ATL@@KAHPBGAAG@Z@4QBUtypemap@23@B 100143d8     VSNetToolHostShim.obj
 0004:000003f8       ?map@?1??_GetSinkMap@CVSNetToolWinShim@@SAPBU?$_ATL_EVENT_ENTRY@VCVSNetToolWinShim@@@ATL@@XZ@4QBU34@B 100143f8     VSNetToolWinShim.obj
 0004:00000418       ?WM_ATLGETCONTROL@ATL@@3IA 10014418     VSNetToolWinShim.obj
 0004:0000041c       ?WM_ATLGETHOST@ATL@@3IA    1001441c     VSNetToolWinShim.obj
 0004:00000420       ?$S5@?1??_GetSinkMap@CVSNetToolWinShim@@SAPBU?$_ATL_EVENT_ENTRY@VCVSNetToolWinShim@@@ATL@@XZ@4IA 10014420     VSNetToolWinShim.obj
 0004:00000424       ?$S4@?2??VTFromRegType@CRegParser@ATL@@KAHPBGAAG@Z@4IA 10014424     VSNetToolHostShim.obj
 0004:00000428       ?_AtlWinModule@ATL@@3VCAtlWinModule@1@A 10014428     stdafx.obj
 0004:00000454       __adjust_fdiv              10014454     <common>
 0004:00000458       __pRawDllMain              10014458     <common>
 0004:0000045c       ___onexitend               1001445c     <common>
 0004:00000460       ___onexitbegin             10014460     <common>

 entry point at        0001:0000d000

 Static symbols

 0001:00000c68       ?AtlGetDirLen@ATL@@YGIPBG@Z 10001c68 f   VSNetToolHostShim.obj
 0001:0000122e       $L171255                   1000222e f i  CIL library: CIL module
 0001:0000125f       $L171257                   1000225f f i  CIL library: CIL module
 0001:0000145b       $L175670                   1000245b f i  CIL library: CIL module
 0001:000020d7       $L175111                   100030d7 f i  CIL library: CIL module
 0001:000021b1       $L175113                   100031b1 f i  CIL library: CIL module
 0001:00002e85       ?CreateNormalizedObject@ATL@@YAJPBGABU_GUID@@PAPAXAA_NPAG@Z 10003e85 f   VSNetToolWinShim.obj
 0001:000051da       $L169778                   100061da f i  CIL library: CIL module
 0001:000057b9       ?AtlAxWindowProc@ATL@@YGJPAUHWND__@@IIJ@Z 100067b9 f   VSNetToolWinShim.obj
 0001:00005995       ?AtlAxWindowProc2@ATL@@YGJPAUHWND__@@IIJ@Z 10006995 f   VSNetToolWinShim.obj
 0001:0000802f       $L176149                   1000902f f i  CIL library: CIL module
 0001:000092be       $L173333                   1000a2be f i  CIL library: CIL module
 0001:00009faa       $L177701                   1000afaa f i  CIL library: CIL module
 0001:0000a05e       $L177658                   1000b05e f i  CIL library: CIL module
 0001:0000aa6f       $L172597                   1000ba6f f i  CIL library: CIL module
 0001:0000aae4       $L175896                   1000bae4 f i  CIL library: CIL module
 0001:0000ad42       $L166576                   1000bd42 f i  CIL library: CIL module
 0001:0000b269       $L172282                   1000c269 f i  CIL library: CIL module
 0001:0000c6b0       $L171871                   1000d6b0 f i  CIL library: CIL module
 0001:0000c7c4       $L171819                   1000d7c4 f i  CIL library: CIL module
 0001:0000d358       _report_failure            1000e358 f   MSVCRT:secchk.obj
 0001:0000d47d       $L166020                   1000e47d f    CIL library: CIL module
 0001:0000d485       __ehhandler$?ReadFromStream@CComVariant@ATL@@QAEJPAUIStream@@@Z 1000e485 f    CIL library: CIL module
 0001:0000d48f       __ehhandler$?Init@?$CComEnumImpl@UIEnumUnknown@@$1?_GUID_00000100_0000_0000_c000_000000000046@@3U__s_GUID@@BPAUIUnknown@@V?$_CopyInterface@UIUnknown@@@ATL@@@ATL@@QAEJPAPAUIUnknown@@0PAU3@W4CComEnumFlags@2@@Z 1000e48f f    CIL library: CIL module
 0001:0000d499       $L166610                   1000e499 f    CIL library: CIL module
 0001:0000d4a4       __ehhandler$??1?$CComEnumImpl@UIEnumUnknown@@$1?_GUID_00000100_0000_0000_c000_000000000046@@3U__s_GUID@@BPAUIUnknown@@V?$_CopyInterface@UIUnknown@@@ATL@@@ATL@@UAE@XZ 1000e4a4 f    CIL library: CIL module
 0001:0000d4ae       $L167368                   1000e4ae f    CIL library: CIL module
 0001:0000d4ae       $L168116                   1000e4ae f    CIL library: CIL module
 0001:0000d4ae       $L174409                   1000e4ae f    CIL library: CIL module
 0001:0000d4ae       $L168170                   1000e4ae f    CIL library: CIL module
 0001:0000d4ae       $L165949                   1000e4ae f    CIL library: CIL module
 0001:0000d4ae       $L173589                   1000e4ae f    CIL library: CIL module
 0001:0000d4ae       $L167269                   1000e4ae f    CIL library: CIL module
 0001:0000d4ae       $L166534                   1000e4ae f    CIL library: CIL module
 0001:0000d4ae       $L170224                   1000e4ae f    CIL library: CIL module
 0001:0000d4ae       $L170170                   1000e4ae f    CIL library: CIL module
 0001:0000d4ae       $L170133                   1000e4ae f    CIL library: CIL module
 0001:0000d4ae       $L173553                   1000e4ae f    CIL library: CIL module
 0001:0000d4ae       $L164307                   1000e4ae f    CIL library: CIL module
 0001:0000d4ae       $L168901                   1000e4ae f    CIL library: CIL module
 0001:0000d4b6       __ehhandler$?IsDirty@?$IPersistStorageImpl@VCVSNetToolWinShim@@@ATL@@UAGJXZ 1000e4b6 f    CIL library: CIL module
 0001:0000d4b6       __ehhandler$?IOleInPlaceObject_InPlaceDeactivate@CComControlBase@ATL@@QAEJXZ 1000e4b6 f    CIL library: CIL module
 0001:0000d4b6       __ehhandler$?IOleObject_Close@CComControlBase@ATL@@QAEJK@Z 1000e4b6 f    CIL library: CIL module
 0001:0000d4b6       __ehhandler$?HostUserControl@CVSNetToolWinShim@@UAGJPAG0PAPAUIDispatch@@@Z 1000e4b6 f    CIL library: CIL module
 0001:0000d4b6       __ehhandler$?FinalConstruct@CVSNetToolWinShim@@QAEJXZ 1000e4b6 f    CIL library: CIL module
 0001:0000d4b6       __ehhandler$?OnMouseActivate@CComControlBase@ATL@@QAEJIIJAAH@Z 1000e4b6 f    CIL library: CIL module
 0001:0000d4b6       __ehhandler$?ReleaseAll@CAxHostWindow@ATL@@QAEXXZ 1000e4b6 f    CIL library: CIL module
 0001:0000d4b6       __ehhandler$?QueryHost@?$CAxWindowT@VCWindow@ATL@@@ATL@@QAEJABU_GUID@@PAPAX@Z 1000e4b6 f    CIL library: CIL module
 0001:0000d4b6       __ehhandler$?GetSize@CComVariant@ATL@@QBEKXZ 1000e4b6 f    CIL library: CIL module
 0001:0000d4b6       __ehhandler$?OnSetFocus@CAxHostWindow@ATL@@QAEJIIJAAH@Z 1000e4b6 f    CIL library: CIL module
 0001:0000d4b6       __ehhandler$?CreateControl@CAxHostWindow@ATL@@UAGJPBGPAUHWND__@@PAUIStream@@@Z 1000e4b6 f    CIL library: CIL module
 0001:0000d4b6       __ehhandler$?CreateControlLic@CAxHostWindow@ATL@@UAGJPBGPAUHWND__@@PAUIStream@@PAG@Z 1000e4b6 f    CIL library: CIL module
 0001:0000d4b6       __ehhandler$?SendOnDataChange@CComControlBase@ATL@@QAEJK@Z 1000e4b6 f    CIL library: CIL module
 0001:0000d4b6       __ehhandler$?InitNew@?$IPersistStorageImpl@VCVSNetToolWinShim@@@ATL@@UAGJPAUIStorage@@@Z 1000e4b6 f    CIL library: CIL module
 0001:0000d4c0       $L167473                   1000e4c0 f    CIL library: CIL module
 0001:0000d4c8       $L167474                   1000e4c8 f    CIL library: CIL module
 0001:0000d4d0       $L167475                   1000e4d0 f    CIL library: CIL module
 0001:0000d4d8       $L167476                   1000e4d8 f    CIL library: CIL module
 0001:0000d4e0       __ehhandler$?HostUserControl2@CVSNetToolWinShim@@UAGJPAUIUnknown@@PAG11HPAPAU2@@Z 1000e4e0 f    CIL library: CIL module
 0001:0000d4ea       $L168033                   1000e4ea f    CIL library: CIL module
 0001:0000d4ea       $L173015                   1000e4ea f    CIL library: CIL module
 0001:0000d4f2       $L173016                   1000e4f2 f    CIL library: CIL module
 0001:0000d4f2       $L168034                   1000e4f2 f    CIL library: CIL module
 0001:0000d4fa       __ehhandler$?IOleInPlaceObject_UIDeactivate@?$CComCompositeControl@VCVSNetToolWinShim@@@ATL@@QAEJXZ 1000e4fa f    CIL library: CIL module
 0001:0000d4fa       __ehhandler$?IOleInPlaceObject_UIDeactivate@CComControlBase@ATL@@QAEJXZ 1000e4fa f    CIL library: CIL module
 0001:0000d504       $L168264                   1000e504 f    CIL library: CIL module
 0001:0000d50c       $L168265                   1000e50c f    CIL library: CIL module
 0001:0000d514       $L168266                   1000e514 f    CIL library: CIL module
 0001:0000d51c       $L168267                   1000e51c f    CIL library: CIL module
 0001:0000d524       __ehhandler$?InPlaceActivate@CComControlBase@ATL@@QAEJJPBUtagRECT@@@Z 1000e524 f    CIL library: CIL module
 0001:0000d52e       $L168581                   1000e52e f    CIL library: CIL module
 0001:0000d536       $L168582                   1000e536 f    CIL library: CIL module
 0001:0000d53e       $L168583                   1000e53e f    CIL library: CIL module
 0001:0000d546       $L168584                   1000e546 f    CIL library: CIL module
 0001:0000d54e       $L168585                   1000e54e f    CIL library: CIL module
 0001:0000d556       $L168586                   1000e556 f    CIL library: CIL module
 0001:0000d55e       $L168587                   1000e55e f    CIL library: CIL module
 0001:0000d566       __ehhandler$?IQuickActivate_QuickActivate@CComControlBase@ATL@@QAEJPAUtagQACONTAINER@@PAUtagQACONTROL@@@Z 1000e566 f    CIL library: CIL module
 0001:0000d570       $L168943                   1000e570 f    CIL library: CIL module
 0001:0000d578       __ehhandler$?OnKillFocus@CComControlBase@ATL@@QAEJIIJAAH@Z 1000e578 f    CIL library: CIL module
 0001:0000d582       $L168981                   1000e582 f    CIL library: CIL module
 0001:0000d58a       $L168982                   1000e58a f    CIL library: CIL module
 0001:0000d592       __ehhandler$?OnSetFocus@CComControlBase@ATL@@QAEJIIJAAH@Z 1000e592 f    CIL library: CIL module
 0001:0000d59c       $L169455                   1000e59c f    CIL library: CIL module
 0001:0000d5a4       $L169456                   1000e5a4 f    CIL library: CIL module
 0001:0000d5ac       $L169457                   1000e5ac f    CIL library: CIL module
 0001:0000d5b4       $L169458                   1000e5b4 f    CIL library: CIL module
 0001:0000d5bc       $L169459                   1000e5bc f    CIL library: CIL module
 0001:0000d5c4       $L169460                   1000e5c4 f    CIL library: CIL module
 0001:0000d5cc       $L169461                   1000e5cc f    CIL library: CIL module
 0001:0000d5d4       __ehhandler$?ActivateAx@CAxHostWindow@ATL@@QAEJPAUIUnknown@@_NPAUIStream@@@Z 1000e5d4 f    CIL library: CIL module
 0001:0000d5de       __ehhandler$?EnumObjects@CAxHostWindow@ATL@@UAGJKPAPAUIEnumUnknown@@@Z 1000e5de f    CIL library: CIL module
 0001:0000d5e8       $L170319                   1000e5e8 f    CIL library: CIL module
 0001:0000d5e8       $L169911                   1000e5e8 f    CIL library: CIL module
 0001:0000d5f0       __ehhandler$?FireAmbientPropertyChange@CAxHostWindow@ATL@@QAEJJ@Z 1000e5f0 f    CIL library: CIL module
 0001:0000d5f0       __ehhandler$?OnForwardMsg@CAxHostWindow@ATL@@QAEJIIJAAH@Z 1000e5f0 f    CIL library: CIL module
 0001:0000d5fa       $L170038                   1000e5fa f    CIL library: CIL module
 0001:0000d5fa       $L169948                   1000e5fa f    CIL library: CIL module
 0001:0000d602       __ehhandler$?FilterDataObject@CAxHostWindow@ATL@@UAGJPAUIDataObject@@PAPAU3@@Z 1000e602 f    CIL library: CIL module
 0001:0000d602       __ehhandler$?GetDropTarget@CAxHostWindow@ATL@@UAGJPAUIDropTarget@@PAPAU3@@Z 1000e602 f    CIL library: CIL module
 0001:0000d60c       $L169991                   1000e60c f    CIL library: CIL module
 0001:0000d614       $L169992                   1000e614 f    CIL library: CIL module
 0001:0000d61c       __ehhandler$?TranslateUrl@CAxHostWindow@ATL@@UAGJKPAGPAPAG@Z 1000e61c f    CIL library: CIL module
 0001:0000d626       $L170107                   1000e626 f    CIL library: CIL module
 0001:0000d62e       __ehhandler$?TranslateAcceleratorW@CAxHostWindow@ATL@@UAGJPAUtagMSG@@PBU_GUID@@K@Z 1000e62e f    CIL library: CIL module
 0001:0000d638       $L170387                   1000e638 f    CIL library: CIL module
 0001:0000d640       __ehhandler$??1CAxHostWindow@ATL@@UAE@XZ 1000e640 f    CIL library: CIL module
 0001:0000d64a       $L170890                   1000e64a f    CIL library: CIL module
 0001:0000d652       __ehhandler$?CreateNormalizedObject@ATL@@YAJPBGABU_GUID@@PAPAXAA_NPAG@Z 1000e652 f    CIL library: CIL module
 0001:0000d65c       $L171003                   1000e65c f    CIL library: CIL module
 0001:0000d667       __ehhandler$?ParseInitData@_DialogSplitHelper@ATL@@SAJPAUIStream@@PAPAG@Z 1000e667 f    CIL library: CIL module
 0001:0000d671       __ehhandler$?Add@CExpansionVector@ATL@@QAEHPBG0@Z 1000e671 f    CIL library: CIL module
 0001:0000d67b       $L171820                   1000e67b f    CIL library: CIL module
 0001:0000d685       $L171821                   1000e685 f    CIL library: CIL module
 0001:0000d68d       __ehhandler$?LoadNameCache@CComTypeInfoHolder@ATL@@QAEJPAUITypeInfo@@@Z 1000e68d f    CIL library: CIL module
 0001:0000d697       $L171872                   1000e697 f    CIL library: CIL module
 0001:0000d69f       __ehhandler$?AtlModuleAddTermFunc@ATL@@YGJPAU_ATL_MODULE70@1@P6GXK@ZK@Z 1000e69f f    CIL library: CIL module
 0001:0000d6a9       $L171925                   1000e6a9 f    CIL library: CIL module
 0001:0000d6b4       $L171927                   1000e6b4 f    CIL library: CIL module
 0001:0000d6bf       $L171928                   1000e6bf f    CIL library: CIL module
 0001:0000d6c7       $L171929                   1000e6c7 f    CIL library: CIL module
 0001:0000d6d2       __ehhandler$?GetTI@CComTypeInfoHolder@ATL@@QAEJK@Z 1000e6d2 f    CIL library: CIL module
 0001:0000d6dc       __ehhandler$?CreateInstance@?$CComObject@V?$CComEnum@UIEnumUnknown@@$1?_GUID_00000100_0000_0000_c000_000000000046@@3U__s_GUID@@BPAUIUnknown@@V?$_CopyInterface@UIUnknown@@@ATL@@VCComSingleThreadModel@6@@ATL@@@ATL@@SGJPAPAV12@@Z 1000e6dc f    CIL library: CIL module
 0001:0000d6e6       $L172533                   1000e6e6 f    CIL library: CIL module
 0001:0000d6ff       __ehhandler$?Clone@?$CComEnumImpl@UIEnumUnknown@@$1?_GUID_00000100_0000_0000_c000_000000000046@@3U__s_GUID@@BPAUIUnknown@@V?$_CopyInterface@UIUnknown@@@ATL@@@ATL@@UAGJPAPAUIEnumUnknown@@@Z 1000e6ff f    CIL library: CIL module
 0001:0000d709       __ehhandler$?CreateInstance@?$CComObject@VCAxFrameWindow@ATL@@@ATL@@SGJPAPAV12@@Z 1000e709 f    CIL library: CIL module
 0001:0000d713       $L172850                   1000e713 f    CIL library: CIL module
 0001:0000d71b       __ehhandler$??0?$CComObjectCached@VCComClassFactory@ATL@@@ATL@@QAE@PAX@Z 1000e71b f    CIL library: CIL module
 0001:0000d725       $L172941                   1000e725 f    CIL library: CIL module
 0001:0000d72d       $L172942                   1000e72d f    CIL library: CIL module
 0001:0000d735       __ehhandler$?OnMouseActivate@?$CComCompositeControl@VCVSNetToolWinShim@@@ATL@@QAEJIIJAAH@Z 1000e735 f    CIL library: CIL module
 0001:0000d73f       $L173086                   1000e73f f    CIL library: CIL module
 0001:0000d747       $L173087                   1000e747 f    CIL library: CIL module
 0001:0000d74f       __ehhandler$?PreTranslateAccelerator@?$CComCompositeControl@VCVSNetToolWinShim@@@ATL@@QAEHPAUtagMSG@@AAJ@Z 1000e74f f    CIL library: CIL module
 0001:0000d759       $L173334                   1000e759 f    CIL library: CIL module
 0001:0000d763       __ehhandler$?CreateInstance@?$CComCreator@V?$CComObjectCached@VCComClassFactory@ATL@@@ATL@@@ATL@@SGJPAXABU_GUID@@PAPAX@Z 1000e763 f    CIL library: CIL module
 0001:0000d76d       $L173491                   1000e76d f    CIL library: CIL module
 0001:0000d76d       $L173431                   1000e76d f    CIL library: CIL module
 0001:0000d775       $L173492                   1000e775 f    CIL library: CIL module
 0001:0000d775       $L173432                   1000e775 f    CIL library: CIL module
 0001:0000d77d       __ehhandler$?Save@?$IPersistStorageImpl@VCVSNetToolWinShim@@@ATL@@UAGJPAUIStorage@@H@Z 1000e77d f    CIL library: CIL module
 0001:0000d77d       __ehhandler$?Load@?$IPersistStorageImpl@VCVSNetToolWinShim@@@ATL@@UAGJPAUIStorage@@@Z 1000e77d f    CIL library: CIL module
 0001:0000d787       $L173673                   1000e787 f    CIL library: CIL module
 0001:0000d78f       $L173674                   1000e78f f    CIL library: CIL module
 0001:0000d797       __ehhandler$?GetSizeMax@?$IPersistStreamInitImpl@VCVSNetToolWinShim@@@ATL@@UAGJPAT_ULARGE_INTEGER@@@Z 1000e797 f    CIL library: CIL module
 0001:0000d7a1       $L174031                   1000e7a1 f    CIL library: CIL module
 0001:0000d7a9       $L174032                   1000e7a9 f    CIL library: CIL module
 0001:0000d7b1       $L174033                   1000e7b1 f    CIL library: CIL module
 0001:0000d7b9       $L174034                   1000e7b9 f    CIL library: CIL module
 0001:0000d7c1       __ehhandler$?DoVerbProperties@CComControlBase@ATL@@QAEJPBUtagRECT@@PAUHWND__@@@Z 1000e7c1 f    CIL library: CIL module
 0001:0000d7cb       $L175114                   1000e7cb f    CIL library: CIL module
 0001:0000d7d6       $L175116                   1000e7d6 f    CIL library: CIL module
 0001:0000d7e1       __ehhandler$?AddValue@CRegParser@ATL@@IAEJAAVCRegKey@2@PBGPAG@Z 1000e7e1 f    CIL library: CIL module
 0001:0000d7eb       $L175207                   1000e7eb f    CIL library: CIL module
 0001:0000d7f6       $L175209                   1000e7f6 f    CIL library: CIL module
 0001:0000d7fe       __ehhandler$?RegisterSubkeys@CRegParser@ATL@@IAEJPAGPAUHKEY__@@HH@Z 1000e7fe f    CIL library: CIL module
 0001:0000d808       $L175579                   1000e808 f    CIL library: CIL module
 0001:0000d810       __ehhandler$?PreProcessBuffer@CRegParser@ATL@@QAEJPAGPAPAG@Z 1000e810 f    CIL library: CIL module
 0001:0000d81a       $L175671                   1000e81a f    CIL library: CIL module
 0001:0000d825       $L175672                   1000e825 f    CIL library: CIL module
 0001:0000d830       __ehhandler$?RegisterFromResource@CRegObject@ATL@@IAEJPBG00H@Z 1000e830 f    CIL library: CIL module
 0001:0000d83a       $L175744                   1000e83a f    CIL library: CIL module
 0001:0000d842       __ehhandler$??1CExpansionVector@ATL@@QAE@XZ 1000e842 f    CIL library: CIL module
 0001:0000d84c       __ehhandler$?CreateInstance@?$CComObject@VCAxUIWindow@ATL@@@ATL@@SGJPAPAV12@@Z 1000e84c f    CIL library: CIL module
 0001:0000d856       $L175931                   1000e856 f    CIL library: CIL module
 0001:0000d861       __ehhandler$??1?$CComAggObject@VCVSNetToolWinShim@@@ATL@@UAE@XZ 1000e861 f    CIL library: CIL module
 0001:0000d86b       $L175981                   1000e86b f    CIL library: CIL module
 0001:0000d878       __ehhandler$??1?$CComPolyObject@VCAxHostWindow@ATL@@@ATL@@UAE@XZ 1000e878 f    CIL library: CIL module
 0001:0000d882       $L176010                   1000e882 f    CIL library: CIL module
 0001:0000d88f       __ehhandler$??0?$CComPolyObject@VCAxHostWindow@ATL@@@ATL@@QAE@PAX@Z 1000e88f f    CIL library: CIL module
 0001:0000d899       $L176042                   1000e899 f    CIL library: CIL module
 0001:0000d8a1       __ehhandler$?DoVerbPrimary@?$IOleObjectImpl@VCVSNetToolWinShim@@@ATL@@QAEJPBUtagRECT@@PAUHWND__@@@Z 1000e8a1 f    CIL library: CIL module
 0001:0000d8ab       $L176150                   1000e8ab f    CIL library: CIL module
 0001:0000d8b5       __ehhandler$?CreateInstance@?$CComCreator@V?$CComPolyObject@VCAxHostWindow@ATL@@@ATL@@@ATL@@SGJPAXABU_GUID@@PAPAX@Z 1000e8b5 f    CIL library: CIL module
 0001:0000d8bf       $L176346                   1000e8bf f    CIL library: CIL module
 0001:0000d8c7       $L176347                   1000e8c7 f    CIL library: CIL module
 0001:0000d8cf       $L176348                   1000e8cf f    CIL library: CIL module
 0001:0000d8d7       __ehhandler$?AtlAxWindowProc2@ATL@@YGJPAUHWND__@@IIJ@Z 1000e8d7 f    CIL library: CIL module
 0001:0000d8e1       $L176644                   1000e8e1 f    CIL library: CIL module
 0001:0000d8e9       $L176645                   1000e8e9 f    CIL library: CIL module
 0001:0000d8f1       $L176646                   1000e8f1 f    CIL library: CIL module
 0001:0000d8f9       $L176647                   1000e8f9 f    CIL library: CIL module
 0001:0000d901       $L176648                   1000e901 f    CIL library: CIL module
 0001:0000d909       $L176649                   1000e909 f    CIL library: CIL module
 0001:0000d911       __ehhandler$?CreateControlLicEx@CAxHostWindow@ATL@@UAGJPBGPAUHWND__@@PAUIStream@@PAPAUIUnknown@@ABU_GUID@@PAU5@PAG@Z 1000e911 f    CIL library: CIL module
 0001:0000d91b       $L175726                   1000e91b f    CIL library: CIL module
 0001:0000d91b       $L171278                   1000e91b f    CIL library: CIL module
 0001:0000d91b       $L176937                   1000e91b f    CIL library: CIL module
 0001:0000d923       __ehhandler$?ResourceUnregister@CRegObject@ATL@@QAGJPBGI0@Z 1000e923 f    CIL library: CIL module
 0001:0000d923       __ehhandler$?AddReplacement@CRegObject@ATL@@UAGJPBG0@Z 1000e923 f    CIL library: CIL module
 0001:0000d923       __ehhandler$?ResourceRegister@CRegObject@ATL@@QAGJPBGI0@Z 1000e923 f    CIL library: CIL module
 0001:0000d92d       $L176955                   1000e92d f    CIL library: CIL module
 0001:0000d93a       __ehhandler$??1CRegObject@ATL@@UAE@XZ 1000e93a f    CIL library: CIL module
 0001:0000d944       $L177037                   1000e944 f    CIL library: CIL module
 0001:0000d944       $L176496                   1000e944 f    CIL library: CIL module
 0001:0000d94c       $L177038                   1000e94c f    CIL library: CIL module
 0001:0000d94c       $L176497                   1000e94c f    CIL library: CIL module
 0001:0000d954       __ehhandler$?AtlAxWindowProc@ATL@@YGJPAUHWND__@@IIJ@Z 1000e954 f    CIL library: CIL module
 0001:0000d954       __ehhandler$?CreateControlLicEx@?$CAxWindow2T@VCWindow@ATL@@@ATL@@QAEJPBGPAUIStream@@PAPAUIUnknown@@2ABU_GUID@@PAU4@PAG@Z 1000e954 f    CIL library: CIL module
 0001:0000d95e       $L177154                   1000e95e f    CIL library: CIL module
 0001:0000d969       $L177155                   1000e969 f    CIL library: CIL module
 0001:0000d976       $L177156                   1000e976 f    CIL library: CIL module
 0001:0000d983       $L177157                   1000e983 f    CIL library: CIL module
 0001:0000d990       $L177158                   1000e990 f    CIL library: CIL module
 0001:0000d99e       __ehhandler$??0CVSNetToolWinShim@@QAE@XZ 1000e99e f    CIL library: CIL module
 0001:0000d9a8       $L177619                   1000e9a8 f    CIL library: CIL module
 0001:0000d9b3       __ehhandler$??0?$CComAggObject@VCVSNetToolWinShim@@@ATL@@QAE@PAX@Z 1000e9b3 f    CIL library: CIL module
 0001:0000d9bd       $L177659                   1000e9bd f    CIL library: CIL module
 0001:0000d9c7       __ehhandler$?CreateInstance@?$CComCreator@V?$CComAggObject@VCVSNetToolWinShim@@@ATL@@@ATL@@SGJPAXABU_GUID@@PAPAX@Z 1000e9c7 f    CIL library: CIL module
 0001:0000d9d1       __ehhandler$?CreateInstance@?$CComCreator@V?$CComObject@VCVSNetToolWinShim@@@ATL@@@ATL@@SGJPAXABU_GUID@@PAPAX@Z 1000e9d1 f    CIL library: CIL module
 0001:0000d9db       $L170273                   1000e9db f    CIL library: CIL module
 0001:0000d9db       $L177755                   1000e9db f    CIL library: CIL module
 0001:0000d9db       $L173629                   1000e9db f    CIL library: CIL module
 0001:0000d9db       $L166128                   1000e9db f    CIL library: CIL module
 0001:0000d9e3       __ehhandler$?TranslateAcceleratorW@?$IOleInPlaceActiveObjectImpl@VCVSNetToolWinShim@@@ATL@@UAGJPAUtagMSG@@@Z 1000e9e3 f    CIL library: CIL module
 0001:0000d9e3       __ehhandler$?BackgroundColorEnumProc@?$CComCompositeControl@VCVSNetToolWinShim@@@ATL@@SGHPAUHWND__@@J@Z 1000e9e3 f    CIL library: CIL module
 0001:0000d9e3       __ehhandler$?WriteToStream@CComVariant@ATL@@QAEJPAUIStream@@@Z 1000e9e3 f    CIL library: CIL module
 0001:0000d9e3       __ehhandler$?OnMouseActivate@CAxHostWindow@ATL@@QAEJIIJAAH@Z 1000e9e3 f    CIL library: CIL module
 0001:0000d9ed       $L177839                   1000e9ed f    CIL library: CIL module
 0001:0000d9f5       $L177840                   1000e9f5 f    CIL library: CIL module
 0001:0000d9fd       __ehhandler$?CreateActiveXControls@?$CAxDialogImpl@VCVSNetToolWinShim@@VCWindow@ATL@@@ATL@@UAEJI@Z 1000e9fd f    CIL library: CIL module
 0001:0000da07       _$E1                       1000ea07 f   VSNetToolWinShim.obj
 0001:0000da1d       _$E5                       1000ea1d f   VSNetToolHostShim.obj
 0001:0000da35       _$E5                       1000ea35 f   atls:atlbase.obj
 0001:0000da4b       _$E5                       1000ea4b f   atls:atlcommodule.obj
 0001:0000da61       _$E2                       1000ea61 f   VSNetToolWinShim.obj
 0001:0000da6b       _$E6                       1000ea6b f   VSNetToolHostShim.obj
 0001:0000da76       _$E6                       1000ea76 f   atls:atlbase.obj
 0001:0000da80       _$E6                       1000ea80 f   atls:atlcommodule.obj

Line numbers for .\Release\VSNetToolWinShim.obj(g:\vsnet\vc7\atlmfc\include\atlcore.h) segment .text

   157 0001:0000baa5   159 0001:0000baac   160 0001:0000bab3   161 0001:0000bab7
   162 0001:0000babd

Line numbers for .\Release\VSNetToolWinShim.obj(g:\vsnet\vc7\atlmfc\include\atlbase.inl) segment .text

   316 0001:0000b9a5   317 0001:0000b9aa   318 0001:0000b9ae   349 0001:0000b9b0
   321 0001:0000b9b3   322 0001:0000b9b7   328 0001:0000b9c3   329 0001:0000b9c6
   331 0001:0000b9ce   332 0001:0000b9d4   335 0001:0000b9d6   344 0001:0000b9db
   345 0001:0000b9dd   335 0001:0000b9e4   337 0001:0000b9e6   338 0001:0000b9e8
   339 0001:0000b9f0   340 0001:0000b9f2   341 0001:0000b9f5   348 0001:0000b9f7
   349 0001:0000ba03   294 0001:0000ba05   295 0001:0000ba0a   296 0001:0000ba0e
   299 0001:0000ba10   302 0001:0000ba18   303 0001:0000ba1a   304 0001:0000ba23
   305 0001:0000ba26   311 0001:0000ba30   313 0001:0000ba36   300 0001:0000ba47
   375 0001:0000c67b   376 0001:0000c68e   377 0001:0000c695   380 0001:0000c69c
   381 0001:0000c6a0   382 0001:0000c6bc   383 0001:0000c6c0   384 0001:0000c6c5
   386 0001:0000c6c7   387 0001:0000c6cc   388 0001:0000c6d2   389 0001:0000c6d8
   392 0001:0000c6df   401 0001:0000c6e5   402 0001:0000c6f6   403 0001:0000c6f8
    27 0001:0000cae4    28 0001:0000caec    29 0001:0000caf0    31 0001:0000caf7
    32 0001:0000caff    33 0001:0000cb07    34 0001:0000cb17    35 0001:0000cb1b
    36 0001:0000cb2d    37 0001:0000cb31    38 0001:0000cb42    39 0001:0000cb55
    42 0001:0000cb59    43 0001:0000cb61    44 0001:0000cb65    46 0001:0000cb6c
    47 0001:0000cb74    48 0001:0000cb7c    49 0001:0000cb8c    50 0001:0000cb90
    51 0001:0000cba2    52 0001:0000cba6    53 0001:0000cbb4    54 0001:0000cbc7
   240 0001:0000cbcb   244 0001:0000cbcf   249 0001:0000cbdd   250 0001:0000cbe1
   252 0001:0000cbe8   267 0001:0000cbf7   268 0001:0000cbfd   269 0001:0000cc03
   270 0001:0000cc05   261 0001:0000cc09   262 0001:0000cc12   264 0001:0000cc25
   275 0001:0000cc2a   276 0001:0000cc36   280 0001:0000cc44   259 0001:0000cc47
   282 0001:0000cc4e   245 0001:0000cc55   283 0001:0000cc5c

Line numbers for .\Release\VSNetToolWinShim.obj(g:\vsnet\vc7\atlmfc\include\atlhost.h) segment .text

    63 0001:00002e85    65 0001:00002e9a    66 0001:00002ea4    75 0001:00002eae
    79 0001:00002eca    86 0001:00002ed0    89 0001:00002f36    93 0001:00002f44
    96 0001:00002f57    97 0001:00002f6b   100 0001:00002f6e   103 0001:00002f73
   105 0001:00002f85   106 0001:00002f89   107 0001:00002f96   108 0001:00002f98
   110 0001:00002f9e   114 0001:00002fa5   116 0001:00002faa   117 0001:00002fad
   118 0001:00002fc6   119 0001:00002fcd   120 0001:00002fe4   121 0001:00002ff5
   122 0001:00002ff7   125 0001:0000300d    76 0001:00003012   126 0001:00003014
   139 0001:00003029   140 0001:0000302c   141 0001:0000303d   142 0001:00003044
   143 0001:0000304c   157 0001:0000304d   159 0001:0000304e   160 0001:0000305a
   162 0001:00003061   163 0001:0000306a   164 0001:00003089   165 0001:0000308e
   166 0001:00003090   189 0001:00003096   190 0001:00003097   191 0001:000030a9
   192 0001:000030ac   201 0001:000030af   202 0001:000030af   203 0001:000030b1
   222 0001:000030b4   221 0001:000030b4   223 0001:000030b7   235 0001:000030ba
   237 0001:000030d7   253 0001:000030d8   257 0001:000030dd   258 0001:000030df
   259 0001:000030ea   260 0001:00003109   262 0001:00003110   276 0001:00003119
   277 0001:00003119   278 0001:0000311e   281 0001:00003121   282 0001:00003121
   283 0001:00003123   318 0001:0000313b   330 0001:00003185   332 0001:00003198
   336 0001:000031ac   344 0001:000031b9   345 0001:000031d1   348 0001:000031d4
   349 0001:000031fc   352 0001:00003200   353 0001:00003212   360 0001:000032d7
   361 0001:000032d7   362 0001:000032e2   400 0001:000032e5   401 0001:000032fe
   402 0001:00003324   403 0001:0000333e   404 0001:00003365   405 0001:0000337e
   406 0001:000033a9   407 0001:000033c9   411 0001:000033d3   412 0001:000033df
   414 0001:000033e8   415 0001:000033f8   417 0001:00003415   419 0001:0000341b
   432 0001:00003448   435 0001:0000345e   420 0001:00003494   421 0001:000034a6
   422 0001:000034b3   423 0001:000034be   424 0001:000034cb   425 0001:000034d6
   426 0001:000034e3   427 0001:000034ee   428 0001:000034fb   429 0001:00003506
   436 0001:00003522   437 0001:0000352f   438 0001:00003538   439 0001:00003545
   440 0001:0000354e   441 0001:0000355b   442 0001:00003566   443 0001:0000357b
   444 0001:00003590   445 0001:000035bb   446 0001:000035d3   448 0001:00003606
   449 0001:0000362b   452 0001:00003634   453 0001:0000364c   454 0001:00003655
   456 0001:0000365c   457 0001:00003678   458 0001:0000368c   459 0001:000036a4
   462 0001:000036ad   465 0001:000036b7   466 0001:000036cb   468 0001:000036d3
   469 0001:000036e0   471 0001:000036f9   472 0001:00003709   489 0001:00003717
   490 0001:00003725   492 0001:00003733   494 0001:0000373d   495 0001:00003746
   497 0001:00003750   499 0001:0000375e   500 0001:0000376e   503 0001:00003778
   505 0001:0000377f   506 0001:0000378b   507 0001:00003796   510 0001:000037a0
   512 0001:000037a7   513 0001:000037aa   514 0001:000037bb   515 0001:000037c2
   516 0001:000037cc   518 0001:000037da   519 0001:000037ea   521 0001:000037f0
   522 0001:00003800   523 0001:00003810   525 0001:00003820   526 0001:00003830
   533 0001:00003840   535 0001:00003847   537 0001:00003853   538 0001:0000385a
   540 0001:0000385d   553 0001:0000386a   554 0001:00003874   555 0001:0000387f
   557 0001:00003888   559 0001:00003896   560 0001:0000389c   561 0001:000038af
   562 0001:000038b6   563 0001:000038d3   565 0001:000038e1   568 0001:000038e3
   571 0001:000038ec   573 0001:000038fe   574 0001:00003909   575 0001:00003917
   577 0001:00003921   579 0001:0000392a   580 0001:00003930   581 0001:00003945
   582 0001:0000394c   583 0001:00003969   584 0001:00003977   585 0001:00003980
   586 0001:00003983   587 0001:00003999   589 0001:000039ab   591 0001:000039ae
   603 0001:000039c1   599 0001:000039c1   604 0001:000039ce   606 0001:000039e8
   607 0001:000039f2   609 0001:00003a05   610 0001:00003a0c   611 0001:00003a15
   612 0001:00003a1e   613 0001:00003a2c   614 0001:00003a35   615 0001:00003a42
   616 0001:00003a49   617 0001:00003a4b   619 0001:00003a4e   620 0001:00003a4e
   621 0001:00003a5b   622 0001:00003a6e   623 0001:00003a75   624 0001:00003a7c
   625 0001:00003a7e   627 0001:00003a81   630 0001:00003a85   631 0001:00003a9e
   632 0001:00003ab1   633 0001:00003ab6   634 0001:00003abc   635 0001:00003abf
   637 0001:00003ac3   639 0001:00003ac7   640 0001:00003ae0   641 0001:00003af3
   642 0001:00003af9   643 0001:00003afc   645 0001:00003b00   646 0001:00003b0d
   649 0001:00003b17   650 0001:00003b24   651 0001:00003b29   653 0001:00003b2f
   654 0001:00003b3c   655 0001:00003b4a   657 0001:00003b52   658 0001:00003b60
   661 0001:00003b61   663 0001:00003b66   666 0001:00003b73   668 0001:00003b82
   669 0001:00003b87   672 0001:00003b8d   674 0001:00003b9a   675 0001:00003baf
   677 0001:00003bba   678 0001:00003bc3   680 0001:00003bc7   681 0001:00003bd1
   683 0001:00003bd8   684 0001:00003be4   686 0001:00003beb   687 0001:00003bf7
   689 0001:00003c00   691 0001:00003c1b   693 0001:00003c34   695 0001:00003c3e
   697 0001:00003c45   699 0001:00003c4e   706 0001:00003c5b   703 0001:00003c60
   704 0001:00003c65   707 0001:00003c67   711 0001:00003c75   712 0001:00003c80
   713 0001:00003c85   714 0001:00003cbb   716 0001:00003ccc   717 0001:00003ccf
   718 0001:00003cec   720 0001:00003cf0   723 0001:00003cf3   727 0001:00003d05
   729 0001:00003d1d   730 0001:00003d29   733 0001:00003d30   735 0001:00003d3e
   737 0001:00003d47   738 0001:00003d4e   741 0001:00003d53   743 0001:00003d64
   745 0001:00003d68   747 0001:00003d6f   749 0001:00003d76   750 0001:00003d82
   751 0001:00003d89   755 0001:00003d90   756 0001:00003d96   760 0001:00003d99
   758 0001:00003d99   762 0001:00003da6   764 0001:00003db1   766 0001:00003dbb
   768 0001:00003dbd   769 0001:00003dc0   773 0001:00003dc5   775 0001:00003dc8
   776 0001:00003dc9   777 0001:00003ddb   778 0001:00003dde   780 0001:00003de1
   782 0001:00003de2   784 0001:00003df4   785 0001:00003df7   788 0001:00003dfa
   789 0001:00003e05   790 0001:00003e0a   791 0001:00003e41   793 0001:00003e52
   795 0001:00003e5f   796 0001:00003e69   801 0001:00003e74   803 0001:00003e8f
   805 0001:00003ea0   806 0001:00003eae   809 0001:00003eb6   811 0001:00003ec7
   812 0001:00003ecd   814 0001:00003ed4   815 0001:00003ede   817 0001:00003ee5
   819 0001:00003eed   820 0001:00003ef7   821 0001:00003ef9   822 0001:00003efb
   827 0001:00003f09   829 0001:00003f25   830 0001:00003f2c   834 0001:00003f40
   835 0001:00003f66   837 0001:00003f73   839 0001:00003f84   840 0001:00003f9a
   841 0001:00003fa4   843 0001:00003fa6   844 0001:00003fac   845 0001:00003fbc
   848 0001:00003fcb   850 0001:00003fe0   857 0001:00003fe6   861 0001:0000406b
   862 0001:00004076   863 0001:00004084   865 0001:0000408c   866 0001:0000408f
   867 0001:00004096   868 0001:000040a6   869 0001:000040ad   870 0001:000040ba
   872 0001:000040c1   873 0001:000040c4   874 0001:000040d9   875 0001:000040e0
   876 0001:000040ef   877 0001:00004100   881 0001:00004110   894 0001:00004113
   895 0001:00004121   898 0001:0000412e   900 0001:00004136   902 0001:0000413f
   903 0001:0000414d   904 0001:00004157   908 0001:0000415f   909 0001:00004164
   879 0001:00004173   881 0001:0000417a   883 0001:0000417c   884 0001:0000417f
   885 0001:00004191   887 0001:00004196   888 0001:000041a0   889 0001:000041b1
   890 0001:000041bf   891 0001:000041d6   892 0001:000041e7   917 0001:00004200
   918 0001:00004203   919 0001:0000420c   926 0001:0000421c   928 0001:0000423a
   931 0001:0000423e   932 0001:0000423e   933 0001:00004246   935 0001:0000424d
   936 0001:00004258   938 0001:0000426a   939 0001:00004273   941 0001:0000427c
   942 0001:0000427e   945 0001:00004281   946 0001:00004284   947 0001:0000428d
   954 0001:0000429d   956 0001:000042b9   959 0001:000042bd   961 0001:000042bd
   962 0001:000042ca   964 0001:000042d0   967 0001:000042d3   969 0001:000042d3
   970 0001:000042e0   972 0001:000042e6   975 0001:000042e9   977 0001:000042e9
   978 0001:000042f6   980 0001:00004305   983 0001:00004308   985 0001:00004308
   986 0001:00004315   988 0001:00004324   991 0001:00004327   993 0001:00004327
   994 0001:00004334   996 0001:00004343  1001 0001:00004346   999 0001:00004346
  1008 0001:00004353  1010 0001:00004375  1013 0001:00004378  1015 0001:00004384
  1023 0001:00004396  1025 0001:000043cf  1029 0001:000043e1  1030 0001:000043e2
  1031 0001:000043e5  1032 0001:000043f0  1034 0001:000043f8  1036 0001:00004405
  1037 0001:00004410  1038 0001:00004418  1040 0001:0000441b  1042 0001:0000441d
  1044 0001:00004425  1045 0001:0000443a  1046 0001:00004446  1047 0001:0000444a
  1048 0001:00004451  1049 0001:0000445e  1050 0001:00004460  1054 0001:00004465
  1057 0001:00004468  1059 0001:00004473  1060 0001:0000447a  1061 0001:00004481
  1064 0001:00004484  1066 0001:00004494  1067 0001:0000449c  1068 0001:000044ab
  1069 0001:000044b2  1070 0001:000044c2  1071 0001:000044cb  1072 0001:000044ce
  1073 0001:000044dc  1074 0001:000044df  1077 0001:000044ee  1079 0001:000044ef
  1080 0001:000044f7  1081 0001:000044fe  1084 0001:00004501  1086 0001:0000450c
  1087 0001:00004513  1088 0001:0000451c  1090 0001:00004521  1095 0001:00004523
  1096 0001:0000452d  1102 0001:00004530  1105 0001:00004533  1107 0001:0000453f
  1108 0001:00004548  1112 0001:00004554  1114 0001:00004569  1115 0001:0000456c
  1116 0001:0000459f  1118 0001:000045ab  1119 0001:000045b8  1120 0001:000045bf
  1121 0001:000045c5  1122 0001:000045d1  1124 0001:000045de  1125 0001:000045e0
  1126 0001:000045e7  1127 0001:000045ec  1128 0001:000045f1  1132 0001:00004600
  1134 0001:0000460b  1135 0001:00004614  1139 0001:0000461d  1141 0001:0000462c
  1142 0001:0000462f  1143 0001:0000463f  1144 0001:00004647  1145 0001:00004657
  1146 0001:00004660  1147 0001:00004663  1148 0001:00004675  1149 0001:00004678
  1153 0001:00004687  1155 0001:00004691  1156 0001:000046a7  1157 0001:000046ae
  1158 0001:000046bc  1159 0001:000046ca  1167 0001:000046dc  1169 0001:000046e0
  1170 0001:00004701  1172 0001:00004716  1173 0001:00004734  1175 0001:0000473e
  1179 0001:0000474b  1183 0001:0000474f  1182 0001:0000474f  1184 0001:00004760
  1185 0001:00004762  1187 0001:00004765  1189 0001:00004765  1190 0001:0000476d
  1192 0001:00004774  1193 0001:00004785  1194 0001:00004787  1196 0001:0000478a
  1197 0001:0000478a  1198 0001:00004799  1199 0001:000047a7  1200 0001:000047b4
  1201 0001:000047b7  1203 0001:000047ba  1205 0001:000047ba  1206 0001:000047c2
  1208 0001:000047c9  1209 0001:000047d5  1210 0001:000047d7  1212 0001:000047da
  1213 0001:000047da  1214 0001:000047e8  1215 0001:000047f6  1216 0001:000047f8
  1218 0001:000047fb  1220 0001:000047fb  1221 0001:00004803  1223 0001:0000480a
  1224 0001:00004816  1225 0001:00004818  1227 0001:0000481b  1228 0001:0000481b
  1229 0001:00004829  1230 0001:00004837  1231 0001:00004839  1233 0001:0000483c
  1235 0001:0000483c  1236 0001:00004844  1238 0001:0000484b  1239 0001:00004857
  1240 0001:00004859  1243 0001:0000485c  1242 0001:0000485c  1244 0001:0000486a
  1245 0001:0000487e  1246 0001:00004880  1248 0001:00004883  1250 0001:00004883
  1251 0001:0000488b  1253 0001:00004892  1254 0001:000048a3  1255 0001:000048a5
  1258 0001:000048a8  1257 0001:000048a8  1259 0001:000048b7  1260 0001:000048cb
  1261 0001:000048cd  1263 0001:000048d0  1265 0001:000048d0  1266 0001:000048d8
  1268 0001:000048df  1269 0001:000048f0  1270 0001:000048f2  1272 0001:000048f5
  1273 0001:000048f6  1274 0001:0000490b  1275 0001:0000491b  1276 0001:0000491e
  1278 0001:00004921  1280 0001:00004932  1281 0001:00004939  1282 0001:00004943
  1284 0001:00004949  1286 0001:0000495e  1287 0001:00004964  1288 0001:0000496e
  1289 0001:00004972  1290 0001:00004976  1291 0001:0000497a  1293 0001:00004984
  1296 0001:00004991  1297 0001:00004997  1298 0001:0000499f  1299 0001:000049a8
  1300 0001:000049af  1301 0001:000049b6  1303 0001:000049bd  1304 0001:000049c0
  1305 0001:000049d1  1309 0001:000049d6  1311 0001:000049dd  1312 0001:000049e6
  1313 0001:000049e8  1314 0001:000049ea  1315 0001:000049f3  1317 0001:000049f9
  1319 0001:000049fb  1320 0001:00004a0c  1321 0001:00004a0e  1322 0001:00004a14
  1323 0001:00004a1d  1325 0001:00004a29  1328 0001:00004a35  1331 0001:00004a54
  1332 0001:00004a5f  1334 0001:00004a6b  1335 0001:00004a6b  1336 0001:00004a7a
  1337 0001:00004a8e  1338 0001:00004a90  1343 0001:00004a93  1340 0001:00004a93
  1344 0001:00004a9b  1346 0001:00004aa2  1347 0001:00004ab3  1348 0001:00004ab5
  1350 0001:00004ab8  1351 0001:00004ab8  1352 0001:00004ac0  1353 0001:00004ac2
  1357 0001:00004ac5  1355 0001:00004ac5  1358 0001:00004acd  1360 0001:00004ad4
  1361 0001:00004ad8  1362 0001:00004ada  1365 0001:00004add  1364 0001:00004add
  1366 0001:00004aeb  1367 0001:00004af6  1368 0001:00004af8  1370 0001:00004afb
  1372 0001:00004afb  1373 0001:00004b03  1375 0001:00004b0a  1376 0001:00004b16
  1377 0001:00004b18  1379 0001:00004b1b  1380 0001:00004b1b  1381 0001:00004b29
  1382 0001:00004b2b  1386 0001:00004b2e  1384 0001:00004b2e  1387 0001:00004b36
  1389 0001:00004b3d  1390 0001:00004b49  1391 0001:00004b4b  1394 0001:00004b4e
  1393 0001:00004b4e  1395 0001:00004b63  1396 0001:00004b65  1398 0001:00004b68
  1400 0001:00004b68  1401 0001:00004b70  1403 0001:00004b77  1404 0001:00004b88
  1405 0001:00004b8a  1407 0001:00004b8d  1408 0001:00004b8d  1409 0001:00004ba2
  1410 0001:00004ba4  1414 0001:00004ba7  1412 0001:00004ba7  1415 0001:00004baf
  1417 0001:00004bb6  1418 0001:00004bc7  1419 0001:00004bc9  1421 0001:00004bcc
  1422 0001:00004bcd  1423 0001:00004be0  1424 0001:00004be3  1426 0001:00004be6
  1428 0001:00004be6  1429 0001:00004bee  1431 0001:00004bf5  1432 0001:00004c01
  1433 0001:00004c03  1436 0001:00004c06  1437 0001:00004c07  1438 0001:00004c19
  1439 0001:00004c1c  1443 0001:00004c1f  1444 0001:00004c20  1446 0001:00004c31
  1449 0001:00004c3c  1453 0001:00004c4f  1454 0001:00004c56  1456 0001:00004c6b
  1457 0001:00004c6f  1469 0001:00004c72  1474 0001:00004c73  1477 0001:00004c80
  1478 0001:00004c84  1479 0001:00004c95  1480 0001:00004c9c  1481 0001:00004ca0
  1484 0001:00004cad  1486 0001:00004cb0  1489 0001:00004cb1  1490 0001:00004cc1
  1491 0001:00004cc7  1492 0001:00004cce  1493 0001:00004cd6  1494 0001:00004cef
  1495 0001:00004cf9  1496 0001:00004cfd  1508 0001:00004d00  1509 0001:00004d00
  1510 0001:00004d0d  1511 0001:00004d0f  1513 0001:00004d12  1514 0001:00004d12
  1515 0001:00004d17  1521 0001:00004d1a  1526 0001:00004d1b  1527 0001:00004d23
  1529 0001:00004d30  1530 0001:00004d45  1531 0001:00004d48  1533 0001:00004d4b
  1535 0001:00004d4b  1536 0001:00004d53  1537 0001:00004d55  1539 0001:00004d58
  1540 0001:00004d5d  1541 0001:00004d67  1542 0001:00004d69  1543 0001:00004d70
  1544 0001:00004d72  1550 0001:00004d95  1553 0001:00004da0  1554 0001:00004da9
  1557 0001:00004dba  1560 0001:00004dc1  1561 0001:00004dca  1564 0001:00004ddb
  1565 0001:00004de6  1566 0001:00004df0  1567 0001:00004dfe  1569 0001:00004e06
  1572 0001:00004e0e  1574 0001:00004e2b  1575 0001:00004e34  1576 0001:00004e40
  1577 0001:00004e4c  1578 0001:00004e55  1580 0001:00004e64  1547 0001:00004e69
  1581 0001:00004e6f  1589 0001:00004e73  1587 0001:00004e73  1590 0001:00004e7b
  1591 0001:00004e7d  1594 0001:00004e80  1593 0001:00004e80  1595 0001:00004e88
  1596 0001:00004e99  1597 0001:00004e9b  1613 0001:00004e9e  1618 0001:00004e9f
  1619 0001:00004ea8  1621 0001:00004eb5  1624 0001:00004ebc  1626 0001:00004ed1
  1629 0001:00004ed5  1631 0001:00004eea  1632 0001:00004ef0  1633 0001:00004eff
  1634 0001:00004f02  1636 0001:00004f05  1637 0001:00004f05  1638 0001:00004f0d
  1639 0001:00004f1e  1640 0001:00004f20  1652 0001:00004f23  1651 0001:00004f23
  1653 0001:00004f32  1656 0001:00004f35  1655 0001:00004f35  1657 0001:00004f44
  1659 0001:00004f47  1660 0001:00004f47  1662 0001:00004f4f  1663 0001:00004f5c
  1665 0001:00004f61  1667 0001:00004f63  1668 0001:00004f69  1670 0001:00004f71
  1671 0001:00004f73  1674 0001:00004f76  1673 0001:00004f76  1675 0001:00004f85
  1678 0001:00004f88  1677 0001:00004f88  1679 0001:00004f9c  1680 0001:00004f9e
  1682 0001:00004fa1  1683 0001:00004fa8  1684 0001:00004faf  1685 0001:00004fba
  1686 0001:00004fc3  1688 0001:00004fcd  1689 0001:00004fd6  1690 0001:00004fda
  1694 0001:00004fdc  1695 0001:00004fe4  1698 0001:00004fea  1699 0001:00004ff7
  1701 0001:00004ffe  1702 0001:00005008  1704 0001:0000500c  1705 0001:00005022
  1706 0001:00005029  1707 0001:00005030  1709 0001:00005032  1710 0001:0000503a
  1712 0001:0000503e  1715 0001:00005047  1717 0001:00005049  1718 0001:00005050
  1719 0001:00005055  1725 0001:00005058  1726 0001:0000505e  1727 0001:0000506c
  1728 0001:00005070  1730 0001:00005074  1731 0001:0000507b  1732 0001:0000507e
  1735 0001:00005088  1737 0001:00005095  1738 0001:000050be  1739 0001:000050c7
  1742 0001:000050cf  1743 0001:000050d9  1744 0001:000050dc  1747 0001:000050e0
  1746 0001:000050e0  1748 0001:000050f5  1749 0001:000050f7  1752 0001:000050fa
  1751 0001:000050fa  1753 0001:0000510f  1754 0001:00005111  1757 0001:00005114
  1756 0001:00005114  1758 0001:00005116  1764 0001:00005119  1765 0001:0000511c
  1766 0001:00005135  1767 0001:00005137  1779 0001:0000513b  1780 0001:0000513b
  1781 0001:00005142  1782 0001:00005149  1783 0001:0000515e  1786 0001:00005161
  1785 0001:00005161  1787 0001:00005166  1794 0001:00005169  1793 0001:00005169
  1795 0001:0000517d  1796 0001:0000517f  1799 0001:00005182  1798 0001:00005182
  1800 0001:00005187  1807 0001:0000518a  1808 0001:0000518a  1811 0001:0000518d
  1810 0001:0000518d  1822 0001:00005190  1821 0001:00005190  1823 0001:00005195
  1825 0001:00005198  1826 0001:000051a5  1827 0001:000051b4  1831 0001:000051bb
  1832 0001:000051e7  1833 0001:000051eb  1834 0001:000051f2  1836 0001:000051fb
  1837 0001:00005216  1838 0001:0000521a  1839 0001:00005229  1840 0001:0000522d
  1841 0001:00005236  1842 0001:00005238  1845 0001:00005249  1844 0001:00005249
  1846 0001:00005260  1847 0001:00005262  1850 0001:00005265  1851 0001:00005274
  1852 0001:0000527d  1854 0001:00005285  1857 0001:00005290  1858 0001:000052a5
  1860 0001:000052af  1861 0001:000052c1  1863 0001:000052c7  1864 0001:000052dd
  1865 0001:000052e8  1867 0001:000052f9  1869 0001:00005303  1870 0001:00005315
  1872 0001:0000531c  1873 0001:00005320  1874 0001:0000532e  1875 0001:00005330
  1877 0001:00005334  1879 0001:00005340  1880 0001:0000534f  1881 0001:00005356
  1882 0001:00005365  1884 0001:00005373  1887 0001:00005379  1888 0001:00005382
  1890 0001:0000538c  1891 0001:00005390  1892 0001:0000539e  1894 0001:000053af
  1896 0001:000053c0  1898 0001:000053ce  1900 0001:000053d7  1901 0001:000053f0
  1902 0001:000053fb  1905 0001:0000540c  1906 0001:00005423  1908 0001:0000542a
  1909 0001:00005437  1910 0001:0000543e  1911 0001:00005448  1912 0001:0000544a
  1914 0001:00005454  1916 0001:00005456  1917 0001:00005463  1918 0001:0000546a
  1920 0001:00005474  1921 0001:00005486  1922 0001:0000549f  1923 0001:000054a6
  1924 0001:000054b3  1926 0001:000054c2  1928 0001:000054cf  1929 0001:000054df
  1930 0001:000054ef  1931 0001:000054fb  1932 0001:0000550c  1933 0001:0000551e
  1934 0001:0000552a  1935 0001:00005535  1938 0001:00005543  1939 0001:0000556d
  1940 0001:00005587  1941 0001:0000559a  1942 0001:000055ab  1943 0001:000055bc
  1944 0001:000055c0  1945 0001:000055d8  1946 0001:000055df  1948 0001:000055f2
  1949 0001:00005604  2004 0001:00005614  2005 0001:00005617  2006 0001:0000562d
  2009 0001:0000562e  2010 0001:00005632  2012 0001:0000563d  2013 0001:00005648
  2015 0001:0000564b  2016 0001:0000564d  2017 0001:00005658  2021 0001:00005659
  2024 0001:0000565f  2069 0001:0000568d  2070 0001:00005699  2059 0001:0000569b
  2062 0001:000056a0  2049 0001:000056a2  2050 0001:000056a7  2051 0001:000056aa
  2052 0001:000056ac  2055 0001:000056b9  2031 0001:000056bb  2032 0001:000056bd
  2024 0001:000056bf  2034 0001:000056ef  2035 0001:000056f6  2040 0001:00005701
  2042 0001:00005703  2045 0001:0000570a  2027 0001:0000570c  2028 0001:00005710
  2090 0001:00005712  2092 0001:00005716  2093 0001:0000571c  2096 0001:00005721
  2098 0001:0000572c  2099 0001:00005730  2100 0001:0000573c  2101 0001:00005751
  2105 0001:00005756  2106 0001:00005769  2111 0001:0000576d  2109 0001:0000576d
  2112 0001:00005775  2113 0001:0000577c  2121 0001:0000577f  2122 0001:00005792
  2125 0001:000057a1  2129 0001:000057b9  2130 0001:000057c6  2194 0001:000057e1
  2198 0001:000057eb  2199 0001:000057f8  2201 0001:00005805  2202 0001:0000580c
  2203 0001:0000580e  2207 0001:0000581a  2185 0001:0000581f  2186 0001:0000582a
  2187 0001:0000582e  2188 0001:00005834  2190 0001:0000583a  2136 0001:0000583f
  2139 0001:00005848  2140 0001:00005853  2141 0001:00005865  2142 0001:00005873
  2145 0001:00005881  2146 0001:00005893  2148 0001:00005896  2149 0001:000058a1
  2150 0001:000058a4  2152 0001:000058af  2153 0001:000058b6  2156 0001:000058bd
  2157 0001:000058c8  2158 0001:000058cf  2161 0001:000058dc  2162 0001:000058e2
  2163 0001:000058e5  2164 0001:000058fb  2173 0001:00005901  2175 0001:00005913
  2176 0001:00005924  2177 0001:00005928  2179 0001:00005947  2181 0001:00005955
  2213 0001:0000596f  2214 0001:00005981  2217 0001:00005995  2218 0001:000059a2
  2298 0001:000059bd  2302 0001:000059c7  2303 0001:000059d4  2305 0001:000059e1
  2306 0001:000059e8  2307 0001:000059ea  2311 0001:000059f6  2289 0001:000059fb
  2290 0001:00005a06  2291 0001:00005a0a  2292 0001:00005a10  2294 0001:00005a16
  2224 0001:00005a1b  2227 0001:00005a24  2228 0001:00005a2f  2229 0001:00005a41
  2230 0001:00005a4f  2233 0001:00005a5d  2234 0001:00005a6f  2248 0001:00005a72
  2249 0001:00005a7d  2250 0001:00005a80  2252 0001:00005a8b  2253 0001:00005a92
  2256 0001:00005a99  2257 0001:00005aa4  2258 0001:00005aab  2261 0001:00005ab8
  2262 0001:00005abb  2263 0001:00005acb  2264 0001:00005ace  2266 0001:00005ad0
  2267 0001:00005ad6  2268 0001:00005add  2269 0001:00005af1  2278 0001:00005af5
  2280 0001:00005b08  2281 0001:00005b19  2282 0001:00005b1d  2283 0001:00005b46
  2285 0001:00005b54  2317 0001:00005b78  2318 0001:00005b8a  2456 0001:00005b9e
  2455 0001:00005b9e  2457 0001:00005bbc  2461 0001:00005bbf  2462 0001:00005bc7
  2464 0001:00005bcc  2465 0001:00005bd4  2467 0001:00005bdc  2468 0001:00005bef
  2470 0001:00005bf3  2471 0001:00005bfb  2472 0001:00005c0c  2473 0001:00005c17
  2474 0001:00005c36  2475 0001:00005c49  2477 0001:00005c4d  2479 0001:00005c51
  2480 0001:00005c56  2482 0001:00005c59  2483 0001:00005c5b  2485 0001:00005c5d
  2487 0001:00005c64  2489 0001:00005c68  2490 0001:00005c6d  2492 0001:00005c70
  2493 0001:00005c72  2495 0001:00005c74  2496 0001:00005c88  2528 0001:00005c8c
  2529 0001:00005c94  2530 0001:00005c9a  2536 0001:00005ca4  2537 0001:00005cb5
  2540 0001:00005cc1  2541 0001:00005cc9  2545 0001:00005ce2  2557 0001:00005ce8
  2559 0001:00005ced  2565 0001:00005d19  2568 0001:00005d36  2571 0001:00005d3a
  2573 0001:00005d48  2577 0001:00005d62  2588 0001:00005d66  2590 0001:00005d6b
  2596 0001:00005d97  2599 0001:00005db8  2600 0001:00005dc5  2605 0001:00005dc7
  2603 0001:00005dc7  2606 0001:00005dcb  2607 0001:00005dd2  2608 0001:00005de8
  2609 0001:00005df6  2614 0001:00005df9  2612 0001:00005df9  2615 0001:00005dfd
  2616 0001:00005e04  2617 0001:00005e1a  2618 0001:00005e28  2363 0001:0000adca
  2364 0001:0000add1  2367 0001:0000add6  2368 0001:0000ade8  2370 0001:0000adf4
  2372 0001:0000adff  2374 0001:0000ae03  2376 0001:0000ae13  2377 0001:0000ae17
  2381 0001:0000ae1d  2382 0001:0000ae27  2384 0001:0000ae2b  2385 0001:0000ae30
  2389 0001:0000ae34  2391 0001:0000ae3b  2392 0001:0000ae4e  2394 0001:0000ae55
  2396 0001:0000ae5e  2397 0001:0000ae62  2399 0001:0000ae70  2403 0001:0000ae72
  2405 0001:0000ae7b  2406 0001:0000ae82  2408 0001:0000ae8b  2409 0001:0000ae8f

Line numbers for .\Release\VSNetToolWinShim.obj(d:\dev\booktwo\disk\simpletoolwindow\vsnettoolhostshim\vsnettoolwinshim.h) segment .text

    28 0001:00007354    31 0001:0000739a    32 0001:0000739e    33 0001:000073ac
    42 0001:000073bf    76 0001:00007438    77 0001:00007441    78 0001:0000745a
    79 0001:00007479    85 0001:0000747f    83 0001:0000747f    89 0001:000074aa
    88 0001:000074aa    91 0001:000074b5    92 0001:000074c1    94 0001:000074c9
    95 0001:000074cb    98 0001:000074ce   104 0001:000074cf   106 0001:000074d1
   109 0001:000074ec   110 0001:000074ee   107 0001:000074f1

Line numbers for .\Release\VSNetToolWinShim.obj(d:\dev\booktwo\disk\simpletoolwindow\vsnettoolhostshim\vsnettoolwinshim.cpp) segment .text

    21 0001:00007546    19 0001:00007546    22 0001:0000754a    23 0001:0000756a
    24 0001:0000756c    27 0001:0000756f    28 0001:00007571    29 0001:0000757e
    30 0001:00007589    31 0001:00007594    32 0001:000075a1    33 0001:000075a9
    42 0001:000075aa    43 0001:000075b9    46 0001:000075cb    51 0001:000075ce
    52 0001:000075f1    58 0001:000075fb    59 0001:00007611    70 0001:00007623
    73 0001:00007630    78 0001:0000764b    81 0001:00007651    86 0001:0000765f
    88 0001:00007673    90 0001:0000767a    91 0001:0000767f    95 0001:0000769e
   100 0001:000076ae   106 0001:000076c0   108 0001:000076c9   109 0001:000076cf
   110 0001:000076d9   114 0001:000076dc   117 0001:000076f7   121 0001:0000770f
   123 0001:00007723   125 0001:00007730   126 0001:0000774e   127 0001:00007757
   129 0001:00007774   130 0001:00007788   131 0001:00007794   132 0001:000077b2
   133 0001:000077c0    65 0001:000077e7    66 0001:000077ec   134 0001:00007813
   140 0001:00007824   142 0001:00007834   143 0001:0000783c   144 0001:0000785b
   146 0001:00007865   147 0001:0000787b   155 0001:0000788d   156 0001:0000789a
   161 0001:000078b5   163 0001:000078bb   164 0001:000078c8   165 0001:000078de
   168 0001:000078e2   169 0001:000078e7   172 0001:000078ff   177 0001:0000790f
   183 0001:00007921   184 0001:00007930   185 0001:0000793c   186 0001:0000795a
   187 0001:00007968   180 0001:0000797e   181 0001:00007983   151 0001:00007985
   152 0001:0000798a   188 0001:000079a0   191 0001:000079b1   192 0001:000079c0
   193 0001:000079c7   194 0001:000079e4   197 0001:000079e9   199 0001:000079eb
   200 0001:000079f3   203 0001:000079fa   205 0001:00007a10   206 0001:00007a1e
   211 0001:00007a29   218 0001:00007a3a   209 0001:00007a51   219 0001:00007a61
   222 0001:00007a70   230 0001:00007a77   231 0001:00007a84   232 0001:00007a8b
   233 0001:00007a8d   235 0001:00007a8f   236 0001:00007a96   238 0001:00007a98
   240 0001:00007a9e   241 0001:00007aae   242 0001:00007aba   243 0001:00007abf
   245 0001:00007ac6   247 0001:00007ad2   248 0001:00007ad8   249 0001:00007adc
   250 0001:00007ae2   252 0001:00007af1   253 0001:00007af8   254 0001:00007b03
   256 0001:00007b0c   257 0001:00007b10   260 0001:00007b12   266 0001:00007b18
   267 0001:00007b28   269 0001:00007b2e   270 0001:00007b38   272 0001:00007b42
   273 0001:00007b4e   274 0001:00007b5b   276 0001:00007b63   277 0001:00007b6c
   280 0001:00007b73   282 0001:00007b8a   284 0001:00007b94   286 0001:00007b9f
   287 0001:00007ba2

Line numbers for .\Release\VSNetToolWinShim.obj(g:\vsnet\vc7\atlmfc\include\atlwin.h) segment .text

   202 0001:00002678   203 0001:0000267b   204 0001:00002681   205 0001:00002688
   206 0001:0000268f   207 0001:00002696   208 0001:000026a2   209 0001:000026a8
   246 0001:000026ab   247 0001:000026ae   248 0001:000026c6   377 0001:000026ca
   376 0001:000026ca   381 0001:000026d8   383 0001:000026dc   384 0001:000026df
   386 0001:000026e2   388 0001:000026e4   389 0001:000026e7   397 0001:000026e9
   398 0001:000026f4   399 0001:000026f7   400 0001:000026f9   407 0001:00002703
   408 0001:0000270a   409 0001:0000270d   410 0001:0000270f   413 0001:00002719
   416 0001:00002723   421 0001:00002729   422 0001:0000272d   423 0001:00002730
   424 0001:00002732   425 0001:00002734   429 0001:0000273e   430 0001:00002745
   440 0001:00002746   435 0001:00002746   441 0001:0000274d   442 0001:00002750
   443 0001:00002752   445 0001:00002755   446 0001:0000275c   447 0001:0000275f
   448 0001:00002761   450 0001:0000276b   451 0001:00002772   452 0001:00002775
   453 0001:00002777   459 0001:00002781   458 0001:0000278d   459 0001:00002794
   462 0001:0000279a   463 0001:000027a4   468 0001:000027a5   493 0001:000027a7
   472 0001:000027a9   473 0001:000027ac   475 0001:000027ae   476 0001:000027b3
   481 0001:000027b4   493 0001:000027c0   469 0001:000027c4   495 0001:000027c8
   496 0001:000027cc   483 0001:000027cd   486 0001:000027d2   488 0001:000027d4
   489 0001:000027da   499 0001:000027df   503 0001:000027df   504 0001:000027ee
   507 0001:000027f5   511 0001:000027f6   513 0001:000027fd   517 0001:0000280b
   520 0001:0000281c   522 0001:00002834   532 0001:00002838   520 0001:0000283f
   534 0001:00002842   538 0001:0000284c   542 0001:00002859   545 0001:0000285f
   547 0001:00002866   550 0001:00002868   553 0001:00002872   557 0001:00002876
   558 0001:0000287c   561 0001:00002883   563 0001:0000288e   564 0001:0000289c
   567 0001:000028a1   569 0001:000028b9   576 0001:000028bf   580 0001:000028c9
   582 0001:000028db   585 0001:000028e1   589 0001:000028e3   590 0001:000028ed
   593 0001:000028f3   574 0001:00002904   596 0001:00002907   598 0001:0000290c
   599 0001:00002911   602 0001:00002913   603 0001:0000292a   604 0001:00002934
   605 0001:0000293a   611 0001:00002941   612 0001:00002957   613 0001:00002959
   616 0001:0000295f   617 0001:00002975   618 0001:00002977   621 0001:0000297d
   622 0001:00002993   623 0001:00002995   625 0001:0000299b   627 0001:000029a8
   628 0001:000029bc   630 0001:000029d8   631 0001:000029ea   632 0001:00002a04
   633 0001:00002a0a   634 0001:00002a18   635 0001:00002a1b   640 0001:00002a28
   657 0001:00002a3b   661 0001:00002a49   644 0001:00002a4b   645 0001:00002a5e
   646 0001:00002a60   648 0001:00002a62   650 0001:00002a66   652 0001:00002a6d
   653 0001:00002a8c   655 0001:00002a97   662 0001:00002a9a   707 0001:00002ab0
   709 0001:00002ab3   710 0001:00002aba   714 0001:00002abf   716 0001:00002afa
  1690 0001:00002afe  1693 0001:00002b0c  1695 0001:00002b28  1696 0001:00002b3c
  2234 0001:00002b48  2235 0001:00002b49  2236 0001:00002b5c  4067 0001:00002b5f
  4072 0001:00002b6e  4073 0001:00002b81  4074 0001:00002b8d  4076 0001:00002b90
  4078 0001:00002b9b  4080 0001:00002b9d  4082 0001:00002ba7  4085 0001:00002bb7
  4086 0001:00002bc9  4089 0001:00002bd7  4090 0001:00002be0  4093 0001:00002be8
  4094 0001:00002bf7  4097 0001:00002c10  4099 0001:00002c2d  4100 0001:00002c37
  4104 0001:00002c3e  4105 0001:00002c4b  4108 0001:00002c56  4109 0001:00002c68
  4110 0001:00002c6e  4111 0001:00002c77  4112 0001:00002c7f  4113 0001:00002c84
  4114 0001:00002c93  4115 0001:00002c9e  4117 0001:00002ca0  4121 0001:00002ca8
  4122 0001:00002cae  4123 0001:00002cb3  4124 0001:00002cbe  4130 0001:00002ccd
  4133 0001:00002cdd  4134 0001:00002cf2  4137 0001:00002cfc  4138 0001:00002d09
  4142 0001:00002d10  4143 0001:00002d1e  4145 0001:00002d22  4146 0001:00002d2a
  4151 0001:00002d2e  4152 0001:00002d3d  4153 0001:00002d48  4157 0001:00002d4c
  4161 0001:00002d5e  4162 0001:00002d70  4165 0001:00002d7c  4166 0001:00002d86
  4174 0001:00002d88  4175 0001:00002d97  4176 0001:00002da3  4187 0001:00002db2
  4184 0001:00002db2  4188 0001:00002dc4  4192 0001:00002dc5  4191 0001:00002dc5
  4195 0001:00002dcb  4196 0001:00002dcd  4197 0001:00002dd0  4198 0001:00002dd2
  4200 0001:00002dd5  4201 0001:00002ddc  4202 0001:00002ddf  4203 0001:00002de1
  4205 0001:00002deb  4206 0001:00002df2  4207 0001:00002df5  4208 0001:00002df7
  4210 0001:00002e01  4213 0001:00002e0b  4217 0001:00002e0c  4216 0001:00002e0c
  4218 0001:00002e12  4232 0001:00002e1d  4221 0001:00002e1e  4222 0001:00002e25
  4224 0001:00002e2f  4226 0001:00002e37  4227 0001:00002e4b  4229 0001:00002e5a
  4231 0001:00002e5f  4232 0001:00002e62  4235 0001:00002e63  4236 0001:00002e63
  4238 0001:00002e6b  4239 0001:00002e71  4241 0001:00002e75  4243 0001:00002e77
  4244 0001:00002e7d  4246 0001:00002e84  4323 0001:00005e2b  4319 0001:00005e2b
  4325 0001:00005e41  4350 0001:00005e42  4351 0001:00005e48  4353 0001:00005e52
  4354 0001:00005e5b  4357 0001:00005e6a  4352 0001:00005e70  4358 0001:00005e74
  4450 0001:00005e78  4451 0001:00005e79  4461 0001:00005e7f  4468 0001:00005e85
  4470 0001:00005e8c  4471 0001:00005e8e  4473 0001:00005e93  4474 0001:00005e97
  4475 0001:00005e9b  4478 0001:00005ea3  4480 0001:00005eab  4483 0001:00005ec2
  4481 0001:00005ec8  4484 0001:00005ed7  4490 0001:00005eda  4494 0001:00005ede
  4496 0001:00005ee6  4497 0001:00005ef3  4498 0001:00005efc  4500 0001:00005f09
  4501 0001:00005f1d  4502 0001:00005f2e  4505 0001:00005f31  4509 0001:00005f35
  4511 0001:00005f3d  4512 0001:00005f4a  4513 0001:00005f53  4515 0001:00005f60
  4516 0001:00005f74  4517 0001:00005f85  3122 0001:00007bea  3123 0001:00007bef
  3124 0001:00007bf9  3125 0001:00007bff  3127 0001:00007c0d  3131 0001:00007c19
  3132 0001:00007c1e  3135 0001:00007c21  3136 0001:00007c40  2943 0001:00007c44
  2942 0001:00007c44  2944 0001:00007c49  2959 0001:00007c4a  2958 0001:00007c4a
  2960 0001:00007c4d  2961 0001:00007c4f  2962 0001:00007c53  2964 0001:00007c63
  2967 0001:00007c64  2969 0001:00007c64  2973 0001:00007c7c  3122 0001:00007c7f
  3123 0001:00007c84  3124 0001:00007c8e  3125 0001:00007c94  3127 0001:00007ca2
  3131 0001:00007cae  3132 0001:00007cb3  3135 0001:00007cb6  3136 0001:00007cd5
  3415 0001:00008f37  3416 0001:00008f37  3417 0001:00008f3c  3490 0001:00008f3d
  3492 0001:00008f4c  3493 0001:00008f68  3495 0001:00008f6c  3496 0001:00008f70
  3498 0001:00008f7a  3499 0001:00008f83  3500 0001:00008f87  3503 0001:00008f91
  3504 0001:00008f9c  3506 0001:00008fa6  3508 0001:00008faf  3510 0001:00008fb7
  3511 0001:00008fbe  3514 0001:00008fc6  3515 0001:00008fd4  3518 0001:00008fe9
  3519 0001:00008ff5  3522 0001:00009003  3524 0001:00009012  3525 0001:00009020
  3528 0001:00009033  3529 0001:00009047  3530 0001:0000904a  3532 0001:00009051
  3533 0001:0000905c  3535 0001:00009064  3537 0001:0000906b  3538 0001:00009078
  3539 0001:0000907f  3548 0001:0000908e  3549 0001:00009091  3550 0001:000090a1
  3552 0001:000090ad  3557 0001:000090b5  3563 0001:000090c2  3567 0001:000090d3
  3571 0001:000090e7  3575 0001:00009100  3578 0001:00009119  3593 0001:00009129
  3595 0001:00009178  3598 0001:0000917f  3599 0001:0000918a  3601 0001:00009192
  3602 0001:000091a4  3605 0001:000091af  3606 0001:000091b5  3607 0001:000091b8
  3608 0001:000091c8  3610 0001:000091cb  3612 0001:000091cd  3615 0001:000091d5
  3616 0001:000091ef  3618 0001:000091f1  3619 0001:000091f7  3621 0001:00009205
  3602 0001:00009223  3544 0001:00009225  3603 0001:00009237  3624 0001:00009251
  3628 0001:00009253  3631 0001:0000925b  2145 0001:00009402  2146 0001:00009405
  2147 0001:00009427  2151 0001:0000942b  2150 0001:0000942b  2152 0001:00009449
  3222 0001:0000a107  3225 0001:0000a10d  3226 0001:0000a12e  3228 0001:0000a136
  3229 0001:0000a13e  3231 0001:0000a146  3232 0001:0000a14f  3234 0001:0000a157
  3235 0001:0000a160  3237 0001:0000a171  3238 0001:0000a173  3239 0001:0000a178
  3242 0001:0000a17d  3244 0001:0000a186  3248 0001:0000a1ba  3252 0001:0000a1c2
  3253 0001:0000a1c6  3254 0001:0000a1fd  3255 0001:0000a21e  3257 0001:0000a222
  3262 0001:0000a22f  3263 0001:0000a232  2162 0001:0000a23c  2167 0001:0000a24a
  2168 0001:0000a252  2172 0001:0000a263  2173 0001:0000a267  2176 0001:0000a290
  2178 0001:0000a293  2181 0001:0000a2b7  2183 0001:0000a2bb  2184 0001:0000a2c2
  2186 0001:0000a2ca  2188 0001:0000a2cf  2193 0001:0000a2e1  2194 0001:0000a302
  3440 0001:0000a315  3442 0001:0000a317  3447 0001:0000a324  3450 0001:0000a343
  3268 0001:0000a705  3269 0001:0000a707  3271 0001:0000a711  3272 0001:0000a717
  3273 0001:0000a72b  3274 0001:0000a72e  3282 0001:0000a738  3283 0001:0000a749
  3287 0001:0000a74c  3290 0001:0000a753  3291 0001:0000a770  3295 0001:0000a773
  3298 0001:0000a78f  3300 0001:0000a792  3302 0001:0000a79b  3317 0001:0000a7c7
  3318 0001:0000a7cd  3321 0001:0000a7cf  3325 0001:0000a7dc  3328 0001:0000a7e6
  3331 0001:0000a7ea  3334 0001:0000a7f6  3336 0001:0000a7f9  3338 0001:0000a7ff
  3340 0001:0000a80a  3341 0001:0000a810  2985 0001:0000a814  2986 0001:0000a816
  2988 0001:0000a820  2989 0001:0000a826  2990 0001:0000a83a  2991 0001:0000a83d
  2999 0001:0000a847  3000 0001:0000a858  3004 0001:0000a85b  3007 0001:0000a862
  3008 0001:0000a87d  3012 0001:0000a880  3017 0001:0000a89e  3019 0001:0000a8a6
  3020 0001:0000a8b0  3021 0001:0000a8c3  3024 0001:0000a8c5  3025 0001:0000a8d3
  3026 0001:0000a8e7  3027 0001:0000a8ff  3029 0001:0000a90d  3032 0001:0000a912
  3035 0001:0000a91f  3036 0001:0000a922  3037 0001:0000a926  3039 0001:0000a92c
  3041 0001:0000a934  3042 0001:0000a939  3047 0001:0000a93d  3050 0001:0000a940
  3051 0001:0000a947  3053 0001:0000a94d  3055 0001:0000a95c  3056 0001:0000a968
  3057 0001:0000a96b  3058 0001:0000a972  3063 0001:0000a977  3067 0001:0000a997
  3068 0001:0000a9af  3075 0001:0000a9b3  3072 0001:0000a9b3  3077 0001:0000a9c4
  3078 0001:0000a9d0  3083 0001:0000a9d4  3080 0001:0000a9d5  3082 0001:0000a9d8
  3083 0001:0000a9de  3093 0001:0000a9df  3089 0001:0000a9df  3095 0001:0000a9f1
  3096 0001:0000a9f3  3098 0001:0000a9fd  3101 0001:0000aa11  3102 0001:0000aa19
  3103 0001:0000aa1c  3106 0001:0000aa21  4363 0001:0000ae91  4364 0001:0000ae99
  4371 0001:0000aeb2  4373 0001:0000aebc  4374 0001:0000aebf  4380 0001:0000aec9
  4382 0001:0000aed7  4385 0001:0000aede  4386 0001:0000aee4  4391 0001:0000aeea
  4394 0001:0000af03  4397 0001:0000af15  4368 0001:0000af1d  4435 0001:0000af22
  4400 0001:0000af24  4401 0001:0000af2e  4405 0001:0000af31  4408 0001:0000af45
  4411 0001:0000af5e  4412 0001:0000af61  4413 0001:0000af65  4415 0001:0000af6e
  4416 0001:0000af7a  4420 0001:0000af7d  4421 0001:0000af99  4423 0001:0000afa2
  4426 0001:0000afaf  4428 0001:0000afb9  4432 0001:0000afbe  4434 0001:0000afc6
  3677 0001:0000b00b  3679 0001:0000b00e  3682 0001:0000b01c  3684 0001:0000b02b
  3685 0001:0000b034  3686 0001:0000b041  3689 0001:0000b045  3690 0001:0000b056
  2063 0001:0000b177  2065 0001:0000b182  2066 0001:0000b188  2068 0001:0000b191
  2069 0001:0000b193  2070 0001:0000b199  2071 0001:0000b1a6  2072 0001:0000b1af
  2073 0001:0000b1ba  2074 0001:0000b1cc

Line numbers for .\Release\VSNetToolWinShim.obj(g:\vsnet\vc7\atlmfc\include\atlsimpcoll.h) segment .text

   139 0001:00007ba4   140 0001:00007ba4   143 0001:00007baf   144 0001:00007bbb
   145 0001:00007bc7   147 0001:00007bcd   148 0001:00007bd0   150 0001:00007bd2
   151 0001:00007be0   152 0001:00007be3   153 0001:00007be7   247 0001:000093ec
   246 0001:000093ec   248 0001:000093ff

Line numbers for .\Release\VSNetToolWinShim.obj(g:\vsnet\vc7\atlmfc\include\atlctl.h) segment .text

   193 0001:00005f88   194 0001:00005f96   196 0001:00005fa8   197 0001:00005fb0
   198 0001:00005fb3   199 0001:00005fbf   201 0001:00005fc2   202 0001:00005fc5
   203 0001:00005fce   205 0001:00005fd5   258 0001:00006025   259 0001:00006032
   261 0001:0000603b   262 0001:0000603e   263 0001:00006051   264 0001:00006058
   265 0001:0000606f   266 0001:0000607f   267 0001:0000608d   268 0001:00006098
   269 0001:000060b6   271 0001:000060b9   273 0001:000060cd   274 0001:000060d9
   275 0001:000060ea   276 0001:0000610b   277 0001:00006115   278 0001:00006118
   279 0001:0000612c   281 0001:0000613d   283 0001:0000614a   286 0001:0000615d
   288 0001:00006168   289 0001:0000616b   290 0001:0000617e   291 0001:00006185
   292 0001:000061a1   293 0001:000061af   295 0001:000061b2   304 0001:000061c7
   302 0001:000061c7   305 0001:000061d3   307 0001:000061e2   325 0001:000061e5
   326 0001:000061ec   327 0001:000061f6   329 0001:00006207   330 0001:00006211
   331 0001:0000621e   396 0001:00006222   397 0001:00006229   398 0001:00006233
   400 0001:00006244   401 0001:0000624e   402 0001:0000625b   438 0001:0000625f
   439 0001:00006266   440 0001:00006270   441 0001:00006281   444 0001:00006285
   446 0001:00006293   448 0001:000062a3   449 0001:000062b0   614 0001:000062b4
   616 0001:000062b4   617 0001:000062b8   618 0001:000062bf   620 0001:000062ca
   621 0001:000062cc   623 0001:000062ce   624 0001:000062d8   627 0001:000062db
   628 0001:000062dc   629 0001:000062de   633 0001:000062e7   637 0001:000062ea
   638 0001:000062fd   639 0001:00006300   640 0001:00006303   644 0001:00006306
   643 0001:00006306   645 0001:00006308   651 0001:0000631b   655 0001:0000631e
   733 0001:00006324   736 0001:00006331   740 0001:00006352   741 0001:00006354
   742 0001:0000635d   745 0001:0000635f   746 0001:00006367   747 0001:0000637a
   748 0001:0000637d   749 0001:00006391   750 0001:00006394   751 0001:000063a8
   752 0001:000063ab   754 0001:000063bf   757 0001:000063d3   759 0001:000063df
   762 0001:000063e6   765 0001:000063f4   766 0001:000063f8   768 0001:0000640c
   771 0001:00006413   772 0001:0000641a   774 0001:00006421   775 0001:00006430
   776 0001:00006434   778 0001:00006444   780 0001:00006455   784 0001:0000645c
   786 0001:0000646c   789 0001:00006471   790 0001:00006478   792 0001:0000647f
   793 0001:0000648d   794 0001:00006491   796 0001:000064a1   800 0001:000064b2
   801 0001:000064b9   803 0001:000064c5   804 0001:000064cc   806 0001:000064d6
   807 0001:000064dd   808 0001:000064e7   755 0001:00006540   737 0001:0000658b
   809 0001:00006590   812 0001:000065a9   813 0001:000065ac   815 0001:000065b4
   816 0001:000065bc   817 0001:000065c9   819 0001:000065cb   825 0001:000065dc
   827 0001:000065e0   828 0001:000065f5   829 0001:000065ff   832 0001:00006615
   833 0001:00006627   834 0001:0000662e   838 0001:00006633   839 0001:00006637
   842 0001:00006638   844 0001:00006646   845 0001:0000664f   846 0001:00006652
   848 0001:00006662   850 0001:00006669   851 0001:00006671   852 0001:00006675
   855 0001:000066ae   856 0001:000066b1   859 0001:000066c5   860 0001:000066d5
   862 0001:000066e0   863 0001:000066ea   865 0001:000066f5   866 0001:00006705
   870 0001:00006712   873 0001:00006721   874 0001:0000672f   877 0001:00006736
   879 0001:00006759   881 0001:00006761   883 0001:00006763   885 0001:0000676a
   888 0001:0000676f   890 0001:00006771   893 0001:00006778   894 0001:000067be
   897 0001:000067ce   900 0001:000067df   901 0001:000067e6   903 0001:000067ee
   904 0001:000067f1   907 0001:00006804   909 0001:0000680b   911 0001:0000680f
   913 0001:00006820   915 0001:00006829   917 0001:0000682d   920 0001:00006837
   922 0001:0000683d   924 0001:0000683f   927 0001:00006843   929 0001:00006845
   930 0001:00006853   931 0001:00006857   932 0001:0000685b   933 0001:0000685d
   938 0001:0000686b   939 0001:00006872   941 0001:0000688d   943 0001:00006894
   947 0001:00006899   948 0001:000068a1   949 0001:000068ad   951 0001:000068af
   952 0001:000068b2   953 0001:000068b7   955 0001:000068b9   957 0001:000068bf
  1013 0001:000068c3   958 0001:000068d4   962 0001:000068db   964 0001:000068dd
   969 0001:000068e6   976 0001:000068ea   977 0001:000068ed   980 0001:000068f4
   983 0001:0000690c   985 0001:00006929   987 0001:0000692f   988 0001:0000693c
   999 0001:00006945  1002 0001:00006956  1003 0001:00006959  1006 0001:0000696d
  1008 0001:0000697e  1010 0001:00006989  1011 0001:0000698f  1012 0001:0000699a
  1013 0001:0000699e   991 0001:000069d9   994 0001:000069e7   995 0001:000069ef
  1015 0001:00006a19  1018 0001:00006a23  1020 0001:00006a2a  1021 0001:00006a31
  1022 0001:00006a3b  1023 0001:00006a42  1026 0001:00006a4c  1027 0001:00006a53
  1028 0001:00006a5a  1029 0001:00006a61  1033 0001:00006a6b  1035 0001:00006a74
  1036 0001:00006aba  1039 0001:00006aca  1040 0001:00006ad9  1041 0001:00006adb
  1043 0001:00006ae0  1044 0001:00006ae6  1045 0001:00006afa  1046 0001:00006b0c
  1048 0001:00006b1d  1051 0001:00006b2f  1053 0001:00006b31  1054 0001:00006b3b
  1055 0001:00006b4d  1058 0001:00006b53  1060 0001:00006b5f  1061 0001:00006b62
  1064 0001:00006b63  1066 0001:00006b63  1067 0001:00006b67  1073 0001:00006b6c
  1069 0001:00006b6d  1070 0001:00006b72  1071 0001:00006b78  1072 0001:00006b81
  1073 0001:00006b83  1077 0001:00006b84  1079 0001:00006b85  1080 0001:00006b8f
  1081 0001:00006b96  1082 0001:00006b9a  1084 0001:00006bab  1087 0001:00006bae
  1088 0001:00006bbb  1089 0001:00006bc0  1091 0001:00006bd3  1093 0001:00006bda
  1094 0001:00006be1  1097 0001:00006be8  1099 0001:00006bee  1100 0001:00006bf9
  1101 0001:00006bfd  1104 0001:00006c15  1107 0001:00006c1e  1108 0001:00006c29
  1109 0001:00006c34  1115 0001:00006c39  1117 0001:00006c4a  1118 0001:00006c51
  1119 0001:00006c57  1122 0001:00006c64  1125 0001:00006c74  1126 0001:00006c78
  1127 0001:00006c88  1128 0001:00006c9b  1131 0001:00006cab  1132 0001:00006cb6
  1133 0001:00006cc1  1136 0001:00006cd1  1137 0001:00006cd5  1138 0001:00006cd7
  1140 0001:00006ce0  1144 0001:00006ce4  1147 0001:00006ced  1148 0001:00006cf8
  1149 0001:00006d03  1152 0001:00006d09  1153 0001:00006d10  1155 0001:00006d16
  1156 0001:00006d27  1159 0001:00006d36  1161 0001:00006d46  1162 0001:00006d4b
  1164 0001:00006d51  1168 0001:00006d58  1170 0001:00006d65  1173 0001:00006d73
  1174 0001:00006d79  1180 0001:00006d7c  1181 0001:00006da4  1182 0001:00006dab
  1183 0001:00006db6  1184 0001:00006dbd  1185 0001:00006dcb  1188 0001:00006de9
  1191 0001:00006df4  1194 0001:00006e03  1195 0001:00006e0c  1198 0001:00006e1e
  1199 0001:00006e26  1205 0001:00006e34  1206 0001:00006e3c  1207 0001:00006e44
  1209 0001:00006e57  1210 0001:00006e6c  1213 0001:00006e78  1218 0001:00006e89
  1220 0001:00006e94  1223 0001:00006eac  1196 0001:00006eb1  1224 0001:00006eb7
  1227 0001:00006ebb  1228 0001:00006ebe  1229 0001:00006ec4  1230 0001:00006ece
  1231 0001:00006ed2  1234 0001:00006edd  1236 0001:00006ef7  1237 0001:00006efd
  1239 0001:00006f0f  1240 0001:00006f13  1242 0001:00006f26  1243 0001:00006f30
  1245 0001:00006f37  1247 0001:00006f46  1248 0001:00006f51  1251 0001:00006f58
  1253 0001:00006f63  1254 0001:00006f6c  1256 0001:00006f73  1257 0001:00006f77
  1262 0001:00006f7b  1278 0001:00006f81  1280 0001:00006f88  1281 0001:00006f8e
  1282 0001:00006f98  1286 0001:00006f9e  1294 0001:00006fae  1299 0001:00006fb5
  1300 0001:00006fba  1302 0001:00006fbe  1303 0001:00006fc0  1304 0001:00006fc9
  1307 0001:00006fcf  1309 0001:00006fdb  1310 0001:00006fe1  1311 0001:00006fe7
  1312 0001:00006fed  1313 0001:00006ff3  1314 0001:00006ff9  1315 0001:00006fff
  1317 0001:00007005  1318 0001:0000701e  1322 0001:00007022  1323 0001:0000702b
  1324 0001:00007036  1325 0001:00007040  1329 0001:00007049  1330 0001:00007055
  1333 0001:0000705f  1334 0001:00007067  1335 0001:00007070  1336 0001:00007072
  1337 0001:0000707b  1338 0001:00007083  1339 0001:0000708e  1340 0001:0000709b
  1344 0001:000070a1  1347 0001:000070b9  1350 0001:000070bd  1351 0001:000070c3
  1353 0001:000070c6  1355 0001:000070d4  1359 0001:000070f1  1360 0001:000070fb
  1361 0001:00007107  1362 0001:00007117  1363 0001:00007122  1365 0001:0000712d
  1366 0001:00007136  1367 0001:0000713d  1369 0001:00007144  1371 0001:00007153
  1373 0001:00007157  1374 0001:00007160  1377 0001:00007167  1378 0001:0000716e
  1380 0001:00007174  1381 0001:0000717a  1382 0001:0000717d  1384 0001:0000718d
  1385 0001:00007193  1386 0001:00007196  1388 0001:00007199  1389 0001:0000719e
  1392 0001:000071a2  1393 0001:000071a2  1396 0001:000071aa  1397 0001:000071b3
  1398 0001:000071be  1399 0001:000071cc  1401 0001:000071d6  1402 0001:000071d8
  1403 0001:000071e9  1404 0001:000071eb  1407 0001:000071ec  1410 0001:000071f2
  1411 0001:00007200  1412 0001:00007206  1413 0001:00007208  1414 0001:0000720e
  1415 0001:0000721a  1416 0001:0000722d  1422 0001:00007238  1427 0001:00007254
  1430 0001:0000725a  1428 0001:0000725c  1429 0001:00007263  1424 0001:00007265
  1425 0001:00007274  1431 0001:0000727a  1434 0001:0000727c  1435 0001:00007282
  1436 0001:00007287  1438 0001:00007295  1439 0001:000072a0  1441 0001:000072ae
  1442 0001:000072b7  1443 0001:000072cd  1445 0001:000072cf  1446 0001:000072de
  1447 0001:000072e7  1448 0001:000072f2  1449 0001:00007300  1450 0001:0000730c
  1453 0001:00007313  1455 0001:00007323  1456 0001:0000732b  1457 0001:00007333
  1458 0001:0000733c  1459 0001:00007340  1460 0001:0000734b  1461 0001:00007350
  1993 0001:000082c0  1994 0001:000082c0  1996 0001:000082cd  1997 0001:000082d4
  1998 0001:000082d7  1999 0001:000082d9  2000 0001:000082dc  2001 0001:000082de
  2054 0001:000082e1  2055 0001:000082e2  2057 0001:000082ef  2058 0001:000082fc
  2061 0001:000082ff  2060 0001:000082ff  2063 0001:0000830c  2064 0001:00008318
  2068 0001:0000831b  2066 0001:0000831b  2069 0001:0000831d  2071 0001:00008320
  2072 0001:00008321  2074 0001:00008325  2075 0001:0000833b  2186 0001:0000833e
  2187 0001:00008341  2192 0001:0000834d  2193 0001:00008355  2196 0001:0000835f
  2198 0001:00008366  2199 0001:00008374  2201 0001:00008379  2204 0001:0000837b
  2207 0001:0000838f  2208 0001:0000839d  2210 0001:0000839f  2211 0001:000083aa
  2213 0001:000083ac  2214 0001:000083b7  2216 0001:000083b9  2217 0001:000083c4
  2219 0001:000083c6  2220 0001:000083ce  2222 0001:000083d0  2223 0001:000083d2
  2228 0001:000083d5  2232 0001:000083e1  2234 0001:00008405  2237 0001:00008405
  2238 0001:0000840c  2239 0001:00008413  2240 0001:00008422  2244 0001:00008425
  2242 0001:00008425  2245 0001:00008427  2261 0001:0000842a  2263 0001:0000842a
  2264 0001:0000843d  2267 0001:00008440  2266 0001:00008440  2269 0001:0000844c
  2270 0001:00008462  2275 0001:00008465  2272 0001:00008465  2276 0001:0000846c
  2277 0001:00008473  2278 0001:0000847b  2273 0001:00008482  2279 0001:00008491
  2280 0001:0000849c  2281 0001:0000849e  2284 0001:000084a1  2283 0001:000084a1
  2286 0001:000084a5  2287 0001:000084be  2290 0001:000084c1  2289 0001:000084c1
  2293 0001:000084ce  2294 0001:000084da  2296 0001:000084e4  2298 0001:000084e7
  2299 0001:000084e7  2302 0001:000084eb  2303 0001:000084fc  2304 0001:00008503
  2306 0001:00008506  2307 0001:00008512  2309 0001:00008519  2311 0001:0000851c
  2313 0001:0000851c  2314 0001:0000852f  3059 0001:00008532  3061 0001:00008532
  3064 0001:0000853f  3065 0001:0000854a  3067 0001:0000854f  3069 0001:00008557
  3070 0001:0000855f  3073 0001:0000856d  3082 0001:00008570  3084 0001:0000857b
  3085 0001:00008585  3086 0001:0000858b  3087 0001:000085a1  3088 0001:000085a6
  3089 0001:000085ae  3090 0001:000085bc  3092 0001:000085c0  3095 0001:000085c6
  3096 0001:000085d8  3097 0001:000085d9  3098 0001:000085e2  3099 0001:000085e4
  3100 0001:000085ed  3101 0001:000085f0  3103 0001:000085fe  3104 0001:00008600
  3106 0001:00008603  3107 0001:0000861f  3114 0001:0000862e  3117 0001:0000862e
  3118 0001:00008643  3119 0001:0000864c  3120 0001:0000864e  2835 0001:00008651
  2839 0001:00008655  2840 0001:00008682  2844 0001:00008686  2843 0001:00008686
  2845 0001:0000868b  2855 0001:0000868e  2856 0001:0000868f  2858 0001:0000869d
  2859 0001:000086aa  2860 0001:000086ad  2867 0001:000086b0  2862 0001:000086b0
  2869 0001:000086bd  2870 0001:000086ca  2871 0001:000086cf  2872 0001:000086d5
  2873 0001:000086de  2876 0001:000086e0  2884 0001:000086e3  2881 0001:000086e3
  2885 0001:000086eb  2887 0001:000086f2  2888 0001:00008701  2889 0001:0000870c
  2890 0001:0000870e  2903 0001:00008711  2900 0001:00008711  2904 0001:00008719
  2907 0001:00008720  2908 0001:00008726  2909 0001:00008728  2911 0001:0000872b
  2914 0001:0000872f  2915 0001:00008736  2917 0001:0000873d  2919 0001:00008743
  2920 0001:0000875b  2922 0001:0000875f  2924 0001:00008762  2925 0001:00008768
  2927 0001:0000876c  2930 0001:00008773  2931 0001:0000877a  2933 0001:00008781
  2936 0001:00008787  2937 0001:000087a0  2939 0001:000087a4  2941 0001:000087a7
  2942 0001:000087ad  2948 0001:000087b1  2944 0001:000087b1  2953 0001:000087c1
  2955 0001:000087cd  2957 0001:000087e2  2958 0001:000087ed  2961 0001:000087ef
  2949 0001:000087f1  2962 0001:000087f6  2981 0001:000087f9  2979 0001:000087f9
  2984 0001:00008806  2985 0001:00008811  2987 0001:00008816  2989 0001:0000881e
  2990 0001:00008826  2993 0001:00008834  3002 0001:00008837  3003 0001:00008838
  3005 0001:00008845  3006 0001:0000884e  3008 0001:00008851  3009 0001:00008852
  3011 0001:0000885f  3012 0001:00008868  3014 0001:0000886b  3015 0001:0000886b
  3017 0001:0000886f  3018 0001:0000888b  3027 0001:0000888e  3029 0001:00008895
  3030 0001:00008899  3031 0001:000088b8  3033 0001:000088be  3037 0001:000088e2
  3038 0001:000088f3  2012 0001:00008b10  2013 0001:00008b10  2030 0001:00008b14
  2031 0001:00008b2d  2034 0001:00008b30  2033 0001:00008b30  2036 0001:00008b34
  2037 0001:00008b4e  2040 0001:00008b51  2039 0001:00008b51  2042 0001:00008b55
  2043 0001:00008b6f  3201 0001:00008b72  3199 0001:00008b72  3202 0001:00008b76
  3203 0001:00008b8f  3226 0001:00008b92  3228 0001:00008b97  3230 0001:00008ba5
  3231 0001:00008bad  3233 0001:00008bb4  3234 0001:00008bb8  3237 0001:00008bcf
  3241 0001:00008bd3  3239 0001:00008bd3  3243 0001:00008be0  3244 0001:00008be7
  3245 0001:00008bec  3246 0001:00008bee  3248 0001:00008bf8  3253 0001:00008bfb
  3250 0001:00008bfb  3254 0001:00008c03  3257 0001:00008c0a  3258 0001:00008c1a
  3259 0001:00008c21  3260 0001:00008c2a  3261 0001:00008c2f  1553 0001:00008c6b
  1555 0001:00008c72  1556 0001:00008c76  1557 0001:00008c87  1559 0001:00008c8a
  1560 0001:00008c8d  1561 0001:00008ca3  1575 0001:00008caa  1576 0001:00008caf
  1578 0001:00008cb6  1579 0001:00008cbd  1582 0001:00008cc2  1583 0001:00008cce
  1586 0001:00008cd2  1587 0001:00008ce1  1588 0001:00008cea  1590 0001:00008cfe
  1591 0001:00008d01  1627 0001:00008d03  1628 0001:00008d04  1630 0001:00008d0b
  1631 0001:00008d18  1632 0001:00008d1a  1633 0001:00008d1c  1634 0001:00008d24
  1635 0001:00008d2b  1636 0001:00008d2f  1637 0001:00008d34  1638 0001:00008d40
  1639 0001:00008d47  1640 0001:00008d4d  1823 0001:00008d4e  1824 0001:00008d51
  1825 0001:00008d5b  1826 0001:00008d6d  1827 0001:00008d71  1828 0001:00008d7a
  1829 0001:00008d7e  1832 0001:00008d81  1831 0001:00008d81  1834 0001:00008d89
  1835 0001:00008d94  1836 0001:00008d9a  1837 0001:00008dac  1838 0001:00008db2
  1839 0001:00008dc9  1840 0001:00008ddb  1841 0001:00008de6  1843 0001:00008dfe
  1844 0001:00008e00  1930 0001:00008e03  1931 0001:00008e13  1932 0001:00008e32
  1933 0001:00008e39  1934 0001:00008e55  1935 0001:00008e75  1936 0001:00008e94
  1937 0001:00008e9f  1938 0001:00008eaa  1939 0001:00008eb5  1942 0001:00008ecd
  1940 0001:00008ed5  1941 0001:00008eee  1515 0001:00008f1c  1513 0001:00008f1c
  1516 0001:00008f34  2095 0001:00009477  2096 0001:00009487  2098 0001:00009491
  2101 0001:0000949f  2102 0001:000094b2  2105 0001:000094c4  2106 0001:000094ce
  2107 0001:000094e5  2109 0001:000094f7  2115 0001:000094f7  2116 0001:0000950e
  2117 0001:00009512  2120 0001:00009514  2122 0001:00009517  2123 0001:00009517
  2128 0001:0000951e  2129 0001:00009534  2132 0001:00009538  2134 0001:00009541
  2135 0001:00009545  2138 0001:00009548  2137 0001:00009548  2139 0001:00009551
  2140 0001:00009553  2145 0001:00009559  2146 0001:00009567  2147 0001:0000956b
  2151 0001:0000956d  2153 0001:00009570  2154 0001:00009573  2159 0001:0000957c
  2160 0001:00009585  2161 0001:0000958f  2164 0001:00009598  2165 0001:0000959b
  1563 0001:00009694  1564 0001:00009694  1568 0001:000096a1  1571 0001:000096a5
  1572 0001:000096bc  1593 0001:000096bf  1594 0001:000096ca  1595 0001:000096d6
  1596 0001:000096de  1597 0001:000096ef  1598 0001:000096f7  1599 0001:00009703
  1600 0001:00009711  1602 0001:00009722  1604 0001:00009729  1608 0001:0000973b
  1610 0001:00009757  1614 0001:0000975b  1615 0001:00009769  1616 0001:00009775
  1617 0001:00009779  1619 0001:0000977d  1620 0001:0000977e  1621 0001:00009790
  1622 0001:00009795  1623 0001:0000979c  1624 0001:000097a5  1625 0001:000097a9
  1643 0001:000097ac  1644 0001:000097b9  1647 0001:000097c4  1650 0001:000097ed
  1651 0001:000097f3  1655 0001:0000980f  1657 0001:00009817  1660 0001:0000981f
  1661 0001:00009835  1664 0001:0000983b  1665 0001:00009848  1668 0001:0000985b
  1669 0001:0000985d  1672 0001:0000985f  1690 0001:00009881  1692 0001:00009885
  1693 0001:00009890  1694 0001:0000989d  1695 0001:000098a9  1648 0001:000098ae
  1788 0001:000098b0  1676 0001:000098c1  1678 0001:000098c5  1679 0001:000098d0
  1680 0001:000098df  1681 0001:000098ed  1682 0001:000098f0  1712 0001:000098f2
  1755 0001:0000990a  1717 0001:00009910  1718 0001:0000991d  1720 0001:00009925
  1722 0001:00009930  1723 0001:0000993f  1726 0001:00009947  1727 0001:00009950
  1729 0001:00009958  1731 0001:00009967  1732 0001:00009969  1734 0001:0000997b
  1737 0001:0000998f  1734 0001:000099b0  1737 0001:000099be  1739 0001:000099c0
  1743 0001:000099cd  1745 0001:000099d6  1746 0001:000099d8  1748 0001:000099dc
  1750 0001:000099de  1758 0001:000099eb  1760 0001:000099f5  1761 0001:000099fb
  1765 0001:00009a10  1769 0001:00009a28  1771 0001:00009a30  1774 0001:00009a38
  1776 0001:00009a56  1777 0001:00009a5b  1778 0001:00009a67  1780 0001:00009a6e
  1781 0001:00009a71  1782 0001:00009a83  1783 0001:00009a87  1784 0001:00009a90
  1785 0001:00009aa1  1787 0001:00009aaf  1791 0001:00009ab7  1790 0001:00009ab7
  1792 0001:00009aca  1795 0001:00009ad1  1796 0001:00009ade  1798 0001:00009ae6
  1801 0001:00009aec  1803 0001:00009af1  1804 0001:00009afd  1806 0001:00009b02
  1807 0001:00009b0a  1808 0001:00009b13  1810 0001:00009b1a  1811 0001:00009b1e
  1812 0001:00009b30  1813 0001:00009b34  1814 0001:00009b3d  1815 0001:00009b4e
  1817 0001:00009b5d  1818 0001:00009b61  1820 0001:00009b68  1866 0001:00009b75
  1868 0001:00009b79  1871 0001:00009b7f  1877 0001:00009ba9  1883 0001:00009bc4
  1884 0001:00009be1  1886 0001:00009bef  1879 0001:00009bf4  1881 0001:00009bff
  1873 0001:00009c01  1889 0001:00009c1b  1890 0001:00009c21  1891 0001:00009c24
  1894 0001:00009c25  1896 0001:00009c32  1897 0001:00009c3b  1899 0001:00009c46
  1901 0001:00009c56  1904 0001:00009c5e  1906 0001:00009c63  1908 0001:00009c6f
  1910 0001:00009c74  1911 0001:00009c7c  1912 0001:00009c85  1914 0001:00009c8c
  1915 0001:00009c90  1916 0001:00009ca2  1917 0001:00009ca6  1918 0001:00009caf
  1919 0001:00009cc0  1922 0001:00009cd0  1927 0001:00009cdc  1928 0001:00009cf0
  1493 0001:00009cfe

Line numbers for .\Release\VSNetToolWinShim.obj(g:\vsnet\vc7\atlmfc\include\atlconv.h) segment .text

   557 0001:0000ba57   554 0001:0000ba57   563 0001:0000ba63   564 0001:0000ba7c
   569 0001:0000ba82   558 0001:0000ba84   570 0001:0000ba86

Line numbers for .\Release\VSNetToolWinShim.obj(g:\vsnet\vc7\atlmfc\include\atlcom.h) segment .text

  3763 0001:00007cd9  3765 0001:00007cda  3766 0001:00007ce8  3767 0001:00007cf5
  3768 0001:00007cf8  3772 0001:00007cfb  3770 0001:00007cfb  3775 0001:00007cff
  3777 0001:00007d15  3778 0001:00007d1c  3779 0001:00007d26  3781 0001:00007d28
  3782 0001:00007d2b  3786 0001:00007d30  4398 0001:00007d33  4399 0001:00007d34
  4400 0001:00007d47  4404 0001:00007d4a  4403 0001:00007d4a  4405 0001:00007d64
  4409 0001:00007d67  4411 0001:00007d6b  4412 0001:00007d8e  2496 0001:00007df3
  2498 0001:00007df6  2502 0001:00007e11  2503 0001:00007e1c  2508 0001:00007e23
  2509 0001:00007e23  2510 0001:00007e2e  2511 0001:00007e30  2512 0001:00007e3e
  2513 0001:00007e41  2516 0001:00007e44  2496 0001:00007e63  2498 0001:00007e66
  2502 0001:00007e81  2503 0001:00007e8c  2506 0001:00007e93  2516 0001:00007ea0
  2489 0001:00007ebf  2491 0001:00007ecc  2492 0001:00007ed7  2496 0001:00007eda
  2497 0001:00007ee3  2502 0001:00007eea  2503 0001:00007ef5  2506 0001:00007efd
  2509 0001:00007f0a  2508 0001:00007f0a  2510 0001:00007f15  2511 0001:00007f17
  2512 0001:00007f22  2513 0001:00007f25  2516 0001:00007f28  4648 0001:00007f43
  1751 0001:00007fda  1753 0001:00007fec  1754 0001:00007ff6  1759 0001:00007ffd
  1760 0001:0000803c  1769 0001:00008040  1770 0001:00008051  1771 0001:00008058
  1773 0001:00008061  1774 0001:00008064  4391 0001:00008097  4392 0001:00008097
  4393 0001:0000809f  4394 0001:000080a6  4395 0001:000080ac  4396 0001:000080ae
  4398 0001:000080b1  4399 0001:000080b2  4400 0001:000080c5  4403 0001:000080c8
  4404 0001:000080c8  4405 0001:000080e2  4409 0001:000080e5  4411 0001:000080e9
  4412 0001:0000810c   514 0001:00008110   512 0001:00008110   515 0001:0000811f
   516 0001:0000812a   521 0001:0000812d   518 0001:0000812d   522 0001:00008138
   523 0001:0000814b   525 0001:0000814e   526 0001:0000814e   528 0001:0000815b
   529 0001:00008177   531 0001:0000817a   533 0001:00008188   536 0001:00008196
   537 0001:0000819e   544 0001:000081a8   545 0001:000081ab   547 0001:000081b2
   549 0001:000081b8   551 0001:000081d7   555 0001:000081db   557 0001:000081e2
   558 0001:000081e8   561 0001:000081ea   562 0001:000081f4   564 0001:00008200
   565 0001:00008211   571 0001:00008221   574 0001:00008227   580 0001:0000823d
   581 0001:00008248   574 0001:00008266   578 0001:00008268   582 0001:00008279
   583 0001:00008284   584 0001:0000829b   590 0001:000082aa   588 0001:000082aa
   591 0001:000082b7   592 0001:000082bb   593 0001:000082bd   619 0001:000088f7
   621 0001:000088f8   622 0001:00008900   623 0001:00008908   624 0001:00008911
   625 0001:00008915   629 0001:00008918   631 0001:00008923   632 0001:00008929
   633 0001:00008937   634 0001:0000895b   636 0001:0000896d   638 0001:00008978
   639 0001:0000897e   640 0001:0000898c   641 0001:000089b0   643 0001:000089c2
   645 0001:000089cf   646 0001:000089d8   647 0001:000089e0   648 0001:000089e3
   650 0001:000089f0   652 0001:000089fe   654 0001:00008a01   655 0001:00008a18
   656 0001:00008a1f   657 0001:00008a2b   658 0001:00008a3b   659 0001:00008a4d
   661 0001:00008a5d   663 0001:00008a6a   664 0001:00008a73   665 0001:00008a7b
   666 0001:00008a7e   668 0001:00008a8b   670 0001:00008a99   674 0001:00008a9c
   675 0001:00008ab7   676 0001:00008abe   677 0001:00008acd   678 0001:00008add
   679 0001:00008aef  4988 0001:00008aff  4991 0001:00008aff  4992 0001:00008b0d
  4485 0001:00008c32  4486 0001:00008c33  4487 0001:00008c44  4489 0001:00008c47
  4490 0001:00008c48  4491 0001:00008c50  4498 0001:00008c58  4499 0001:00008c61
  4500 0001:00008c68  1751 0001:0000926f  1753 0001:0000927c  1754 0001:0000928b
  1759 0001:00009292  1760 0001:000092cb  1769 0001:000092cf  1770 0001:000092e0
  1771 0001:000092e7  1773 0001:000092f0  1774 0001:000092f3  1827 0001:00009304
  1832 0001:00009307  1833 0001:0000931a  1832 0001:0000931f   596 0001:00009450
   597 0001:00009453   598 0001:0000945c   599 0001:0000946b   600 0001:0000946f
   603 0001:00009474  4995 0001:0000959c  4996 0001:000095a2  4997 0001:000095aa
  4999 0001:000095ac  5000 0001:000095b0  5005 0001:000095bc  5015 0001:000095ca
  5008 0001:000095ce  5011 0001:000095d5  5012 0001:000095e3  5005 0001:000095e6
  5015 0001:000095f5  5016 0001:00009605  5017 0001:0000960b  5020 0001:00009612
  5023 0001:00009620  5026 0001:00009626  5031 0001:00009638  5033 0001:00009646
  5020 0001:00009661  5042 0001:0000966a  5046 0001:00009683  5047 0001:0000968b
  5048 0001:00009690  2950 0001:00009d1d  2951 0001:00009d4b  2952 0001:00009d56
  2971 0001:00009d67  2973 0001:00009d80  2977 0001:00009d91  2978 0001:00009d9c
  2982 0001:00009db3  2983 0001:00009db3  2984 0001:00009dbe  2985 0001:00009dc0
  2986 0001:00009dcb  2987 0001:00009dce  2989 0001:00009dd1  2993 0001:00009dd5
  2994 0001:00009ddf  2998 0001:00009de6  3000 0001:00009df2  3001 0001:00009df9
  3006 0001:00009dff  3007 0001:00009e01  3008 0001:00009e14  3009 0001:00009e18
  2813 0001:00009e1c  2814 0001:00009e2c  2817 0001:00009e3c  2816 0001:00009e3c
  2818 0001:00009e50  2833 0001:00009e53  2827 0001:00009e53  2835 0001:00009e56
  2564 0001:00009e57  2568 0001:00009e8f  2574 0001:00009e93  2578 0001:00009ebb
  2579 0001:00009ebd  2580 0001:00009ecc  2581 0001:00009ed6  2582 0001:00009edd
  2583 0001:00009ee8  2584 0001:00009ef1  2585 0001:00009ef4  2587 0001:00009ef7
  2588 0001:00009efa  2589 0001:00009f08  2590 0001:00009f12  2591 0001:00009f14
  2592 0001:00009f1b  2593 0001:00009f1f  2594 0001:00009f28  2595 0001:00009f2f
  2596 0001:00009f3b  2597 0001:00009f3f  2600 0001:00009f42  1751 0001:00009f5d
  1753 0001:00009f6a  1754 0001:00009f79  1757 0001:00009f80  1759 0001:00009f85
  1760 0001:00009fba  1763 0001:00009fbe  1764 0001:00009fc6  1765 0001:00009fcf
  1766 0001:00009fd3  1767 0001:00009fd5  1768 0001:00009fd7  1769 0001:00009fdb
  1770 0001:00009fe8  1771 0001:00009fec  1773 0001:00009ff5  1774 0001:00009ff7
  1751 0001:0000a008  1753 0001:0000a01a  1754 0001:0000a024  1757 0001:0000a02b
  1759 0001:0000a030  1760 0001:0000a06e  1764 0001:0000a072  1765 0001:0000a07c
  1766 0001:0000a080  1768 0001:0000a082  1769 0001:0000a086  1770 0001:0000a093
  1771 0001:0000a097  1773 0001:0000a0a0  1774 0001:0000a0a2  2804 0001:0000a346
  2489 0001:0000a3a7  2491 0001:0000a415  2492 0001:0000a420  2496 0001:0000a423
  2497 0001:0000a48e  2502 0001:0000a498  2503 0001:0000a4a3  2506 0001:0000a4ab
  2508 0001:0000a4bb  2509 0001:0000a4bb  2510 0001:0000a4ca  2511 0001:0000a4cc
  2512 0001:0000a4d9  2513 0001:0000a4dc  2516 0001:0000a4df  2848 0001:0000a4fa
  2849 0001:0000a522  2850 0001:0000a52d  2866 0001:0000a53f  2867 0001:0000a55a
  2872 0001:0000a561  2873 0001:0000a56c  2884 0001:0000a585  2886 0001:0000a589
  2887 0001:0000a593  2891 0001:0000a59a  2893 0001:0000a5a6  2894 0001:0000a5ad
  2899 0001:0000a5b3  2900 0001:0000a5b5  2901 0001:0000a5c8  2902 0001:0000a5cc
  2813 0001:0000a5d0  2814 0001:0000a5e3  2817 0001:0000a5f6  2816 0001:0000a5f6
  2818 0001:0000a60d  2804 0001:0000a66a  2528 0001:0000aa24  2530 0001:0000aa37
  2531 0001:0000aa40  2536 0001:0000aa47  2537 0001:0000aa7b  2543 0001:0000aa7f
  2551 0001:0000aa83  2552 0001:0000aa85  2553 0001:0000aa88  2528 0001:0000aa99
  2530 0001:0000aaac  2531 0001:0000aab5  2536 0001:0000aabc  2537 0001:0000aaf0
  2543 0001:0000aaf4  2551 0001:0000aaf8  2552 0001:0000aafa  2553 0001:0000aafd
  4667 0001:0000ab0e  4668 0001:0000ab23  4670 0001:0000ab2a  4671 0001:0000ab2f
  4670 0001:0000ab3b  4672 0001:0000ab43  4674 0001:0000ab4d  4679 0001:0000ab6b
  4680 0001:0000ab70  4681 0001:0000ab79  4682 0001:0000ab7b  4683 0001:0000ab82
  4684 0001:0000ab89  4686 0001:0000ab9a  4689 0001:0000abb0  4690 0001:0000abb9
  4691 0001:0000abbd  4692 0001:0000abc0  4693 0001:0000abc4  4694 0001:0000abc8
  4696 0001:0000abca  4695 0001:0000abd1  4698 0001:0000abd3  4708 0001:0000abe4
  4710 0001:0000abee  4687 0001:0000abf3  4685 0001:0000abfa  4711 0001:0000ac02
  4715 0001:0000ac06  4716 0001:0000ac07  4717 0001:0000ac0f  4719 0001:0000ac16
  4720 0001:0000ac25  4721 0001:0000ac2b  4722 0001:0000ac31  4723 0001:0000ac3b
  4727 0001:0000ac3e  4730 0001:0000ac4a  4748 0001:0000ac4f  4738 0001:0000ac98
  4739 0001:0000acc7  4741 0001:0000accb  4742 0001:0000acce  4744 0001:0000ace6
  4745 0001:0000acea  4749 0001:0000acf8  4754 0001:0000ad0a  4755 0001:0000ad15
  4758 0001:0000ad27  4759 0001:0000ad52  4760 0001:0000ad55  4761 0001:0000ad5c
  4762 0001:0000ad63  4765 0001:0000ad6a  4775 0001:0000ad7b  4777 0001:0000ad86
  4779 0001:0000ad95  4781 0001:0000ad97  4782 0001:0000ad9d  4784 0001:0000ada0
  4785 0001:0000adab  4786 0001:0000adb1  4787 0001:0000adb7  4788 0001:0000adb9
   696 0001:0000afcf   697 0001:0000afd7   699 0001:0000afdc   700 0001:0000aff4
   701 0001:0000b004   702 0001:0000b009  4127 0001:0000b05a  4129 0001:0000b060
  4130 0001:0000b065  4179 0001:0000b06c  4132 0001:0000b06e  4135 0001:0000b07a
  4136 0001:0000b082  4137 0001:0000b08e  4139 0001:0000b093  4140 0001:0000b099
  4143 0001:0000b09e  4145 0001:0000b0b3  4147 0001:0000b0bb  4148 0001:0000b0bf
  4150 0001:0000b0c8  4152 0001:0000b0d3  4154 0001:0000b0d7  4155 0001:0000b0ed
  4156 0001:0000b0f4  4158 0001:0000b0f6  4159 0001:0000b10d  4161 0001:0000b114
  4164 0001:0000b121  4166 0001:0000b123  4167 0001:0000b12b  4168 0001:0000b136
  4169 0001:0000b138  4173 0001:0000b14a  4174 0001:0000b150  4176 0001:0000b156
  4133 0001:0000b15d  4174 0001:0000b167  4160 0001:0000b169  4178 0001:0000b16f
  4179 0001:0000b175  2489 0001:0000b1da  2491 0001:0000b1ee  2492 0001:0000b1f9
  2489 0001:0000b1fc  2491 0001:0000b210  2492 0001:0000b21b  2528 0001:0000b21e
  2530 0001:0000b231  2531 0001:0000b23a  2536 0001:0000b241  2537 0001:0000b275
  2543 0001:0000b279  2551 0001:0000b27d  2552 0001:0000b27f  2553 0001:0000b282
  3187 0001:0000b6a1  3186 0001:0000b6a1  3188 0001:0000b6a6  3189 0001:0000b6b3
  3190 0001:0000b6b5  3191 0001:0000b6b8  3192 0001:0000b6ba  3166 0001:0000b6bd
  3169 0001:0000b6c1  3171 0001:0000b6cd  3174 0001:0000b6d0  3177 0001:0000b6e2
  3179 0001:0000b6e7  3180 0001:0000b6e9  3183 0001:0000b6f7  6097 0001:0000b6fb
  6098 0001:0000b708  6101 0001:0000b739  6102 0001:0000b744  6103 0001:0000b74d
  6104 0001:0000b751  6108 0001:0000b755  6110 0001:0000b762  6111 0001:0000b76a
  6112 0001:0000b77a  6114 0001:0000b784  6115 0001:0000b78c  6116 0001:0000b79d
  6118 0001:0000b7a5  6119 0001:0000b7ad  6120 0001:0000b7bd  6123 0001:0000b7c5
  6124 0001:0000b7d4  6126 0001:0000b7dc  6127 0001:0000b7e9  6128 0001:0000b7f6
  6129 0001:0000b803  6132 0001:0000b80d  6133 0001:0000b815  6134 0001:0000b823
  6135 0001:0000b82e  6136 0001:0000b83b  6139 0001:0000b840  6142 0001:0000b848
  6144 0001:0000b850  6145 0001:0000b860  6147 0001:0000b868  6148 0001:0000b877
  6150 0001:0000b87f  6151 0001:0000b892  6154 0001:0000b89a  6155 0001:0000b8aa
  6158 0001:0000b8b5  6161 0001:0000b8c1  6162 0001:0000b8d1  6164 0001:0000b8d5
  6158 0001:0000b8db  6164 0001:0000b8e7  6167 0001:0000b8e9  6168 0001:0000b8f9
  6170 0001:0000b8fd  6171 0001:0000b905  6172 0001:0000b917  6175 0001:0000b91b
  6176 0001:0000b928  6178 0001:0000b92d  6179 0001:0000b93a  6182 0001:0000b949
  6187 0001:0000b951  6192 0001:0000b95d  6193 0001:0000b96d  6195 0001:0000b975
  6196 0001:0000b97d  6197 0001:0000b985  6198 0001:0000b98d  6099 0001:0000b992
  6199 0001:0000b997  3161 0001:0000bac0  3162 0001:0000bac6  5830 0001:0000baf5
  5832 0001:0000bb00  5836 0001:0000bb27  5837 0001:0000bb3d  5838 0001:0000bb3f
  5840 0001:0000bb45  5842 0001:0000bb4d  5840 0001:0000bb59  5844 0001:0000bb5c
  5848 0001:0000bb64  5850 0001:0000bb6b  5852 0001:0000bb71  5855 0001:0000bb78
  5856 0001:0000bb8b  5858 0001:0000bb96  5859 0001:0000bb9f  5860 0001:0000bba1
  5863 0001:0000bbaf  5866 0001:0000bbb1  5867 0001:0000bbbb  5869 0001:0000bbc3
  5870 0001:0000bbd3  5876 0001:0000bbe6  5879 0001:0000bbec  5886 0001:0000bc02
  5889 0001:0000bc0f  5887 0001:0000bc19  5842 0001:0000bc1d  5887 0001:0000bc2f
  5883 0001:0000bc31  5890 0001:0000bc40  5833 0001:0000bc4c  5891 0001:0000bc54
  5761 0001:0000be3d  5763 0001:0000be48  5768 0001:0000be6f  5769 0001:0000be7c
  5770 0001:0000be81  5771 0001:0000be87  5772 0001:0000be90  5774 0001:0000be9a
  5776 0001:0000bea2  5774 0001:0000beae  5778 0001:0000beb1  5782 0001:0000beb9
  5784 0001:0000bec0  5786 0001:0000bec6  5788 0001:0000becd  5789 0001:0000bed0
  5790 0001:0000bede  5791 0001:0000bee1  5792 0001:0000beeb  5793 0001:0000beef
  5794 0001:0000befe  5796 0001:0000bf07  5799 0001:0000bf09  5801 0001:0000bf13
  5802 0001:0000bf1e  5805 0001:0000bf25  5807 0001:0000bf2d  5808 0001:0000bf3d
  5814 0001:0000bf50  5817 0001:0000bf56  5823 0001:0000bf67  5817 0001:0000bf87
  5803 0001:0000bf89  5812 0001:0000bf8f  5820 0001:0000bf93  5821 0001:0000bf9a
  5824 0001:0000bfa0  5764 0001:0000bfad  5825 0001:0000bfb5  3584 0001:0000c3e6
  3585 0001:0000c3e9  3586 0001:0000c3f3  3587 0001:0000c3f9  3589 0001:0000c417
  3520 0001:0000c41b  3521 0001:0000c41e  3522 0001:0000c420  3523 0001:0000c42a
  3525 0001:0000c434  3632 0001:0000c437  3637 0001:0000c44d  3638 0001:0000c45c
  3640 0001:0000c463  3641 0001:0000c472  3649 0001:0000c47c  3652 0001:0000c496
  3655 0001:0000c4bf  3656 0001:0000c4d8  3658 0001:0000c4e8  3664 0001:0000c4ee
  3665 0001:0000c505  3667 0001:0000c513  3669 0001:0000c515  3720 0001:0000c53a
  3722 0001:0000c546  3723 0001:0000c54c  3724 0001:0000c565  3726 0001:0000c573
  3727 0001:0000c58c  3728 0001:0000c592  3729 0001:0000c5ab  3731 0001:0000c5be
  3733 0001:0000c5c1  3735 0001:0000c5d7  3736 0001:0000c5fc  3737 0001:0000c608
  3739 0001:0000c61b  3742 0001:0000c61d  3745 0001:0000c623  3746 0001:0000c630
  3748 0001:0000c637  3749 0001:0000c648  3530 0001:0000c709  3532 0001:0000c70a
  3536 0001:0000c712  3537 0001:0000c719  3538 0001:0000c71f  3539 0001:0000c724
  3540 0001:0000c732  3541 0001:0000c738  3591 0001:0000c73b  3593 0001:0000c749
  3594 0001:0000c75e  3597 0001:0000c768  3599 0001:0000c76f  3601 0001:0000c77e
  3602 0001:0000c7d4  3604 0001:0000c7da  3605 0001:0000c7e3  3608 0001:0000c7ef
  3611 0001:0000c7fe  3613 0001:0000c80f  3614 0001:0000c814  3616 0001:0000c831
  3617 0001:0000c847  3618 0001:0000c84f  3620 0001:0000c85d  3621 0001:0000c866
  3623 0001:0000c885  3624 0001:0000c888  3626 0001:0000c894  3627 0001:0000c896
  3477 0001:0000c8a7  3549 0001:0000c8b5  3550 0001:0000c8b9  3551 0001:0000c8c3
  3557 0001:0000c8c9  3559 0001:0000c8d7  3560 0001:0000c8e2  3563 0001:0000c8f1
  3560 0001:0000c919  3575 0001:0000c921  3579 0001:0000c936  3565 0001:0000c93a
  3566 0001:0000c949  3573 0001:0000c94b  3502 0001:0000c94d  3504 0001:0000c94d
  3505 0001:0000c954  3507 0001:0000c95b  3508 0001:0000c95d  3509 0001:0000c962
  3510 0001:0000c96b  3511 0001:0000c970  3513 0001:0000c976  3514 0001:0000c97f
  3517 0001:0000c982  2155 0001:0000c9a7  2157 0001:0000c9aa

Line numbers for .\Release\VSNetToolWinShim.obj(g:\vsnet\vc7\atlmfc\include\atlcomcli.h) segment .text

   206 0001:00007d92   204 0001:00007d92   207 0001:00007d96   212 0001:00007d9b
   208 0001:00007d9c   209 0001:00007da0   210 0001:00007da6   211 0001:00007dac
   212 0001:00007dae   486 0001:00007daf   488 0001:00007db8   489 0001:00007dbc
   490 0001:00007dca   486 0001:00007dd1   488 0001:00007dda   489 0001:00007dde
   490 0001:00007dec   486 0001:00007f52   488 0001:00007f5b   489 0001:00007f5f
   490 0001:00007f6d   486 0001:00007f74   488 0001:00007f7d   489 0001:00007f81
   490 0001:00007f8f   486 0001:00007f96   488 0001:00007f9f   489 0001:00007fa3
   490 0001:00007fb1   486 0001:00007fb8   488 0001:00007fc1   489 0001:00007fc5
   490 0001:00007fd3   486 0001:00008075   488 0001:0000807e   489 0001:00008082
   490 0001:00008090   486 0001:00009324   488 0001:0000932d   489 0001:00009331
   490 0001:0000933f   248 0001:0000944c   250 0001:0000944f  1045 0001:0000bc58
  1047 0001:0000bc5d  1048 0001:0000bc61  1056 0001:0000bc66  1051 0001:0000bc68
  1052 0001:0000bc80  1053 0001:0000bc90  1054 0001:0000bc92  1055 0001:0000bc94
  1056 0001:0000bca9  1055 0001:0000bcab  1056 0001:0000bcad  2201 0001:0000bcaf
  2202 0001:0000bcbd  2203 0001:0000bcca  2205 0001:0000bcd4  2206 0001:0000bcde
  2207 0001:0000bce0  2210 0001:0000bce6  2215 0001:0000bd03  2216 0001:0000bd09
  2218 0001:0000bd0e  2219 0001:0000bd1f  2221 0001:0000bd23  2222 0001:0000bd36
  2223 0001:0000bd3a  2226 0001:0000bd51  2227 0001:0000bd56  2228 0001:0000bd62
  2232 0001:0000bd72  2233 0001:0000bd75  2237 0001:0000bd77  2238 0001:0000bd79
  2245 0001:0000bd7b  2246 0001:0000bd7d  2254 0001:0000bd7f  2260 0001:0000bd82
  2263 0001:0000bd90  2264 0001:0000bd9d  2266 0001:0000bda9  2267 0001:0000bdba
  2268 0001:0000bdbe  2269 0001:0000bdcf  2271 0001:0000bdd2  2272 0001:0000bdd4
  2274 0001:0000bde1  2276 0001:0000bdee  2277 0001:0000bdfe  1058 0001:0000bfb9
  1060 0001:0000bfbf  1061 0001:0000bfc5  1064 0001:0000bfcc  1067 0001:0000bfd4
  1068 0001:0000bfe6  1072 0001:0000bff4  1073 0001:0000bfff  1074 0001:0000c005
  1075 0001:0000c00c  1076 0001:0000c00e  1079 0001:0000c019  1083 0001:0000c020
  1086 0001:0000c031  1087 0001:0000c037  1088 0001:0000c03e  1089 0001:0000c042
  2281 0001:0000c044  2283 0001:0000c056  2284 0001:0000c05e  2287 0001:0000c068
  2288 0001:0000c06f  2289 0001:0000c071  2292 0001:0000c077  2293 0001:0000c08d
  2294 0001:0000c09e  2295 0001:0000c0a3  2296 0001:0000c0a5  2298 0001:0000c0ab
  2300 0001:0000c0ae  2305 0001:0000c0cd  2308 0001:0000c0d0  2311 0001:0000c0eb
  2312 0001:0000c0f6  2313 0001:0000c0f8  2317 0001:0000c0fd  2318 0001:0000c100
  2322 0001:0000c102  2323 0001:0000c109  2330 0001:0000c10b  2331 0001:0000c112
  2339 0001:0000c114  2346 0001:0000c11b  2347 0001:0000c129  2348 0001:0000c12e
  2349 0001:0000c133  2351 0001:0000c135  2353 0001:0000c13b  2354 0001:0000c145
  2360 0001:0000c149  2361 0001:0000c15b  2365 0001:0000c160  2366 0001:0000c172
  2367 0001:0000c181  2368 0001:0000c18b   425 0001:0000c1c8   428 0001:0000c1ce
   429 0001:0000c1d4   452 0001:0000c1d9   431 0001:0000c1db   432 0001:0000c1df
   452 0001:0000c1e4   435 0001:0000c1e6   436 0001:0000c1ea   441 0001:0000c1ed
   445 0001:0000c21f   446 0001:0000c233   447 0001:0000c235   446 0001:0000c237
   451 0001:0000c239   452 0001:0000c24f  2371 0001:0000c268  2375 0001:0000c278
  2380 0001:0000c299  2381 0001:0000c2a1  2383 0001:0000c2a6  2384 0001:0000c2b7
  2386 0001:0000c2bb  2387 0001:0000c2cc  2388 0001:0000c2d0  2391 0001:0000c2e3
  2394 0001:0000c2ea  2395 0001:0000c2f2  2396 0001:0000c2fc  2398 0001:0000c2ff
  2399 0001:0000c307  2400 0001:0000c30a  2401 0001:0000c318  2404 0001:0000c31a
  2405 0001:0000c31c  2409 0001:0000c31e  2410 0001:0000c320  2417 0001:0000c322
  2418 0001:0000c324  2421 0001:0000c326  2422 0001:0000c329  2426 0001:0000c32b
  2431 0001:0000c32e  2434 0001:0000c333  2435 0001:0000c33d  2437 0001:0000c343
  2438 0001:0000c352  2439 0001:0000c356  2441 0001:0000c359  2442 0001:0000c35b
  2445 0001:0000c35e  2446 0001:0000c362  2447 0001:0000c36e  2449 0001:0000c378
    58 0001:0000c3ba    59 0001:0000c3ba    60 0001:0000c3be    62 0001:0000c3c3
    63 0001:0000c3c5    64 0001:0000c3c8    65 0001:0000c3cc    66 0001:0000c3d6
    67 0001:0000c3da    68 0001:0000c3e0    69 0001:0000c3e3    46 0001:0000c985
    45 0001:0000c985    47 0001:0000c989    55 0001:0000c98b    49 0001:0000c98c
    50 0001:0000c990    51 0001:0000c996    52 0001:0000c99c    53 0001:0000c9a2
    54 0001:0000c9a4    55 0001:0000c9a6   454 0001:0000c9ad   457 0001:0000c9b3
   458 0001:0000c9ba   468 0001:0000c9bf   460 0001:0000c9c1   461 0001:0000c9c5
   468 0001:0000c9ca   467 0001:0000c9cc   468 0001:0000c9f6   612 0001:0000c9f8
   611 0001:0000c9f8   614 0001:0000ca00   615 0001:0000ca07   617 0001:0000ca0e
   618 0001:0000ca18   619 0001:0000ca1e   622 0001:0000ca28   624 0001:0000ca2b
   625 0001:0000ca2d   573 0001:0000ca30   571 0001:0000ca30   574 0001:0000ca37
   581 0001:0000ca3a   589 0001:0000ca5a   592 0001:0000ca6b   593 0001:0000ca7d
   594 0001:0000ca8a   595 0001:0000ca90   596 0001:0000ca9a  1709 0001:0000caa8
  1708 0001:0000caa8  1711 0001:0000caaf  1713 0001:0000cabe  1715 0001:0000cacb
  1716 0001:0000cad0  1718 0001:0000cad7  1719 0001:0000cad9  1536 0001:0000cadc
  1537 0001:0000cadc  1538 0001:0000cae3   549 0001:0000ccf3   551 0001:0000ccf3
   552 0001:0000ccfa   559 0001:0000ccfd

Line numbers for .\Release\VSNetToolWinShim.obj(g:\vsnet\vc7\atlmfc\include\atlbase.h) segment .text

   727 0001:0000bad1   736 0001:0000bad1   738 0001:0000baf1   736 0001:0000baf2
   738 0001:0000baf4   628 0001:0000c251   627 0001:0000c251   629 0001:0000c257
   630 0001:0000c267  2678 0001:0000c65f  2677 0001:0000c65f  2679 0001:0000c678
  2779 0001:0000cc60  2780 0001:0000cc64  2782 0001:0000cc74  2783 0001:0000cc78
  2785 0001:0000cc84  2787 0001:0000cc89  2789 0001:0000cc90  2791 0001:0000cc99
  2792 0001:0000cc9d   633 0001:0000cca3   634 0001:0000cca3   636 0001:0000cca8
   638 0001:0000ccbb   639 0001:0000ccca   457 0001:0000cccd   453 0001:0000cccd
   460 0001:0000cccf   461 0001:0000ccf2

Line numbers for .\Release\VSNetToolHostShim.obj(d:\dev\booktwo\disk\simpletoolwindow\vsnettoolhostshim\vsnettoolhostshim.cpp) segment .text

    12 0001:00000356    20 0001:000003ba    22 0001:000003ba    23 0001:000003c9
    26 0001:000003cb    27 0001:000003df    32 0001:000003e2    34 0001:000003e2
    35 0001:000003e7    36 0001:000003e9    38 0001:000003eb    39 0001:000003fe
    44 0001:000003ff    46 0001:00000402    50 0001:00000414    49 0001:00000418
    50 0001:0000041d    49 0001:0000041e    55 0001:00000423    57 0001:00000423
    59 0001:00000437    60 0001:00000439    61 0001:0000043b    64 0001:00000440
    70 0001:00000441    69 0001:00000441    72 0001:00000455    73 0001:00000457
    74 0001:00000459    75 0001:0000045e    76 0001:00000460    77 0001:00000462
    80 0001:00000467    15 0001:0000da1d

Line numbers for .\Release\VSNetToolHostShim.obj(g:\vsnet\vc7\atlmfc\include\atlbase.inl) segment .text

   116 0001:00000ce4   118 0001:00000ced   119 0001:00000cf3   120 0001:00000cfd
   121 0001:00000d01   123 0001:00000d0b   124 0001:00000d12   125 0001:00000d1e
   129 0001:00000d20   131 0001:00000d28   134 0001:00000d2e   129 0001:00000d42
   134 0001:00000d4a   136 0001:00000d4c   138 0001:00000d54   139 0001:00000d57
   146 0001:00000d65   147 0001:00000d6e   148 0001:00000d7d   149 0001:00000d85
   150 0001:00000d8a   156 0001:00000d9a   157 0001:00000da8   158 0001:00000daf
   159 0001:00000db5   407 0001:00000e20   406 0001:00000e20   408 0001:00000e24
   410 0001:00000e34   412 0001:00000e37   414 0001:00000e3c   415 0001:00000e41
   416 0001:00000e44   417 0001:00000e4d   419 0001:00000e52   420 0001:00000e57

Line numbers for .\Release\VSNetToolHostShim.obj(g:\vsnet\vc7\platformsdk\include\guiddef.h) segment .text

   161 0001:00000617   160 0001:00000617   162 0001:0000062e   156 0001:00000899
   151 0001:00000899   157 0001:000008ba   156 0001:000008bb   157 0001:000008bd

Line numbers for .\Release\VSNetToolHostShim.obj(g:\vsnet\vc7\atlmfc\include\atlalloc.h) segment .text

   393 0001:000008be   387 0001:000008be   391 0001:000008c0   392 0001:000008c2
   393 0001:000008c4   389 0001:000008ce   395 0001:000008d3   278 0001:0000150e
   276 0001:0000150e   280 0001:00001518   282 0001:00001522   284 0001:00001524
   287 0001:00001529   288 0001:0000152b   313 0001:0000237b   312 0001:0000237b
   314 0001:00002384   276 0001:00002385   278 0001:00002385   280 0001:0000238f
   282 0001:00002399   284 0001:0000239b   287 0001:000023a0   288 0001:000023a2
   292 0001:000023a5   293 0001:000023a5   294 0001:000023af   296 0001:000023b4
   298 0001:000023be   299 0001:000023c4   226 0001:0000241f   225 0001:0000241f
   228 0001:00002426   230 0001:0000242b

Line numbers for .\Release\VSNetToolHostShim.obj(g:\vsnet\vc7\atlmfc\include\atlexcept.h) segment .text

    61 0001:00000db9    73 0001:00000dbc

Line numbers for .\Release\VSNetToolHostShim.obj(g:\vsnet\vc7\atlmfc\include\atlsimpcoll.h) segment .text

   379 0001:00001060   377 0001:00001060   382 0001:00001069   383 0001:0000106e
   387 0001:00001081   385 0001:00001081   390 0001:0000108a   391 0001:00001090
   332 0001:000010a3   333 0001:000010a3   340 0001:000010b0   341 0001:000010b3
   343 0001:000010b7   345 0001:000010be   346 0001:000010c1   349 0001:000010c6
   350 0001:000010cb   276 0001:000010e8   277 0001:000010e8   286 0001:000012df
   288 0001:000012df   289 0001:000012f5   290 0001:000012f9   291 0001:000012fb
   293 0001:000012fd   294 0001:0000130d   295 0001:00001313   297 0001:00001317
   298 0001:0000132c   299 0001:0000132f   300 0001:00001333   443 0001:00001336
   442 0001:00001336   444 0001:00001349   445 0001:00001358   363 0001:000017f0
   364 0001:000017f1   365 0001:000017fc   366 0001:00001801   367 0001:00001805
   368 0001:0000180f   394 0001:00001812   395 0001:00001813   397 0001:0000181a
   400 0001:00001836   401 0001:0000183a   398 0001:0000183d

Line numbers for .\Release\VSNetToolHostShim.obj(g:\vsnet\vc7\atlmfc\include\atlbase.h) segment .text

  2949 0001:00000468  2951 0001:00000472  2952 0001:0000047e  2955 0001:00000486
  2956 0001:00000487  2957 0001:00000493  2936 0001:000004a0  2937 0001:000004a0
  2938 0001:000004b4  2863 0001:000004bc  2866 0001:000004c7  2881 0001:000004de
  2873 0001:000004de  2888 0001:000004f0  2889 0001:000004fe  2894 0001:00000507
  2897 0001:0000050a  2905 0001:0000050a  2906 0001:00000513  2912 0001:00000515
  2913 0001:0000051a  2919 0001:0000052d  2682 0001:00000530  2685 0001:00000531
  2686 0001:00000539  2688 0001:00000542  2689 0001:00000544  2692 0001:0000054b
  2695 0001:00000561  2698 0001:00000565  2699 0001:00000569  2701 0001:00000571
  2702 0001:00000576  2672 0001:00000579  2673 0001:00000579  2674 0001:0000057c
  2668 0001:0000057d  2667 0001:0000057d  2669 0001:00000587  2662 0001:00000588
  2663 0001:00000588  2664 0001:00000592  6066 0001:00000593  6068 0001:00000597
  6069 0001:0000059b  6071 0001:000005a2  6073 0001:000005a8  6075 0001:000005b0
  6078 0001:000005b6  6080 0001:000005bc  6083 0001:000005cc  6084 0001:000005da
  6086 0001:000005e1  6087 0001:000005e6  6073 0001:000005ed  6091 0001:000005f5
  6092 0001:00000601  6094 0001:0000060e  6095 0001:00000613  6099 0001:0000062f
  6100 0001:00000642  6105 0001:0000064f  6110 0001:00000659  6117 0001:0000066e
  6118 0001:00000688  6131 0001:00000690  6168 0001:000006a1  6171 0001:000006aa
  6172 0001:000006bc  6177 0001:000006c2  6178 0001:000006da  6179 0001:000006f0
  6185 0001:000006fe  6186 0001:0000071e  6188 0001:00000722  6189 0001:00000739
  6190 0001:00000750  6192 0001:0000075d  6196 0001:0000076b  6197 0001:0000077d
  6198 0001:0000078d  6199 0001:0000079b  6200 0001:000007b0  6202 0001:000007b4
  6203 0001:000007cb  6204 0001:000007de  6206 0001:000007e7  6209 0001:000007f5
  6210 0001:0000080a  6211 0001:00000816  6212 0001:00000821  6131 0001:00000831
  6134 0001:00000837  6139 0001:00000842  6141 0001:00000860  6145 0001:00000862
  6147 0001:00000865  6154 0001:0000086d  6156 0001:00000870  6158 0001:0000087e
  6161 0001:00000880  6164 0001:00000883  6147 0001:00000894  4803 0001:000008d4
  4900 0001:000008d9  4902 0001:000008dd  4903 0001:000008e4  4904 0001:000008f9
  4906 0001:000008fd  4908 0001:00000902  4911 0001:00000908  4844 0001:0000090c
  4842 0001:0000090c  4846 0001:00000914  4847 0001:0000091b  4850 0001:0000091e
  5980 0001:0000091f  5981 0001:00000924  5982 0001:00000929  5983 0001:00000931
  5984 0001:00000946  5987 0001:0000094a  5988 0001:00000959  5990 0001:0000095d
  5991 0001:0000097b  5994 0001:00000989  5995 0001:0000099d  5913 0001:000009a1
  5915 0001:000009b3  5918 0001:000009cc  5919 0001:000009cf  5921 0001:000009d1
  5925 0001:000009dd  5926 0001:000009f5  5927 0001:000009f9  5928 0001:00000a05
  5934 0001:00000a13  5936 0001:00000a20  5943 0001:00000a2c  5945 0001:00000a35
  5947 0001:00000a48  5954 0001:00000a59  5955 0001:00000a6b  5959 0001:00000a6f
  5962 0001:00000a95  5968 0001:00000aa5  5970 0001:00000ab3  5972 0001:00000ab7
  5973 0001:00000ac4  5974 0001:00000acd  5976 0001:00000ad4  5916 0001:00000ae4
  5977 0001:00000ae9  6028 0001:00000b0c  6030 0001:00000b13  6031 0001:00000b17
  6034 0001:00000b1e  6036 0001:00000b24  6038 0001:00000b2c  6041 0001:00000b32
  6043 0001:00000b38  6046 0001:00000b48  6047 0001:00000b4d  6050 0001:00000b54
  6051 0001:00000b62  6036 0001:00000b69  6056 0001:00000b71  6057 0001:00000b7d
  6059 0001:00000b8a  6060 0001:00000b90  5998 0001:00000b94  5999 0001:00000ba7
  6000 0001:00000bb2  6001 0001:00000bba  6002 0001:00000bd0  6005 0001:00000bd5
  6006 0001:00000be7  6008 0001:00000bf2  6010 0001:00000bf6  6011 0001:00000c02
  6012 0001:00000c07  6013 0001:00000c1c  6015 0001:00000c1f  6016 0001:00000c2d
  6018 0001:00000c3f  6019 0001:00000c50  5888 0001:00000c68  5890 0001:00000c68
  5891 0001:00000c6c  5905 0001:00000c6e  5895 0001:00000c6f  5897 0001:00000c7b
  5899 0001:00000c82  5900 0001:00000c97  5895 0001:00000c99  5901 0001:00000c9d
  5904 0001:00000ca1  5905 0001:00000ca9  2615 0001:00000caa  2621 0001:00000cb5
  2623 0001:00000cb9  2625 0001:00000cc4  2629 0001:00000cd6  2632 0001:00000cdd
  2633 0001:00000ce1   303 0001:00000dd1   304 0001:00000dd4   306 0001:00000dda
   308 0001:00000de7  2636 0001:00000de8  2638 0001:00000dec  2642 0001:00000df4
  2644 0001:00000dfa  2645 0001:00000dff  2648 0001:00000e03  2649 0001:00000e0a
  2651 0001:00000e10  2653 0001:00000e1a  2654 0001:00000e1f  2351 0001:00000e58
  2352 0001:00000e59  2354 0001:00000e5e  2355 0001:00000e64  2352 0001:00000e6b
  2357 0001:00000e74  5506 0001:00000e77  5507 0001:00000e92  5509 0001:00000e9e
  5511 0001:00000ea2  5514 0001:00000ea4  5515 0001:00000eb1  5519 0001:00000eba
  5520 0001:00000ec5  5528 0001:00000ec9  5523 0001:00000ed0  5525 0001:00000ed6
  5526 0001:00000ee0  5527 0001:00000ef4  5528 0001:00000ef8  5529 0001:00000f02
  5540 0001:00000f10  5543 0001:00000f1e  5559 0001:00000f2e  5550 0001:00000f33
  5551 0001:00000f4d  5552 0001:00000f5a  5553 0001:00000f5c  5555 0001:00000f6f
  5562 0001:00000f84  5565 0001:00000f88  5566 0001:00000f9a  5571 0001:00000f9e
  5572 0001:00000fcb  5573 0001:00000fdb  2766 0001:00001154  2765 0001:00001154
  2768 0001:00001156  2769 0001:0000115b  2770 0001:00001161  2771 0001:00001168
  2773 0001:00001172  2774 0001:00001175  4883 0001:00001f7a  4886 0001:00001f7f
  4888 0001:00001f85  4889 0001:00001fa7  4890 0001:00001fab  4891 0001:00001fb0
  4893 0001:00001fb4  4894 0001:00001fb9  4897 0001:00001fbf  5179 0001:00002350
  5184 0001:00002353  5185 0001:00002377  5188 0001:000023c7  5200 0001:000023c8
  5203 0001:000023cf  5204 0001:000023d7  5205 0001:000023dc  5206 0001:000023de
  5209 0001:000023e3  5210 0001:000023fe  5169 0001:00002401  5167 0001:00002401
  5170 0001:0000241c  5246 0001:0000251e  5248 0001:00002534  5249 0001:00002558
  5255 0001:0000255c  5261 0001:0000256e  5263 0001:00002576  5264 0001:00002582
  5261 0001:00002589  5266 0001:0000259c  5268 0001:000025a9  5269 0001:000025bc
  5270 0001:000025d8  5265 0001:000025f0

Line numbers for .\Release\VSNetToolHostShim.obj(g:\vsnet\vc7\atlmfc\include\statreg.h) segment .text

   262 0001:00001006   260 0001:00001006   263 0001:0000100b   268 0001:0000100e
   266 0001:0000100e   269 0001:00001011   512 0001:00001014   510 0001:00001014
   515 0001:00001020   126 0001:00001023   127 0001:00001027   129 0001:0000102e
   130 0001:0000103f   132 0001:00001056   133 0001:0000105c   134 0001:0000105f
    88 0001:000010ed    89 0001:000010ff    90 0001:00001106   276 0001:0000111a
   324 0001:00001176   325 0001:00001182   328 0001:0000118f   337 0001:00001198
   339 0001:000011af   326 0001:000011cc   340 0001:000011d1    93 0001:000011e0
    95 0001:000011f0   100 0001:00001207   103 0001:0000121a   105 0001:00001236
   107 0001:00001243   109 0001:0000126e   113 0001:00001278   114 0001:00001286
   115 0001:00001292   120 0001:000012a9   121 0001:000012b8   123 0001:000012c2
    96 0001:000012cc   124 0001:000012ce   428 0001:0000135b   429 0001:00001368
   439 0001:00001372   440 0001:00001395   344 0001:000013a7   345 0001:000013c5
   348 0001:000013d3   354 0001:000013e5   364 0001:000013eb   366 0001:000013fd
   369 0001:00001407   370 0001:0000140e   373 0001:00001413   375 0001:00001422
   382 0001:00001424   385 0001:00001426   387 0001:0000142e   391 0001:00001436
   394 0001:00001438   398 0001:00001442   399 0001:0000146d   401 0001:00001475
   402 0001:0000147a   406 0001:0000147c   408 0001:0000149c   409 0001:000014a1
   416 0001:000014a3   418 0001:000014a9   423 0001:000014c3   424 0001:000014cf
   425 0001:000014f3  1092 0001:0000152e  1097 0001:00001550  1098 0001:00001562
  1099 0001:00001564  1104 0001:0000156a  1110 0001:00001574  1113 0001:00001584
  1120 0001:00001599  1123 0001:000015a9  1129 0001:000015b4  1132 0001:000015ba
  1133 0001:000015d8  1136 0001:000015dc  1137 0001:000015df  1149 0001:000015f1
  1151 0001:000015fa  1143 0001:00001614  1147 0001:00001627  1108 0001:0000162e
  1143 0001:00001637  1126 0001:00001639  1127 0001:0000163e  1014 0001:00001640
  1018 0001:00001656  1021 0001:0000166c  1022 0001:0000166f  1023 0001:00001678
  1024 0001:00001685  1025 0001:0000168a  1026 0001:0000169b  1029 0001:0000169d
  1031 0001:000016a8  1033 0001:000016ae  1034 0001:000016b9  1036 0001:000016bf
  1077 0001:000016c0  1084 0001:000016cc  1077 0001:000016dc  1087 0001:000016de
  1088 0001:000016e9  1044 0001:000016fa  1045 0001:00001703  1051 0001:00001708
  1058 0001:00001713  1059 0001:00001720  1060 0001:00001735  1065 0001:00001739
  1067 0001:00001747  1068 0001:0000174e  1072 0001:00001750  1071 0001:0000175a
  1075 0001:0000175e  1053 0001:00001763  1054 0001:0000176a  1062 0001:0000176f
  1063 0001:00001776  1019 0001:0000177b  1089 0001:00001780   182 0001:00001798
   184 0001:00001798   185 0001:0000179d   186 0001:000017a2   187 0001:000017a5
   188 0001:000017a8   189 0001:000017b1   190 0001:000017b8   191 0001:000017bc
   194 0001:000017bf   193 0001:000017bf   195 0001:000017c8   718 0001:000017c9
   719 0001:000017ca   721 0001:000017cc   734 0001:000017d1   726 0001:000017d2
   731 0001:000017d9   726 0001:000017e8   728 0001:000017ea   733 0001:000017ec
   734 0001:000017ef    71 0001:00001841    70 0001:00001841    74 0001:00001855
   225 0001:00001856   226 0001:0000185a   227 0001:00001860   228 0001:00001866
   234 0001:0000186c   235 0001:00001894   199 0001:00001898   197 0001:00001898
   202 0001:000018a3   203 0001:000018b5   204 0001:000018c1   206 0001:000018c5
   208 0001:000018c8   209 0001:000018de   210 0001:000018e2   211 0001:000018ea
   212 0001:000018f0   686 0001:000018f3   709 0001:000018f4   711 0001:000018f6
   714 0001:00001911   715 0001:00001914   712 0001:00001915   715 0001:0000191d
   763 0001:0000191e   764 0001:00001929   767 0001:0000192e   768 0001:00001938
   772 0001:00001942   774 0001:0000194c   776 0001:00001959   778 0001:00001964
   779 0001:0000196c   781 0001:00001971   782 0001:00001973   784 0001:00001979
   786 0001:0000198b   787 0001:00001994   776 0001:000019a4   790 0001:000019ac
   793 0001:000019b2   796 0001:000019b4   797 0001:000019b8   800 0001:000019be
   785 0001:000019c0   803 0001:000019c7   806 0001:000019d5   807 0001:000019dc
   809 0001:000019ee   810 0001:000019f6   803 0001:00001a06   813 0001:00001a0e
   815 0001:00001a12   816 0001:00001a17   165 0001:00001a19   744 0001:00001a35
   743 0001:00001a35   750 0001:00001a4c   754 0001:00001a4f   753 0001:00001a50
   754 0001:00001a52  1154 0001:00001a53  1155 0001:00001a68  1159 0001:00001a7e
  1163 0001:00001a81  1164 0001:00001a97  1167 0001:00001a9c  1170 0001:00001aa7
  1172 0001:00001ac3  1174 0001:00001ad6  1177 0001:00001aed  1181 0001:00001af3
  1184 0001:00001b05  1186 0001:00001b0f  1188 0001:00001b12  1191 0001:00001b1e
  1193 0001:00001b22  1195 0001:00001b39  1197 0001:00001b46  1203 0001:00001b4b
  1205 0001:00001b5b  1206 0001:00001b61  1210 0001:00001b78  1214 0001:00001b8c
  1216 0001:00001ba9  1220 0001:00001bc0  1223 0001:00001bca  1227 0001:00001bd3
  1228 0001:00001bdd  1231 0001:00001bf6  1389 0001:00001bfe  1393 0001:00001c02
  1395 0001:00001c14  1397 0001:00001c35  1167 0001:00001c4c  1397 0001:00001c56
  1238 0001:00001c5b  1243 0001:00001c68  1244 0001:00001c7c  1246 0001:00001c84
  1247 0001:00001c95  1259 0001:00001ca2  1260 0001:00001cad  1262 0001:00001cba
  1266 0001:00001cbc  1269 0001:00001cce  1271 0001:00001cd9  1272 0001:00001ced
  1275 0001:00001cf1  1276 0001:00001d05  1280 0001:00001d09  1281 0001:00001d22
  1286 0001:00001d2a  1290 0001:00001d41  1292 0001:00001d4b  1296 0001:00001d6a
  1298 0001:00001d6f  1299 0001:00001d74  1300 0001:00001d8b  1301 0001:00001d8d
  1305 0001:00001d94  1306 0001:00001d99  1317 0001:00001da0  1319 0001:00001db3
  1321 0001:00001dc6  1324 0001:00001dd9  1326 0001:00001ddf  1328 0001:00001df8
  1331 0001:00001e02  1341 0001:00001e15  1345 0001:00001e28  1348 0001:00001e31
  1383 0001:00001e3d  1403 0001:00001e44  1404 0001:00001e5c  1358 0001:00001e74
  1361 0001:00001e8b  1365 0001:00001eac  1367 0001:00001ebe  1370 0001:00001ec3
  1371 0001:00001ed7  1374 0001:00001ee5  1379 0001:00001ef1  1381 0001:00001f01
  1386 0001:00001f09  1221 0001:00001f0e  1232 0001:00001f16  1250 0001:00001f21
  1251 0001:00001f26  1256 0001:00001f33  1257 0001:00001f38  1267 0001:00001f51
  1282 0001:00001f6b  1372 0001:00001f70   819 0001:00001fc3   827 0001:00001fdf
   828 0001:00002000   829 0001:00002006   832 0001:0000201f   835 0001:00002029
   836 0001:0000202e   837 0001:0000203d   839 0001:00002043   850 0001:0000206f
   851 0001:0000207d   852 0001:00002083   853 0001:00002098   858 0001:000020a2
   860 0001:000020b8   861 0001:000020bb   863 0001:000020ca   864 0001:000020cf
   866 0001:000020d5   852 0001:000020d7   868 0001:000020dd   877 0001:000020e0
   878 0001:000020e2   858 0001:000020e4   882 0001:000020ea   883 0001:000020ee
   885 0001:00002101   887 0001:00002103   889 0001:00002106   890 0001:00002123
   894 0001:00002128   901 0001:0000212e   903 0001:0000214a   905 0001:0000215b
   909 0001:0000216d   910 0001:0000217a   913 0001:00002182   916 0001:00002184
   917 0001:0000219f   918 0001:000021bd   919 0001:000021c7   920 0001:000021e6
   921 0001:000021f6   922 0001:000021ff   923 0001:00002238   924 0001:00002254
   843 0001:0000226f   928 0001:00002285   931 0001:0000228b   934 0001:00002294
   935 0001:000022a1   937 0001:000022a3   938 0001:000022a5   628 0001:000022be
   618 0001:000022be   629 0001:000022e1   630 0001:000022f4   631 0001:00002307
   636 0001:0000231b   638 0001:0000231d   645 0001:00002338   647 0001:0000233b
   640 0001:0000233c   641 0001:0000234b   647 0001:0000234f   651 0001:0000242c
   650 0001:0000242c   677 0001:0000244d   683 0001:00002450   670 0001:00002451
   683 0001:00002454   663 0001:00002455   683 0001:00002458   681 0001:00002459
   683 0001:0000245b   994 0001:0000245c   998 0001:00002466  1000 0001:0000247b
  1001 0001:00002484  1003 0001:00002486  1004 0001:0000248b  1005 0001:00002498
  1006 0001:0000249a  1007 0001:000024a5  1010 0001:000024a7  1011 0001:000024a9
   950 0001:000024bd   951 0001:000024c1   955 0001:000024c3   959 0001:000024e1
   962 0001:000024e5   963 0001:000024ee   941 0001:000024f2   942 0001:000024f3
   943 0001:000024f8   946 0001:00002513   947 0001:00002517   944 0001:0000251a
   757 0001:00002612   758 0001:00002612   759 0001:00002614   760 0001:0000262c
   460 0001:0000262d   461 0001:0000263a   470 0001:00002645   471 0001:00002666

Line numbers for .\Release\VSNetToolHostShim.obj(g:\vsnet\vc7\atlmfc\include\atlcomcli.h) segment .text

    27 0001:00000af7    26 0001:00000af7    28 0001:00000afd    29 0001:00000b0b
    33 0001:00002603    32 0001:00002603    34 0001:00002611

Line numbers for .\Release\stdafx.obj(g:\vsnet\vc7\atlmfc\include\atlbase.h) segment .text

  2573 0001:000001e9  2576 0001:000001f1  2577 0001:000001fd  2578 0001:00000201
  2579 0001:00000208  2582 0001:0000020c  2583 0001:0000020d  2584 0001:0000021b
  6215 0001:0000023e  6216 0001:0000023f  6217 0001:00000245  6218 0001:00000247
  6219 0001:0000024b  6220 0001:0000024d  6221 0001:00000252  6223 0001:0000025a
  6224 0001:00000265  6225 0001:00000282  6226 0001:0000028a  6227 0001:00000294
  6228 0001:00000298  6229 0001:0000029b  2602 0001:0000da07

Line numbers for .\Release\stdafx.obj(g:\vsnet\vc7\atlmfc\include\atlbase.inl) segment .text

   353 0001:0000029e   352 0001:0000029e   354 0001:000002a4   357 0001:000002a6
   358 0001:000002ab   360 0001:000002b2   362 0001:000002b6   369 0001:000002be

Line numbers for .\Release\stdafx.obj(g:\vsnet\vc7\atlmfc\include\atlconv.h) segment .text

   101 0001:000000b2   102 0001:000000c1   104 0001:000000c3   110 0001:000000c9
   113 0001:000000df   116 0001:000000e9   120 0001:000000fa   121 0001:000000fe
   124 0001:00000106   128 0001:00000113   127 0001:00000113   129 0001:00000116
   134 0001:00000117   139 0001:00000130   140 0001:00000141   143 0001:0000014b
   147 0001:00000152   149 0001:00000157   151 0001:00000163   152 0001:00000169

Line numbers for .\Release\stdafx.obj(g:\vsnet\vc7\atlmfc\include\atlcore.h) segment .text

   114 0001:0000017c   116 0001:0000017d   117 0001:0000018c   129 0001:00000190
   130 0001:0000019c   131 0001:0000019e   133 0001:000001a1   136 0001:000001aa
   138 0001:000001bb   143 0001:000001d8   144 0001:000001da

Line numbers for .\Release\stdafx.obj(g:\vsnet\vc7\atlmfc\include\atlcomcli.h) segment .text

   629 0001:000001e0   628 0001:000001e0   630 0001:000001e8

Line numbers for .\Release\stdafx.obj(g:\vsnet\vc7\atlmfc\include\atlsimpcoll.h) segment .text

   173 0001:00000311   174 0001:00000314   178 0001:0000031a   179 0001:00000321
   181 0001:00000325   182 0001:00000329   183 0001:0000032e   196 0001:0000032f
   194 0001:0000032f   200 0001:0000033c   201 0001:00000341

Line numbers for .\Release\dlldatax.obj(d:\dev\booktwo\disk\simpletoolwindow\vsnettoolhostshim\dlldata.c) segment .text

    32 0001:00000000    32 0001:00000034    32 0001:00000040    32 0001:00000051
    32 0001:00000052    32 0001:00000064    32 0001:0000008b

Line numbers for .\Release\dlldatax.obj(d:\dev\booktwo\disk\simpletoolwindow\vsnettoolhostshim\vsnettoolhostshim_p.c) segment .orpc

   423 0002:00000000   421 0002:00000000   425 0002:0000001a   426 0002:00000021
   429 0002:00000026   430 0002:00000028

Line numbers for G:\VSNET\Vc7\lib\MSVCRT.lib(F:\VS70Builds\3036\vc\crtbld\crt\src\intel\chkstk.asm) segment .text

    69 0001:0000d440    65 0001:0000d440    70 0001:0000d445    72 0001:0000d447
    73 0001:0000d449    74 0001:0000d44b    75 0001:0000d44e    76 0001:0000d450
    77 0001:0000d451    78 0001:0000d453    79 0001:0000d454    82 0001:0000d455
    83 0001:0000d456    88 0001:0000d45a    89 0001:0000d460    91 0001:0000d465
    93 0001:0000d467    94 0001:0000d46c    97 0001:0000d46e    98 0001:0000d470
   100 0001:0000d472   102 0001:0000d474   104 0001:0000d476   105 0001:0000d478
   107 0001:0000d47b   109 0001:0000d47c

Line numbers for G:\VSNET\Vc7\lib\MSVCRT.lib(f:\vs70builds\3036\vc\crtbld\crt\src\atonexit.c) segment .text

    81 0001:0000ce38    76 0001:0000ce38    90 0001:0000ce5d    96 0001:0000ce5e
    95 0001:0000ce5e    97 0001:0000ce6f

Line numbers for G:\VSNET\Vc7\lib\MSVCRT.lib(f:\vs70builds\3036\vc\crtbld\crt\src\crtdll.c) segment .text

   134 0001:0000cf42   129 0001:0000cf42   135 0001:0000cf4a   136 0001:0000cf52
   158 0001:0000cf58   163 0001:0000cf6b   168 0001:0000cf80   170 0001:0000cf84
   172 0001:0000cf87   178 0001:0000cf91   179 0001:0000cf96   184 0001:0000cfa0
   189 0001:0000cfb1   192 0001:0000cfb8   219 0001:0000cfbe   220 0001:0000cfc7
   225 0001:0000cfc9   226 0001:0000cfd5   234 0001:0000cfeb   236 0001:0000cff2
   234 0001:0000cff9   240 0001:0000cffa   241 0001:0000cffd   249 0001:0000d000
   250 0001:0000d00c   252 0001:0000d012   257 0001:0000d017   258 0001:0000d024
   260 0001:0000d02a   262 0001:0000d033   263 0001:0000d03c   265 0001:0000d048
   266 0001:0000d051   268 0001:0000d060   269 0001:0000d062   272 0001:0000d064
   275 0001:0000d074   283 0001:0000d07d   286 0001:0000d087   288 0001:0000d090
   289 0001:0000d09e   291 0001:0000d0a1   292 0001:0000d0af   298 0001:0000d0bd
   294 0001:0000d0c2   295 0001:0000d0da   299 0001:0000d0dc

Line numbers for G:\VSNET\Vc7\lib\MSVCRT.lib(f:\vs70builds\3036\vc\crtbld\crt\src\secchk.c) segment .text

   114 0001:0000d358   116 0001:0000d364   117 0001:0000d368   119 0001:0000d375
   123 0001:0000d380   100 0001:0000d389   103 0001:0000d389   104 0001:0000d38f
   105 0001:0000d391   107 0001:0000d392

Line numbers for G:\VSNET\Vc7\lib\MSVCRT.lib(f:\vs70builds\3036\vc\crtbld\crt\src\seccinit.c) segment .text

    49 0001:0000d397    58 0001:0000d39d    67 0001:0000d3ae    70 0001:0000d3b8
    75 0001:0000d3be    76 0001:0000d3c6    77 0001:0000d3ce    79 0001:0000d3d6
    93 0001:0000d3e0    94 0001:0000d3fb

Line numbers for G:\VSNET\Vc7\atlmfc\lib\atls.lib(f:\vs70builds\3036\vc\mfcatl\ship\atlmfc\src\atl\atls\atlbase.cpp) segment .text

    67 0001:0000d215    68 0001:0000d218    69 0001:0000d222    29 0001:0000d22b
    32 0001:0000d246    36 0001:0000d24b    38 0001:0000d26e    39 0001:0000d27f
    41 0001:0000d285    46 0001:0000d28b    49 0001:0000d293    51 0001:0000d2a1
    58 0001:0000d2a5    62 0001:0000d2bf    64 0001:0000d2c6   126 0001:0000da35

Line numbers for G:\VSNET\Vc7\atlmfc\lib\atls.lib(f:\vs70builds\3036\vc\mfcatl\ship\atlmfc\include\atlsimpcoll.h) segment .text

   173 0001:0000d1de   174 0001:0000d1e1   178 0001:0000d1e7   179 0001:0000d1ed
   181 0001:0000d1f1   182 0001:0000d1f5   183 0001:0000d1fa

Line numbers for G:\VSNET\Vc7\atlmfc\lib\atls.lib(f:\vs70builds\3036\vc\mfcatl\ship\atlmfc\src\atl\atls\atlcommodule.cpp) segment .text

    20 0001:0000da4b

Line numbers for G:\VSNET\Vc7\atlmfc\lib\atls.lib(f:\vs70builds\3036\vc\mfcatl\ship\atlmfc\include\atlbase.h) segment .text

  2272 0001:0000d2d6  2273 0001:0000d2d9  2276 0001:0000d2df  2278 0001:0000d2e8
  2281 0001:0000d2ee  2282 0001:0000d2f5  2283 0001:0000d2fb  2276 0001:0000d2ff
  2286 0001:0000d308  2290 0001:0000d312  2291 0001:0000d317  2248 0001:0000d318
  2257 0001:0000d326  2261 0001:0000d34c  2263 0001:0000d354

 Exports

  ordinal    name

        1    _DllCanUnloadNow@0
               exported name: DllCanUnloadNow
        2    _DllGetClassObject@12
               exported name: DllGetClassObject
        3    _DllRegisterServer@0
               exported name: DllRegisterServer
        4    _DllUnregisterServer@0
               exported name: DllUnregisterServer
