 WDBG

 Timestamp is 3e4e57e2 (Sat Feb 15 10:08:18 2003)

 Preferred load address is 00400000

 Start         Length     Name                   Class
 0001:00000000 0000a5b4H .text                   CODE
 0001:0000a5b4 000007f3H .text$x                 CODE
 0001:0000ada7 0000004bH .text$yc                CODE
 0001:0000adf2 00000014H .text$yd                CODE
 0002:00000000 000007fcH .idata$5                DATA
 0002:00000800 00003498H .rdata                  DATA
 0002:00003c98 0000003dH .rdata$debug            DATA
 0002:00003cd8 00000044H .rdata$r                DATA
 0002:00003d20 000000e4H .rdata$sxdata           DATA
 0002:00003e04 00000004H .rtc$IAA                DATA
 0002:00003e08 00000004H .rtc$IZZ                DATA
 0002:00003e0c 00000004H .rtc$TAA                DATA
 0002:00003e10 00000004H .rtc$TZZ                DATA
 0002:00003e18 00000ca0H .xdata$x                DATA
 0002:00004ab8 00000000H ATL$__a                 DATA
 0002:00004ab8 00000000H ATL$__z                 DATA
 0002:00004ab8 000000dcH .idata$2                DATA
 0002:00004b94 00000014H .idata$3                DATA
 0002:00004ba8 000007fcH .idata$4                DATA
 0002:000053a4 000009d0H .idata$6                DATA
 0002:00005d74 00000000H .edata                  DATA
 0003:00000000 00000004H .CRT$XCA                DATA
 0003:00000004 00000004H .CRT$XCAA               DATA
 0003:00000008 00000008H .CRT$XCL                DATA
 0003:00000010 00000008H .CRT$XCU                DATA
 0003:00000018 00000004H .CRT$XCZ                DATA
 0003:0000001c 00000004H .CRT$XIA                DATA
 0003:00000020 00000004H .CRT$XIZ                DATA
 0003:00000030 000000d0H .data                   DATA
 0003:00000100 00000114H .bss                    DATA
 0004:00000000 00000820H .rsrc$01                DATA
 0004:00000820 00004340H .rsrc$02                DATA

  Address         Publics by Value              Rva+Base     Lib:Object

 0000:00000000       __except_list              00000000     <absolute>
 0000:00000039       ___safe_se_handler_count   00000039     <absolute>
 0000:00009876       __ldused                   00009876     <absolute>
 0000:00009876       __fltused                  00009876     <absolute>
 0000:00000000       ___ImageBase               00400000     <linker-defined>
 0001:00000000       ??_GCAboutDlg@@UAEPAXI@Z   00401000 f i AboutDlg.obj
 0001:00000000       ??_ECAboutDlg@@UAEPAXI@Z   00401000 f i AboutDlg.obj
 0001:0000001c       ??1CAboutDlg@@UAE@XZ       0040101c f i AboutDlg.obj
 0001:00000021       ??0CAboutDlg@@QAE@XZ       00401021 f   AboutDlg.obj
 0001:00000035       ?DoDataExchange@CAboutDlg@@MAEXPAVCDataExchange@@@Z 00401035 f   AboutDlg.obj
 0001:00000035       ?Serialize@CObject@@UAEXAAVCArchive@@@Z 00401035 f   AboutDlg.obj
 0001:00000035       ?DoDataExchange@CWnd@@MAEXPAVCDataExchange@@@Z 00401035 f   AboutDlg.obj
 0001:00000035       ?Dump@CObject@@UBEXAAVCDumpContext@@@Z 00401035 f   AboutDlg.obj
 0001:00000035       ?OnDraw@CWDBGLogView@@UAEXPAVCDC@@@Z 00401035 f   WDBGLogView.obj
 0001:00000038       ?Create@CDialog@@UAEHIPAVCWnd@@@Z 00401038 f i AboutDlg.obj
 0001:0000004d       ?EndModalState@CWnd@@UAEXXZ 0040104d f i AboutDlg.obj
 0001:00000059       ?BeginModalState@CWnd@@UAEXXZ 00401059 f i AboutDlg.obj
 0001:00000065       ??3CObject@@SGXPAX@Z       00401065 f i AboutDlg.obj
 0001:00000072       ??0CBreakpoint@@QAE@XZ     00401072 f i Breakpoint.obj
 0001:00000097       ??0CLocationBP@@QAE@XZ     00401097 f i Breakpoint.obj
 0001:000000ad       ?GetType@CLocationBP@@UAE?AW4eBreakpointType@@XZ 004010ad f i Breakpoint.obj
 0001:000000b1       ??_GCBreakpoint@@UAEPAXI@Z 004010b1 f i Breakpoint.obj
 0001:000000b1       ??_GCLocationBP@@UAEPAXI@Z 004010b1 f i Breakpoint.obj
 0001:000000b1       ??_ECBreakpoint@@UAEPAXI@Z 004010b1 f i Breakpoint.obj
 0001:000000b1       ??_GCOneShotBP@@UAEPAXI@Z  004010b1 f i WDBGProjDoc.obj
 0001:000000b1       ??_ECLocationBP@@UAEPAXI@Z 004010b1 f i Breakpoint.obj
 0001:000000b1       ??_ECOneShotBP@@UAEPAXI@Z  004010b1 f i WDBGProjDoc.obj
 0001:000000cd       ??1CLocationBP@@UAE@XZ     004010cd f i Breakpoint.obj
 0001:000000cd       ??1COneShotBP@@UAE@XZ      004010cd f i WDBGProjDoc.obj
 0001:000000cd       ??1CBreakpoint@@UAE@XZ     004010cd f i Breakpoint.obj
 0001:000000d6       ?SetBreakpointLocation@CBreakpoint@@UAEHPBX@Z 004010d6 f   Breakpoint.obj
 0001:000000ea       ?SetBreakpointName@CBreakpoint@@UAEXPBG@Z 004010ea f   Breakpoint.obj
 0001:000000f3       ?ArmBreakpoint@CBreakpoint@@UAEHPAX@Z 004010f3 f   Breakpoint.obj
 0001:00000151       ?GetBreakpointLocation@CBreakpoint@@UAEPBXXZ 00401151 f   Breakpoint.obj
 0001:00000155       ?GetBreakpointName@CBreakpoint@@UAEPBGXZ 00401155 f   Breakpoint.obj
 0001:00000159       ?ClearBreakpoint@CBreakpoint@@UAEHXZ 00401159 f   Breakpoint.obj
 0001:000001c2       ?GetState@CBreakpoint@@UAE?AW4eBreakpointState@@XZ 004011c2 f   Breakpoint.obj
 0001:000001c6       ?SetToUnresolved@CBreakpoint@@UAEXXZ 004011c6 f   Breakpoint.obj
 0001:000001ce       ?SetToDisabled@CBreakpoint@@UAEXXZ 004011ce f   Breakpoint.obj
 0001:000001e5       ?HandleBreakpoint@COneShotBP@@UAEPBXPAXAAU_CONTEXT@@@Z 004011e5 f   Breakpoint.obj
 0001:0000024b       ?HandleSingleStep@COneShotBP@@UAEHPAXAAU_CONTEXT@@PAK@Z 0040124b f   Breakpoint.obj
 0001:00000251       ?HandleBreakpoint@CLocationBP@@UAEPBXPAXAAU_CONTEXT@@@Z 00401251 f   Breakpoint.obj
 0001:000002ca       ?HandleSingleStep@CLocationBP@@UAEHPAXAAU_CONTEXT@@PAK@Z 004012ca f   Breakpoint.obj
 0001:00000331       ?ClearSingleStep@CLocationBP@@UAEHXZ 00401331 f   Breakpoint.obj
 0001:0000039c       ?CreateObject@CLocationBP@@SGPAVCObject@@XZ 0040139c f   Breakpoint.obj
 0001:000003b0       ?GetRuntimeClass@CLocationBP@@UBEPAUCRuntimeClass@@XZ 004013b0 f   Breakpoint.obj
 0001:000003b6       ?Serialize@CLocationBP@@UAEXAAVCArchive@@@Z 004013b6 f   Breakpoint.obj
 0001:00000406       ??$?6GV?$StrTraitMFC_DLL@GV?$ChTraitsCRT@G@ATL@@@@@@YGAAVCArchive@@AAV0@ABV?$CStringT@GV?$StrTraitMFC_DLL@GV?$ChTraitsCRT@G@ATL@@@@@ATL@@@Z 00401406 f i Breakpoint.obj
 0001:0000042f       ??$?5GV?$StrTraitMFC_DLL@GV?$ChTraitsCRT@G@ATL@@@@@@YGAAVCArchive@@AAV0@AAV?$CStringT@GV?$StrTraitMFC_DLL@GV?$ChTraitsCRT@G@ATL@@@@@ATL@@@Z 0040142f f i Breakpoint.obj
 0001:00000547       ??1?$CTempBuffer@D$0IA@VCCRTAllocator@ATL@@@ATL@@QAE@XZ 00401547 f i Breakpoint.obj
 0001:00000547       ??1?$CTempBuffer@G$0IA@VCCRTAllocator@ATL@@@ATL@@QAE@XZ 00401547 f i Breakpoint.obj
 0001:00000554       ?FreeHeap@?$CTempBuffer@G$0IA@VCCRTAllocator@ATL@@@ATL@@AAEXXZ 00401554 f i Breakpoint.obj
 0001:00000554       ?FreeHeap@?$CTempBuffer@D$0IA@VCCRTAllocator@ATL@@@ATL@@AAEXXZ 00401554 f i Breakpoint.obj
 0001:0000055e       ?AllocateBytes@?$CTempBuffer@G$0IA@VCCRTAllocator@ATL@@@ATL@@QAEPAGI@Z 0040155e f i Breakpoint.obj
 0001:0000055e       ?AllocateBytes@?$CTempBuffer@D$0IA@VCCRTAllocator@ATL@@@ATL@@QAEPADI@Z 0040155e f i Breakpoint.obj
 0001:0000057e       ?AllocateHeap@?$CTempBuffer@D$0IA@VCCRTAllocator@ATL@@@ATL@@AAEXI@Z 0040157e f i Breakpoint.obj
 0001:0000057e       ?AllocateHeap@?$CTempBuffer@G$0IA@VCCRTAllocator@ATL@@@ATL@@AAEXI@Z 0040157e f i Breakpoint.obj
 0001:000005a0       ?AtlThrow@ATL@@YGXJ@Z      004015a0 f i Breakpoint.obj
 0001:000005b9       ??5CArchive@@QAEAAV0@AAJ@Z 004015b9 f i Breakpoint.obj
 0001:000005f7       ??6CArchive@@QAEAAV0@J@Z   004015f7 f i Breakpoint.obj
 0001:0000062e       ??0CLocationBP@@QAE@ABV0@@Z 0040162e f i BreakpointsDlg.obj
 0001:0000068b       ??0CBreakpointsDlg@@QAE@PAV?$CArray@PAVCLocationBP@@PAV1@@@PAVCWDBGProjDoc@@PAVCWnd@@@Z 0040168b f   BreakpointsDlg.obj
 0001:00000713       ??_GCBreakpointsDlg@@UAEPAXI@Z 00401713 f i BreakpointsDlg.obj
 0001:00000713       ??_ECBreakpointsDlg@@UAEPAXI@Z 00401713 f i BreakpointsDlg.obj
 0001:00000730       ??1CBreakpointsDlg@@UAE@XZ 00401730 f i BreakpointsDlg.obj
 0001:00000785       ?DoDataExchange@CBreakpointsDlg@@MAEXPAVCDataExchange@@@Z 00401785 f   BreakpointsDlg.obj
 0001:000007bf       ?GetMessageMap@CBreakpointsDlg@@MBEPBUAFX_MSGMAP@@XZ 004017bf f   BreakpointsDlg.obj
 0001:000007c5       ?OnOK@CBreakpointsDlg@@MAEXXZ 004017c5 f   BreakpointsDlg.obj
 0001:00000a07       ?OnCancel@CBreakpointsDlg@@MAEXXZ 00401a07 f   BreakpointsDlg.obj
 0001:00000a4b       ?OnEdit@CBreakpointsDlg@@IAEXXZ 00401a4b f   BreakpointsDlg.obj
 0001:00000bab       ??1CNewEditBPDlg@@UAE@XZ   00401bab f i BreakpointsDlg.obj
 0001:00000c0c       ?OnNew@CBreakpointsDlg@@IAEXXZ 00401c0c f   BreakpointsDlg.obj
 0001:00000ccd       ?OnRemove@CBreakpointsDlg@@IAEXXZ 00401ccd f   BreakpointsDlg.obj
 0001:00000d24       ?OnInitDialog@CBreakpointsDlg@@MAEHXZ 00401d24 f   BreakpointsDlg.obj
 0001:00000df0       ?OnSelchangeBplist@CBreakpointsDlg@@IAEXXZ 00401df0 f   BreakpointsDlg.obj
 0001:00000e27       ??1?$CArray@PAVCLocationBP@@PAV1@@@UAE@XZ 00401e27 f i BreakpointsDlg.obj
 0001:00000e3c       ?Serialize@?$CArray@PAVCLocationBP@@PAV1@@@UAEXAAVCArchive@@@Z 00401e3c f i BreakpointsDlg.obj
 0001:00000e7b       ??_E?$CArray@PAVCLocationBP@@PAV1@@@UAEPAXI@Z 00401e7b f i BreakpointsDlg.obj
 0001:00000e7b       ??_G?$CArray@PAVCLocationBP@@PAV1@@@UAEPAXI@Z 00401e7b f i BreakpointsDlg.obj
 0001:00000e99       ?SetSize@?$CArray@PAVCLocationBP@@PAV1@@@QAEXHH@Z 00401e99 f i BreakpointsDlg.obj
 0001:00000fb8       ?SetAtGrow@?$CArray@PAVCLocationBP@@PAV1@@@QAEXHPAVCLocationBP@@@Z 00401fb8 f i BreakpointsDlg.obj
 0001:00000fe4       ??$SerializeElements@PAVCLocationBP@@@@YGXAAVCArchive@@PAPAVCLocationBP@@H@Z 00401fe4 f i BreakpointsDlg.obj
 0001:00001058       ?AddString@CListBox@@QAEHPBG@Z 00402058 f i BreakpointsDlg.obj
 0001:0000106f       ?SetCurSel@CListBox@@QAEHH@Z 0040206f f i BreakpointsDlg.obj
 0001:00001086       ?SetItemData@CListBox@@QAEHHK@Z 00402086 f i BreakpointsDlg.obj
 0001:0000109f       ?InsertString@CListBox@@QAEHHPBG@Z 0040209f f i BreakpointsDlg.obj
 0001:000010b8       ?GetItemData@CListBox@@QBEKH@Z 004020b8 f i BreakpointsDlg.obj
 0001:000010b8       ?GetItemDataPtr@CListBox@@QBEPAXH@Z 004020b8 f i BreakpointsDlg.obj
 0001:000010cf       ?GetCurSel@CListBox@@QBEHXZ 004020cf f i BreakpointsDlg.obj
 0001:000010e2       ?DeleteString@CListBox@@QAEHI@Z 004020e2 f i BreakpointsDlg.obj
 0001:000010f9       ?GetCount@CListBox@@QBEHXZ 004020f9 f i BreakpointsDlg.obj
 0001:0000110c       ??_GCButton@@UAEPAXI@Z     0040210c f i BreakpointsDlg.obj
 0001:0000110c       ??_ECButton@@UAEPAXI@Z     0040210c f i BreakpointsDlg.obj
 0001:00001128       ??1CCheckListBox@@UAE@XZ   00402128 f i BreakpointsDlg.obj
 0001:0000112d       ??0CCheckListBox@@QAE@XZ   0040212d f i BreakpointsDlg.obj
 0001:00001149       ??_GCCheckListBox@@UAEPAXI@Z 00402149 f i BreakpointsDlg.obj
 0001:00001149       ??_ECCheckListBox@@UAEPAXI@Z 00402149 f i BreakpointsDlg.obj
 0001:00001165       ??0CDisasmDisplayDlg@@QAE@PAVCWnd@@@Z 00402165 f   DisasmDisplayDlg.obj
 0001:000011cd       ?DoDataExchange@CDisasmDisplayDlg@@MAEXPAVCDataExchange@@@Z 004021cd f   DisasmDisplayDlg.obj
 0001:000011fb       ?OnOK@CMemoryDisplayDlg@@MAEXXZ 004021fb f   MemoryDisplayDlg.obj
 0001:000011fb       ?OnOK@CDisasmDisplayDlg@@MAEXXZ 004021fb f   DisasmDisplayDlg.obj
 0001:00001232       ?GetMessageMap@CDocNotifyWnd@@MBEPBUAFX_MSGMAP@@XZ 00402232 f   DocNotifyWnd.obj
 0001:00001238       ??0CDocNotifyWnd@@QAE@XZ   00402238 f   DocNotifyWnd.obj
 0001:00001292       ??_ECDocNotifyWnd@@UAEPAXI@Z 00402292 f i DocNotifyWnd.obj
 0001:00001292       ??_GCDocNotifyWnd@@UAEPAXI@Z 00402292 f i DocNotifyWnd.obj
 0001:000012ae       ??1CDocNotifyWnd@@UAE@XZ   004022ae f   DocNotifyWnd.obj
 0001:000012c8       ?Create@CDocNotifyWnd@@QAEHPAVCWDBGProjDoc@@@Z 004022c8 f   DocNotifyWnd.obj
 0001:0000130a       ?HandleExitProcessEvent@CDocNotifyWnd@@IAEJIJ@Z 0040230a f   DocNotifyWnd.obj
 0001:0000131c       ?HandleExceptionEvent@CDocNotifyWnd@@IAEJIJ@Z 0040231c f   DocNotifyWnd.obj
 0001:00001331       ?HandleCreateProcessEvent@CDocNotifyWnd@@IAEJIJ@Z 00402331 f   DocNotifyWnd.obj
 0001:00001342       ?ForceAGo@CDocNotifyWnd@@IAEJIJ@Z 00402342 f   DocNotifyWnd.obj
 0001:0000135b       ?HandleThreadCreateEvent@CDocNotifyWnd@@IAEJIJ@Z 0040235b f   DocNotifyWnd.obj
 0001:0000136a       ?HandleThreadExitEvent@CDocNotifyWnd@@IAEJIJ@Z 0040236a f   DocNotifyWnd.obj
 0001:0000137b       ?HandleLoadDllEvent@CDocNotifyWnd@@IAEJIJ@Z 0040237b f   DocNotifyWnd.obj
 0001:0000138e       ?HandleUnloadDllEvent@CDocNotifyWnd@@IAEJIJ@Z 0040238e f   DocNotifyWnd.obj
 0001:0000139d       ?HandleOutputDebugStringEvent@CDocNotifyWnd@@IAEJIJ@Z 0040239d f   DocNotifyWnd.obj
 0001:000013ae       ??_GCMainFrame@@UAEPAXI@Z  004023ae f i MainFrm.obj
 0001:000013ae       ??_ECMainFrame@@UAEPAXI@Z  004023ae f i MainFrm.obj
 0001:000013ca       ??1CMDIFrameWnd@@UAE@XZ    004023ca f i MainFrm.obj
 0001:000013cf       ?GetRuntimeClass@CMainFrame@@UBEPAUCRuntimeClass@@XZ 004023cf f   MainFrm.obj
 0001:000013d5       ?GetMessageMap@CMainFrame@@MBEPBUAFX_MSGMAP@@XZ 004023d5 f   MainFrm.obj
 0001:000013db       ??0CMainFrame@@QAE@XZ      004023db f   MainFrm.obj
 0001:00001425       ??1CMainFrame@@UAE@XZ      00402425 f   MainFrm.obj
 0001:00001475       ?OnCreate@CMainFrame@@IAEHPAUtagCREATESTRUCTW@@@Z 00402475 f   MainFrm.obj
 0001:00001520       ?PreCreateWindow@CMainFrame@@UAEHAAUtagCREATESTRUCTW@@@Z 00402520 f   MainFrm.obj
 0001:00001532       ??0CMemoryDisplayDlg@@QAE@PAVCWnd@@@Z 00402532 f   MemoryDisplayDlg.obj
 0001:000015a0       ??_ECDisasmDisplayDlg@@UAEPAXI@Z 004025a0 f i DisasmDisplayDlg.obj
 0001:000015a0       ??_GCDisasmDisplayDlg@@UAEPAXI@Z 004025a0 f i DisasmDisplayDlg.obj
 0001:000015a0       ??_ECMemoryDisplayDlg@@UAEPAXI@Z 004025a0 f i MemoryDisplayDlg.obj
 0001:000015a0       ??_GCMemoryDisplayDlg@@UAEPAXI@Z 004025a0 f i MemoryDisplayDlg.obj
 0001:000015bc       ??1CDisasmDisplayDlg@@UAE@XZ 004025bc f i DisasmDisplayDlg.obj
 0001:000015bc       ??1CMemoryDisplayDlg@@UAE@XZ 004025bc f i MemoryDisplayDlg.obj
 0001:000015cc       ?DoDataExchange@CMemoryDisplayDlg@@MAEXPAVCDataExchange@@@Z 004025cc f   MemoryDisplayDlg.obj
 0001:000015fa       ?GetMessageMap@CMemoryDisplayDlg@@MBEPBUAFX_MSGMAP@@XZ 004025fa f   MemoryDisplayDlg.obj
 0001:00001600       ?OnInitDialog@CMemoryDisplayDlg@@MAEHXZ 00402600 f   MemoryDisplayDlg.obj
 0001:00001648       ?OnByte@CMemoryDisplayDlg@@IAEXXZ 00402648 f   MemoryDisplayDlg.obj
 0001:00001653       ?OnDword@CMemoryDisplayDlg@@IAEXXZ 00402653 f   MemoryDisplayDlg.obj
 0001:0000165e       ?OnWord@CMemoryDisplayDlg@@IAEXXZ 0040265e f   MemoryDisplayDlg.obj
 0001:00001669       ??0CNewEditBPDlg@@QAE@HPAVCWDBGProjDoc@@PAVCWnd@@@Z 00402669 f   NewEditBPDlg.obj
 0001:00001731       ??_GCNewEditBPDlg@@UAEPAXI@Z 00402731 f i NewEditBPDlg.obj
 0001:00001731       ??_ECNewEditBPDlg@@UAEPAXI@Z 00402731 f i NewEditBPDlg.obj
 0001:0000174e       ?DoDataExchange@CNewEditBPDlg@@MAEXPAVCDataExchange@@@Z 0040274e f   NewEditBPDlg.obj
 0001:000017b1       ?GetMessageMap@CNewEditBPDlg@@MBEPBUAFX_MSGMAP@@XZ 004027b1 f   NewEditBPDlg.obj
 0001:000017b7       ?OnInitDialog@CNewEditBPDlg@@MAEHXZ 004027b7 f   NewEditBPDlg.obj
 0001:000018c6       ?OnSelchangeBptype@CNewEditBPDlg@@IAEXXZ 004028c6 f   NewEditBPDlg.obj
 0001:00001914       ?OnOK@CNewEditBPDlg@@MAEXXZ 00402914 f   NewEditBPDlg.obj
 0001:0000198f       ?GetItemData@CComboBox@@QBEKH@Z 0040298f f i NewEditBPDlg.obj
 0001:000019a6       ?GetCurSel@CComboBox@@QBEHXZ 004029a6 f i NewEditBPDlg.obj
 0001:000019b9       ?SetItemData@CComboBox@@QAEHHK@Z 004029b9 f i NewEditBPDlg.obj
 0001:000019d2       ?AddString@CComboBox@@QAEHPBG@Z 004029d2 f i NewEditBPDlg.obj
 0001:000019e9       ??_GCStatic@@UAEPAXI@Z     004029e9 f i NewEditBPDlg.obj
 0001:000019e9       ??_ECStatic@@UAEPAXI@Z     004029e9 f i NewEditBPDlg.obj
 0001:00001a05       ??_ECEdit@@UAEPAXI@Z       00402a05 f i NewEditBPDlg.obj
 0001:00001a05       ??_GCEdit@@UAEPAXI@Z       00402a05 f i NewEditBPDlg.obj
 0001:00001a21       ??_ECComboBox@@UAEPAXI@Z   00402a21 f i NewEditBPDlg.obj
 0001:00001a21       ??_GCComboBox@@UAEPAXI@Z   00402a21 f i NewEditBPDlg.obj
 0001:00001a3d       ??0CProjectSettings@@QAE@PAVCWnd@@@Z 00402a3d f   ProjectSettings.obj
 0001:00001ab9       ??_GCProjectSettings@@UAEPAXI@Z 00402ab9 f i ProjectSettings.obj
 0001:00001ab9       ??_ECProjectSettings@@UAEPAXI@Z 00402ab9 f i ProjectSettings.obj
 0001:00001ad5       ??1CProjectSettings@@UAE@XZ 00402ad5 f i ProjectSettings.obj
 0001:00001afa       ?DoDataExchange@CProjectSettings@@MAEXPAVCDataExchange@@@Z 00402afa f   ProjectSettings.obj
 0001:00001b34       ?OnOK@CProjectSettings@@MAEXXZ 00402b34 f   ProjectSettings.obj
 0001:00001b39       ?OnInitDialog@CProjectSettings@@MAEHXZ 00402b39 f   ProjectSettings.obj
 0001:00001b94       ??0CSymbolsDisplayDlg@@QAE@PAV?$vector@VCLoadedModule@@V?$allocator@VCLoadedModule@@@std@@@std@@PAVCWnd@@@Z 00402b94 f   SymbolsDisplayDlg.obj
 0001:00001c0d       ??_ECSymbolsDisplayDlg@@UAEPAXI@Z 00402c0d f i SymbolsDisplayDlg.obj
 0001:00001c0d       ??_GCSymbolsDisplayDlg@@UAEPAXI@Z 00402c0d f i SymbolsDisplayDlg.obj
 0001:00001c2a       ??1CSymbolsDisplayDlg@@UAE@XZ 00402c2a f i SymbolsDisplayDlg.obj
 0001:00001c6a       ?DoDataExchange@CSymbolsDisplayDlg@@MAEXPAVCDataExchange@@@Z 00402c6a f   SymbolsDisplayDlg.obj
 0001:00001c97       ?OnInitDialog@CSymbolsDisplayDlg@@MAEHXZ 00402c97 f   SymbolsDisplayDlg.obj
 0001:00001cf4       ??0CThreadPickerDlg@@QAE@PAV?$vector@VCDebuggeeThread@@V?$allocator@VCDebuggeeThread@@@std@@@std@@PBGPAVCWnd@@@Z 00402cf4 f   ThreadPickerDlg.obj
 0001:00001d88       ??_GCThreadPickerDlg@@UAEPAXI@Z 00402d88 f i ThreadPickerDlg.obj
 0001:00001d88       ??_ECThreadPickerDlg@@UAEPAXI@Z 00402d88 f i ThreadPickerDlg.obj
 0001:00001da5       ??1CThreadPickerDlg@@UAE@XZ 00402da5 f i ThreadPickerDlg.obj
 0001:00001df1       ?DoDataExchange@CThreadPickerDlg@@MAEXPAVCDataExchange@@@Z 00402df1 f   ThreadPickerDlg.obj
 0001:00001e1e       ?GetMessageMap@CProjectSettings@@MBEPBUAFX_MSGMAP@@XZ 00402e1e f   ProjectSettings.obj
 0001:00001e1e       ?GetMessageMap@CSymbolsDisplayDlg@@MBEPBUAFX_MSGMAP@@XZ 00402e1e f   SymbolsDisplayDlg.obj
 0001:00001e1e       ?GetMessageMap@CThreadPickerDlg@@MBEPBUAFX_MSGMAP@@XZ 00402e1e f   ThreadPickerDlg.obj
 0001:00001e1e       ?GetMessageMap@CAboutDlg@@MBEPBUAFX_MSGMAP@@XZ 00402e1e f   AboutDlg.obj
 0001:00001e1e       ?GetMessageMap@CDisasmDisplayDlg@@MBEPBUAFX_MSGMAP@@XZ 00402e1e f   DisasmDisplayDlg.obj
 0001:00001e24       ?OnOK@CThreadPickerDlg@@MAEXXZ 00402e24 f   ThreadPickerDlg.obj
 0001:00001e24       ?OnOK@CSymbolsDisplayDlg@@MAEXXZ 00402e24 f   SymbolsDisplayDlg.obj
 0001:00001e50       ?OnInitDialog@CThreadPickerDlg@@MAEHXZ 00402e50 f   ThreadPickerDlg.obj
 0001:00001ef7       ??_ECWDBGApp@@UAEPAXI@Z    00402ef7 f i WDBG.obj
 0001:00001ef7       ??_GCWDBGApp@@UAEPAXI@Z    00402ef7 f i WDBG.obj
 0001:00001f13       ??1CWDBGApp@@UAE@XZ        00402f13 f i WDBG.obj
 0001:00001f18       ?GetMessageMap@CWDBGApp@@MBEPBUAFX_MSGMAP@@XZ 00402f18 f   WDBG.obj
 0001:00001f1e       ??0CWDBGApp@@QAE@XZ        00402f1e f   WDBG.obj
 0001:00001f37       ?InitInstance@CWDBGApp@@UAEHXZ 00402f37 f   WDBG.obj
 0001:0000205b       ?OnAppAbout@CWDBGApp@@QAEXXZ 0040305b f   WDBG.obj
 0001:00002094       ?OnFileOpen@CWDBGApp@@QAEXXZ 00403094 f   WDBG.obj
 0001:00002416       ?OpenDocumentFile@CWDBGApp@@UAEPAVCDocument@@PBG@Z 00403416 f   WDBG.obj
 0001:00002436       ?MDITile@CMDIFrameWnd@@QAEXH@Z 00403436 f i WDBG.obj
 0001:00002450       ?CreateObject@CWDBGChildFrame@@SGPAVCObject@@XZ 00403450 f   WDBGChildFrame.obj
 0001:00002487       ?GetRuntimeClass@CWDBGChildFrame@@UBEPAUCRuntimeClass@@XZ 00403487 f   WDBGChildFrame.obj
 0001:0000248d       ??0CWDBGChildFrame@@IAE@XZ 0040348d f   WDBGChildFrame.obj
 0001:0000249d       ??_ECWDBGChildFrame@@MAEPAXI@Z 0040349d f i WDBGChildFrame.obj
 0001:0000249d       ??_GCWDBGChildFrame@@MAEPAXI@Z 0040349d f i WDBGChildFrame.obj
 0001:000024b9       ??1CWDBGChildFrame@@MAE@XZ 004034b9 f   WDBGChildFrame.obj
 0001:000024c4       ?DisableCloseButton@CWDBGChildFrame@@QAEXXZ 004034c4 f   WDBGChildFrame.obj
 0001:000024ea       ?EnableCloseButton@CWDBGChildFrame@@QAEXXZ 004034ea f   WDBGChildFrame.obj
 0001:00002510       ?GetMessageMap@CWDBGChildFrame@@MBEPBUAFX_MSGMAP@@XZ 00403510 f   WDBGChildFrame.obj
 0001:00002516       ?PreCreateWindow@CWDBGChildFrame@@MAEHAAUtagCREATESTRUCTW@@@Z 00403516 f   WDBGChildFrame.obj
 0001:00002530       ??_ECWDBGLogView@@UAEPAXI@Z 00403530 f i WDBGLogView.obj
 0001:00002530       ??_GCWDBGLogView@@UAEPAXI@Z 00403530 f i WDBGLogView.obj
 0001:0000254c       ?CreateObject@CWDBGLogView@@SGPAVCObject@@XZ 0040354c f   WDBGLogView.obj
 0001:00002583       ?GetRuntimeClass@CWDBGLogView@@UBEPAUCRuntimeClass@@XZ 00403583 f   WDBGLogView.obj
 0001:00002589       ?GetMessageMap@CWDBGLogView@@MBEPBUAFX_MSGMAP@@XZ 00403589 f   WDBGLogView.obj
 0001:0000258f       ??0CWDBGLogView@@IAE@XZ    0040358f f   WDBGLogView.obj
 0001:000025af       ??1CWDBGLogView@@UAE@XZ    004035af f   WDBGLogView.obj
 0001:000025f3       ?PreCreateWindow@CWDBGLogView@@UAEHAAUtagCREATESTRUCTW@@@Z 004035f3 f   WDBGLogView.obj
 0001:000025f8       ?OnPreparePrinting@CWDBGLogView@@MAEHPAUCPrintInfo@@@Z 004035f8 f   WDBGLogView.obj
 0001:000025fd       ?OnBeginPrinting@CWDBGLogView@@MAEXPAVCDC@@PAUCPrintInfo@@@Z 004035fd f   WDBGLogView.obj
 0001:00002602       ?OnEndPrinting@CWDBGLogView@@MAEXPAVCDC@@PAUCPrintInfo@@@Z 00403602 f   WDBGLogView.obj
 0001:00002607       ?Clear@CWDBGLogView@@QAEXXZ 00403607 f   WDBGLogView.obj
 0001:00002623       ?OnChar@CWDBGLogView@@IAEXIII@Z 00403623 f   WDBGLogView.obj
 0001:00002657       ?OnInitialUpdate@CWDBGLogView@@UAEXXZ 00403657 f   WDBGLogView.obj
 0001:000026d9       ?SetViewText@CWDBGLogView@@QAEXPBGH@Z 004036d9 f   WDBGLogView.obj
 0001:00002718       ?DeleteLine@CWDBGLogView@@QAEXH@Z 00403718 f   WDBGLogView.obj
 0001:0000275f       ?DebuggerOutputMsg@CWDBGLogView@@IAEJIJ@Z 0040375f f   WDBGLogView.obj
 0001:00002771       ?AppendText@CWDBGLogView@@QAEXPBGH@Z 00403771 f   WDBGLogView.obj
 0001:000027b0       ?AppendLast@CWDBGLogView@@QAEXPBGH@Z 004037b0 f   WDBGLogView.obj
 0001:000027f0       ?OnRButtonDown@CWDBGLogView@@IAEXIVCPoint@@@Z 004037f0 f   WDBGLogView.obj
 0001:000027f3       ?OnChange@CWDBGLogView@@IAEXXZ 004037f3 f   WDBGLogView.obj
 0001:000027f3       ?OnEditPaste@CWDBGLogView@@IAEXXZ 004037f3 f   WDBGLogView.obj
 0001:000027f3       ?AssertValid@CObject@@UBEXXZ 004037f3 f   AboutDlg.obj
 0001:000027f3       ?OnEditCut@CWDBGLogView@@IAEXXZ 004037f3 f   WDBGLogView.obj
 0001:000027f4       ?OnUpdateEditCut@CWDBGLogView@@IAEXPAVCCmdUI@@@Z 004037f4 f   WDBGLogView.obj
 0001:000027f4       ?OnUpdateEditPaste@CWDBGLogView@@IAEXPAVCCmdUI@@@Z 004037f4 f   WDBGLogView.obj
 0001:00002801       ?OnDestroy@CWDBGLogView@@IAEXXZ 00403801 f   WDBGLogView.obj
 0001:00002816       ?SetSel@CEdit@@QAEXHHH@Z   00403816 f i WDBGLogView.obj
 0001:00002847       ?LineLength@CEdit@@QBEHH@Z 00403847 f i WDBGLogView.obj
 0001:0000285e       ?LineIndex@CEdit@@QBEHH@Z  0040385e f i WDBGLogView.obj
 0001:00002875       ?SetFont@CWnd@@QAEXPAVCFont@@H@Z 00403875 f i WDBGLogView.obj
 0001:00002893       ??1CFont@@UAE@XZ           00403893 f i WDBGLogView.obj
 0001:00002893       ??1CGdiObject@@UAE@XZ      00403893 f i WDBGLogView.obj
 0001:0000289e       ??_GCFont@@UAEPAXI@Z       0040389e f i WDBGLogView.obj
 0001:0000289e       ??_ECFont@@UAEPAXI@Z       0040389e f i WDBGLogView.obj
 0001:0000289e       ??_ECGdiObject@@UAEPAXI@Z  0040389e f i WDBGLogView.obj
 0001:0000289e       ??_GCGdiObject@@UAEPAXI@Z  0040389e f i WDBGLogView.obj
 0001:000028ba       ??0COneShotBP@@QAE@XZ      004038ba f i WDBGProjDoc.obj
 0001:000028d3       ?GetType@COneShotBP@@UAE?AW4eBreakpointType@@XZ 004038d3 f i WDBGProjDoc.obj
 0001:000028d7       ??0CLoadedModule@@QAE@PBX0W4SYM_TYPE@@PBG2@Z 004038d7 f i WDBGProjDoc.obj
 0001:0000290e       ??_GCWDBGProjDoc@@UAEPAXI@Z 0040390e f i WDBGProjDoc.obj
 0001:0000290e       ??_ECWDBGProjDoc@@UAEPAXI@Z 0040390e f i WDBGProjDoc.obj
 0001:0000292a       ?CreateObject@CWDBGProjDoc@@SGPAVCObject@@XZ 0040392a f   WDBGProjDoc.obj
 0001:00002961       ?GetRuntimeClass@CWDBGProjDoc@@UBEPAUCRuntimeClass@@XZ 00403961 f   WDBGProjDoc.obj
 0001:00002967       ?GetMessageMap@CWDBGProjDoc@@MBEPBUAFX_MSGMAP@@XZ 00403967 f   WDBGProjDoc.obj
 0001:0000296d       ??0CWDBGProjDoc@@IAE@XZ    0040396d f   WDBGProjDoc.obj
 0001:00002acd       ??1CWDBGProjDoc@@UAE@XZ    00403acd f   WDBGProjDoc.obj
 0001:00002c11       ?OnNewDocument@CWDBGProjDoc@@UAEHXZ 00403c11 f   WDBGProjDoc.obj
 0001:00002c1d       ?Serialize@CWDBGProjDoc@@UAEXAAVCArchive@@@Z 00403c1d f   WDBGProjDoc.obj
 0001:00002d41       ?ClearAllViews@CWDBGProjDoc@@QAEXXZ 00403d41 f   WDBGProjDoc.obj
 0001:00002e66       ?ViewDestroyed@CWDBGProjDoc@@QAEXPAVCView@@@Z 00403e66 f   WDBGProjDoc.obj
 0001:0000307f       ?OnOpenDocument@CWDBGProjDoc@@UAEHPBG@Z 0040407f f   WDBGProjDoc.obj
 0001:00003457       ?OnCloseDocument@CWDBGProjDoc@@UAEXXZ 00404457 f   WDBGProjDoc.obj
 0001:0000347f       ?OnEditProject@CWDBGProjDoc@@IAEXXZ 0040447f f   WDBGProjDoc.obj
 0001:00003560       ?SetTitle@CWDBGProjDoc@@UAEXPBG@Z 00404560 f   WDBGProjDoc.obj
 0001:000036c6       ?SetPathName@CWDBGProjDoc@@UAEXPBGH@Z 004046c6 f   WDBGProjDoc.obj
 0001:000037ce       ?OnSaveDocument@CWDBGProjDoc@@UAEHPBG@Z 004047ce f   WDBGProjDoc.obj
 0001:000037eb       ?CreateNewView@CWDBGProjDoc@@IAEPAVCWDBGLogView@@PBGH@Z 004047eb f   WDBGProjDoc.obj
 0001:0000383c       ?OnDebugGo@CWDBGProjDoc@@IAEXXZ 0040483c f   WDBGProjDoc.obj
 0001:00003995       ?OnUpdateDebugGo@CWDBGProjDoc@@IAEXPAVCCmdUI@@@Z 00404995 f   WDBGProjDoc.obj
 0001:000039b7       ?OnDebugStop@CWDBGProjDoc@@IAEXXZ 004049b7 f   WDBGProjDoc.obj
 0001:000039f0       ?OnUpdateDebugStop@CWDBGProjDoc@@IAEXPAVCCmdUI@@@Z 004049f0 f   WDBGProjDoc.obj
 0001:00003a1c       ?ResetDebuggeeInfoStates@CWDBGProjDoc@@IAEXXZ 00404a1c f   WDBGProjDoc.obj
 0001:00003a80       ?HandleCreateProcessEvent@CWDBGProjDoc@@QAEKKPAUtag_STCREATEPROCESSEVENT@@@Z 00404a80 f   WDBGProjDoc.obj
 0001:00003bcc       ?HandleExceptionEvent@CWDBGProjDoc@@QAEKKPAUtag_STEXCEPTIONEVENT@@@Z 00404bcc f   WDBGProjDoc.obj
 0001:00003c1a       ?HandleBreakpoint@CWDBGProjDoc@@IAEKKPAUtag_STEXCEPTIONEVENT@@@Z 00404c1a f   WDBGProjDoc.obj
 0001:00003d58       ?IsOneShotBP@CWDBGProjDoc@@IAEHKPAUtag_STEXCEPTIONEVENT@@@Z 00404d58 f   WDBGProjDoc.obj
 0001:00003ee8       ?IsUserBP@CWDBGProjDoc@@IAEHKPAUtag_STEXCEPTIONEVENT@@@Z 00404ee8 f   WDBGProjDoc.obj
 0001:00004054       ?HandleStep@CWDBGProjDoc@@IAEKKPAUtag_STEXCEPTIONEVENT@@@Z 00405054 f   WDBGProjDoc.obj
 0001:000042f9       ?HandleGeneralException@CWDBGProjDoc@@IAEKKPAUtag_STEXCEPTIONEVENT@@@Z 004052f9 f   WDBGProjDoc.obj
 0001:0000444f       ?ConvertAddrToString@CWDBGProjDoc@@QAEXPBXPAG@Z 0040544f f   WDBGProjDoc.obj
 0001:0000450a       ?ConvertStringToAddr@CWDBGProjDoc@@QAEHPBGPAPBX@Z 0040550a f   WDBGProjDoc.obj
 0001:000045d8       ?HandleThreadCreateEvent@CWDBGProjDoc@@QAEKKPAUtag_STCREATETHREADEVENT@@@Z 004055d8 f   WDBGProjDoc.obj
 0001:00004620       ?HandleThreadExitEvent@CWDBGProjDoc@@QAEKKPAUtag_STEXITPROCESSEVENT@@@Z 00405620 f   WDBGProjDoc.obj
 0001:00004678       ?HandleLoadDllEvent@CWDBGProjDoc@@QAEKKPAUtag_STLOADDLLEVENT@@@Z 00405678 f   WDBGProjDoc.obj
 0001:000047b7       ?HandleUnloadedDllEvent@CWDBGProjDoc@@QAEKKPAUtag_STUNLOADDLLEVENT@@@Z 004057b7 f   WDBGProjDoc.obj
 0001:00004880       ?HandleOutputDebugStringEvent@CWDBGProjDoc@@QAEKKPAUtag_STOUTPUTDEBUGSTRINGEVENT@@@Z 00405880 f   WDBGProjDoc.obj
 0001:000048a0       ?AppendToActiveThreads@CWDBGProjDoc@@IAEXAAVCDebuggeeThread@@@Z 004058a0 f   WDBGProjDoc.obj
 0001:0000492c       ?RemoveFromActiveThreads@CWDBGProjDoc@@IAEXH@Z 0040592c f   WDBGProjDoc.obj
 0001:00004944       ?AppendToActiveModules@CWDBGProjDoc@@IAEXAAVCLoadedModule@@@Z 00405944 f   WDBGProjDoc.obj
 0001:000049b6       ?FindThreadHandle@CWDBGProjDoc@@IAEPAXK@Z 004059b6 f   WDBGProjDoc.obj
 0001:000049de       ?OnViewDisassembly@CWDBGProjDoc@@IAEXXZ 004059de f   WDBGProjDoc.obj
 0001:00004c93       ?OnViewMemory@CWDBGProjDoc@@IAEXXZ 00405c93 f   WDBGProjDoc.obj
 0001:00004dab       ?OnViewSymbols@CWDBGProjDoc@@IAEXXZ 00405dab f   WDBGProjDoc.obj
 0001:00004e99       ?DisplayMemoryInfo@CWDBGProjDoc@@IAEXPAVCMemDisplay@@@Z 00405e99 f   WDBGProjDoc.obj
 0001:0000516f       ?UpdateAllDynamicWindows@CWDBGProjDoc@@IAEXXZ 0040616f f   WDBGProjDoc.obj
 0001:000051f5       ?OnViewCallstack@CWDBGProjDoc@@IAEXXZ 004061f5 f   WDBGProjDoc.obj
 0001:000052e4       ?OnUpdateViewCallstack@CWDBGProjDoc@@IAEXPAVCCmdUI@@@Z 004062e4 f   WDBGProjDoc.obj
 0001:000052e4       ?OnUpdateViewSymbols@CWDBGProjDoc@@IAEXPAVCCmdUI@@@Z 004062e4 f   WDBGProjDoc.obj
 0001:000052e4       ?OnUpdateViewRegisters@CWDBGProjDoc@@IAEXPAVCCmdUI@@@Z 004062e4 f   WDBGProjDoc.obj
 0001:000052e4       ?OnUpdateViewDisassembly@CWDBGProjDoc@@IAEXPAVCCmdUI@@@Z 004062e4 f   WDBGProjDoc.obj
 0001:000052e4       ?OnUpdateViewMemory@CWDBGProjDoc@@IAEXPAVCCmdUI@@@Z 004062e4 f   WDBGProjDoc.obj
 0001:00005300       ?EnumerateLocalsIntoStackWnd@CWDBGProjDoc@@KGH_KPBG11HPAX@Z 00406300 f   WDBGProjDoc.obj
 0001:000053fa       ?IsSharedUserDataSystemStubCallRet@@YAH_K@Z 004063fa f   WDBGProjDoc.obj
 0001:00005437       ?DisplayCallStack@CWDBGProjDoc@@IAEXPAVCStackDisplay@@@Z 00406437 f   WDBGProjDoc.obj
 0001:000057aa       ?OnViewRegisters@CWDBGProjDoc@@IAEXXZ 004067aa f   WDBGProjDoc.obj
 0001:000058a3       ?DisplayRegisterSet@CWDBGProjDoc@@IAEXPAVCStackDisplay@@@Z 004068a3 f   WDBGProjDoc.obj
 0001:00005990       ?OnDebugBreak@CWDBGProjDoc@@IAEXXZ 00406990 f   WDBGProjDoc.obj
 0001:000059b6       ?OnUpdateDebugBreak@CWDBGProjDoc@@IAEXPAVCCmdUI@@@Z 004069b6 f   WDBGProjDoc.obj
 0001:000059d7       ?OnDebugBreakpoints@CWDBGProjDoc@@IAEXXZ 004069d7 f   WDBGProjDoc.obj
 0001:00005a4e       ?ResolveAllUnresolvedBP@CWDBGProjDoc@@IAEXXZ 00406a4e f   WDBGProjDoc.obj
 0001:00005adb       ?ClearAllEnabledBP@CWDBGProjDoc@@IAEXXZ 00406adb f   WDBGProjDoc.obj
 0001:00005b3c       ?ResetBP@CWDBGProjDoc@@IAEXXZ 00406b3c f   WDBGProjDoc.obj
 0001:00005b7e       ?push_back@?$vector@VCDebuggeeThread@@V?$allocator@VCDebuggeeThread@@@std@@@std@@QAEXABVCDebuggeeThread@@@Z 00406b7e f i WDBGProjDoc.obj
 0001:00005bc5       ?erase@?$vector@VCDebuggeeThread@@V?$allocator@VCDebuggeeThread@@@std@@@std@@QAE?AViterator@12@V312@@Z 00406bc5 f i WDBGProjDoc.obj
 0001:00005be4       ?push_back@?$vector@VCLoadedModule@@V?$allocator@VCLoadedModule@@@std@@@std@@QAEXABVCLoadedModule@@@Z 00406be4 f i WDBGProjDoc.obj
 0001:00005c27       ?erase@?$vector@VCLoadedModule@@V?$allocator@VCLoadedModule@@@std@@@std@@QAE?AViterator@12@V312@@Z 00406c27 f i WDBGProjDoc.obj
 0001:00005c4c       ??1?$vector@VCLoadedModule@@V?$allocator@VCLoadedModule@@@std@@@std@@QAE@XZ 00406c4c f i WDBGProjDoc.obj
 0001:00005c4c       ??1?$vector@VCStackDisplay@@V?$allocator@VCStackDisplay@@@std@@@std@@QAE@XZ 00406c4c f i WDBGProjDoc.obj
 0001:00005c4c       ??1?$vector@VCDebuggeeThread@@V?$allocator@VCDebuggeeThread@@@std@@@std@@QAE@XZ 00406c4c f i WDBGProjDoc.obj
 0001:00005c4c       ??1?$vector@VCMemDisplay@@V?$allocator@VCMemDisplay@@@std@@@std@@QAE@XZ 00406c4c f i WDBGProjDoc.obj
 0001:00005c51       ?size@?$vector@VCMemDisplay@@V?$allocator@VCMemDisplay@@@std@@@std@@QBEIXZ 00406c51 f i WDBGProjDoc.obj
 0001:00005c64       ?push_back@?$vector@VCMemDisplay@@V?$allocator@VCMemDisplay@@@std@@@std@@QAEXABVCMemDisplay@@@Z 00406c64 f i WDBGProjDoc.obj
 0001:00005ca7       ?erase@?$vector@VCMemDisplay@@V?$allocator@VCMemDisplay@@@std@@@std@@QAE?AViterator@12@V312@@Z 00406ca7 f i WDBGProjDoc.obj
 0001:00005cc6       ?size@?$vector@VCStackDisplay@@V?$allocator@VCStackDisplay@@@std@@@std@@QBEIXZ 00406cc6 f i WDBGProjDoc.obj
 0001:00005cd9       ?push_back@?$vector@VCStackDisplay@@V?$allocator@VCStackDisplay@@@std@@@std@@QAEXABVCStackDisplay@@@Z 00406cd9 f i WDBGProjDoc.obj
 0001:00005d25       ?erase@?$vector@VCStackDisplay@@V?$allocator@VCStackDisplay@@@std@@@std@@QAE?AViterator@12@V312@@Z 00406d25 f i WDBGProjDoc.obj
 0001:00005d4b       ?capacity@?$vector@VCDebuggeeThread@@V?$allocator@VCDebuggeeThread@@@std@@@std@@QBEIXZ 00406d4b f i WDBGProjDoc.obj
 0001:00005d61       ?size@?$vector@VCDebuggeeThread@@V?$allocator@VCDebuggeeThread@@@std@@@std@@QBEIXZ 00406d61 f i WDBGProjDoc.obj
 0001:00005d77       ?insert@?$vector@VCDebuggeeThread@@V?$allocator@VCDebuggeeThread@@@std@@@std@@QAE?AViterator@12@V312@ABVCDebuggeeThread@@@Z 00406d77 f i WDBGProjDoc.obj
 0001:00005db8       ?_Tidy@?$vector@VCDebuggeeThread@@V?$allocator@VCDebuggeeThread@@@std@@@std@@IAEXXZ 00406db8 f i WDBGProjDoc.obj
 0001:00005db8       ?_Tidy@?$vector@VCStackDisplay@@V?$allocator@VCStackDisplay@@@std@@@std@@IAEXXZ 00406db8 f i WDBGProjDoc.obj
 0001:00005db8       ?_Tidy@?$vector@VCLoadedModule@@V?$allocator@VCLoadedModule@@@std@@@std@@IAEXXZ 00406db8 f i WDBGProjDoc.obj
 0001:00005db8       ?_Tidy@?$vector@VCMemDisplay@@V?$allocator@VCMemDisplay@@@std@@@std@@IAEXXZ 00406db8 f i WDBGProjDoc.obj
 0001:00005dd3       ?_Ufill@?$vector@VCDebuggeeThread@@V?$allocator@VCDebuggeeThread@@@std@@@std@@IAEPAVCDebuggeeThread@@PAV3@IABV3@@Z 00406dd3 f i WDBGProjDoc.obj
 0001:00005df1       ?capacity@?$vector@VCLoadedModule@@V?$allocator@VCLoadedModule@@@std@@@std@@QBEIXZ 00406df1 f i WDBGProjDoc.obj
 0001:00005e09       ?size@?$vector@VCLoadedModule@@V?$allocator@VCLoadedModule@@@std@@@std@@QBEIXZ 00406e09 f i WDBGProjDoc.obj
 0001:00005e21       ?insert@?$vector@VCLoadedModule@@V?$allocator@VCLoadedModule@@@std@@@std@@QAE?AViterator@12@V312@ABVCLoadedModule@@@Z 00406e21 f i WDBGProjDoc.obj
 0001:00005e64       ?_Ufill@?$vector@VCLoadedModule@@V?$allocator@VCLoadedModule@@@std@@@std@@IAEPAVCLoadedModule@@PAV3@IABV3@@Z 00406e64 f i WDBGProjDoc.obj
 0001:00005e8b       ?capacity@?$vector@VCMemDisplay@@V?$allocator@VCMemDisplay@@@std@@@std@@QBEIXZ 00406e8b f i WDBGProjDoc.obj
 0001:00005e9e       ?insert@?$vector@VCMemDisplay@@V?$allocator@VCMemDisplay@@@std@@@std@@QAE?AViterator@12@V312@ABVCMemDisplay@@@Z 00406e9e f i WDBGProjDoc.obj
 0001:00005ed7       ?_Ufill@?$vector@VCMemDisplay@@V?$allocator@VCMemDisplay@@@std@@@std@@IAEPAVCMemDisplay@@PAV3@IABV3@@Z 00406ed7 f i WDBGProjDoc.obj
 0001:00005efb       ?capacity@?$vector@VCStackDisplay@@V?$allocator@VCStackDisplay@@@std@@@std@@QBEIXZ 00406efb f i WDBGProjDoc.obj
 0001:00005f0e       ?insert@?$vector@VCStackDisplay@@V?$allocator@VCStackDisplay@@@std@@@std@@QAE?AViterator@12@V312@ABVCStackDisplay@@@Z 00406f0e f i WDBGProjDoc.obj
 0001:00005f48       ?_Insert_n@?$vector@VCDebuggeeThread@@V?$allocator@VCDebuggeeThread@@@std@@@std@@IAEXViterator@12@IABVCDebuggeeThread@@@Z 00406f48 f i WDBGProjDoc.obj
 0001:0000612b       ?_Insert_n@?$vector@VCLoadedModule@@V?$allocator@VCLoadedModule@@@std@@@std@@IAEXViterator@12@IABVCLoadedModule@@@Z 0040712b f i WDBGProjDoc.obj
 0001:00006333       ?_Insert_n@?$vector@VCMemDisplay@@V?$allocator@VCMemDisplay@@@std@@@std@@IAEXViterator@12@IABVCMemDisplay@@@Z 00407333 f i WDBGProjDoc.obj
 0001:000064ef       ?_Xlen@?$vector@VCMemDisplay@@V?$allocator@VCMemDisplay@@@std@@@std@@IBEXXZ 004074ef f i WDBGProjDoc.obj
 0001:000064ef       ?_Xlen@?$vector@VCStackDisplay@@V?$allocator@VCStackDisplay@@@std@@@std@@IBEXXZ 004074ef f i WDBGProjDoc.obj
 0001:000064ef       ?_Xlen@?$vector@VCLoadedModule@@V?$allocator@VCLoadedModule@@@std@@@std@@IBEXXZ 004074ef f i WDBGProjDoc.obj
 0001:000064ef       ?_Xlen@?$vector@VCDebuggeeThread@@V?$allocator@VCDebuggeeThread@@@std@@@std@@IBEXXZ 004074ef f i WDBGProjDoc.obj
 0001:00006531       ?_Insert_n@?$vector@VCStackDisplay@@V?$allocator@VCStackDisplay@@@std@@@std@@IAEXViterator@12@IABVCStackDisplay@@@Z 00407531 f i WDBGProjDoc.obj
 0001:00006713       ??0length_error@std@@QAE@ABV01@@Z 00407713 f i WDBGProjDoc.obj
 0001:0000672b       ??0logic_error@std@@QAE@ABV01@@Z 0040772b f i WDBGProjDoc.obj
 0001:00006770       ??1?$CArray@VCOneShotBP@@V1@@@UAE@XZ 00407770 f i WDBGProjDoc.obj
 0001:000067a9       ?Serialize@?$CArray@VCOneShotBP@@V1@@@UAEXAAVCArchive@@@Z 004077a9 f i WDBGProjDoc.obj
 0001:000067e6       ??$copy@PAVCDebuggeeThread@@PAV1@@std@@YAPAVCDebuggeeThread@@PAV1@00@Z 004077e6 f i WDBGProjDoc.obj
 0001:000067fd       ??$copy@PAVCLoadedModule@@PAV1@@std@@YAPAVCLoadedModule@@PAV1@00@Z 004077fd f i WDBGProjDoc.obj
 0001:00006814       ??$copy@PAVCMemDisplay@@PAV1@@std@@YAPAVCMemDisplay@@PAV1@00@Z 00407814 f i WDBGProjDoc.obj
 0001:0000682b       ??$fill@PAVCDebuggeeThread@@V1@@std@@YAXPAVCDebuggeeThread@@0ABV1@@Z 0040782b f i WDBGProjDoc.obj
 0001:00006848       ??$copy_backward@PAVCDebuggeeThread@@PAV1@@std@@YAPAVCDebuggeeThread@@PAV1@00@Z 00407848 f i WDBGProjDoc.obj
 0001:0000685f       ??$fill@PAVCLoadedModule@@V1@@std@@YAXPAVCLoadedModule@@0ABV1@@Z 0040785f f i WDBGProjDoc.obj
 0001:00006882       ??$copy_backward@PAVCLoadedModule@@PAV1@@std@@YAPAVCLoadedModule@@PAV1@00@Z 00407882 f i WDBGProjDoc.obj
 0001:00006899       ??$fill@PAVCMemDisplay@@V1@@std@@YAXPAVCMemDisplay@@0ABV1@@Z 00407899 f i WDBGProjDoc.obj
 0001:000068b7       ??$copy_backward@PAVCMemDisplay@@PAV1@@std@@YAPAVCMemDisplay@@PAV1@00@Z 004078b7 f i WDBGProjDoc.obj
 0001:000068ce       ??_G?$CArray@VCOneShotBP@@V1@@@UAEPAXI@Z 004078ce f i WDBGProjDoc.obj
 0001:000068ce       ??_E?$CArray@VCOneShotBP@@V1@@@UAEPAXI@Z 004078ce f i WDBGProjDoc.obj
 0001:000068ea       ?SetSize@?$CArray@VCOneShotBP@@V1@@@QAEXHH@Z 004078ea f i WDBGProjDoc.obj
 0001:00006ae9       ?ElementAt@?$CArray@VCOneShotBP@@V1@@@QAEAAVCOneShotBP@@H@Z 00407ae9 f i WDBGProjDoc.obj
 0001:00006afe       ??$SerializeElements@VCOneShotBP@@@@YGXAAVCArchive@@PAVCOneShotBP@@H@Z 00407afe f i WDBGProjDoc.obj
 0001:00006b72       ?ElementAt@?$CArray@PAVCLocationBP@@PAV1@@@QAEAAPAVCLocationBP@@H@Z 00407b72 f i WDBGProjDoc.obj
 0001:00006b72       ?GetAt@?$CArray@PAVCLocationBP@@PAV1@@@QAEAAPAVCLocationBP@@H@Z 00407b72 f i BreakpointsDlg.obj
 0001:00006b87       ??$_Copy_opt@PAVCDebuggeeThread@@PAV1@@std@@YAPAVCDebuggeeThread@@PAV1@00U_Nonscalar_ptr_iterator_tag@0@@Z 00407b87 f i WDBGProjDoc.obj
 0001:00006bac       ??$_Copy_opt@PAVCLoadedModule@@PAV1@@std@@YAPAVCLoadedModule@@PAV1@00U_Nonscalar_ptr_iterator_tag@0@@Z 00407bac f i WDBGProjDoc.obj
 0001:00006bd8       ??$_Copy_opt@PAVCMemDisplay@@PAV1@@std@@YAPAVCMemDisplay@@PAV1@00U_Nonscalar_ptr_iterator_tag@0@@Z 00407bd8 f i WDBGProjDoc.obj
 0001:00006bfe       ??$_Copy_opt@PAVCStackDisplay@@PAV1@@std@@YAPAVCStackDisplay@@PAV1@00U_Nonscalar_ptr_iterator_tag@0@@Z 00407bfe f i WDBGProjDoc.obj
 0001:00006c17       ??$_Uninit_fill_n@PAVCDebuggeeThread@@IV1@V?$allocator@VCDebuggeeThread@@@std@@@std@@YAXPAVCDebuggeeThread@@IABV1@AAV?$allocator@VCDebuggeeThread@@@0@U_Nonscalar_ptr_iterator_tag@0@@Z 00407c17 f i WDBGProjDoc.obj
 0001:00006c3a       ??$_Uninit_fill_n@PAVCLoadedModule@@IV1@V?$allocator@VCLoadedModule@@@std@@@std@@YAXPAVCLoadedModule@@IABV1@AAV?$allocator@VCLoadedModule@@@0@U_Nonscalar_ptr_iterator_tag@0@@Z 00407c3a f i WDBGProjDoc.obj
 0001:00006c64       ??$_Uninit_fill_n@PAVCMemDisplay@@IV1@V?$allocator@VCMemDisplay@@@std@@@std@@YAXPAVCMemDisplay@@IABV1@AAV?$allocator@VCMemDisplay@@@0@U_Nonscalar_ptr_iterator_tag@0@@Z 00407c64 f i WDBGProjDoc.obj
 0001:00006c88       ??$_Uninit_fill_n@PAVCStackDisplay@@IV1@V?$allocator@VCStackDisplay@@@std@@@std@@YAXPAVCStackDisplay@@IABV1@AAV?$allocator@VCStackDisplay@@@0@U_Nonscalar_ptr_iterator_tag@0@@Z 00407c88 f i WDBGProjDoc.obj
 0001:00006ca3       ??$_Copy_backward_opt@PAVCDebuggeeThread@@PAV1@@std@@YAPAVCDebuggeeThread@@PAV1@00U_Nonscalar_ptr_iterator_tag@0@@Z 00407ca3 f i WDBGProjDoc.obj
 0001:00006cc8       ??$_Copy_backward_opt@PAVCLoadedModule@@PAV1@@std@@YAPAVCLoadedModule@@PAV1@00U_Nonscalar_ptr_iterator_tag@0@@Z 00407cc8 f i WDBGProjDoc.obj
 0001:00006cf4       ??$_Copy_backward_opt@PAVCMemDisplay@@PAV1@@std@@YAPAVCMemDisplay@@PAV1@00U_Nonscalar_ptr_iterator_tag@0@@Z 00407cf4 f i WDBGProjDoc.obj
 0001:00006d1a       ??$_Copy_backward_opt@PAVCStackDisplay@@PAV1@@std@@YAPAVCStackDisplay@@PAV1@00U_Nonscalar_ptr_iterator_tag@0@@Z 00407d1a f i WDBGProjDoc.obj
 0001:00006d37       ??$_Uninit_copy@PAVCDebuggeeThread@@PAV1@V?$allocator@VCDebuggeeThread@@@std@@@std@@YAPAVCDebuggeeThread@@PAV1@00AAV?$allocator@VCDebuggeeThread@@@0@U_Nonscalar_ptr_iterator_tag@0@@Z 00407d37 f i WDBGProjDoc.obj
 0001:00006d59       ??$_Uninit_copy@PAVCLoadedModule@@PAV1@V?$allocator@VCLoadedModule@@@std@@@std@@YAPAVCLoadedModule@@PAV1@00AAV?$allocator@VCLoadedModule@@@0@U_Nonscalar_ptr_iterator_tag@0@@Z 00407d59 f i WDBGProjDoc.obj
 0001:00006d86       ??$_Uninit_copy@PAVCMemDisplay@@PAV1@V?$allocator@VCMemDisplay@@@std@@@std@@YAPAVCMemDisplay@@PAV1@00AAV?$allocator@VCMemDisplay@@@0@U_Nonscalar_ptr_iterator_tag@0@@Z 00407d86 f i WDBGProjDoc.obj
 0001:00006da9       ??$_Uninit_copy@PAVCStackDisplay@@PAV1@V?$allocator@VCStackDisplay@@@std@@@std@@YAPAVCStackDisplay@@PAV1@00AAV?$allocator@VCStackDisplay@@@0@U_Nonscalar_ptr_iterator_tag@0@@Z 00407da9 f i WDBGProjDoc.obj
 0001:00006dc6       ?SetModifiedFlag@CDocument@@UAEXH@Z 00407dc6 f i WDBGProjDoc.obj
 0001:00006dd0       ?IsModified@CDocument@@UAEHXZ 00407dd0 f i WDBGProjDoc.obj
 0001:00006dd4       ??_Glogic_error@std@@UAEPAXI@Z 00407dd4 f i WDBGProjDoc.obj
 0001:00006dd4       ??_Elogic_error@std@@UAEPAXI@Z 00407dd4 f i WDBGProjDoc.obj
 0001:00006df0       ?what@logic_error@std@@UBEPBDXZ 00407df0 f i WDBGProjDoc.obj
 0001:00006dfe       ??_Glength_error@std@@UAEPAXI@Z 00407dfe f i WDBGProjDoc.obj
 0001:00006dfe       ??_Elength_error@std@@UAEPAXI@Z 00407dfe f i WDBGProjDoc.obj
 0001:00006e1a       ??1logic_error@std@@UAE@XZ 00407e1a f i WDBGProjDoc.obj
 0001:00006e57       ??1length_error@std@@UAE@XZ 00407e57 f i WDBGProjDoc.obj
 0001:00006e62       ??0logic_error@std@@QAE@ABV?$basic_string@DU?$char_traits@D@std@@V?$allocator@D@2@@1@@Z 00407e62 f i WDBGProjDoc.obj
 0001:00006e9f       ?SymEnumerateSymbols@CSymbolEngine@@QAEH_KP6GHPAD0KPAX@Z2@Z 00407e9f f i WDBGProjDoc.obj
 0001:00006ebb       ??1CWaitCursor@@QAE@XZ     00407ebb f i WDBGProjDoc.obj
 0001:00006ec8       ?SymGetSymFromAddr@CSymbolEngine@@QAEH_KPA_KPAU_IMAGEHLP_SYMBOL64@@@Z 00407ec8 f i WDBGProjDoc.obj
 0001:00006ec8       ?SymGetSymFromAddr64@CSymbolEngine@@QAEH_KPA_KPAU_IMAGEHLP_SYMBOL64@@@Z 00407ec8 f i WDBGProjDoc.obj
 0001:00006ee4       ??1CSymbolEngine@@UAE@XZ   00407ee4 f i WDBGProjDoc.obj
 0001:00006ef2       ??_ECSymbolEngine@@UAEPAXI@Z 00407ef2 f i WDBGProjDoc.obj
 0001:00006ef2       ??_GCSymbolEngine@@UAEPAXI@Z 00407ef2 f i WDBGProjDoc.obj
 0001:00006f0e       ??1CVariableInfo@@UAE@XZ   00407f0e f i WDBGProjDoc.obj
 0001:00006f22       ??_GCVariableInfo@@UAEPAXI@Z 00407f22 f i WDBGProjDoc.obj
 0001:00006f22       ??_ECVariableInfo@@UAEPAXI@Z 00407f22 f i WDBGProjDoc.obj
 0001:00006f3e       ??0CSymbolEngine@@QAE@XZ   00407f3e f i WDBGProjDoc.obj
 0001:00006f8e       ??0CVariableInfo@@QAE@XZ   00407f8e f i WDBGProjDoc.obj
 0001:00006fa9       ?ZeroData@CVariableInfo@@QAEXXZ 00407fa9 f i WDBGProjDoc.obj
 0001:0000701e       ?ZeroLocalEnumerationMemberVars@CSymbolEngine@@IAEXXZ 0040801e f i WDBGProjDoc.obj
 0001:00007040       ?OutputCRLF@CWDBGUser@@UAEXXZ 00408040 f i WDBGUser.obj
 0001:0000704e       ??0CWDBGUser@@QAE@XZ       0040804e f   WDBGUser.obj
 0001:000070a8       ??_ECWDBGUser@@UAEPAXI@Z   004080a8 f i WDBGUser.obj
 0001:000070a8       ??_GCWDBGUser@@UAEPAXI@Z   004080a8 f i WDBGUser.obj
 0001:000070c4       ??1CWDBGUser@@UAE@XZ       004080c4 f   WDBGUser.obj
 0001:000070fb       ?Initialize@CWDBGUser@@QAEHPAUHWND__@@0PBG@Z 004080fb f   WDBGUser.obj
 0001:00007125       ?SendMsgToUI@CWDBGUser@@IAEHIIJ@Z 00408125 f   WDBGUser.obj
 0001:00007140       ?Output@CWDBGUser@@UAAXPBGZZ 00408140 f   WDBGUser.obj
 0001:0000717e       ?ConvertCRLF@CWDBGUser@@UAEPBGPAGH@Z 0040817e f   WDBGUser.obj
 0001:000071ec       ?ExitProcessEvent@CWDBGUser@@UAEXKKK@Z 004081ec f   WDBGUser.obj
 0001:0000722f       ?ExceptionEvent@CWDBGUser@@UAEKKKAAU_EXCEPTION_DEBUG_INFO@@@Z 0040822f f   WDBGUser.obj
 0001:00007284       ?CreateProcessEvent@CWDBGUser@@UAEKKKAAU_CREATE_PROCESS_DEBUG_INFO@@@Z 00408284 f   WDBGUser.obj
 0001:000072d9       ?CreateThreadEvent@CWDBGUser@@UAEKKKAAU_CREATE_THREAD_DEBUG_INFO@@@Z 004082d9 f   WDBGUser.obj
 0001:0000732e       ?ExitThreadEvent@CWDBGUser@@UAEKKKK@Z 0040832e f   WDBGUser.obj
 0001:00007383       ?LoadDllEvent@CWDBGUser@@UAEKKKAAU_LOAD_DLL_DEBUG_INFO@@PBGAAU_IMAGEHLP_MODULE64@@@Z 00408383 f   WDBGUser.obj
 0001:0000740c       ?UnloadDllEvent@CWDBGUser@@UAEKKKPBX@Z 0040840c f   WDBGUser.obj
 0001:00007461       ?OutputDebugStringEvent@CWDBGUser@@UAEKKKPBG@Z 00408461 f   WDBGUser.obj
 0001:000074b6       ??1CDebugBaseUser@@UAE@XZ  004084b6 f i WDBGUser.obj
 0001:000074bd       ??_GCDebugBaseUser@@UAEPAXI@Z 004084bd f i WDBGUser.obj
 0001:000074bd       ??_ECDebugBaseUser@@UAEPAXI@Z 004084bd f i WDBGUser.obj
 0001:000074da       ?OutputCRLF@CDebugBaseUser@@UAEXXZ 004084da f i WDBGUser.obj
 0001:000074e8       ?ConvertCRLF@CDebugBaseUser@@UAEPBGPAGH@Z 004084e8 f i WDBGUser.obj
 0001:000074ed       ?CreateThreadEvent@CDebugBaseUser@@UAEKKKAAU_CREATE_THREAD_DEBUG_INFO@@@Z 004084ed f i WDBGUser.obj
 0001:00007512       ?UnknownEvent@CDebugBaseUser@@UAEKKKK@Z 00408512 f i WDBGUser.obj
 0001:00007512       ?CreateProcessEvent@CDebugBaseUser@@UAEKKKAAU_CREATE_PROCESS_DEBUG_INFO@@@Z 00408512 f i WDBGUser.obj
 0001:00007512       ?RipEvent@CDebugBaseUser@@UAEKKKAAU_RIP_INFO@@@Z 00408512 f i WDBGUser.obj
 0001:0000751a       ?ExitThreadEvent@CDebugBaseUser@@UAEKKKK@Z 0040851a f i WDBGUser.obj
 0001:00007543       ?LoadDllEvent@CDebugBaseUser@@UAEKKKAAU_LOAD_DLL_DEBUG_INFO@@PBGAAU_IMAGEHLP_MODULE64@@@Z 00408543 f i WDBGUser.obj
 0001:0000757f       ?UnloadDllEvent@CDebugBaseUser@@UAEKKKPBX@Z 0040857f f i WDBGUser.obj
 0001:000075a4       ?OutputDebugStringEvent@CDebugBaseUser@@UAEKKKPBG@Z 004085a4 f i WDBGUser.obj
 0001:000075e0       ??0JString@@QAE@XZ         004085e0 f   SymbolEngine_Release:JString.obj
 0001:000075f6       ??1JString@@QAE@XZ         004085f6 f   SymbolEngine_Release:JString.obj
 0001:0000760f       ??8@YA_NABVJString@@PBG@Z  0040860f f   SymbolEngine_Release:JString.obj
 0001:00007624       ??4JString@@QAEAAV0@ABV0@@Z 00408624 f   SymbolEngine_Release:JString.obj
 0001:00007695       ??4JString@@QAEAAV0@PBG@Z  00408695 f   SymbolEngine_Release:JString.obj
 0001:00007703       ?Length@JString@@QBEIXZ    00408703 f   SymbolEngine_Release:JString.obj
 0001:00007714       ??YJString@@QAEAAV0@ABV0@@Z 00408714 f   SymbolEngine_Release:JString.obj
 0001:000077bd       ??YJString@@QAEAAV0@PBG@Z  004087bd f   SymbolEngine_Release:JString.obj
 0001:0000785c       ?NullString@JString@@QAEXXZ 0040885c f   SymbolEngine_Release:JString.obj
 0001:0000786c       ?SymAppendSearchPath@CSymbolEngine@@QAEHPBG@Z 0040886c f   SymbolEngine_Release:SymEngWIDE.obj
 0001:000078eb       ?DecodeVariable@CSymbolEngine@@IAEHAAVCVariableInfo@@H@Z 004088eb f   SymbolEngine_Release:SymbolEngine.obj
 0001:00007c11       ?DumpArray@CSymbolEngine@@IAEHAAVCVariableInfo@@H@Z 00408c11 f   SymbolEngine_Release:SymbolEngine.obj
 0001:00007df1       ?LocalsEnumSymbols@@YGHPAU_SYMBOL_INFO@@KPAX@Z 00408df1 f   SymbolEngine_Release:SymbolEngine.obj
 0001:00007e4c       ?EnumLocalVariables@CSymbolEngine@@QAEHP6GH_KPBG11HPAX@ZHHP6GH202KPAK@ZPAU_tagSTACKFRAME64@@PAU_CONTEXT@@2@Z 00408e4c f   SymbolEngine_Release:SymbolEngine.obj
 0001:00007efd       ?OutputVariable@CSymbolEngine@@IAEHAAVCVariableInfo@@H@Z 00408efd f   SymbolEngine_Release:SymbolEngine.obj
 0001:00007f24       ?MemRead@CSymbolEngine@@IAEHPBXPAEHPAK@Z 00408f24 f   SymbolEngine_Release:SymbolEngine.obj
 0001:00007f51       ?ReadPointerAddress@CSymbolEngine@@IAEHAAVCVariableInfo@@@Z 00408f51 f   SymbolEngine_Release:SymbolEngine.obj
 0001:00007fda       ?GetDbgHelpAddress@CSymbolEngine@@IAEP6GHXZPBD@Z 00408fda f   SymbolEngine_Release:SymbolEngine.obj
 0001:00007fff       ?SymEnumSymbols@CSymbolEngine@@QAEH_KPBDP6GHPAU_SYMBOL_INFO@@KPAX@Z3@Z 00408fff f   SymbolEngine_Release:SymbolEngine.obj
 0001:0000803b       ?SymSetContext@CSymbolEngine@@QAEKPAU_IMAGEHLP_STACK_FRAME@@PAX@Z 0040903b f   SymbolEngine_Release:SymbolEngine.obj
 0001:0000806c       ?SymGetTypeInfo@CSymbolEngine@@QAEH_KKW4_IMAGEHLP_SYMBOL_TYPE_INFO@@PAX@Z 0040906c f   SymbolEngine_Release:SymbolEngine.obj
 0001:000080a8       ?InitializeFromSymbolInfo@CVariableInfo@@QAEXPAU_SYMBOL_INFO@@W4SymTagEnum@@@Z 004090a8 f i SymbolEngine_Release:SymbolEngine.obj
 0001:00008159       ?DecodeTypeSymTagBaseType@CSymbolEngine@@IAEHAAVCVariableInfo@@@Z 00409159 f   SymbolEngine_Release:TypeDecoding.obj
 0001:00008334       ?DecodeTypeSymTagPointerType@CSymbolEngine@@IAEHAAVCVariableInfo@@@Z 00409334 f   SymbolEngine_Release:TypeDecoding.obj
 0001:00008391       ?DecodeTypeSymTagUDT@CSymbolEngine@@IAEHAAVCVariableInfo@@@Z 00409391 f   SymbolEngine_Release:TypeDecoding.obj
 0001:000083db       ?DecodeTypeTagArrayType@CSymbolEngine@@IAEHAAVCVariableInfo@@@Z 004093db f   SymbolEngine_Release:TypeDecoding.obj
 0001:0000848c       ?DecodeTypeSymTagFunctionType@CSymbolEngine@@IAEHAAVCVariableInfo@@@Z 0040948c f   SymbolEngine_Release:TypeDecoding.obj
 0001:00008684       ?DecodeTypeSymTagFunctionArgType@CSymbolEngine@@IAEHAAVCVariableInfo@@@Z 00409684 f   SymbolEngine_Release:TypeDecoding.obj
 0001:000086da       ?DecodeTypeSymTagEnum@CSymbolEngine@@IAEHAAVCVariableInfo@@@Z 004096da f   SymbolEngine_Release:TypeDecoding.obj
 0001:00008721       ?DecodeTypeSymTagData@CSymbolEngine@@IAEHAAVCVariableInfo@@@Z 00409721 f   SymbolEngine_Release:TypeDecoding.obj
 0001:000087c2       ?DecodeTypeSymTagVTable@CSymbolEngine@@IAEHAAVCVariableInfo@@@Z 004097c2 f   SymbolEngine_Release:TypeDecoding.obj
 0001:00008834       ?DecodeTypeSymTagBaseClass@CSymbolEngine@@IAEHAAVCVariableInfo@@@Z 00409834 f   SymbolEngine_Release:TypeDecoding.obj
 0001:000088c4       ?DecodeType@CSymbolEngine@@IAEHAAVCVariableInfo@@@Z 004098c4 f   SymbolEngine_Release:TypeDecoding.obj
 0001:00008965       ?DetermineAddress@CSymbolEngine@@IAEHAAVCVariableInfo@@@Z 00409965 f   SymbolEngine_Release:DetermineAddress.obj
 0001:00008a48       ?ConvertRegisterToValueIA32@CSymbolEngine@@IAEHW4CV_HREG_e@@AA_KPAU_CONTEXT@@@Z 00409a48 f   SymbolEngine_Release:DetermineAddress.obj
 0001:00008c2d       ?DecodeValue@CSymbolEngine@@IAEHAAVCVariableInfo@@@Z 00409c2d f   SymbolEngine_Release:ValueDecoding.obj
 0001:00008c61       ?DecodeValueSymTagArrayType@CSymbolEngine@@IAEHAAVCVariableInfo@@@Z 00409c61 f   SymbolEngine_Release:ValueDecoding.obj
 0001:00008df8       ?DecodeValueSymTagEnum@CSymbolEngine@@IAEHAAVCVariableInfo@@@Z 00409df8 f   SymbolEngine_Release:ValueDecoding.obj
 0001:00008fb8       ?DecodeValueSymTagPointerType@CSymbolEngine@@IAEHAAVCVariableInfo@@@Z 00409fb8 f   SymbolEngine_Release:ValueDecoding.obj
 0001:0000917a       ?DecodeValueSymTagBaseType@CSymbolEngine@@IAEHAAVCVariableInfo@@@Z 0040a17a f   SymbolEngine_Release:ValueDecoding.obj
 0001:000094fa       ??1CDialog@@UAE@XZ         0040a4fa f   mfc71u:MFC71U.DLL
 0001:00009500       ??0CDialog@@QAE@IPAVCWnd@@@Z 0040a500 f   mfc71u:MFC71U.DLL
 0001:00009506       ?GetThisMessageMap@CDialog@@KGPBUAFX_MSGMAP@@XZ 0040a506 f   mfc71u:MFC71U.DLL
 0001:0000950c       ??3@YAXPAX@Z               0040a50c f   mfc71u:MFC71U.DLL
 0001:00009512       ?OnFinalRelease@CWnd@@UAEXXZ 0040a512 f   mfc71u:MFC71U.DLL
 0001:00009518       ?IsInvokeAllowed@CCmdTarget@@UAEHJ@Z 0040a518 f   mfc71u:MFC71U.DLL
 0001:0000951e       ?GetDispatchIID@CCmdTarget@@UAEHPAU_GUID@@@Z 0040a51e f   mfc71u:MFC71U.DLL
 0001:00009524       ?GetTypeInfoCount@CCmdTarget@@UAEIXZ 0040a524 f   mfc71u:MFC71U.DLL
 0001:0000952a       ?GetTypeLibCache@CCmdTarget@@UAEPAVCTypeLibCache@@XZ 0040a52a f   mfc71u:MFC71U.DLL
 0001:00009530       ?GetTypeLib@CCmdTarget@@UAEJKPAPAUITypeLib@@@Z 0040a530 f   mfc71u:MFC71U.DLL
 0001:00009536       ?GetCommandMap@CCmdTarget@@MBEPBUAFX_OLECMDMAP@@XZ 0040a536 f   mfc71u:MFC71U.DLL
 0001:0000953c       ?GetDispatchMap@CCmdTarget@@MBEPBUAFX_DISPMAP@@XZ 0040a53c f   mfc71u:MFC71U.DLL
 0001:00009542       ?GetConnectionMap@CCmdTarget@@MBEPBUAFX_CONNECTIONMAP@@XZ 0040a542 f   mfc71u:MFC71U.DLL
 0001:00009548       ?GetInterfaceMap@CWnd@@MBEPBUAFX_INTERFACEMAP@@XZ 0040a548 f   mfc71u:MFC71U.DLL
 0001:0000954e       ?GetEventSinkMap@CCmdTarget@@MBEPBUAFX_EVENTSINKMAP@@XZ 0040a54e f   mfc71u:MFC71U.DLL
 0001:00009554       ?OnCreateAggregates@CCmdTarget@@UAEHXZ 0040a554 f   mfc71u:MFC71U.DLL
 0001:0000955a       ?GetInterfaceHook@CCmdTarget@@UAEPAUIUnknown@@PBX@Z 0040a55a f   mfc71u:MFC71U.DLL
 0001:00009560       ?GetExtraConnectionPoints@CCmdTarget@@MAEHPAVCPtrArray@@@Z 0040a560 f   mfc71u:MFC71U.DLL
 0001:00009566       ?GetConnectionHook@CCmdTarget@@MAEPAUIConnectionPoint@@ABU_GUID@@@Z 0040a566 f   mfc71u:MFC71U.DLL
 0001:0000956c       ?PreSubclassWindow@CWnd@@UAEXXZ 0040a56c f   mfc71u:MFC71U.DLL
 0001:00009580       ?DestroyWindow@CWnd@@UAEHXZ 0040a580 f   mfc71u:MFC71U.DLL
 0001:00009586       ?OnToolHitTest@CWnd@@UBEHVCPoint@@PAUtagTOOLINFOW@@@Z 0040a586 f   mfc71u:MFC71U.DLL
 0001:0000958c       ?WinHelpW@CWnd@@UAEXKI@Z   0040a58c f   mfc71u:MFC71U.DLL
 0001:00009592       ?HtmlHelpW@CWnd@@UAEXKI@Z  0040a592 f   mfc71u:MFC71U.DLL
 0001:00009598       ?WinHelpInternal@CWnd@@UAEXKI@Z 0040a598 f   mfc71u:MFC71U.DLL
 0001:0000959e       ?ContinueModal@CWnd@@UAEHXZ 0040a59e f   mfc71u:MFC71U.DLL
 0001:000095a4       ?EndModalLoop@CWnd@@UAEXH@Z 0040a5a4 f   mfc71u:MFC71U.DLL
 0001:000095aa       ?EnsureStdObj@CWnd@@UAEJXZ 0040a5aa f   mfc71u:MFC71U.DLL
 0001:000095b0       ?get_accParent@CWnd@@UAEJPAPAUIDispatch@@@Z 0040a5b0 f   mfc71u:MFC71U.DLL
 0001:000095b6       ?get_accChildCount@CWnd@@UAEJPAJ@Z 0040a5b6 f   mfc71u:MFC71U.DLL
 0001:000095bc       ?get_accChild@CWnd@@UAEJUtagVARIANT@@PAPAUIDispatch@@@Z 0040a5bc f   mfc71u:MFC71U.DLL
 0001:000095d0       ?get_accRole@CWnd@@UAEJUtagVARIANT@@PAU2@@Z 0040a5d0 f   mfc71u:MFC71U.DLL
 0001:000095d6       ?get_accState@CWnd@@UAEJUtagVARIANT@@PAU2@@Z 0040a5d6 f   mfc71u:MFC71U.DLL
 0001:000095e0       ?get_accFocus@CWnd@@UAEJPAUtagVARIANT@@@Z 0040a5e0 f   mfc71u:MFC71U.DLL
 0001:000095e6       ?get_accSelection@CWnd@@UAEJPAUtagVARIANT@@@Z 0040a5e6 f   mfc71u:MFC71U.DLL
 0001:000095f0       ?accSelect@CWnd@@UAEJJUtagVARIANT@@@Z 0040a5f0 f   mfc71u:MFC71U.DLL
 0001:000095f6       ?accLocation@CWnd@@UAEJPAJ000UtagVARIANT@@@Z 0040a5f6 f   mfc71u:MFC71U.DLL
 0001:000095fc       ?accNavigate@CWnd@@UAEJJUtagVARIANT@@PAU2@@Z 0040a5fc f   mfc71u:MFC71U.DLL
 0001:00009602       ?accHitTest@CWnd@@UAEJJJPAUtagVARIANT@@@Z 0040a602 f   mfc71u:MFC71U.DLL
 0001:00009608       ?accDoDefaultAction@CWnd@@UAEJUtagVARIANT@@@Z 0040a608 f   mfc71u:MFC71U.DLL
 0001:00009610       ?SetProxy@CWnd@@UAEJPAUIAccessibleProxy@@@Z 0040a610 f   mfc71u:MFC71U.DLL
 0001:00009616       ?CreateAccessibleProxy@CWnd@@UAEJIJPAJ@Z 0040a616 f   mfc71u:MFC71U.DLL
 0001:0000961c       ?OnCommand@CWnd@@MAEHIJ@Z  0040a61c f   mfc71u:MFC71U.DLL
 0001:00009622       ?OnNotify@CWnd@@MAEHIJPAJ@Z 0040a622 f   mfc71u:MFC71U.DLL
 0001:00009628       ?GetSuperWndProcAddr@CWnd@@MAEPAP6GJPAUHWND__@@IIJ@ZXZ 0040a628 f   mfc71u:MFC71U.DLL
 0001:0000962e       ?OnAmbientProperty@CWnd@@UAEHPAVCOleControlSite@@JPAUtagVARIANT@@@Z 0040a62e f   mfc71u:MFC71U.DLL
 0001:00009634       ?WindowProc@CWnd@@MAEJIIJ@Z 0040a634 f   mfc71u:MFC71U.DLL
 0001:0000963a       ?OnWndMsg@CWnd@@MAEHIIJPAJ@Z 0040a63a f   mfc71u:MFC71U.DLL
 0001:00009640       ?DefWindowProcW@CWnd@@MAEJIIJ@Z 0040a640 f   mfc71u:MFC71U.DLL
 0001:00009646       ?OnChildNotify@CWnd@@MAEHIIJPAJ@Z 0040a646 f   mfc71u:MFC71U.DLL
 0001:0000964c       ?IsFrameWnd@CWnd@@UBEHXZ   0040a64c f   mfc71u:MFC71U.DLL
 0001:00009652       ?CreateControlContainer@CWnd@@MAEHPAPAVCOleControlContainer@@@Z 0040a652 f   mfc71u:MFC71U.DLL
 0001:00009658       ?CreateControlSite@CWnd@@MAEHPAVCOleControlContainer@@PAPAVCOleControlSite@@IABU_GUID@@@Z 0040a658 f   mfc71u:MFC71U.DLL
 0001:0000965e       ?GetRuntimeClass@CDialog@@UBEPAUCRuntimeClass@@XZ 0040a65e f   mfc71u:MFC71U.DLL
 0001:00009664       ?OnCmdMsg@CDialog@@UAEHIHPAXPAUAFX_CMDHANDLERINFO@@@Z 0040a664 f   mfc71u:MFC71U.DLL
 0001:0000966a       ?PreCreateWindow@CWnd@@UAEHAAUtagCREATESTRUCTW@@@Z 0040a66a f   mfc71u:MFC71U.DLL
 0001:00009670       ?CalcWindowRect@CWnd@@UAEXPAUtagRECT@@I@Z 0040a670 f   mfc71u:MFC71U.DLL
 0001:00009676       ?GetScrollBarCtrl@CWnd@@UBEPAVCScrollBar@@H@Z 0040a676 f   mfc71u:MFC71U.DLL
 0001:0000967c       ?PreTranslateMessage@CDialog@@UAEHPAUtagMSG@@@Z 0040a67c f   mfc71u:MFC71U.DLL
 0001:00009682       ?PostNcDestroy@CWnd@@MAEXXZ 0040a682 f   mfc71u:MFC71U.DLL
 0001:00009688       ?CheckAutoCenter@CDialog@@UAEHXZ 0040a688 f   mfc71u:MFC71U.DLL
 0001:0000968e       ?SetOccDialogInfo@CDialog@@MAEHPAU_AFX_OCC_DIALOG_INFO@@@Z 0040a68e f   mfc71u:MFC71U.DLL
 0001:000096a0       ?CreateIndirect@CDialog@@UAEHPAXPAVCWnd@@@Z 0040a6a0 f   mfc71u:MFC71U.DLL
 0001:000096a6       ?CreateIndirect@CDialog@@UAEHPBUDLGTEMPLATE@@PAVCWnd@@PAX@Z 0040a6a6 f   mfc71u:MFC71U.DLL
 0001:000096ac       ?DoModal@CDialog@@UAEHXZ   0040a6ac f   mfc71u:MFC71U.DLL
 0001:000096b2       ?OnInitDialog@CDialog@@UAEHXZ 0040a6b2 f   mfc71u:MFC71U.DLL
 0001:000096b8       ?OnSetFont@CDialog@@UAEXPAVCFont@@@Z 0040a6b8 f   mfc71u:MFC71U.DLL
 0001:000096be       ?OnOK@CDialog@@MAEXXZ      0040a6be f   mfc71u:MFC71U.DLL
 0001:000096c4       ?OnCancel@CDialog@@MAEXXZ  0040a6c4 f   mfc71u:MFC71U.DLL
 0001:000096ca       ?PreInitDialog@CDialog@@MAEXXZ 0040a6ca f   mfc71u:MFC71U.DLL
 0001:000096d0       ?GetThisClass@CObject@@SGPAUCRuntimeClass@@XZ 0040a6d0 f   mfc71u:MFC71U.DLL
 0001:000096d6       ?AfxClassInit@@YGXPAUCRuntimeClass@@@Z 0040a6d6 f   mfc71u:MFC71U.DLL
 0001:000096dc       ?Flush@CArchive@@QAEXXZ    0040a6dc f   mfc71u:MFC71U.DLL
 0001:000096e2       ?FillBuffer@CArchive@@QAEXI@Z 0040a6e2 f   mfc71u:MFC71U.DLL
 0001:000096e8       ?AfxWriteStringLength@@YGXAAVCArchive@@IH@Z 0040a6e8 f   mfc71u:MFC71U.DLL
 0001:000096f0       ?Write@CArchive@@QAEXPBXI@Z 0040a6f0 f   mfc71u:MFC71U.DLL
 0001:000096f6       ?AfxReadStringLength@@YGIAAVCArchive@@AAH@Z 0040a6f6 f   mfc71u:MFC71U.DLL
 0001:000096fc       ?Read@CArchive@@QAEIPAXI@Z 0040a6fc f   mfc71u:MFC71U.DLL
 0001:00009710       ??2@YAPAXI@Z               0040a710 f   mfc71u:MFC71U.DLL
 0001:00009716       ?AfxThrowOleException@@YGXJ@Z 0040a716 f   mfc71u:MFC71U.DLL
 0001:0000971c       ?AfxThrowMemoryException@@YGXXZ 0040a71c f   mfc71u:MFC71U.DLL
 0001:00009722       ?GetRuntimeClass@CObject@@UBEPAUCRuntimeClass@@XZ 0040a722 f   mfc71u:MFC71U.DLL
 0001:00009730       ?OnGetCheckPosition@CCheckListBox@@UAE?AVCRect@@V2@0@Z 0040a730 f   mfc71u:MFC71U.DLL
 0001:00009736       ?MeasureItem@CCheckListBox@@UAEXPAUtagMEASUREITEMSTRUCT@@@Z 0040a736 f   mfc71u:MFC71U.DLL
 0001:0000973c       ?DrawItem@CCheckListBox@@UAEXPAUtagDRAWITEMSTRUCT@@@Z 0040a73c f   mfc71u:MFC71U.DLL
 0001:00009742       ?Create@CCheckListBox@@UAEHKABUtagRECT@@PAVCWnd@@I@Z 0040a742 f   mfc71u:MFC71U.DLL
 0001:00009748       ?OnChildNotify@CCheckListBox@@MAEHIIJPAJ@Z 0040a748 f   mfc71u:MFC71U.DLL
 0001:0000974e       ?accDoDefaultAction@CCheckListBox@@MAEJUtagVARIANT@@@Z 0040a74e f   mfc71u:MFC71U.DLL
 0001:00009760       ?get_accState@CCheckListBox@@MAEJUtagVARIANT@@PAU2@@Z 0040a760 f   mfc71u:MFC71U.DLL
 0001:00009766       ?get_accRole@CCheckListBox@@MAEJUtagVARIANT@@PAU2@@Z 0040a766 f   mfc71u:MFC71U.DLL
 0001:0000976c       ?GetMessageMap@CCheckListBox@@MBEPBUAFX_MSGMAP@@XZ 0040a76c f   mfc71u:MFC71U.DLL
 0001:00009772       ?GetRuntimeClass@CCheckListBox@@UBEPAUCRuntimeClass@@XZ 0040a772 f   mfc71u:MFC71U.DLL
 0001:00009778       ?CharToItem@CListBox@@UAEHII@Z 0040a778 f   mfc71u:MFC71U.DLL
 0001:0000977e       ?VKeyToItem@CListBox@@UAEHII@Z 0040a77e f   mfc71u:MFC71U.DLL
 0001:00009784       ?DeleteItem@CListBox@@UAEXPAUtagDELETEITEMSTRUCT@@@Z 0040a784 f   mfc71u:MFC71U.DLL
 0001:0000978a       ?CompareItem@CListBox@@UAEHPAUtagCOMPAREITEMSTRUCT@@@Z 0040a78a f   mfc71u:MFC71U.DLL
 0001:00009790       ??1CListBox@@UAE@XZ        0040a790 f   mfc71u:MFC71U.DLL
 0001:00009796       ?DrawItem@CButton@@UAEXPAUtagDRAWITEMSTRUCT@@@Z 0040a796 f   mfc71u:MFC71U.DLL
 0001:000097a0       ?OnChildNotify@CButton@@MAEHIIJPAJ@Z 0040a7a0 f   mfc71u:MFC71U.DLL
 0001:000097a6       ?GetMessageMap@CWnd@@MBEPBUAFX_MSGMAP@@XZ 0040a7a6 f   mfc71u:MFC71U.DLL
 0001:000097ac       ?GetRuntimeClass@CButton@@UBEPAUCRuntimeClass@@XZ 0040a7ac f   mfc71u:MFC71U.DLL
 0001:000097b2       ??1CWnd@@UAE@XZ            0040a7b2 f   mfc71u:MFC71U.DLL
 0001:000097b8       ??0CWnd@@QAE@XZ            0040a7b8 f   mfc71u:MFC71U.DLL
 0001:000097be       ??1CButton@@UAE@XZ         0040a7be f   mfc71u:MFC71U.DLL
 0001:000097c4       ?DDX_Control@@YGXPAVCDataExchange@@HAAVCWnd@@@Z 0040a7c4 f   mfc71u:MFC71U.DLL
 0001:000097ca       ?GetCheck@CCheckListBox@@QAEHH@Z 0040a7ca f   mfc71u:MFC71U.DLL
 0001:000097d0       ?SetCheck@CCheckListBox@@QAEXHH@Z 0040a7d0 f   mfc71u:MFC71U.DLL
 0001:000097d6       ??1CComboBox@@UAE@XZ       0040a7d6 f   mfc71u:MFC71U.DLL
 0001:000097dc       ??1CEdit@@UAE@XZ           0040a7dc f   mfc71u:MFC71U.DLL
 0001:000097e2       ??1CStatic@@UAE@XZ         0040a7e2 f   mfc71u:MFC71U.DLL
 0001:000097e8       ?EnableWindow@CWnd@@QAEHH@Z 0040a7e8 f   mfc71u:MFC71U.DLL
 0001:000097ee       ??_V@YAXPAX@Z              0040a7ee f   mfc71u:MFC71U.DLL
 0001:000097f4       ?WriteCount@CArchive@@QAEXK@Z 0040a7f4 f   mfc71u:MFC71U.DLL
 0001:000097fa       ?ReadCount@CArchive@@QAEKXZ 0040a7fa f   mfc71u:MFC71U.DLL
 0001:00009800       ?AfxThrowInvalidArgException@@YGXXZ 0040a800 f   mfc71u:MFC71U.DLL
 0001:00009806       ??_U@YAPAXI@Z              0040a806 f   mfc71u:MFC71U.DLL
 0001:0000980c       ?PreTranslateMessage@CWnd@@UAEHPAUtagMSG@@@Z 0040a80c f   mfc71u:MFC71U.DLL
 0001:00009812       ?CheckAutoCenter@CWnd@@UAEHXZ 0040a812 f   mfc71u:MFC71U.DLL
 0001:00009818       ?SetOccDialogInfo@CWnd@@MAEHPAU_AFX_OCC_DIALOG_INFO@@@Z 0040a818 f   mfc71u:MFC71U.DLL
 0001:0000981e       ?OnCmdMsg@CCmdTarget@@UAEHIHPAXPAUAFX_CMDHANDLERINFO@@@Z 0040a81e f   mfc71u:MFC71U.DLL
 0001:00009830       ?DDX_Text@@YGXPAVCDataExchange@@HAAI@Z 0040a830 f   mfc71u:MFC71U.DLL
 0001:00009836       ?UpdateData@CWnd@@QAEHH@Z  0040a836 f   mfc71u:MFC71U.DLL
 0001:0000983c       ?AfxMessageBox@@YGHIII@Z   0040a83c f   mfc71u:MFC71U.DLL
 0001:00009842       ?GetThisMessageMap@CWnd@@KGPBUAFX_MSGMAP@@XZ 0040a842 f   mfc71u:MFC71U.DLL
 0001:00009850       ?AfxGetModuleState@@YGPAVAFX_MODULE_STATE@@XZ 0040a850 f   mfc71u:MFC71U.DLL
 0001:00009856       ?GetRuntimeClass@CWnd@@UBEPAUCRuntimeClass@@XZ 0040a856 f   mfc71u:MFC71U.DLL
 0001:0000985c       ??0CMDIFrameWnd@@QAE@XZ    0040a85c f   mfc71u:MFC71U.DLL
 0001:00009862       ??0CStatusBar@@QAE@XZ      0040a862 f   mfc71u:MFC71U.DLL
 0001:00009868       ??1CStatusBar@@UAE@XZ      0040a868 f   mfc71u:MFC71U.DLL
 0001:0000986e       ??0CToolBar@@QAE@XZ        0040a86e f   mfc71u:MFC71U.DLL
 0001:00009874       ??1CToolBar@@UAE@XZ        0040a874 f   mfc71u:MFC71U.DLL
 0001:0000987a       ??1CFrameWnd@@UAE@XZ       0040a87a f   mfc71u:MFC71U.DLL
 0001:00009880       ?GetThisClass@CMDIFrameWnd@@SGPAUCRuntimeClass@@XZ 0040a880 f   mfc71u:MFC71U.DLL
 0001:00009886       ?GetThisMessageMap@CMDIFrameWnd@@KGPBUAFX_MSGMAP@@XZ 0040a886 f   mfc71u:MFC71U.DLL
 0001:0000988c       ?OnCreate@CFrameWnd@@IAEHPAUtagCREATESTRUCTW@@@Z 0040a88c f   mfc71u:MFC71U.DLL
 0001:000098a0       ?SetIndicators@CStatusBar@@QAEHPBIH@Z 0040a8a0 f   mfc71u:MFC71U.DLL
 0001:000098a6       ?PreCreateWindow@CMDIFrameWnd@@UAEHAAUtagCREATESTRUCTW@@@Z 0040a8a6 f   mfc71u:MFC71U.DLL
 0001:000098ac       ?OnCmdMsg@CMDIFrameWnd@@UAEHIHPAXPAUAFX_CMDHANDLERINFO@@@Z 0040a8ac f   mfc71u:MFC71U.DLL
 0001:000098b2       ?OnCommand@CMDIFrameWnd@@MAEHIJ@Z 0040a8b2 f   mfc71u:MFC71U.DLL
 0001:000098b8       ?BeginModalState@CFrameWnd@@UAEXXZ 0040a8b8 f   mfc71u:MFC71U.DLL
 0001:000098be       ?EndModalState@CFrameWnd@@UAEXXZ 0040a8be f   mfc71u:MFC71U.DLL
 0001:000098c4       ?PreTranslateMessage@CMDIFrameWnd@@UAEHPAUtagMSG@@@Z 0040a8c4 f   mfc71u:MFC71U.DLL
 0001:000098ca       ?DefWindowProcW@CMDIFrameWnd@@MAEJIIJ@Z 0040a8ca f   mfc71u:MFC71U.DLL
 0001:000098d0       ?PostNcDestroy@CFrameWnd@@MAEXXZ 0040a8d0 f   mfc71u:MFC71U.DLL
 0001:000098d6       ?IsFrameWnd@CFrameWnd@@UBEHXZ 0040a8d6 f   mfc71u:MFC71U.DLL
 0001:000098e0       ?LoadFrame@CMDIFrameWnd@@UAEHIKPAVCWnd@@PAUCCreateContext@@@Z 0040a8e0 f   mfc71u:MFC71U.DLL
 0001:000098e6       ?GetActiveDocument@CFrameWnd@@UAEPAVCDocument@@XZ 0040a8e6 f   mfc71u:MFC71U.DLL
 0001:000098ec       ?GetActiveFrame@CMDIFrameWnd@@UAEPAVCFrameWnd@@XZ 0040a8ec f   mfc71u:MFC71U.DLL
 0001:00009900       ?RecalcLayout@CFrameWnd@@UAEXH@Z 0040a900 f   mfc71u:MFC71U.DLL
 0001:00009906       ?ActivateFrame@CFrameWnd@@UAEXH@Z 0040a906 f   mfc71u:MFC71U.DLL
 0001:0000990c       ?OnSetPreviewMode@CFrameWnd@@UAEXHPAUCPrintPreviewState@@@Z 0040a90c f   mfc71u:MFC71U.DLL
 0001:00009912       ?GetMessageBar@CFrameWnd@@UAEPAVCWnd@@XZ 0040a912 f   mfc71u:MFC71U.DLL
 0001:00009918       ?NegotiateBorderSpace@CFrameWnd@@UAEHIPAUtagRECT@@@Z 0040a918 f   mfc71u:MFC71U.DLL
 0001:0000991e       ?OnCreateClient@CMDIFrameWnd@@UAEHPAUtagCREATESTRUCTW@@PAUCCreateContext@@@Z 0040a91e f   mfc71u:MFC71U.DLL
 0001:00009924       ?OnUpdateFrameTitle@CMDIFrameWnd@@UAEXH@Z 0040a924 f   mfc71u:MFC71U.DLL
 0001:0000992a       ?OnUpdateFrameMenu@CMDIFrameWnd@@UAEXPAUHMENU__@@@Z 0040a92a f   mfc71u:MFC71U.DLL
 0001:00009930       ?GetDefaultAccelerator@CFrameWnd@@UAEPAUHACCEL__@@XZ 0040a930 f   mfc71u:MFC71U.DLL
 0001:00009936       ?DelayUpdateFrameMenu@CMDIFrameWnd@@UAEXPAUHMENU__@@@Z 0040a936 f   mfc71u:MFC71U.DLL
 0001:0000993c       ?ExitHelpMode@CFrameWnd@@UAEXXZ 0040a93c f   mfc71u:MFC71U.DLL
 0001:00009942       ?CreateClient@CMDIFrameWnd@@UAEHPAUtagCREATESTRUCTW@@PAVCMenu@@@Z 0040a942 f   mfc71u:MFC71U.DLL
 0001:00009948       ?GetWindowMenuPopup@CMDIFrameWnd@@UAEPAUHMENU__@@PAU2@@Z 0040a948 f   mfc71u:MFC71U.DLL
 0001:0000994e       ?GetDlgItem@CWnd@@QBEPAV1@H@Z 0040a94e f   mfc71u:MFC71U.DLL
 0001:00009954       ?DeleteItem@CComboBox@@UAEXPAUtagDELETEITEMSTRUCT@@@Z 0040a954 f   mfc71u:MFC71U.DLL
 0001:0000995a       ?CompareItem@CComboBox@@UAEHPAUtagCOMPAREITEMSTRUCT@@@Z 0040a95a f   mfc71u:MFC71U.DLL
 0001:00009960       ?MeasureItem@CComboBox@@UAEXPAUtagMEASUREITEMSTRUCT@@@Z 0040a960 f   mfc71u:MFC71U.DLL
 0001:00009966       ?DrawItem@CComboBox@@UAEXPAUtagDRAWITEMSTRUCT@@@Z 0040a966 f   mfc71u:MFC71U.DLL
 0001:0000996c       ?Create@CComboBox@@UAEHKABUtagRECT@@PAVCWnd@@I@Z 0040a96c f   mfc71u:MFC71U.DLL
 0001:00009972       ?OnChildNotify@CComboBox@@MAEHIIJPAJ@Z 0040a972 f   mfc71u:MFC71U.DLL
 0001:00009978       ?GetRuntimeClass@CComboBox@@UBEPAUCRuntimeClass@@XZ 0040a978 f   mfc71u:MFC71U.DLL
 0001:0000997e       ?Create@CEdit@@UAEHKABUtagRECT@@PAVCWnd@@I@Z 0040a97e f   mfc71u:MFC71U.DLL
 0001:00009984       ?GetRuntimeClass@CEdit@@UBEPAUCRuntimeClass@@XZ 0040a984 f   mfc71u:MFC71U.DLL
 0001:0000998a       ?DrawItem@CStatic@@UAEXPAUtagDRAWITEMSTRUCT@@@Z 0040a98a f   mfc71u:MFC71U.DLL
 0001:00009990       ?OnChildNotify@CStatic@@MAEHIIJPAJ@Z 0040a990 f   mfc71u:MFC71U.DLL
 0001:00009996       ?GetRuntimeClass@CStatic@@UBEPAUCRuntimeClass@@XZ 0040a996 f   mfc71u:MFC71U.DLL
 0001:000099a0       ?DDX_Check@@YGXPAVCDataExchange@@HAAH@Z 0040a9a0 f   mfc71u:MFC71U.DLL
 0001:000099b0       ??1CWinApp@@UAE@XZ         0040a9b0 f   mfc71u:MFC71U.DLL
 0001:000099b6       ?GetThisMessageMap@CWinApp@@KGPBUAFX_MSGMAP@@XZ 0040a9b6 f   mfc71u:MFC71U.DLL
 0001:000099bc       ?OnFileOpen@CWinApp@@IAEXXZ 0040a9bc f   mfc71u:MFC71U.DLL
 0001:000099c2       ?OnFilePrintSetup@CWinApp@@IAEXXZ 0040a9c2 f   mfc71u:MFC71U.DLL
 0001:000099d0       ?LoadStdProfileSettings@CWinApp@@IAEXI@Z 0040a9d0 f   mfc71u:MFC71U.DLL
 0001:000099d6       ??0CMultiDocTemplate@@QAE@IPAUCRuntimeClass@@00@Z 0040a9d6 f   mfc71u:MFC71U.DLL
 0001:000099dc       ?AddDocTemplate@CWinApp@@QAEXPAVCDocTemplate@@@Z 0040a9dc f   mfc71u:MFC71U.DLL
 0001:000099e2       ?EnableShellOpen@CWinApp@@IAEXXZ 0040a9e2 f   mfc71u:MFC71U.DLL
 0001:000099e8       ?RegisterShellFileTypes@CWinApp@@IAEXH@Z 0040a9e8 f   mfc71u:MFC71U.DLL
 0001:000099ee       ??0CCommandLineInfo@@QAE@XZ 0040a9ee f   mfc71u:MFC71U.DLL
 0001:000099f4       ??1CCommandLineInfo@@UAE@XZ 0040a9f4 f   mfc71u:MFC71U.DLL
 0001:000099fa       ?ParseCommandLine@CWinApp@@QAEXAAVCCommandLineInfo@@@Z 0040a9fa f   mfc71u:MFC71U.DLL
 0001:00009a00       ?ProcessShellCommand@CWinApp@@QAEHAAVCCommandLineInfo@@@Z 0040aa00 f   mfc71u:MFC71U.DLL
 0001:00009a06       ?ShowWindow@CWnd@@QAEHH@Z  0040aa06 f   mfc71u:MFC71U.DLL
 0001:00009a10       ??1CFileDialog@@UAE@XZ     0040aa10 f   mfc71u:MFC71U.DLL
 0001:00009a16       ?GetOFN@CFileDialog@@QAEAAUtagOFNW@@XZ 0040aa16 f   mfc71u:MFC71U.DLL
 0001:00009a20       ?GetFirstDocTemplatePosition@CWinApp@@QBEPAU__POSITION@@XZ 0040aa20 f   mfc71u:MFC71U.DLL
 0001:00009a26       ?GetNextDocTemplate@CWinApp@@QBEPAVCDocTemplate@@AAPAU__POSITION@@@Z 0040aa26 f   mfc71u:MFC71U.DLL
 0001:00009a30       ?DoModal@CFileDialog@@UAEHXZ 0040aa30 f   mfc71u:MFC71U.DLL
 0001:00009a40       ?GetRuntimeClass@CWinApp@@UBEPAUCRuntimeClass@@XZ 0040aa40 f   mfc71u:MFC71U.DLL
 0001:00009a46       ?OnFinalRelease@CCmdTarget@@UAEXXZ 0040aa46 f   mfc71u:MFC71U.DLL
 0001:00009a4c       ?GetInterfaceMap@CCmdTarget@@MBEPBUAFX_INTERFACEMAP@@XZ 0040aa4c f   mfc71u:MFC71U.DLL
 0001:00009a52       ?Run@CWinApp@@UAEHXZ       0040aa52 f   mfc71u:MFC71U.DLL
 0001:00009a58       ?PreTranslateMessage@CWinThread@@UAEHPAUtagMSG@@@Z 0040aa58 f   mfc71u:MFC71U.DLL
 0001:00009a5e       ?PumpMessage@CWinThread@@UAEHXZ 0040aa5e f   mfc71u:MFC71U.DLL
 0001:00009a64       ?OnIdle@CWinApp@@UAEHJ@Z   0040aa64 f   mfc71u:MFC71U.DLL
 0001:00009a6a       ?IsIdleMessage@CWinThread@@UAEHPAUtagMSG@@@Z 0040aa6a f   mfc71u:MFC71U.DLL
 0001:00009a70       ?ExitInstance@CWinApp@@UAEHXZ 0040aa70 f   mfc71u:MFC71U.DLL
 0001:00009a76       ?ProcessWndProcException@CWinApp@@UAEJPAVCException@@PBUtagMSG@@@Z 0040aa76 f   mfc71u:MFC71U.DLL
 0001:00009a7c       ?ProcessMessageFilter@CWinThread@@UAEHHPAUtagMSG@@@Z 0040aa7c f   mfc71u:MFC71U.DLL
 0001:00009a82       ?GetMainWnd@CWinThread@@UAEPAVCWnd@@XZ 0040aa82 f   mfc71u:MFC71U.DLL
 0001:00009a88       ?Delete@CWinThread@@UAEXXZ 0040aa88 f   mfc71u:MFC71U.DLL
 0001:00009a8e       ?InitLibId@CWinApp@@UAEXXZ 0040aa8e f   mfc71u:MFC71U.DLL
 0001:00009a94       ?Register@CWinApp@@UAEHXZ  0040aa94 f   mfc71u:MFC71U.DLL
 0001:00009a9a       ?Unregister@CWinApp@@UAEHXZ 0040aa9a f   mfc71u:MFC71U.DLL
 0001:00009aa0       ?InitApplication@CWinApp@@UAEHXZ 0040aaa0 f   mfc71u:MFC71U.DLL
 0001:00009aa6       ?SaveAllModified@CWinApp@@UAEHXZ 0040aaa6 f   mfc71u:MFC71U.DLL
 0001:00009ab0       ?DoWaitCursor@CWinApp@@UAEXH@Z 0040aab0 f   mfc71u:MFC71U.DLL
 0001:00009ac0       ?WinHelpW@CWinApp@@UAEXKI@Z 0040aac0 f   mfc71u:MFC71U.DLL
 0001:00009ac6       ?HtmlHelpW@CWinApp@@UAEXKI@Z 0040aac6 f   mfc71u:MFC71U.DLL
 0001:00009acc       ?WinHelpInternal@CWinApp@@UAEXKI@Z 0040aacc f   mfc71u:MFC71U.DLL
 0001:00009ad2       ?LoadAppLangResourceDLL@CWinApp@@UAEPAUHINSTANCE__@@XZ 0040aad2 f   mfc71u:MFC71U.DLL
 0001:00009ad8       ?LoadSysPolicies@CWinApp@@UAEHXZ 0040aad8 f   mfc71u:MFC71U.DLL
 0001:00009ae0       ?GetThisClass@CMDIChildWnd@@SGPAUCRuntimeClass@@XZ 0040aae0 f   mfc71u:MFC71U.DLL
 0001:00009ae6       ??0CMDIChildWnd@@QAE@XZ    0040aae6 f   mfc71u:MFC71U.DLL
 0001:00009aec       ?FromHandle@CMenu@@SGPAV1@PAUHMENU__@@@Z 0040aaec f   mfc71u:MFC71U.DLL
 0001:00009af2       ?GetThisMessageMap@CMDIChildWnd@@KGPBUAFX_MSGMAP@@XZ 0040aaf2 f   mfc71u:MFC71U.DLL
 0001:00009af8       ?PreCreateWindow@CMDIChildWnd@@UAEHAAUtagCREATESTRUCTW@@@Z 0040aaf8 f   mfc71u:MFC71U.DLL
 0001:00009afe       ?OnCmdMsg@CFrameWnd@@UAEHIHPAXPAUAFX_CMDHANDLERINFO@@@Z 0040aafe f   mfc71u:MFC71U.DLL
 0001:00009b04       ?DestroyWindow@CMDIChildWnd@@UAEHXZ 0040ab04 f   mfc71u:MFC71U.DLL
 0001:00009b0a       ?OnCommand@CFrameWnd@@MAEHIJ@Z 0040ab0a f   mfc71u:MFC71U.DLL
 0001:00009b10       ?PreTranslateMessage@CMDIChildWnd@@UAEHPAUtagMSG@@@Z 0040ab10 f   mfc71u:MFC71U.DLL
 0001:00009b16       ?DefWindowProcW@CMDIChildWnd@@MAEJIIJ@Z 0040ab16 f   mfc71u:MFC71U.DLL
 0001:00009b1c       ?LoadFrame@CMDIChildWnd@@UAEHIKPAVCWnd@@PAUCCreateContext@@@Z 0040ab1c f   mfc71u:MFC71U.DLL
 0001:00009b22       ?GetActiveFrame@CFrameWnd@@UAEPAV1@XZ 0040ab22 f   mfc71u:MFC71U.DLL
 0001:00009b28       ?ActivateFrame@CMDIChildWnd@@UAEXH@Z 0040ab28 f   mfc71u:MFC71U.DLL
 0001:00009b2e       ?GetMessageBar@CMDIChildWnd@@MAEPAVCWnd@@XZ 0040ab2e f   mfc71u:MFC71U.DLL
 0001:00009b34       ?OnCreateClient@CFrameWnd@@MAEHPAUtagCREATESTRUCTW@@PAUCCreateContext@@@Z 0040ab34 f   mfc71u:MFC71U.DLL
 0001:00009b3a       ?OnUpdateFrameTitle@CMDIChildWnd@@MAEXH@Z 0040ab3a f   mfc71u:MFC71U.DLL
 0001:00009b40       ?OnUpdateFrameMenu@CFrameWnd@@UAEXPAUHMENU__@@@Z 0040ab40 f   mfc71u:MFC71U.DLL
 0001:00009b46       ?DelayUpdateFrameMenu@CFrameWnd@@UAEXPAUHMENU__@@@Z 0040ab46 f   mfc71u:MFC71U.DLL
 0001:00009b50       ?OnUpdateFrameMenu@CMDIChildWnd@@UAEXHPAVCWnd@@PAUHMENU__@@@Z 0040ab50 f   mfc71u:MFC71U.DLL
 0001:00009b56       ??0CEditView@@QAE@XZ       0040ab56 f   mfc71u:MFC71U.DLL
 0001:00009b5c       ??1CEditView@@UAE@XZ       0040ab5c f   mfc71u:MFC71U.DLL
 0001:00009b62       ?DeleteObject@CGdiObject@@QAEHXZ 0040ab62 f   mfc71u:MFC71U.DLL
 0001:00009b68       ?GetRuntimeClass@CGdiObject@@UBEPAUCRuntimeClass@@XZ 0040ab68 f   mfc71u:MFC71U.DLL
 0001:00009b6e       ?GetRuntimeClass@CFont@@UBEPAUCRuntimeClass@@XZ 0040ab6e f   mfc71u:MFC71U.DLL
 0001:00009b74       ?GetThisClass@CEditView@@SGPAUCRuntimeClass@@XZ 0040ab74 f   mfc71u:MFC71U.DLL
 0001:00009b7a       ?GetThisMessageMap@CEditView@@KGPBUAFX_MSGMAP@@XZ 0040ab7a f   mfc71u:MFC71U.DLL
 0001:00009b80       ?OnFilePrint@CView@@IAEXXZ 0040ab80 f   mfc71u:MFC71U.DLL
 0001:00009b86       ?OnFilePrintPreview@CView@@IAEXXZ 0040ab86 f   mfc71u:MFC71U.DLL
 0001:00009b8c       ?PreCreateWindow@CEditView@@MAEHAAUtagCREATESTRUCTW@@@Z 0040ab8c f   mfc71u:MFC71U.DLL
 0001:00009b92       ?OnPreparePrinting@CEditView@@MAEHPAUCPrintInfo@@@Z 0040ab92 f   mfc71u:MFC71U.DLL
 0001:00009b98       ?OnBeginPrinting@CEditView@@MAEXPAVCDC@@PAUCPrintInfo@@@Z 0040ab98 f   mfc71u:MFC71U.DLL
 0001:00009b9e       ?OnEndPrinting@CEditView@@MAEXPAVCDC@@PAUCPrintInfo@@@Z 0040ab9e f   mfc71u:MFC71U.DLL
 0001:00009ba4       ?Default@CWnd@@IAEJXZ      0040aba4 f   mfc71u:MFC71U.DLL
 0001:00009baa       ?OnInitialUpdate@CView@@UAEXXZ 0040abaa f   mfc71u:MFC71U.DLL
 0001:00009bb0       ?FromHandle@CWnd@@SGPAV1@PAUHWND__@@@Z 0040abb0 f   mfc71u:MFC71U.DLL
 0001:00009bb6       ?GetWindowTextLengthW@CWnd@@QBEHXZ 0040abb6 f   mfc71u:MFC71U.DLL
 0001:00009bbc       ?AfxGetThread@@YGPAVCWinThread@@XZ 0040abbc f   mfc71u:MFC71U.DLL
 0001:00009bc2       ?OnDestroy@CEditView@@IAEXXZ 0040abc2 f   mfc71u:MFC71U.DLL
 0001:00009bc8       ?Serialize@CEditView@@UAEXAAVCArchive@@@Z 0040abc8 f   mfc71u:MFC71U.DLL
 0001:00009bce       ?OnCmdMsg@CView@@UAEHIHPAXPAUAFX_CMDHANDLERINFO@@@Z 0040abce f   mfc71u:MFC71U.DLL
 0001:00009bd4       ?CalcWindowRect@CEditView@@MAEXPAUtagRECT@@I@Z 0040abd4 f   mfc71u:MFC71U.DLL
 0001:00009bda       ?GetScrollBarCtrl@CView@@UBEPAVCScrollBar@@H@Z 0040abda f   mfc71u:MFC71U.DLL
 0001:00009be0       ?PostNcDestroy@CView@@MAEXXZ 0040abe0 f   mfc71u:MFC71U.DLL
 0001:00009be6       ?IsSelected@CView@@UBEHPBVCObject@@@Z 0040abe6 f   mfc71u:MFC71U.DLL
 0001:00009bec       ?OnScroll@CView@@UAEHIIH@Z 0040abec f   mfc71u:MFC71U.DLL
 0001:00009bf2       ?OnScrollBy@CView@@UAEHVCSize@@H@Z 0040abf2 f   mfc71u:MFC71U.DLL
 0001:00009bf8       ?OnDragEnter@CView@@UAEKPAVCOleDataObject@@KVCPoint@@@Z 0040abf8 f   mfc71u:MFC71U.DLL
 0001:00009bfe       ?OnDragOver@CView@@UAEKPAVCOleDataObject@@KVCPoint@@@Z 0040abfe f   mfc71u:MFC71U.DLL
 0001:00009c04       ?OnDragLeave@CView@@UAEXXZ 0040ac04 f   mfc71u:MFC71U.DLL
 0001:00009c0a       ?OnDrop@CView@@UAEHPAVCOleDataObject@@KVCPoint@@@Z 0040ac0a f   mfc71u:MFC71U.DLL
 0001:00009c10       ?OnDropEx@CView@@UAEKPAVCOleDataObject@@KKVCPoint@@@Z 0040ac10 f   mfc71u:MFC71U.DLL
 0001:00009c16       ?OnDragScroll@CView@@UAEKKVCPoint@@@Z 0040ac16 f   mfc71u:MFC71U.DLL
 0001:00009c1c       ?OnPrepareDC@CEditView@@UAEXPAVCDC@@PAUCPrintInfo@@@Z 0040ac1c f   mfc71u:MFC71U.DLL
 0001:00009c22       ?OnActivateView@CView@@MAEXHPAV1@0@Z 0040ac22 f   mfc71u:MFC71U.DLL
 0001:00009c28       ?OnActivateFrame@CView@@MAEXIPAVCFrameWnd@@@Z 0040ac28 f   mfc71u:MFC71U.DLL
 0001:00009c2e       ?OnUpdate@CView@@MAEXPAV1@JPAVCObject@@@Z 0040ac2e f   mfc71u:MFC71U.DLL
 0001:00009c34       ?OnPrint@CEditView@@MAEXPAVCDC@@PAUCPrintInfo@@@Z 0040ac34 f   mfc71u:MFC71U.DLL
 0001:00009c3a       ?OnEndPrintPreview@CView@@MAEXPAVCDC@@PAUCPrintInfo@@UtagPOINT@@PAVCPreviewView@@@Z 0040ac3a f   mfc71u:MFC71U.DLL
 0001:00009c40       ?DeleteContents@CEditView@@UAEXXZ 0040ac40 f   mfc71u:MFC71U.DLL
 0001:00009c46       ??0CDocument@@QAE@XZ       0040ac46 f   mfc71u:MFC71U.DLL
 0001:00009c4c       ??1CDocument@@UAE@XZ       0040ac4c f   mfc71u:MFC71U.DLL
 0001:00009c52       ?GetThisClass@CDocument@@SGPAUCRuntimeClass@@XZ 0040ac52 f   mfc71u:MFC71U.DLL
 0001:00009c58       ?GetThisMessageMap@CDocument@@KGPBUAFX_MSGMAP@@XZ 0040ac58 f   mfc71u:MFC71U.DLL
 0001:00009c5e       ?OnNewDocument@CDocument@@UAEHXZ 0040ac5e f   mfc71u:MFC71U.DLL
 0001:00009c64       ?IsKindOf@CObject@@QBEHPBUCRuntimeClass@@@Z 0040ac64 f   mfc71u:MFC71U.DLL
 0001:00009c70       ??0CFile@@QAE@XZ           0040ac70 f   mfc71u:MFC71U.DLL
 0001:00009c76       ??1CFile@@UAE@XZ           0040ac76 f   mfc71u:MFC71U.DLL
 0001:00009c80       ??0CArchive@@QAE@PAVCFile@@IHPAX@Z 0040ac80 f   mfc71u:MFC71U.DLL
 0001:00009c86       ??1CArchive@@QAE@XZ        0040ac86 f   mfc71u:MFC71U.DLL
 0001:00009c8c       ?Flush@CFile@@UAEXXZ       0040ac8c f   mfc71u:MFC71U.DLL
 0001:00009c92       ?Close@CFile@@UAEXXZ       0040ac92 f   mfc71u:MFC71U.DLL
 0001:00009c98       ?Delete@CException@@QAEXXZ 0040ac98 f   mfc71u:MFC71U.DLL
 0001:00009ca0       ?OnCloseDocument@CDocument@@UAEXXZ 0040aca0 f   mfc71u:MFC71U.DLL
 0001:00009cb0       ?GetActiveView@CFrameWnd@@QBEPAVCView@@XZ 0040acb0 f   mfc71u:MFC71U.DLL
 0001:00009cb6       ?BeginWaitCursor@CCmdTarget@@QAEXXZ 0040acb6 f   mfc71u:MFC71U.DLL
 0001:00009cbc       ?EndWaitCursor@CCmdTarget@@QAEXXZ 0040acbc f   mfc71u:MFC71U.DLL
 0001:00009cc2       ?OnCmdMsg@CDocument@@UAEHIHPAXPAUAFX_CMDHANDLERINFO@@@Z 0040acc2 f   mfc71u:MFC71U.DLL
 0001:00009cc8       ?OnFinalRelease@CDocument@@UAEXXZ 0040acc8 f   mfc71u:MFC71U.DLL
 0001:00009cce       ?GetFirstViewPosition@CDocument@@UBEPAU__POSITION@@XZ 0040acce f   mfc71u:MFC71U.DLL
 0001:00009cd4       ?GetNextView@CDocument@@UBEPAVCView@@AAPAU__POSITION@@@Z 0040acd4 f   mfc71u:MFC71U.DLL
 0001:00009cda       ?OnChangedViewList@CDocument@@UAEXXZ 0040acda f   mfc71u:MFC71U.DLL
 0001:00009ce0       ?DeleteContents@CDocument@@UAEXXZ 0040ace0 f   mfc71u:MFC71U.DLL
 0001:00009cf0       ?ReleaseFile@CDocument@@UAEXPAVCFile@@H@Z 0040acf0 f   mfc71u:MFC71U.DLL
 0001:00009cf6       ?CanCloseFrame@CDocument@@UAEHPAVCFrameWnd@@@Z 0040acf6 f   mfc71u:MFC71U.DLL
 0001:00009cfc       ?SaveModified@CDocument@@UAEHXZ 0040acfc f   mfc71u:MFC71U.DLL
 0001:00009d02       ?PreCloseFrame@CDocument@@UAEXPAVCFrameWnd@@@Z 0040ad02 f   mfc71u:MFC71U.DLL
 0001:00009d10       ?DoFileSave@CDocument@@UAEHXZ 0040ad10 f   mfc71u:MFC71U.DLL
 0001:00009d16       ?UpdateFrameCounts@CDocument@@UAEXXZ 0040ad16 f   mfc71u:MFC71U.DLL
 0001:00009d1c       ?GetDefaultMenu@CDocument@@UAEPAUHMENU__@@XZ 0040ad1c f   mfc71u:MFC71U.DLL
 0001:00009d22       ?GetDefaultAccelerator@CDocument@@UAEPAUHACCEL__@@XZ 0040ad22 f   mfc71u:MFC71U.DLL
 0001:00009d28       ?OnIdle@CDocument@@UAEXXZ  0040ad28 f   mfc71u:MFC71U.DLL
 0001:00009d2e       ?Create@CWnd@@UAEHPB_W0KABUtagRECT@@PAV1@IPAUCCreateContext@@@Z 0040ad2e f   mfc71u:MFC71U.DLL
 0001:00009d2e       ?Create@CWnd@@UAEHPBG0KABUtagRECT@@PAV1@IPAUCCreateContext@@@Z 0040ad2e f   mfc71u:MFC71U.DLL
 0001:00009d34       ?CreateEx@CWnd@@UAEHKPB_W0KABUtagRECT@@PAV1@IPAX@Z 0040ad34 f   mfc71u:MFC71U.DLL
 0001:00009d34       ?CreateEx@CWnd@@UAEHKPBG0KABUtagRECT@@PAV1@IPAX@Z 0040ad34 f   mfc71u:MFC71U.DLL
 0001:00009d3a       ?CreateEx@CWnd@@UAEHKPB_W0KHHHHPAUHWND__@@PAUHMENU__@@PAX@Z 0040ad3a f   mfc71u:MFC71U.DLL
 0001:00009d3a       ?CreateEx@CWnd@@UAEHKPBG0KHHHHPAUHWND__@@PAUHMENU__@@PAX@Z 0040ad3a f   mfc71u:MFC71U.DLL
 0001:00009d40       ?get_accName@CWnd@@UAEJUtagVARIANT@@PAPA_W@Z 0040ad40 f   mfc71u:MFC71U.DLL
 0001:00009d40       ?get_accName@CWnd@@UAEJUtagVARIANT@@PAPAG@Z 0040ad40 f   mfc71u:MFC71U.DLL
 0001:00009d46       ?get_accValue@CWnd@@UAEJUtagVARIANT@@PAPA_W@Z 0040ad46 f   mfc71u:MFC71U.DLL
 0001:00009d46       ?get_accValue@CWnd@@UAEJUtagVARIANT@@PAPAG@Z 0040ad46 f   mfc71u:MFC71U.DLL
 0001:00009d4c       ?get_accDescription@CWnd@@UAEJUtagVARIANT@@PAPA_W@Z 0040ad4c f   mfc71u:MFC71U.DLL
 0001:00009d4c       ?get_accDescription@CWnd@@UAEJUtagVARIANT@@PAPAG@Z 0040ad4c f   mfc71u:MFC71U.DLL
 0001:00009d52       ?get_accHelp@CWnd@@UAEJUtagVARIANT@@PAPA_W@Z 0040ad52 f   mfc71u:MFC71U.DLL
 0001:00009d52       ?get_accHelp@CWnd@@UAEJUtagVARIANT@@PAPAG@Z 0040ad52 f   mfc71u:MFC71U.DLL
 0001:00009d58       ?get_accHelpTopic@CWnd@@UAEJPAPAGUtagVARIANT@@PAJ@Z 0040ad58 f   mfc71u:MFC71U.DLL
 0001:00009d58       ?get_accHelpTopic@CWnd@@UAEJPAPA_WUtagVARIANT@@PAJ@Z 0040ad58 f   mfc71u:MFC71U.DLL
 0001:00009d5e       ?get_accKeyboardShortcut@CWnd@@UAEJUtagVARIANT@@PAPA_W@Z 0040ad5e f   mfc71u:MFC71U.DLL
 0001:00009d5e       ?get_accKeyboardShortcut@CWnd@@UAEJUtagVARIANT@@PAPAG@Z 0040ad5e f   mfc71u:MFC71U.DLL
 0001:00009d64       ?get_accDefaultAction@CWnd@@UAEJUtagVARIANT@@PAPA_W@Z 0040ad64 f   mfc71u:MFC71U.DLL
 0001:00009d64       ?get_accDefaultAction@CWnd@@UAEJUtagVARIANT@@PAPAG@Z 0040ad64 f   mfc71u:MFC71U.DLL
 0001:00009d6a       ?put_accName@CWnd@@UAEJUtagVARIANT@@PA_W@Z 0040ad6a f   mfc71u:MFC71U.DLL
 0001:00009d6a       ?put_accName@CWnd@@UAEJUtagVARIANT@@PAG@Z 0040ad6a f   mfc71u:MFC71U.DLL
 0001:00009d70       ?put_accValue@CWnd@@UAEJUtagVARIANT@@PA_W@Z 0040ad70 f   mfc71u:MFC71U.DLL
 0001:00009d70       ?put_accValue@CWnd@@UAEJUtagVARIANT@@PAG@Z 0040ad70 f   mfc71u:MFC71U.DLL
 0001:00009d76       ?Create@CDialog@@UAEHPB_WPAVCWnd@@@Z 0040ad76 f   mfc71u:MFC71U.DLL
 0001:00009d76       ?Create@CDialog@@UAEHPBGPAVCWnd@@@Z 0040ad76 f   mfc71u:MFC71U.DLL
 0001:00009d7c       ?AfxThrowArchiveException@@YGXHPB_W@Z 0040ad7c f   mfc71u:MFC71U.DLL
 0001:00009d7c       ?AfxThrowArchiveException@@YGXHPBG@Z 0040ad7c f   mfc71u:MFC71U.DLL
 0001:00009d82       ?get_accDefaultAction@CCheckListBox@@MAEJUtagVARIANT@@PAPAG@Z 0040ad82 f   mfc71u:MFC71U.DLL
 0001:00009d82       ?get_accDefaultAction@CCheckListBox@@MAEJUtagVARIANT@@PAPA_W@Z 0040ad82 f   mfc71u:MFC71U.DLL
 0001:00009d88       ?Create@CButton@@UAEHPBGKABUtagRECT@@PAVCWnd@@I@Z 0040ad88 f   mfc71u:MFC71U.DLL
 0001:00009d88       ?Create@CButton@@UAEHPB_WKABUtagRECT@@PAVCWnd@@I@Z 0040ad88 f   mfc71u:MFC71U.DLL
 0001:00009d8e       ?DDX_Text@@YGXPAVCDataExchange@@HAAV?$CStringT@GV?$StrTraitMFC_DLL@GV?$ChTraitsCRT@G@ATL@@@@@ATL@@@Z 0040ad8e f   mfc71u:MFC71U.DLL
 0001:00009d8e       ?DDX_Text@@YGXPAVCDataExchange@@HAAV?$CStringT@_WV?$StrTraitMFC_DLL@_WV?$ChTraitsCRT@_W@ATL@@@@@ATL@@@Z 0040ad8e f   mfc71u:MFC71U.DLL
 0001:00009d94       ?AfxRegisterWndClass@@YGPB_WIPAUHICON__@@PAUHBRUSH__@@0@Z 0040ad94 f   mfc71u:MFC71U.DLL
 0001:00009d94       ?AfxRegisterWndClass@@YGPBGIPAUHICON__@@PAUHBRUSH__@@0@Z 0040ad94 f   mfc71u:MFC71U.DLL
 0001:00009d9a       ?LoadToolBar@CToolBar@@QAEHPBG@Z 0040ad9a f   mfc71u:MFC71U.DLL
 0001:00009d9a       ?LoadToolBar@CToolBar@@QAEHPB_W@Z 0040ad9a f   mfc71u:MFC71U.DLL
 0001:00009da0       ?Create@CFrameWnd@@UAEHPBG0KABUtagRECT@@PAVCWnd@@0KPAUCCreateContext@@@Z 0040ada0 f   mfc71u:MFC71U.DLL
 0001:00009da0       ?Create@CFrameWnd@@UAEHPB_W0KABUtagRECT@@PAVCWnd@@0KPAUCCreateContext@@@Z 0040ada0 f   mfc71u:MFC71U.DLL
 0001:00009da6       ?GetMessageString@CFrameWnd@@UBEXIAAV?$CStringT@GV?$StrTraitMFC_DLL@GV?$ChTraitsCRT@G@ATL@@@@@ATL@@@Z 0040ada6 f   mfc71u:MFC71U.DLL
 0001:00009da6       ?GetMessageString@CFrameWnd@@UBEXIAAV?$CStringT@_WV?$StrTraitMFC_DLL@_WV?$ChTraitsCRT@_W@ATL@@@@@ATL@@@Z 0040ada6 f   mfc71u:MFC71U.DLL
 0001:00009dac       ?Create@CStatic@@UAEHPBGKABUtagRECT@@PAVCWnd@@I@Z 0040adac f   mfc71u:MFC71U.DLL
 0001:00009dac       ?Create@CStatic@@UAEHPB_WKABUtagRECT@@PAVCWnd@@I@Z 0040adac f   mfc71u:MFC71U.DLL
 0001:00009db2       ?SetWindowTextW@CWnd@@QAEXPB_W@Z 0040adb2 f   mfc71u:MFC71U.DLL
 0001:00009db2       ?SetWindowTextW@CWnd@@QAEXPBG@Z 0040adb2 f   mfc71u:MFC71U.DLL
 0001:00009db8       ?DDX_CBString@@YGXPAVCDataExchange@@HAAV?$CStringT@GV?$StrTraitMFC_DLL@GV?$ChTraitsCRT@G@ATL@@@@@ATL@@@Z 0040adb8 f   mfc71u:MFC71U.DLL
 0001:00009db8       ?DDX_CBString@@YGXPAVCDataExchange@@HAAV?$CStringT@_WV?$StrTraitMFC_DLL@_WV?$ChTraitsCRT@_W@ATL@@@@@ATL@@@Z 0040adb8 f   mfc71u:MFC71U.DLL
 0001:00009dbe       ??0CWinApp@@QAE@PB_W@Z     0040adbe f   mfc71u:MFC71U.DLL
 0001:00009dbe       ??0CWinApp@@QAE@PBG@Z      0040adbe f   mfc71u:MFC71U.DLL
 0001:00009dc4       ?SetRegistryKey@CWinApp@@IAEXPBG@Z 0040adc4 f   mfc71u:MFC71U.DLL
 0001:00009dc4       ?SetRegistryKey@CWinApp@@IAEXPB_W@Z 0040adc4 f   mfc71u:MFC71U.DLL
 0001:00009dca       ??0CFileDialog@@QAE@HPBG0K0PAVCWnd@@K@Z 0040adca f   mfc71u:MFC71U.DLL
 0001:00009dca       ??0CFileDialog@@QAE@HPB_W0K0PAVCWnd@@K@Z 0040adca f   mfc71u:MFC71U.DLL
 0001:00009dd0       ?OpenDocumentFile@CWinApp@@UAEPAVCDocument@@PB_W@Z 0040add0 f   mfc71u:MFC71U.DLL
 0001:00009dd0       ?OpenDocumentFile@CWinApp@@UAEPAVCDocument@@PBG@Z 0040add0 f   mfc71u:MFC71U.DLL
 0001:00009dd6       ?AddToRecentFileList@CWinApp@@UAEXPBG@Z 0040add6 f   mfc71u:MFC71U.DLL
 0001:00009dd6       ?AddToRecentFileList@CWinApp@@UAEXPB_W@Z 0040add6 f   mfc71u:MFC71U.DLL
 0001:00009ddc       ?DoMessageBox@CWinApp@@UAEHPB_WII@Z 0040addc f   mfc71u:MFC71U.DLL
 0001:00009ddc       ?DoMessageBox@CWinApp@@UAEHPBGII@Z 0040addc f   mfc71u:MFC71U.DLL
 0001:00009de2       ?OnDDECommand@CWinApp@@UAEHPA_W@Z 0040ade2 f   mfc71u:MFC71U.DLL
 0001:00009de2       ?OnDDECommand@CWinApp@@UAEHPAG@Z 0040ade2 f   mfc71u:MFC71U.DLL
 0001:00009de8       ?Create@CMDIChildWnd@@UAEHPB_W0KABUtagRECT@@PAVCMDIFrameWnd@@PAUCCreateContext@@@Z 0040ade8 f   mfc71u:MFC71U.DLL
 0001:00009de8       ?Create@CMDIChildWnd@@UAEHPBG0KABUtagRECT@@PAVCMDIFrameWnd@@PAUCCreateContext@@@Z 0040ade8 f   mfc71u:MFC71U.DLL
 0001:00009dee       ?CreatePointFont@CFont@@QAEHHPB_WPAVCDC@@@Z 0040adee f   mfc71u:MFC71U.DLL
 0001:00009dee       ?CreatePointFont@CFont@@QAEHHPBGPAVCDC@@@Z 0040adee f   mfc71u:MFC71U.DLL
 0001:00009df4       ?OnFindNext@CEditView@@MAEXPBGHH@Z 0040adf4 f   mfc71u:MFC71U.DLL
 0001:00009df4       ?OnFindNext@CEditView@@MAEXPB_WHH@Z 0040adf4 f   mfc71u:MFC71U.DLL
 0001:00009dfa       ?OnReplaceSel@CEditView@@MAEXPB_WHH0@Z 0040adfa f   mfc71u:MFC71U.DLL
 0001:00009dfa       ?OnReplaceSel@CEditView@@MAEXPBGHH0@Z 0040adfa f   mfc71u:MFC71U.DLL
 0001:00009e00       ?OnReplaceAll@CEditView@@MAEXPBG0H@Z 0040ae00 f   mfc71u:MFC71U.DLL
 0001:00009e00       ?OnReplaceAll@CEditView@@MAEXPB_W0H@Z 0040ae00 f   mfc71u:MFC71U.DLL
 0001:00009e06       ?OnTextNotFound@CEditView@@MAEXPBG@Z 0040ae06 f   mfc71u:MFC71U.DLL
 0001:00009e06       ?OnTextNotFound@CEditView@@MAEXPB_W@Z 0040ae06 f   mfc71u:MFC71U.DLL
 0001:00009e0c       ?AfxMessageBox@@YGHPBGII@Z 0040ae0c f   mfc71u:MFC71U.DLL
 0001:00009e0c       ?AfxMessageBox@@YGHPB_WII@Z 0040ae0c f   mfc71u:MFC71U.DLL
 0001:00009e12       ?Open@CFile@@UAEHPBGIPAVCFileException@@@Z 0040ae12 f   mfc71u:MFC71U.DLL
 0001:00009e12       ?Open@CFile@@UAEHPB_WIPAVCFileException@@@Z 0040ae12 f   mfc71u:MFC71U.DLL
 0001:00009e18       ?OnOpenDocument@CDocument@@UAEHPB_W@Z 0040ae18 f   mfc71u:MFC71U.DLL
 0001:00009e18       ?OnOpenDocument@CDocument@@UAEHPBG@Z 0040ae18 f   mfc71u:MFC71U.DLL
 0001:00009e1e       ?SetTitle@CDocument@@UAEXPB_W@Z 0040ae1e f   mfc71u:MFC71U.DLL
 0001:00009e1e       ?SetTitle@CDocument@@UAEXPBG@Z 0040ae1e f   mfc71u:MFC71U.DLL
 0001:00009e24       ?SetPathName@CDocument@@UAEXPB_WH@Z 0040ae24 f   mfc71u:MFC71U.DLL
 0001:00009e24       ?SetPathName@CDocument@@UAEXPBGH@Z 0040ae24 f   mfc71u:MFC71U.DLL
 0001:00009e2a       ?OnSaveDocument@CDocument@@UAEHPBG@Z 0040ae2a f   mfc71u:MFC71U.DLL
 0001:00009e2a       ?OnSaveDocument@CDocument@@UAEHPB_W@Z 0040ae2a f   mfc71u:MFC71U.DLL
 0001:00009e30       ?ReportSaveLoadException@CDocument@@UAEXPB_WPAVCException@@HI@Z 0040ae30 f   mfc71u:MFC71U.DLL
 0001:00009e30       ?ReportSaveLoadException@CDocument@@UAEXPBGPAVCException@@HI@Z 0040ae30 f   mfc71u:MFC71U.DLL
 0001:00009e36       ?GetFile@CDocument@@UAEPAVCFile@@PBGIPAVCFileException@@@Z 0040ae36 f   mfc71u:MFC71U.DLL
 0001:00009e36       ?GetFile@CDocument@@UAEPAVCFile@@PB_WIPAVCFileException@@@Z 0040ae36 f   mfc71u:MFC71U.DLL
 0001:00009e3c       ?DoSave@CDocument@@UAEHPBGH@Z 0040ae3c f   mfc71u:MFC71U.DLL
 0001:00009e3c       ?DoSave@CDocument@@UAEHPB_WH@Z 0040ae3c f   mfc71u:MFC71U.DLL
 0001:00009e42       ??0CComCriticalSection@ATL@@QAE@XZ 0040ae42 f i mfcs71u:stdafx.obj
 0001:00009e56       ?Init@CComCriticalSection@ATL@@QAEJXZ 0040ae56 f i mfcs71u:stdafx.obj
 0001:00009ea6       _wWinMainCRTStartup        0040aea6 f   msvcrt:wcrtexew.obj
 0001:0000a0b0       _free                      0040b0b0 f   msvcrt:MSVCR71.dll
 0001:0000a0b6       __purecall                 0040b0b6 f   msvcrt:MSVCR71.dll
 0001:0000a0bc       _memset                    0040b0bc f   msvcrt:MSVCR71.dll
 0001:0000a0c2       _memcpy                    0040b0c2 f   msvcrt:MSVCR71.dll
 0001:0000a0c8       __onexit                   0040b0c8 f   msvcrt:atonexit.obj
 0001:0000a0ee       _atexit                    0040b0ee f   msvcrt:atonexit.obj
 0001:0000a100       ??_Etype_info@@UAEPAXI@Z   0040b100 f i msvcrt:ti_inst.obj
 0001:0000a14c       ??0exception@@QAE@ABV0@@Z  0040b14c f   msvcrt:MSVCR71.dll
 0001:0000a152       _strlen                    0040b152 f   msvcrt:MSVCR71.dll
 0001:0000a189       @__security_check_cookie@4 0040b189 f   msvcrt:secchk.obj
 0001:0000a198       __SEH_prolog               0040b198 f   msvcrt:sehprolg.obj
 0001:0000a1d3       __SEH_epilog               0040b1d3 f   msvcrt:sehprolg.obj
 0001:0000a1e4       __except_handler3          0040b1e4 f   msvcrt:MSVCR71.dll
 0001:0000a1ea       ?__ArrayUnwind@@YGXPAXIHP6EX0@Z@Z 0040b1ea f   msvcrt:ehvecdtr.obj
 0001:0000a248       ??_M@YGXPAXIHP6EX0@Z@Z     0040b248 f   msvcrt:ehvecdtr.obj
 0001:0000a2a8       __XcptFilter               0040b2a8 f   msvcrt:MSVCR71.dll
 0001:0000a2ae       __amsg_exit                0040b2ae f   msvcrt:MSVCR71.dll
 0001:0000a2b4       __RTC_Initialize           0040b2b4 f   msvcrt:initsect.obj
 0001:0000a2f8       __RTC_Terminate            0040b2f8 f   msvcrt:initsect.obj
 0001:0000a33c       __initterm                 0040b33c f   msvcrt:MSVCR71.dll
 0001:0000a342       __setdefaultprecision      0040b342 f   msvcrt:fp8.obj
 0001:0000a354       __wsetargv                 0040b354 f   msvcrt:wdllargv.obj
 0001:0000a354       __matherr                  0040b354 f   msvcrt:merr.obj
 0001:0000a358       ___dllonexit               0040b358 f   msvcrt:MSVCR71.dll
 0001:0000a35e       ??1type_info@@UAE@XZ       0040b35e f   msvcrt:MSVCR71.dll
 0001:0000a364       ___security_init_cookie    0040b364 f   msvcrt:seccinit.obj
 0001:0000a3ca       ___security_error_handler  0040b3ca f   msvcrt:MSVCR71.dll
 0001:0000a3d0       ?terminate@@YAXXZ          0040b3d0 f   msvcrt:MSVCR71.dll
 0001:0000a3d6       __controlfp                0040b3d6 f   msvcrt:MSVCR71.dll
 0001:0000a3dc       ?RemoveAll@?$CSimpleArray@PAUHINSTANCE__@@V?$CSimpleArrayEqualHelper@PAUHINSTANCE__@@@ATL@@@ATL@@QAEXXZ 0040b3dc f i atls:atlbase.obj
 0001:0000a3f9       ??0_ATL_BASE_MODULE70@ATL@@QAE@XZ 0040b3f9 f i atls:atlbase.obj
 0001:0000a413       ??1CAtlBaseModule@ATL@@QAE@XZ 0040b413 f   atls:atlbase.obj
 0001:0000a429       ??0CAtlBaseModule@ATL@@QAE@XZ 0040b429 f   atls:atlbase.obj
 0001:0000a4d4       _wWinMain@16               0040b4d4 f   mfcs71u:appmodul.obj
 0001:0000a4d9       ?AfxInitialize@@YGHHK@Z    0040b4d9 f   mfcs71u:appmodul.obj
 0001:0000a4f6       ?AfxWinMain@@YGHPAUHINSTANCE__@@0PA_WH@Z 0040b4f6 f   mfc71u:MFC71U.DLL
 0001:0000a4fc       ___CxxFrameHandler         0040b4fc f   msvcrt:MSVCR71.dll
 0001:0000a510       __EH_prolog                0040b510 f   msvcrt:ehprolog.obj
 0001:0000a530       __CxxThrowException@8      0040b530 f   msvcrt:MSVCR71.dll
 0001:0000a540       __chkstk                   0040b540 f   msvcrt:chkstk.obj
 0001:0000a540       __alloca_probe             0040b540     msvcrt:chkstk.obj
 0001:0000a580       __allmul                   0040b580 f   msvcrt:llmul.obj
 0002:00000000       __imp__BSUWide2Ansi@12     0040c000     BugslayerUtil:BugslayerUtil.dll
 0002:00000004       __imp__BSUAnsi2Wide@12     0040c004     BugslayerUtil:BugslayerUtil.dll
 0002:00000008       __imp__IsXPorBetter@0      0040c008     BugslayerUtil:BugslayerUtil.dll
 0002:0000000c       \177BugslayerUtil_NULL_THUNK_DATA 0040c00c     BugslayerUtil:BugslayerUtil.dll
 0002:00000010       __imp__GetModuleHandleA@4  0040c010     kernel32:KERNEL32.dll
 0002:00000014       __imp__GetStartupInfoW@4   0040c014     kernel32:KERNEL32.dll
 0002:00000018       __imp__ExitProcess@4       0040c018     kernel32:KERNEL32.dll
 0002:0000001c       __imp__InitializeCriticalSection@4 0040c01c     kernel32:KERNEL32.dll
 0002:00000020       __imp__DeleteCriticalSection@4 0040c020     kernel32:KERNEL32.dll
 0002:00000024       __imp__GetThreadContext@8  0040c024     kernel32:KERNEL32.dll
 0002:00000028       __imp__FormatMessageW@28   0040c028     kernel32:KERNEL32.dll
 0002:0000002c       __imp__LocalFree@4         0040c02c     kernel32:KERNEL32.dll
 0002:00000030       __imp__GetProcAddress@8    0040c030     kernel32:KERNEL32.dll
 0002:00000034       __imp__GetVersionExA@4     0040c034     kernel32:KERNEL32.dll
 0002:00000038       __imp__GetSystemTimeAsFileTime@4 0040c038     kernel32:KERNEL32.dll
 0002:0000003c       __imp__GetCurrentThreadId@0 0040c03c     kernel32:KERNEL32.dll
 0002:00000040       __imp__GetTickCount@0      0040c040     kernel32:KERNEL32.dll
 0002:00000044       __imp__Sleep@4             0040c044     kernel32:KERNEL32.dll
 0002:00000048       __imp__CloseHandle@4       0040c048     kernel32:KERNEL32.dll
 0002:0000004c       __imp__CreateFileW@28      0040c04c     kernel32:KERNEL32.dll
 0002:00000050       __imp__DeleteFileW@4       0040c050     kernel32:KERNEL32.dll
 0002:00000054       __imp__SetEvent@4          0040c054     kernel32:KERNEL32.dll
 0002:00000058       __imp__GetCurrentProcessId@0 0040c058     kernel32:KERNEL32.dll
 0002:0000005c       __imp__CreateEventW@16     0040c05c     kernel32:KERNEL32.dll
 0002:00000060       __imp__WaitForSingleObject@8 0040c060     kernel32:KERNEL32.dll
 0002:00000064       __imp__ResetEvent@4        0040c064     kernel32:KERNEL32.dll
 0002:00000068       __imp__GetEnvironmentVariableW@12 0040c068     kernel32:KERNEL32.dll
 0002:0000006c       __imp__TerminateProcess@8  0040c06c     kernel32:KERNEL32.dll
 0002:00000070       __imp__OpenEventW@12       0040c070     kernel32:KERNEL32.dll
 0002:00000074       __imp__HeapAlloc@12        0040c074     kernel32:KERNEL32.dll
 0002:00000078       __imp__GetProcessHeap@0    0040c078     kernel32:KERNEL32.dll
 0002:0000007c       __imp__HeapFree@12         0040c07c     kernel32:KERNEL32.dll
 0002:00000080       __imp__MultiByteToWideChar@24 0040c080     kernel32:KERNEL32.dll
 0002:00000084       __imp__WideCharToMultiByte@32 0040c084     kernel32:KERNEL32.dll
 0002:00000088       __imp__IsBadCodePtr@4      0040c088     kernel32:KERNEL32.dll
 0002:0000008c       __imp__IsBadReadPtr@8      0040c08c     kernel32:KERNEL32.dll
 0002:00000090       __imp__ReadProcessMemory@20 0040c090     kernel32:KERNEL32.dll
 0002:00000094       __imp__GetModuleHandleW@4  0040c094     kernel32:KERNEL32.dll
 0002:00000098       __imp__QueryPerformanceCounter@4 0040c098     kernel32:KERNEL32.dll
 0002:0000009c       \177KERNEL32_NULL_THUNK_DATA 0040c09c     kernel32:KERNEL32.dll
 0002:000000a0       __imp__DBG_CreateRemoteBreakpointThread@8 0040c0a0     LocalAssist:LocalAssist.dll
 0002:000000a4       __imp__DBG_ReadProcessMemory@20 0040c0a4     LocalAssist:LocalAssist.dll
 0002:000000a8       __imp__DBG_GetThreadContext@8 0040c0a8     LocalAssist:LocalAssist.dll
 0002:000000ac       \177LocalAssist_NULL_THUNK_DATA 0040c0ac     LocalAssist:LocalAssist.dll
 0002:000000b0       __imp__GetDebuggeeModuleName@12 0040c0b0     LocalDebug:LocalDebug.dll
 0002:000000b4       __imp__GetDebuggeeProcessHandle@0 0040c0b4     LocalDebug:LocalDebug.dll
 0002:000000b8       __imp__StopDebugging@4     0040c0b8     LocalDebug:LocalDebug.dll
 0002:000000bc       __imp__SuspendDebugging@4  0040c0bc     LocalDebug:LocalDebug.dll
 0002:000000c0       __imp__SymToString@4       0040c0c0     LocalDebug:LocalDebug.dll
 0002:000000c4       __imp__StartDebugging@20   0040c0c4     LocalDebug:LocalDebug.dll
 0002:000000c8       \177LocalDebug_NULL_THUNK_DATA 0040c0c8     LocalDebug:LocalDebug.dll
 0002:000000cc       __imp_?accHitTest@CWnd@@UAEJJJPAUtagVARIANT@@@Z 0040c0cc     mfc71u:MFC71U.DLL
 0002:000000d0       __imp_?accDoDefaultAction@CWnd@@UAEJUtagVARIANT@@@Z 0040c0d0     mfc71u:MFC71U.DLL
 0002:000000d4       __imp_?SetProxy@CWnd@@UAEJPAUIAccessibleProxy@@@Z 0040c0d4     mfc71u:MFC71U.DLL
 0002:000000d8       __imp_?CreateAccessibleProxy@CWnd@@UAEJIJPAJ@Z 0040c0d8     mfc71u:MFC71U.DLL
 0002:000000dc       __imp_?OnCommand@CWnd@@MAEHIJ@Z 0040c0dc     mfc71u:MFC71U.DLL
 0002:000000e0       __imp_?OnNotify@CWnd@@MAEHIJPAJ@Z 0040c0e0     mfc71u:MFC71U.DLL
 0002:000000e4       __imp_?GetSuperWndProcAddr@CWnd@@MAEPAP6GJPAUHWND__@@IIJ@ZXZ 0040c0e4     mfc71u:MFC71U.DLL
 0002:000000e8       __imp_?OnAmbientProperty@CWnd@@UAEHPAVCOleControlSite@@JPAUtagVARIANT@@@Z 0040c0e8     mfc71u:MFC71U.DLL
 0002:000000ec       __imp_?WindowProc@CWnd@@MAEJIIJ@Z 0040c0ec     mfc71u:MFC71U.DLL
 0002:000000f0       __imp_?OnWndMsg@CWnd@@MAEHIIJPAJ@Z 0040c0f0     mfc71u:MFC71U.DLL
 0002:000000f4       __imp_?DefWindowProcW@CWnd@@MAEJIIJ@Z 0040c0f4     mfc71u:MFC71U.DLL
 0002:000000f8       __imp_?OnChildNotify@CWnd@@MAEHIIJPAJ@Z 0040c0f8     mfc71u:MFC71U.DLL
 0002:000000fc       __imp_?IsFrameWnd@CWnd@@UBEHXZ 0040c0fc     mfc71u:MFC71U.DLL
 0002:00000100       __imp_?CreateControlContainer@CWnd@@MAEHPAPAVCOleControlContainer@@@Z 0040c100     mfc71u:MFC71U.DLL
 0002:00000104       __imp_?CreateControlSite@CWnd@@MAEHPAVCOleControlContainer@@PAPAVCOleControlSite@@IABU_GUID@@@Z 0040c104     mfc71u:MFC71U.DLL
 0002:00000108       __imp_?GetRuntimeClass@CDialog@@UBEPAUCRuntimeClass@@XZ 0040c108     mfc71u:MFC71U.DLL
 0002:0000010c       __imp_?OnCmdMsg@CDialog@@UAEHIHPAXPAUAFX_CMDHANDLERINFO@@@Z 0040c10c     mfc71u:MFC71U.DLL
 0002:00000110       __imp_?PreCreateWindow@CWnd@@UAEHAAUtagCREATESTRUCTW@@@Z 0040c110     mfc71u:MFC71U.DLL
 0002:00000114       __imp_?CalcWindowRect@CWnd@@UAEXPAUtagRECT@@I@Z 0040c114     mfc71u:MFC71U.DLL
 0002:00000118       __imp_?GetScrollBarCtrl@CWnd@@UBEPAVCScrollBar@@H@Z 0040c118     mfc71u:MFC71U.DLL
 0002:0000011c       __imp_?PreTranslateMessage@CDialog@@UAEHPAUtagMSG@@@Z 0040c11c     mfc71u:MFC71U.DLL
 0002:00000120       __imp_?PostNcDestroy@CWnd@@MAEXXZ 0040c120     mfc71u:MFC71U.DLL
 0002:00000124       __imp_?CheckAutoCenter@CDialog@@UAEHXZ 0040c124     mfc71u:MFC71U.DLL
 0002:00000128       __imp_?SetOccDialogInfo@CDialog@@MAEHPAU_AFX_OCC_DIALOG_INFO@@@Z 0040c128     mfc71u:MFC71U.DLL
 0002:0000012c       __imp_?CreateIndirect@CDialog@@UAEHPAXPAVCWnd@@@Z 0040c12c     mfc71u:MFC71U.DLL
 0002:00000130       __imp_?CreateIndirect@CDialog@@UAEHPBUDLGTEMPLATE@@PAVCWnd@@PAX@Z 0040c130     mfc71u:MFC71U.DLL
 0002:00000134       __imp_?DoModal@CDialog@@UAEHXZ 0040c134     mfc71u:MFC71U.DLL
 0002:00000138       __imp_?OnInitDialog@CDialog@@UAEHXZ 0040c138     mfc71u:MFC71U.DLL
 0002:0000013c       __imp_?OnSetFont@CDialog@@UAEXPAVCFont@@@Z 0040c13c     mfc71u:MFC71U.DLL
 0002:00000140       __imp_?OnOK@CDialog@@MAEXXZ 0040c140     mfc71u:MFC71U.DLL
 0002:00000144       __imp_?OnCancel@CDialog@@MAEXXZ 0040c144     mfc71u:MFC71U.DLL
 0002:00000148       __imp_?PreInitDialog@CDialog@@MAEXXZ 0040c148     mfc71u:MFC71U.DLL
 0002:0000014c       __imp_?GetThisClass@CObject@@SGPAUCRuntimeClass@@XZ 0040c14c     mfc71u:MFC71U.DLL
 0002:00000150       __imp_?AfxClassInit@@YGXPAUCRuntimeClass@@@Z 0040c150     mfc71u:MFC71U.DLL
 0002:00000154       __imp_?Flush@CArchive@@QAEXXZ 0040c154     mfc71u:MFC71U.DLL
 0002:00000158       __imp_?FillBuffer@CArchive@@QAEXI@Z 0040c158     mfc71u:MFC71U.DLL
 0002:0000015c       __imp_?AfxWriteStringLength@@YGXAAVCArchive@@IH@Z 0040c15c     mfc71u:MFC71U.DLL
 0002:00000160       __imp_?Write@CArchive@@QAEXPBXI@Z 0040c160     mfc71u:MFC71U.DLL
 0002:00000164       __imp_?AfxReadStringLength@@YGIAAVCArchive@@AAH@Z 0040c164     mfc71u:MFC71U.DLL
 0002:00000168       __imp_?Read@CArchive@@QAEIPAXI@Z 0040c168     mfc71u:MFC71U.DLL
 0002:0000016c       __imp_??2@YAPAXI@Z         0040c16c     mfc71u:MFC71U.DLL
 0002:00000170       __imp_?AfxThrowOleException@@YGXJ@Z 0040c170     mfc71u:MFC71U.DLL
 0002:00000174       __imp_?AfxThrowMemoryException@@YGXXZ 0040c174     mfc71u:MFC71U.DLL
 0002:00000178       __imp_?GetRuntimeClass@CObject@@UBEPAUCRuntimeClass@@XZ 0040c178     mfc71u:MFC71U.DLL
 0002:0000017c       __imp_?OnGetCheckPosition@CCheckListBox@@UAE?AVCRect@@V2@0@Z 0040c17c     mfc71u:MFC71U.DLL
 0002:00000180       __imp_?MeasureItem@CCheckListBox@@UAEXPAUtagMEASUREITEMSTRUCT@@@Z 0040c180     mfc71u:MFC71U.DLL
 0002:00000184       __imp_?DrawItem@CCheckListBox@@UAEXPAUtagDRAWITEMSTRUCT@@@Z 0040c184     mfc71u:MFC71U.DLL
 0002:00000188       __imp_?Create@CCheckListBox@@UAEHKABUtagRECT@@PAVCWnd@@I@Z 0040c188     mfc71u:MFC71U.DLL
 0002:0000018c       __imp_?OnChildNotify@CCheckListBox@@MAEHIIJPAJ@Z 0040c18c     mfc71u:MFC71U.DLL
 0002:00000190       __imp_?accDoDefaultAction@CCheckListBox@@MAEJUtagVARIANT@@@Z 0040c190     mfc71u:MFC71U.DLL
 0002:00000194       __imp_?get_accState@CCheckListBox@@MAEJUtagVARIANT@@PAU2@@Z 0040c194     mfc71u:MFC71U.DLL
 0002:00000198       __imp_?get_accRole@CCheckListBox@@MAEJUtagVARIANT@@PAU2@@Z 0040c198     mfc71u:MFC71U.DLL
 0002:0000019c       __imp_?GetMessageMap@CCheckListBox@@MBEPBUAFX_MSGMAP@@XZ 0040c19c     mfc71u:MFC71U.DLL
 0002:000001a0       __imp_?GetRuntimeClass@CCheckListBox@@UBEPAUCRuntimeClass@@XZ 0040c1a0     mfc71u:MFC71U.DLL
 0002:000001a4       __imp_?CharToItem@CListBox@@UAEHII@Z 0040c1a4     mfc71u:MFC71U.DLL
 0002:000001a8       __imp_?VKeyToItem@CListBox@@UAEHII@Z 0040c1a8     mfc71u:MFC71U.DLL
 0002:000001ac       __imp_?DeleteItem@CListBox@@UAEXPAUtagDELETEITEMSTRUCT@@@Z 0040c1ac     mfc71u:MFC71U.DLL
 0002:000001b0       __imp_?CompareItem@CListBox@@UAEHPAUtagCOMPAREITEMSTRUCT@@@Z 0040c1b0     mfc71u:MFC71U.DLL
 0002:000001b4       __imp_??1CListBox@@UAE@XZ  0040c1b4     mfc71u:MFC71U.DLL
 0002:000001b8       __imp_?DrawItem@CButton@@UAEXPAUtagDRAWITEMSTRUCT@@@Z 0040c1b8     mfc71u:MFC71U.DLL
 0002:000001bc       __imp_?OnChildNotify@CButton@@MAEHIIJPAJ@Z 0040c1bc     mfc71u:MFC71U.DLL
 0002:000001c0       __imp_?GetMessageMap@CWnd@@MBEPBUAFX_MSGMAP@@XZ 0040c1c0     mfc71u:MFC71U.DLL
 0002:000001c4       __imp_?GetRuntimeClass@CButton@@UBEPAUCRuntimeClass@@XZ 0040c1c4     mfc71u:MFC71U.DLL
 0002:000001c8       __imp_??1CWnd@@UAE@XZ      0040c1c8     mfc71u:MFC71U.DLL
 0002:000001cc       __imp_??0CWnd@@QAE@XZ      0040c1cc     mfc71u:MFC71U.DLL
 0002:000001d0       __imp_??1CButton@@UAE@XZ   0040c1d0     mfc71u:MFC71U.DLL
 0002:000001d4       __imp_?DDX_Control@@YGXPAVCDataExchange@@HAAVCWnd@@@Z 0040c1d4     mfc71u:MFC71U.DLL
 0002:000001d8       __imp_?GetCheck@CCheckListBox@@QAEHH@Z 0040c1d8     mfc71u:MFC71U.DLL
 0002:000001dc       __imp_?SetCheck@CCheckListBox@@QAEXHH@Z 0040c1dc     mfc71u:MFC71U.DLL
 0002:000001e0       __imp_??1CComboBox@@UAE@XZ 0040c1e0     mfc71u:MFC71U.DLL
 0002:000001e4       __imp_??1CEdit@@UAE@XZ     0040c1e4     mfc71u:MFC71U.DLL
 0002:000001e8       __imp_??1CStatic@@UAE@XZ   0040c1e8     mfc71u:MFC71U.DLL
 0002:000001ec       __imp_?EnableWindow@CWnd@@QAEHH@Z 0040c1ec     mfc71u:MFC71U.DLL
 0002:000001f0       __imp_??_V@YAXPAX@Z        0040c1f0     mfc71u:MFC71U.DLL
 0002:000001f4       __imp_?WriteCount@CArchive@@QAEXK@Z 0040c1f4     mfc71u:MFC71U.DLL
 0002:000001f8       __imp_?ReadCount@CArchive@@QAEKXZ 0040c1f8     mfc71u:MFC71U.DLL
 0002:000001fc       __imp_?AfxThrowInvalidArgException@@YGXXZ 0040c1fc     mfc71u:MFC71U.DLL
 0002:00000200       __imp_??_U@YAPAXI@Z        0040c200     mfc71u:MFC71U.DLL
 0002:00000204       __imp_?PreTranslateMessage@CWnd@@UAEHPAUtagMSG@@@Z 0040c204     mfc71u:MFC71U.DLL
 0002:00000208       __imp_?CheckAutoCenter@CWnd@@UAEHXZ 0040c208     mfc71u:MFC71U.DLL
 0002:0000020c       __imp_?SetOccDialogInfo@CWnd@@MAEHPAU_AFX_OCC_DIALOG_INFO@@@Z 0040c20c     mfc71u:MFC71U.DLL
 0002:00000210       __imp_?OnCmdMsg@CCmdTarget@@UAEHIHPAXPAUAFX_CMDHANDLERINFO@@@Z 0040c210     mfc71u:MFC71U.DLL
 0002:00000214       __imp_?DDX_Text@@YGXPAVCDataExchange@@HAAI@Z 0040c214     mfc71u:MFC71U.DLL
 0002:00000218       __imp_?UpdateData@CWnd@@QAEHH@Z 0040c218     mfc71u:MFC71U.DLL
 0002:0000021c       __imp_?AfxMessageBox@@YGHIII@Z 0040c21c     mfc71u:MFC71U.DLL
 0002:00000220       __imp_?GetThisMessageMap@CWnd@@KGPBUAFX_MSGMAP@@XZ 0040c220     mfc71u:MFC71U.DLL
 0002:00000224       __imp_?AfxGetModuleState@@YGPAVAFX_MODULE_STATE@@XZ 0040c224     mfc71u:MFC71U.DLL
 0002:00000228       __imp_?GetRuntimeClass@CWnd@@UBEPAUCRuntimeClass@@XZ 0040c228     mfc71u:MFC71U.DLL
 0002:0000022c       __imp_??0CMDIFrameWnd@@QAE@XZ 0040c22c     mfc71u:MFC71U.DLL
 0002:00000230       __imp_??0CStatusBar@@QAE@XZ 0040c230     mfc71u:MFC71U.DLL
 0002:00000234       __imp_??1CStatusBar@@UAE@XZ 0040c234     mfc71u:MFC71U.DLL
 0002:00000238       __imp_??0CToolBar@@QAE@XZ  0040c238     mfc71u:MFC71U.DLL
 0002:0000023c       __imp_??1CToolBar@@UAE@XZ  0040c23c     mfc71u:MFC71U.DLL
 0002:00000240       __imp_??1CFrameWnd@@UAE@XZ 0040c240     mfc71u:MFC71U.DLL
 0002:00000244       __imp_?GetThisClass@CMDIFrameWnd@@SGPAUCRuntimeClass@@XZ 0040c244     mfc71u:MFC71U.DLL
 0002:00000248       __imp_?GetThisMessageMap@CMDIFrameWnd@@KGPBUAFX_MSGMAP@@XZ 0040c248     mfc71u:MFC71U.DLL
 0002:0000024c       __imp_?OnCreate@CFrameWnd@@IAEHPAUtagCREATESTRUCTW@@@Z 0040c24c     mfc71u:MFC71U.DLL
 0002:00000250       __imp_?SetIndicators@CStatusBar@@QAEHPBIH@Z 0040c250     mfc71u:MFC71U.DLL
 0002:00000254       __imp_?PreCreateWindow@CMDIFrameWnd@@UAEHAAUtagCREATESTRUCTW@@@Z 0040c254     mfc71u:MFC71U.DLL
 0002:00000258       __imp_?OnCmdMsg@CMDIFrameWnd@@UAEHIHPAXPAUAFX_CMDHANDLERINFO@@@Z 0040c258     mfc71u:MFC71U.DLL
 0002:0000025c       __imp_?OnCommand@CMDIFrameWnd@@MAEHIJ@Z 0040c25c     mfc71u:MFC71U.DLL
 0002:00000260       __imp_?BeginModalState@CFrameWnd@@UAEXXZ 0040c260     mfc71u:MFC71U.DLL
 0002:00000264       __imp_?EndModalState@CFrameWnd@@UAEXXZ 0040c264     mfc71u:MFC71U.DLL
 0002:00000268       __imp_?PreTranslateMessage@CMDIFrameWnd@@UAEHPAUtagMSG@@@Z 0040c268     mfc71u:MFC71U.DLL
 0002:0000026c       __imp_?DefWindowProcW@CMDIFrameWnd@@MAEJIIJ@Z 0040c26c     mfc71u:MFC71U.DLL
 0002:00000270       __imp_?PostNcDestroy@CFrameWnd@@MAEXXZ 0040c270     mfc71u:MFC71U.DLL
 0002:00000274       __imp_?IsFrameWnd@CFrameWnd@@UBEHXZ 0040c274     mfc71u:MFC71U.DLL
 0002:00000278       __imp_?LoadFrame@CMDIFrameWnd@@UAEHIKPAVCWnd@@PAUCCreateContext@@@Z 0040c278     mfc71u:MFC71U.DLL
 0002:0000027c       __imp_?GetActiveDocument@CFrameWnd@@UAEPAVCDocument@@XZ 0040c27c     mfc71u:MFC71U.DLL
 0002:00000280       __imp_?GetActiveFrame@CMDIFrameWnd@@UAEPAVCFrameWnd@@XZ 0040c280     mfc71u:MFC71U.DLL
 0002:00000284       __imp_?RecalcLayout@CFrameWnd@@UAEXH@Z 0040c284     mfc71u:MFC71U.DLL
 0002:00000288       __imp_?ActivateFrame@CFrameWnd@@UAEXH@Z 0040c288     mfc71u:MFC71U.DLL
 0002:0000028c       __imp_?OnSetPreviewMode@CFrameWnd@@UAEXHPAUCPrintPreviewState@@@Z 0040c28c     mfc71u:MFC71U.DLL
 0002:00000290       __imp_?GetMessageBar@CFrameWnd@@UAEPAVCWnd@@XZ 0040c290     mfc71u:MFC71U.DLL
 0002:00000294       __imp_?NegotiateBorderSpace@CFrameWnd@@UAEHIPAUtagRECT@@@Z 0040c294     mfc71u:MFC71U.DLL
 0002:00000298       __imp_?OnCreateClient@CMDIFrameWnd@@UAEHPAUtagCREATESTRUCTW@@PAUCCreateContext@@@Z 0040c298     mfc71u:MFC71U.DLL
 0002:0000029c       __imp_?OnUpdateFrameTitle@CMDIFrameWnd@@UAEXH@Z 0040c29c     mfc71u:MFC71U.DLL
 0002:000002a0       __imp_?OnUpdateFrameMenu@CMDIFrameWnd@@UAEXPAUHMENU__@@@Z 0040c2a0     mfc71u:MFC71U.DLL
 0002:000002a4       __imp_?GetDefaultAccelerator@CFrameWnd@@UAEPAUHACCEL__@@XZ 0040c2a4     mfc71u:MFC71U.DLL
 0002:000002a8       __imp_?DelayUpdateFrameMenu@CMDIFrameWnd@@UAEXPAUHMENU__@@@Z 0040c2a8     mfc71u:MFC71U.DLL
 0002:000002ac       __imp_?ExitHelpMode@CFrameWnd@@UAEXXZ 0040c2ac     mfc71u:MFC71U.DLL
 0002:000002b0       __imp_?CreateClient@CMDIFrameWnd@@UAEHPAUtagCREATESTRUCTW@@PAVCMenu@@@Z 0040c2b0     mfc71u:MFC71U.DLL
 0002:000002b4       __imp_?GetWindowMenuPopup@CMDIFrameWnd@@UAEPAUHMENU__@@PAU2@@Z 0040c2b4     mfc71u:MFC71U.DLL
 0002:000002b8       __imp_?GetDlgItem@CWnd@@QBEPAV1@H@Z 0040c2b8     mfc71u:MFC71U.DLL
 0002:000002bc       __imp_?DeleteItem@CComboBox@@UAEXPAUtagDELETEITEMSTRUCT@@@Z 0040c2bc     mfc71u:MFC71U.DLL
 0002:000002c0       __imp_?CompareItem@CComboBox@@UAEHPAUtagCOMPAREITEMSTRUCT@@@Z 0040c2c0     mfc71u:MFC71U.DLL
 0002:000002c4       __imp_?MeasureItem@CComboBox@@UAEXPAUtagMEASUREITEMSTRUCT@@@Z 0040c2c4     mfc71u:MFC71U.DLL
 0002:000002c8       __imp_?DrawItem@CComboBox@@UAEXPAUtagDRAWITEMSTRUCT@@@Z 0040c2c8     mfc71u:MFC71U.DLL
 0002:000002cc       __imp_?Create@CComboBox@@UAEHKABUtagRECT@@PAVCWnd@@I@Z 0040c2cc     mfc71u:MFC71U.DLL
 0002:000002d0       __imp_?OnChildNotify@CComboBox@@MAEHIIJPAJ@Z 0040c2d0     mfc71u:MFC71U.DLL
 0002:000002d4       __imp_?GetRuntimeClass@CComboBox@@UBEPAUCRuntimeClass@@XZ 0040c2d4     mfc71u:MFC71U.DLL
 0002:000002d8       __imp_?Create@CEdit@@UAEHKABUtagRECT@@PAVCWnd@@I@Z 0040c2d8     mfc71u:MFC71U.DLL
 0002:000002dc       __imp_?GetRuntimeClass@CEdit@@UBEPAUCRuntimeClass@@XZ 0040c2dc     mfc71u:MFC71U.DLL
 0002:000002e0       __imp_?DrawItem@CStatic@@UAEXPAUtagDRAWITEMSTRUCT@@@Z 0040c2e0     mfc71u:MFC71U.DLL
 0002:000002e4       __imp_?OnChildNotify@CStatic@@MAEHIIJPAJ@Z 0040c2e4     mfc71u:MFC71U.DLL
 0002:000002e8       __imp_?GetRuntimeClass@CStatic@@UBEPAUCRuntimeClass@@XZ 0040c2e8     mfc71u:MFC71U.DLL
 0002:000002ec       __imp_?DDX_Check@@YGXPAVCDataExchange@@HAAH@Z 0040c2ec     mfc71u:MFC71U.DLL
 0002:000002f0       __imp_??1CWinApp@@UAE@XZ   0040c2f0     mfc71u:MFC71U.DLL
 0002:000002f4       __imp_?GetThisMessageMap@CWinApp@@KGPBUAFX_MSGMAP@@XZ 0040c2f4     mfc71u:MFC71U.DLL
 0002:000002f8       __imp_?OnFileOpen@CWinApp@@IAEXXZ 0040c2f8     mfc71u:MFC71U.DLL
 0002:000002fc       __imp_?OnFilePrintSetup@CWinApp@@IAEXXZ 0040c2fc     mfc71u:MFC71U.DLL
 0002:00000300       __imp_?LoadStdProfileSettings@CWinApp@@IAEXI@Z 0040c300     mfc71u:MFC71U.DLL
 0002:00000304       __imp_??0CMultiDocTemplate@@QAE@IPAUCRuntimeClass@@00@Z 0040c304     mfc71u:MFC71U.DLL
 0002:00000308       __imp_?AddDocTemplate@CWinApp@@QAEXPAVCDocTemplate@@@Z 0040c308     mfc71u:MFC71U.DLL
 0002:0000030c       __imp_?EnableShellOpen@CWinApp@@IAEXXZ 0040c30c     mfc71u:MFC71U.DLL
 0002:00000310       __imp_?RegisterShellFileTypes@CWinApp@@IAEXH@Z 0040c310     mfc71u:MFC71U.DLL
 0002:00000314       __imp_??0CCommandLineInfo@@QAE@XZ 0040c314     mfc71u:MFC71U.DLL
 0002:00000318       __imp_??1CCommandLineInfo@@UAE@XZ 0040c318     mfc71u:MFC71U.DLL
 0002:0000031c       __imp_?ParseCommandLine@CWinApp@@QAEXAAVCCommandLineInfo@@@Z 0040c31c     mfc71u:MFC71U.DLL
 0002:00000320       __imp_?ProcessShellCommand@CWinApp@@QAEHAAVCCommandLineInfo@@@Z 0040c320     mfc71u:MFC71U.DLL
 0002:00000324       __imp_?ShowWindow@CWnd@@QAEHH@Z 0040c324     mfc71u:MFC71U.DLL
 0002:00000328       __imp_??1CFileDialog@@UAE@XZ 0040c328     mfc71u:MFC71U.DLL
 0002:0000032c       __imp_?GetOFN@CFileDialog@@QAEAAUtagOFNW@@XZ 0040c32c     mfc71u:MFC71U.DLL
 0002:00000330       __imp_?GetFirstDocTemplatePosition@CWinApp@@QBEPAU__POSITION@@XZ 0040c330     mfc71u:MFC71U.DLL
 0002:00000334       __imp_?accNavigate@CWnd@@UAEJJUtagVARIANT@@PAU2@@Z 0040c334     mfc71u:MFC71U.DLL
 0002:00000338       __imp_?DoModal@CFileDialog@@UAEHXZ 0040c338     mfc71u:MFC71U.DLL
 0002:0000033c       __imp_?GetRuntimeClass@CWinApp@@UBEPAUCRuntimeClass@@XZ 0040c33c     mfc71u:MFC71U.DLL
 0002:00000340       __imp_?OnFinalRelease@CCmdTarget@@UAEXXZ 0040c340     mfc71u:MFC71U.DLL
 0002:00000344       __imp_?GetInterfaceMap@CCmdTarget@@MBEPBUAFX_INTERFACEMAP@@XZ 0040c344     mfc71u:MFC71U.DLL
 0002:00000348       __imp_?Run@CWinApp@@UAEHXZ 0040c348     mfc71u:MFC71U.DLL
 0002:0000034c       __imp_?PreTranslateMessage@CWinThread@@UAEHPAUtagMSG@@@Z 0040c34c     mfc71u:MFC71U.DLL
 0002:00000350       __imp_?PumpMessage@CWinThread@@UAEHXZ 0040c350     mfc71u:MFC71U.DLL
 0002:00000354       __imp_?OnIdle@CWinApp@@UAEHJ@Z 0040c354     mfc71u:MFC71U.DLL
 0002:00000358       __imp_?IsIdleMessage@CWinThread@@UAEHPAUtagMSG@@@Z 0040c358     mfc71u:MFC71U.DLL
 0002:0000035c       __imp_?ExitInstance@CWinApp@@UAEHXZ 0040c35c     mfc71u:MFC71U.DLL
 0002:00000360       __imp_?ProcessWndProcException@CWinApp@@UAEJPAVCException@@PBUtagMSG@@@Z 0040c360     mfc71u:MFC71U.DLL
 0002:00000364       __imp_?ProcessMessageFilter@CWinThread@@UAEHHPAUtagMSG@@@Z 0040c364     mfc71u:MFC71U.DLL
 0002:00000368       __imp_?GetMainWnd@CWinThread@@UAEPAVCWnd@@XZ 0040c368     mfc71u:MFC71U.DLL
 0002:0000036c       __imp_?Delete@CWinThread@@UAEXXZ 0040c36c     mfc71u:MFC71U.DLL
 0002:00000370       __imp_?InitLibId@CWinApp@@UAEXXZ 0040c370     mfc71u:MFC71U.DLL
 0002:00000374       __imp_?Register@CWinApp@@UAEHXZ 0040c374     mfc71u:MFC71U.DLL
 0002:00000378       __imp_?Unregister@CWinApp@@UAEHXZ 0040c378     mfc71u:MFC71U.DLL
 0002:0000037c       __imp_?InitApplication@CWinApp@@UAEHXZ 0040c37c     mfc71u:MFC71U.DLL
 0002:00000380       __imp_?SaveAllModified@CWinApp@@UAEHXZ 0040c380     mfc71u:MFC71U.DLL
 0002:00000384       __imp_?DoWaitCursor@CWinApp@@UAEXH@Z 0040c384     mfc71u:MFC71U.DLL
 0002:00000388       __imp_?WinHelpW@CWinApp@@UAEXKI@Z 0040c388     mfc71u:MFC71U.DLL
 0002:0000038c       __imp_?HtmlHelpW@CWinApp@@UAEXKI@Z 0040c38c     mfc71u:MFC71U.DLL
 0002:00000390       __imp_?WinHelpInternal@CWinApp@@UAEXKI@Z 0040c390     mfc71u:MFC71U.DLL
 0002:00000394       __imp_?LoadAppLangResourceDLL@CWinApp@@UAEPAUHINSTANCE__@@XZ 0040c394     mfc71u:MFC71U.DLL
 0002:00000398       __imp_?LoadSysPolicies@CWinApp@@UAEHXZ 0040c398     mfc71u:MFC71U.DLL
 0002:0000039c       __imp_?GetThisClass@CMDIChildWnd@@SGPAUCRuntimeClass@@XZ 0040c39c     mfc71u:MFC71U.DLL
 0002:000003a0       __imp_??0CMDIChildWnd@@QAE@XZ 0040c3a0     mfc71u:MFC71U.DLL
 0002:000003a4       __imp_?FromHandle@CMenu@@SGPAV1@PAUHMENU__@@@Z 0040c3a4     mfc71u:MFC71U.DLL
 0002:000003a8       __imp_?GetThisMessageMap@CMDIChildWnd@@KGPBUAFX_MSGMAP@@XZ 0040c3a8     mfc71u:MFC71U.DLL
 0002:000003ac       __imp_?PreCreateWindow@CMDIChildWnd@@UAEHAAUtagCREATESTRUCTW@@@Z 0040c3ac     mfc71u:MFC71U.DLL
 0002:000003b0       __imp_?OnCmdMsg@CFrameWnd@@UAEHIHPAXPAUAFX_CMDHANDLERINFO@@@Z 0040c3b0     mfc71u:MFC71U.DLL
 0002:000003b4       __imp_?DestroyWindow@CMDIChildWnd@@UAEHXZ 0040c3b4     mfc71u:MFC71U.DLL
 0002:000003b8       __imp_?OnCommand@CFrameWnd@@MAEHIJ@Z 0040c3b8     mfc71u:MFC71U.DLL
 0002:000003bc       __imp_?PreTranslateMessage@CMDIChildWnd@@UAEHPAUtagMSG@@@Z 0040c3bc     mfc71u:MFC71U.DLL
 0002:000003c0       __imp_?DefWindowProcW@CMDIChildWnd@@MAEJIIJ@Z 0040c3c0     mfc71u:MFC71U.DLL
 0002:000003c4       __imp_?LoadFrame@CMDIChildWnd@@UAEHIKPAVCWnd@@PAUCCreateContext@@@Z 0040c3c4     mfc71u:MFC71U.DLL
 0002:000003c8       __imp_?GetActiveFrame@CFrameWnd@@UAEPAV1@XZ 0040c3c8     mfc71u:MFC71U.DLL
 0002:000003cc       __imp_?ActivateFrame@CMDIChildWnd@@UAEXH@Z 0040c3cc     mfc71u:MFC71U.DLL
 0002:000003d0       __imp_?GetMessageBar@CMDIChildWnd@@MAEPAVCWnd@@XZ 0040c3d0     mfc71u:MFC71U.DLL
 0002:000003d4       __imp_?OnCreateClient@CFrameWnd@@MAEHPAUtagCREATESTRUCTW@@PAUCCreateContext@@@Z 0040c3d4     mfc71u:MFC71U.DLL
 0002:000003d8       __imp_?OnUpdateFrameTitle@CMDIChildWnd@@MAEXH@Z 0040c3d8     mfc71u:MFC71U.DLL
 0002:000003dc       __imp_?OnUpdateFrameMenu@CFrameWnd@@UAEXPAUHMENU__@@@Z 0040c3dc     mfc71u:MFC71U.DLL
 0002:000003e0       __imp_?DelayUpdateFrameMenu@CFrameWnd@@UAEXPAUHMENU__@@@Z 0040c3e0     mfc71u:MFC71U.DLL
 0002:000003e4       __imp_?OnUpdateFrameMenu@CMDIChildWnd@@UAEXHPAVCWnd@@PAUHMENU__@@@Z 0040c3e4     mfc71u:MFC71U.DLL
 0002:000003e8       __imp_??0CEditView@@QAE@XZ 0040c3e8     mfc71u:MFC71U.DLL
 0002:000003ec       __imp_??1CEditView@@UAE@XZ 0040c3ec     mfc71u:MFC71U.DLL
 0002:000003f0       __imp_?DeleteObject@CGdiObject@@QAEHXZ 0040c3f0     mfc71u:MFC71U.DLL
 0002:000003f4       __imp_?GetRuntimeClass@CGdiObject@@UBEPAUCRuntimeClass@@XZ 0040c3f4     mfc71u:MFC71U.DLL
 0002:000003f8       __imp_?GetRuntimeClass@CFont@@UBEPAUCRuntimeClass@@XZ 0040c3f8     mfc71u:MFC71U.DLL
 0002:000003fc       __imp_?GetThisClass@CEditView@@SGPAUCRuntimeClass@@XZ 0040c3fc     mfc71u:MFC71U.DLL
 0002:00000400       __imp_?GetThisMessageMap@CEditView@@KGPBUAFX_MSGMAP@@XZ 0040c400     mfc71u:MFC71U.DLL
 0002:00000404       __imp_?OnFilePrint@CView@@IAEXXZ 0040c404     mfc71u:MFC71U.DLL
 0002:00000408       __imp_?OnFilePrintPreview@CView@@IAEXXZ 0040c408     mfc71u:MFC71U.DLL
 0002:0000040c       __imp_?PreCreateWindow@CEditView@@MAEHAAUtagCREATESTRUCTW@@@Z 0040c40c     mfc71u:MFC71U.DLL
 0002:00000410       __imp_?OnPreparePrinting@CEditView@@MAEHPAUCPrintInfo@@@Z 0040c410     mfc71u:MFC71U.DLL
 0002:00000414       __imp_?OnBeginPrinting@CEditView@@MAEXPAVCDC@@PAUCPrintInfo@@@Z 0040c414     mfc71u:MFC71U.DLL
 0002:00000418       __imp_?OnEndPrinting@CEditView@@MAEXPAVCDC@@PAUCPrintInfo@@@Z 0040c418     mfc71u:MFC71U.DLL
 0002:0000041c       __imp_?Default@CWnd@@IAEJXZ 0040c41c     mfc71u:MFC71U.DLL
 0002:00000420       __imp_?OnInitialUpdate@CView@@UAEXXZ 0040c420     mfc71u:MFC71U.DLL
 0002:00000424       __imp_?FromHandle@CWnd@@SGPAV1@PAUHWND__@@@Z 0040c424     mfc71u:MFC71U.DLL
 0002:00000428       __imp_?GetWindowTextLengthW@CWnd@@QBEHXZ 0040c428     mfc71u:MFC71U.DLL
 0002:0000042c       __imp_?AfxGetThread@@YGPAVCWinThread@@XZ 0040c42c     mfc71u:MFC71U.DLL
 0002:00000430       __imp_?OnDestroy@CEditView@@IAEXXZ 0040c430     mfc71u:MFC71U.DLL
 0002:00000434       __imp_?Serialize@CEditView@@UAEXAAVCArchive@@@Z 0040c434     mfc71u:MFC71U.DLL
 0002:00000438       __imp_?OnCmdMsg@CView@@UAEHIHPAXPAUAFX_CMDHANDLERINFO@@@Z 0040c438     mfc71u:MFC71U.DLL
 0002:0000043c       __imp_?CalcWindowRect@CEditView@@MAEXPAUtagRECT@@I@Z 0040c43c     mfc71u:MFC71U.DLL
 0002:00000440       __imp_?GetScrollBarCtrl@CView@@UBEPAVCScrollBar@@H@Z 0040c440     mfc71u:MFC71U.DLL
 0002:00000444       __imp_?PostNcDestroy@CView@@MAEXXZ 0040c444     mfc71u:MFC71U.DLL
 0002:00000448       __imp_?IsSelected@CView@@UBEHPBVCObject@@@Z 0040c448     mfc71u:MFC71U.DLL
 0002:0000044c       __imp_?OnScroll@CView@@UAEHIIH@Z 0040c44c     mfc71u:MFC71U.DLL
 0002:00000450       __imp_?OnScrollBy@CView@@UAEHVCSize@@H@Z 0040c450     mfc71u:MFC71U.DLL
 0002:00000454       __imp_?OnDragEnter@CView@@UAEKPAVCOleDataObject@@KVCPoint@@@Z 0040c454     mfc71u:MFC71U.DLL
 0002:00000458       __imp_?OnDragOver@CView@@UAEKPAVCOleDataObject@@KVCPoint@@@Z 0040c458     mfc71u:MFC71U.DLL
 0002:0000045c       __imp_?OnDragLeave@CView@@UAEXXZ 0040c45c     mfc71u:MFC71U.DLL
 0002:00000460       __imp_?OnDrop@CView@@UAEHPAVCOleDataObject@@KVCPoint@@@Z 0040c460     mfc71u:MFC71U.DLL
 0002:00000464       __imp_?OnDropEx@CView@@UAEKPAVCOleDataObject@@KKVCPoint@@@Z 0040c464     mfc71u:MFC71U.DLL
 0002:00000468       __imp_?OnDragScroll@CView@@UAEKKVCPoint@@@Z 0040c468     mfc71u:MFC71U.DLL
 0002:0000046c       __imp_?OnPrepareDC@CEditView@@UAEXPAVCDC@@PAUCPrintInfo@@@Z 0040c46c     mfc71u:MFC71U.DLL
 0002:00000470       __imp_?OnActivateView@CView@@MAEXHPAV1@0@Z 0040c470     mfc71u:MFC71U.DLL
 0002:00000474       __imp_?OnActivateFrame@CView@@MAEXIPAVCFrameWnd@@@Z 0040c474     mfc71u:MFC71U.DLL
 0002:00000478       __imp_?OnUpdate@CView@@MAEXPAV1@JPAVCObject@@@Z 0040c478     mfc71u:MFC71U.DLL
 0002:0000047c       __imp_?OnPrint@CEditView@@MAEXPAVCDC@@PAUCPrintInfo@@@Z 0040c47c     mfc71u:MFC71U.DLL
 0002:00000480       __imp_?OnEndPrintPreview@CView@@MAEXPAVCDC@@PAUCPrintInfo@@UtagPOINT@@PAVCPreviewView@@@Z 0040c480     mfc71u:MFC71U.DLL
 0002:00000484       __imp_?DeleteContents@CEditView@@UAEXXZ 0040c484     mfc71u:MFC71U.DLL
 0002:00000488       __imp_??0CDocument@@QAE@XZ 0040c488     mfc71u:MFC71U.DLL
 0002:0000048c       __imp_??1CDocument@@UAE@XZ 0040c48c     mfc71u:MFC71U.DLL
 0002:00000490       __imp_?GetThisClass@CDocument@@SGPAUCRuntimeClass@@XZ 0040c490     mfc71u:MFC71U.DLL
 0002:00000494       __imp_?GetThisMessageMap@CDocument@@KGPBUAFX_MSGMAP@@XZ 0040c494     mfc71u:MFC71U.DLL
 0002:00000498       __imp_?OnNewDocument@CDocument@@UAEHXZ 0040c498     mfc71u:MFC71U.DLL
 0002:0000049c       __imp_?IsKindOf@CObject@@QBEHPBUCRuntimeClass@@@Z 0040c49c     mfc71u:MFC71U.DLL
 0002:000004a0       __imp_??0CFile@@QAE@XZ     0040c4a0     mfc71u:MFC71U.DLL
 0002:000004a4       __imp_??1CFile@@UAE@XZ     0040c4a4     mfc71u:MFC71U.DLL
 0002:000004a8       __imp_??0CArchive@@QAE@PAVCFile@@IHPAX@Z 0040c4a8     mfc71u:MFC71U.DLL
 0002:000004ac       __imp_??1CArchive@@QAE@XZ  0040c4ac     mfc71u:MFC71U.DLL
 0002:000004b0       __imp_?Flush@CFile@@UAEXXZ 0040c4b0     mfc71u:MFC71U.DLL
 0002:000004b4       __imp_?Close@CFile@@UAEXXZ 0040c4b4     mfc71u:MFC71U.DLL
 0002:000004b8       __imp_?Delete@CException@@QAEXXZ 0040c4b8     mfc71u:MFC71U.DLL
 0002:000004bc       __imp_?OnCloseDocument@CDocument@@UAEXXZ 0040c4bc     mfc71u:MFC71U.DLL
 0002:000004c0       __imp_?GetActiveView@CFrameWnd@@QBEPAVCView@@XZ 0040c4c0     mfc71u:MFC71U.DLL
 0002:000004c4       __imp_?BeginWaitCursor@CCmdTarget@@QAEXXZ 0040c4c4     mfc71u:MFC71U.DLL
 0002:000004c8       __imp_?EndWaitCursor@CCmdTarget@@QAEXXZ 0040c4c8     mfc71u:MFC71U.DLL
 0002:000004cc       __imp_?OnCmdMsg@CDocument@@UAEHIHPAXPAUAFX_CMDHANDLERINFO@@@Z 0040c4cc     mfc71u:MFC71U.DLL
 0002:000004d0       __imp_?OnFinalRelease@CDocument@@UAEXXZ 0040c4d0     mfc71u:MFC71U.DLL
 0002:000004d4       __imp_?GetFirstViewPosition@CDocument@@UBEPAU__POSITION@@XZ 0040c4d4     mfc71u:MFC71U.DLL
 0002:000004d8       __imp_?GetNextView@CDocument@@UBEPAVCView@@AAPAU__POSITION@@@Z 0040c4d8     mfc71u:MFC71U.DLL
 0002:000004dc       __imp_?OnChangedViewList@CDocument@@UAEXXZ 0040c4dc     mfc71u:MFC71U.DLL
 0002:000004e0       __imp_?DeleteContents@CDocument@@UAEXXZ 0040c4e0     mfc71u:MFC71U.DLL
 0002:000004e4       __imp_?ReleaseFile@CDocument@@UAEXPAVCFile@@H@Z 0040c4e4     mfc71u:MFC71U.DLL
 0002:000004e8       __imp_?CanCloseFrame@CDocument@@UAEHPAVCFrameWnd@@@Z 0040c4e8     mfc71u:MFC71U.DLL
 0002:000004ec       __imp_?SaveModified@CDocument@@UAEHXZ 0040c4ec     mfc71u:MFC71U.DLL
 0002:000004f0       __imp_?PreCloseFrame@CDocument@@UAEXPAVCFrameWnd@@@Z 0040c4f0     mfc71u:MFC71U.DLL
 0002:000004f4       __imp_?DoFileSave@CDocument@@UAEHXZ 0040c4f4     mfc71u:MFC71U.DLL
 0002:000004f8       __imp_?UpdateFrameCounts@CDocument@@UAEXXZ 0040c4f8     mfc71u:MFC71U.DLL
 0002:000004fc       __imp_?GetDefaultMenu@CDocument@@UAEPAUHMENU__@@XZ 0040c4fc     mfc71u:MFC71U.DLL
 0002:00000500       __imp_?GetDefaultAccelerator@CDocument@@UAEPAUHACCEL__@@XZ 0040c500     mfc71u:MFC71U.DLL
 0002:00000504       __imp_?OnIdle@CDocument@@UAEXXZ 0040c504     mfc71u:MFC71U.DLL
 0002:00000508       __imp_?Create@CWnd@@UAEHPB_W0KABUtagRECT@@PAV1@IPAUCCreateContext@@@Z 0040c508     mfc71u:MFC71U.DLL
 0002:0000050c       __imp_?CreateEx@CWnd@@UAEHKPB_W0KABUtagRECT@@PAV1@IPAX@Z 0040c50c     mfc71u:MFC71U.DLL
 0002:00000510       __imp_?CreateEx@CWnd@@UAEHKPB_W0KHHHHPAUHWND__@@PAUHMENU__@@PAX@Z 0040c510     mfc71u:MFC71U.DLL
 0002:00000514       __imp_?get_accName@CWnd@@UAEJUtagVARIANT@@PAPA_W@Z 0040c514     mfc71u:MFC71U.DLL
 0002:00000518       __imp_?get_accValue@CWnd@@UAEJUtagVARIANT@@PAPA_W@Z 0040c518     mfc71u:MFC71U.DLL
 0002:0000051c       __imp_?get_accDescription@CWnd@@UAEJUtagVARIANT@@PAPA_W@Z 0040c51c     mfc71u:MFC71U.DLL
 0002:00000520       __imp_?get_accHelp@CWnd@@UAEJUtagVARIANT@@PAPA_W@Z 0040c520     mfc71u:MFC71U.DLL
 0002:00000524       __imp_?get_accHelpTopic@CWnd@@UAEJPAPA_WUtagVARIANT@@PAJ@Z 0040c524     mfc71u:MFC71U.DLL
 0002:00000528       __imp_?get_accKeyboardShortcut@CWnd@@UAEJUtagVARIANT@@PAPA_W@Z 0040c528     mfc71u:MFC71U.DLL
 0002:0000052c       __imp_?get_accDefaultAction@CWnd@@UAEJUtagVARIANT@@PAPA_W@Z 0040c52c     mfc71u:MFC71U.DLL
 0002:00000530       __imp_?put_accName@CWnd@@UAEJUtagVARIANT@@PA_W@Z 0040c530     mfc71u:MFC71U.DLL
 0002:00000534       __imp_?put_accValue@CWnd@@UAEJUtagVARIANT@@PA_W@Z 0040c534     mfc71u:MFC71U.DLL
 0002:00000538       __imp_?Create@CDialog@@UAEHPB_WPAVCWnd@@@Z 0040c538     mfc71u:MFC71U.DLL
 0002:0000053c       __imp_??0?$CStringT@GV?$StrTraitMFC_DLL@GV?$ChTraitsCRT@G@ATL@@@@@ATL@@QAE@XZ 0040c53c     mfc71u:MFC71U.DLL
 0002:0000053c       __imp_??0?$CStringT@_WV?$StrTraitMFC_DLL@_WV?$ChTraitsCRT@_W@ATL@@@@@ATL@@QAE@XZ 0040c53c     mfc71u:MFC71U.DLL
 0002:00000540       __imp_??1?$CStringT@_WV?$StrTraitMFC_DLL@_WV?$ChTraitsCRT@_W@ATL@@@@@ATL@@QAE@XZ 0040c540     mfc71u:MFC71U.DLL
 0002:00000540       __imp_??1?$CStringT@GV?$StrTraitMFC_DLL@GV?$ChTraitsCRT@G@ATL@@@@@ATL@@QAE@XZ 0040c540     mfc71u:MFC71U.DLL
 0002:00000544       __imp_??4?$CStringT@GV?$StrTraitMFC_DLL@GV?$ChTraitsCRT@G@ATL@@@@@ATL@@QAEAAV01@PBG@Z 0040c544     mfc71u:MFC71U.DLL
 0002:00000544       __imp_??4?$CStringT@_WV?$StrTraitMFC_DLL@_WV?$ChTraitsCRT@_W@ATL@@@@@ATL@@QAEAAV01@PB_W@Z 0040c544     mfc71u:MFC71U.DLL
 0002:00000548       __imp_?AfxThrowArchiveException@@YGXHPB_W@Z 0040c548     mfc71u:MFC71U.DLL
 0002:0000054c       __imp_??4?$CStringT@_WV?$StrTraitMFC_DLL@_WV?$ChTraitsCRT@_W@ATL@@@@@ATL@@QAEAAV01@PBD@Z 0040c54c     mfc71u:MFC71U.DLL
 0002:0000054c       __imp_??4?$CStringT@GV?$StrTraitMFC_DLL@GV?$ChTraitsCRT@G@ATL@@@@@ATL@@QAEAAV01@PBD@Z 0040c54c     mfc71u:MFC71U.DLL
 0002:00000550       __imp_??4?$CStringT@_WV?$StrTraitMFC_DLL@_WV?$ChTraitsCRT@_W@ATL@@@@@ATL@@QAEAAV01@ABV01@@Z 0040c550     mfc71u:MFC71U.DLL
 0002:00000550       __imp_??4?$CStringT@GV?$StrTraitMFC_DLL@GV?$ChTraitsCRT@G@ATL@@@@@ATL@@QAEAAV01@ABV01@@Z 0040c550     mfc71u:MFC71U.DLL
 0002:00000554       __imp_?get_accDefaultAction@CCheckListBox@@MAEJUtagVARIANT@@PAPA_W@Z 0040c554     mfc71u:MFC71U.DLL
 0002:00000558       __imp_?Create@CButton@@UAEHPB_WKABUtagRECT@@PAVCWnd@@I@Z 0040c558     mfc71u:MFC71U.DLL
 0002:0000055c       __imp_?Compare@?$CStringT@GV?$StrTraitMFC_DLL@GV?$ChTraitsCRT@G@ATL@@@@@ATL@@QBEHPBG@Z 0040c55c     mfc71u:MFC71U.DLL
 0002:0000055c       __imp_?Compare@?$CStringT@_WV?$StrTraitMFC_DLL@_WV?$ChTraitsCRT@_W@ATL@@@@@ATL@@QBEHPB_W@Z 0040c55c     mfc71u:MFC71U.DLL
 0002:00000560       __imp_?DDX_Text@@YGXPAVCDataExchange@@HAAV?$CStringT@_WV?$StrTraitMFC_DLL@_WV?$ChTraitsCRT@_W@ATL@@@@@ATL@@@Z 0040c560     mfc71u:MFC71U.DLL
 0002:00000564       __imp_?AfxRegisterWndClass@@YGPB_WIPAUHICON__@@PAUHBRUSH__@@0@Z 0040c564     mfc71u:MFC71U.DLL
 0002:00000568       __imp_?LoadToolBar@CToolBar@@QAEHPB_W@Z 0040c568     mfc71u:MFC71U.DLL
 0002:0000056c       __imp_?Create@CFrameWnd@@UAEHPB_W0KABUtagRECT@@PAVCWnd@@0KPAUCCreateContext@@@Z 0040c56c     mfc71u:MFC71U.DLL
 0002:00000570       __imp_?GetMessageString@CFrameWnd@@UBEXIAAV?$CStringT@_WV?$StrTraitMFC_DLL@_WV?$ChTraitsCRT@_W@ATL@@@@@ATL@@@Z 0040c570     mfc71u:MFC71U.DLL
 0002:00000574       __imp_?Create@CStatic@@UAEHPB_WKABUtagRECT@@PAVCWnd@@I@Z 0040c574     mfc71u:MFC71U.DLL
 0002:00000578       __imp_?LoadStringW@?$CStringT@GV?$StrTraitMFC_DLL@GV?$ChTraitsCRT@G@ATL@@@@@ATL@@QAEHI@Z 0040c578     mfc71u:MFC71U.DLL
 0002:00000578       __imp_?LoadStringW@?$CStringT@_WV?$StrTraitMFC_DLL@_WV?$ChTraitsCRT@_W@ATL@@@@@ATL@@QAEHI@Z 0040c578     mfc71u:MFC71U.DLL
 0002:0000057c       __imp_?SetWindowTextW@CWnd@@QAEXPB_W@Z 0040c57c     mfc71u:MFC71U.DLL
 0002:00000580       __imp_?Format@?$CStringT@GV?$StrTraitMFC_DLL@GV?$ChTraitsCRT@G@ATL@@@@@ATL@@QAAXIZZ 0040c580     mfc71u:MFC71U.DLL
 0002:00000580       __imp_?Format@?$CStringT@_WV?$StrTraitMFC_DLL@_WV?$ChTraitsCRT@_W@ATL@@@@@ATL@@QAAXIZZ 0040c580     mfc71u:MFC71U.DLL
 0002:00000584       __imp_?DDX_CBString@@YGXPAVCDataExchange@@HAAV?$CStringT@_WV?$StrTraitMFC_DLL@_WV?$ChTraitsCRT@_W@ATL@@@@@ATL@@@Z 0040c584     mfc71u:MFC71U.DLL
 0002:00000588       __imp_?Format@?$CStringT@GV?$StrTraitMFC_DLL@GV?$ChTraitsCRT@G@ATL@@@@@ATL@@QAAXPBGZZ 0040c588     mfc71u:MFC71U.DLL
 0002:00000588       __imp_?Format@?$CStringT@_WV?$StrTraitMFC_DLL@_WV?$ChTraitsCRT@_W@ATL@@@@@ATL@@QAAXPB_WZZ 0040c588     mfc71u:MFC71U.DLL
 0002:0000058c       __imp_??0CWinApp@@QAE@PB_W@Z 0040c58c     mfc71u:MFC71U.DLL
 0002:00000590       __imp_?SetRegistryKey@CWinApp@@IAEXPB_W@Z 0040c590     mfc71u:MFC71U.DLL
 0002:00000594       __imp_??0CFileDialog@@QAE@HPB_W0K0PAVCWnd@@K@Z 0040c594     mfc71u:MFC71U.DLL
 0002:00000598       __imp_??Y?$CStringT@_WV?$StrTraitMFC_DLL@_WV?$ChTraitsCRT@_W@ATL@@@@@ATL@@QAEAAV01@_W@Z 0040c598     mfc71u:MFC71U.DLL
 0002:00000598       __imp_??Y?$CStringT@GV?$StrTraitMFC_DLL@GV?$ChTraitsCRT@G@ATL@@@@@ATL@@QAEAAV01@G@Z 0040c598     mfc71u:MFC71U.DLL
 0002:0000059c       __imp_?GetBuffer@?$CSimpleStringT@_W$00@ATL@@QAEPA_WH@Z 0040c59c     mfc71u:MFC71U.DLL
 0002:0000059c       __imp_?GetBuffer@?$CSimpleStringT@G$00@ATL@@QAEPAGH@Z 0040c59c     mfc71u:MFC71U.DLL
 0002:000005a0       __imp_?ReleaseBuffer@?$CSimpleStringT@G$00@ATL@@QAEXH@Z 0040c5a0     mfc71u:MFC71U.DLL
 0002:000005a0       __imp_?ReleaseBuffer@?$CSimpleStringT@_W$00@ATL@@QAEXH@Z 0040c5a0     mfc71u:MFC71U.DLL
 0002:000005a4       __imp_?OpenDocumentFile@CWinApp@@UAEPAVCDocument@@PB_W@Z 0040c5a4     mfc71u:MFC71U.DLL
 0002:000005a8       __imp_?AddToRecentFileList@CWinApp@@UAEXPB_W@Z 0040c5a8     mfc71u:MFC71U.DLL
 0002:000005ac       __imp_?DoMessageBox@CWinApp@@UAEHPB_WII@Z 0040c5ac     mfc71u:MFC71U.DLL
 0002:000005b0       __imp_?OnDDECommand@CWinApp@@UAEHPA_W@Z 0040c5b0     mfc71u:MFC71U.DLL
 0002:000005b4       __imp_??Y?$CStringT@GV?$StrTraitMFC_DLL@GV?$ChTraitsCRT@G@ATL@@@@@ATL@@QAEAAV01@PBG@Z 0040c5b4     mfc71u:MFC71U.DLL
 0002:000005b4       __imp_??Y?$CStringT@_WV?$StrTraitMFC_DLL@_WV?$ChTraitsCRT@_W@ATL@@@@@ATL@@QAEAAV01@PB_W@Z 0040c5b4     mfc71u:MFC71U.DLL
 0002:000005b8       __imp_??Y?$CStringT@GV?$StrTraitMFC_DLL@GV?$ChTraitsCRT@G@ATL@@@@@ATL@@QAEAAV01@ABV?$CSimpleStringT@G$00@1@@Z 0040c5b8     mfc71u:MFC71U.DLL
 0002:000005b8       __imp_??Y?$CStringT@_WV?$StrTraitMFC_DLL@_WV?$ChTraitsCRT@_W@ATL@@@@@ATL@@QAEAAV01@ABV?$CSimpleStringT@_W$00@1@@Z 0040c5b8     mfc71u:MFC71U.DLL
 0002:000005bc       __imp_?Create@CMDIChildWnd@@UAEHPB_W0KABUtagRECT@@PAVCMDIFrameWnd@@PAUCCreateContext@@@Z 0040c5bc     mfc71u:MFC71U.DLL
 0002:000005c0       __imp_?CreatePointFont@CFont@@QAEHHPB_WPAVCDC@@@Z 0040c5c0     mfc71u:MFC71U.DLL
 0002:000005c4       __imp_?OnFindNext@CEditView@@MAEXPB_WHH@Z 0040c5c4     mfc71u:MFC71U.DLL
 0002:000005c8       __imp_?OnReplaceSel@CEditView@@MAEXPB_WHH0@Z 0040c5c8     mfc71u:MFC71U.DLL
 0002:000005cc       __imp_?OnReplaceAll@CEditView@@MAEXPB_W0H@Z 0040c5cc     mfc71u:MFC71U.DLL
 0002:000005d0       __imp_?OnTextNotFound@CEditView@@MAEXPB_W@Z 0040c5d0     mfc71u:MFC71U.DLL
 0002:000005d4       __imp_?AfxMessageBox@@YGHPB_WII@Z 0040c5d4     mfc71u:MFC71U.DLL
 0002:000005d8       __imp_?Empty@?$CSimpleStringT@_W$00@ATL@@QAEXXZ 0040c5d8     mfc71u:MFC71U.DLL
 0002:000005d8       __imp_?Empty@?$CSimpleStringT@G$00@ATL@@QAEXXZ 0040c5d8     mfc71u:MFC71U.DLL
 0002:000005dc       __imp_?Open@CFile@@UAEHPB_WIPAVCFileException@@@Z 0040c5dc     mfc71u:MFC71U.DLL
 0002:000005e0       __imp_?OnOpenDocument@CDocument@@UAEHPB_W@Z 0040c5e0     mfc71u:MFC71U.DLL
 0002:000005e4       __imp_?SetTitle@CDocument@@UAEXPB_W@Z 0040c5e4     mfc71u:MFC71U.DLL
 0002:000005e8       __imp_?SetPathName@CDocument@@UAEXPB_WH@Z 0040c5e8     mfc71u:MFC71U.DLL
 0002:000005ec       __imp_?OnSaveDocument@CDocument@@UAEHPB_W@Z 0040c5ec     mfc71u:MFC71U.DLL
 0002:000005f0       __imp_?ReportSaveLoadException@CDocument@@UAEXPB_WPAVCException@@HI@Z 0040c5f0     mfc71u:MFC71U.DLL
 0002:000005f4       __imp_?GetFile@CDocument@@UAEPAVCFile@@PB_WIPAVCFileException@@@Z 0040c5f4     mfc71u:MFC71U.DLL
 0002:000005f8       __imp_?DoSave@CDocument@@UAEHPB_WH@Z 0040c5f8     mfc71u:MFC71U.DLL
 0002:000005fc       __imp_?accLocation@CWnd@@UAEJPAJ000UtagVARIANT@@@Z 0040c5fc     mfc71u:MFC71U.DLL
 0002:00000600       __imp_?accSelect@CWnd@@UAEJJUtagVARIANT@@@Z 0040c600     mfc71u:MFC71U.DLL
 0002:00000604       __imp_?get_accSelection@CWnd@@UAEJPAUtagVARIANT@@@Z 0040c604     mfc71u:MFC71U.DLL
 0002:00000608       __imp_?get_accFocus@CWnd@@UAEJPAUtagVARIANT@@@Z 0040c608     mfc71u:MFC71U.DLL
 0002:0000060c       __imp_?get_accState@CWnd@@UAEJUtagVARIANT@@PAU2@@Z 0040c60c     mfc71u:MFC71U.DLL
 0002:00000610       __imp_?get_accRole@CWnd@@UAEJUtagVARIANT@@PAU2@@Z 0040c610     mfc71u:MFC71U.DLL
 0002:00000614       __imp_?get_accChild@CWnd@@UAEJUtagVARIANT@@PAPAUIDispatch@@@Z 0040c614     mfc71u:MFC71U.DLL
 0002:00000618       __imp_?get_accChildCount@CWnd@@UAEJPAJ@Z 0040c618     mfc71u:MFC71U.DLL
 0002:0000061c       __imp_?get_accParent@CWnd@@UAEJPAPAUIDispatch@@@Z 0040c61c     mfc71u:MFC71U.DLL
 0002:00000620       __imp_?EnsureStdObj@CWnd@@UAEJXZ 0040c620     mfc71u:MFC71U.DLL
 0002:00000624       __imp_?EndModalLoop@CWnd@@UAEXH@Z 0040c624     mfc71u:MFC71U.DLL
 0002:00000628       __imp_?ContinueModal@CWnd@@UAEHXZ 0040c628     mfc71u:MFC71U.DLL
 0002:0000062c       __imp_?WinHelpInternal@CWnd@@UAEXKI@Z 0040c62c     mfc71u:MFC71U.DLL
 0002:00000630       __imp_?HtmlHelpW@CWnd@@UAEXKI@Z 0040c630     mfc71u:MFC71U.DLL
 0002:00000634       __imp_?WinHelpW@CWnd@@UAEXKI@Z 0040c634     mfc71u:MFC71U.DLL
 0002:00000638       __imp_?OnToolHitTest@CWnd@@UBEHVCPoint@@PAUtagTOOLINFOW@@@Z 0040c638     mfc71u:MFC71U.DLL
 0002:0000063c       __imp_?DestroyWindow@CWnd@@UAEHXZ 0040c63c     mfc71u:MFC71U.DLL
 0002:00000640       __imp_?PreSubclassWindow@CWnd@@UAEXXZ 0040c640     mfc71u:MFC71U.DLL
 0002:00000644       __imp_?GetConnectionHook@CCmdTarget@@MAEPAUIConnectionPoint@@ABU_GUID@@@Z 0040c644     mfc71u:MFC71U.DLL
 0002:00000648       __imp_?GetExtraConnectionPoints@CCmdTarget@@MAEHPAVCPtrArray@@@Z 0040c648     mfc71u:MFC71U.DLL
 0002:0000064c       __imp_?GetInterfaceHook@CCmdTarget@@UAEPAUIUnknown@@PBX@Z 0040c64c     mfc71u:MFC71U.DLL
 0002:00000650       __imp_?OnCreateAggregates@CCmdTarget@@UAEHXZ 0040c650     mfc71u:MFC71U.DLL
 0002:00000654       __imp_?GetEventSinkMap@CCmdTarget@@MBEPBUAFX_EVENTSINKMAP@@XZ 0040c654     mfc71u:MFC71U.DLL
 0002:00000658       __imp_?GetInterfaceMap@CWnd@@MBEPBUAFX_INTERFACEMAP@@XZ 0040c658     mfc71u:MFC71U.DLL
 0002:0000065c       __imp_?GetConnectionMap@CCmdTarget@@MBEPBUAFX_CONNECTIONMAP@@XZ 0040c65c     mfc71u:MFC71U.DLL
 0002:00000660       __imp_?GetDispatchMap@CCmdTarget@@MBEPBUAFX_DISPMAP@@XZ 0040c660     mfc71u:MFC71U.DLL
 0002:00000664       __imp_?GetCommandMap@CCmdTarget@@MBEPBUAFX_OLECMDMAP@@XZ 0040c664     mfc71u:MFC71U.DLL
 0002:00000668       __imp_?GetTypeLib@CCmdTarget@@UAEJKPAPAUITypeLib@@@Z 0040c668     mfc71u:MFC71U.DLL
 0002:0000066c       __imp_?GetTypeLibCache@CCmdTarget@@UAEPAVCTypeLibCache@@XZ 0040c66c     mfc71u:MFC71U.DLL
 0002:00000670       __imp_?GetTypeInfoCount@CCmdTarget@@UAEIXZ 0040c670     mfc71u:MFC71U.DLL
 0002:00000674       __imp_?GetDispatchIID@CCmdTarget@@UAEHPAU_GUID@@@Z 0040c674     mfc71u:MFC71U.DLL
 0002:00000678       __imp_?IsInvokeAllowed@CCmdTarget@@UAEHJ@Z 0040c678     mfc71u:MFC71U.DLL
 0002:0000067c       __imp_?OnFinalRelease@CWnd@@UAEXXZ 0040c67c     mfc71u:MFC71U.DLL
 0002:00000680       __imp_??3@YAXPAX@Z         0040c680     mfc71u:MFC71U.DLL
 0002:00000684       __imp_?GetThisMessageMap@CDialog@@KGPBUAFX_MSGMAP@@XZ 0040c684     mfc71u:MFC71U.DLL
 0002:00000688       __imp_??0CDialog@@QAE@IPAVCWnd@@@Z 0040c688     mfc71u:MFC71U.DLL
 0002:0000068c       __imp_??1CDialog@@UAE@XZ   0040c68c     mfc71u:MFC71U.DLL
 0002:00000690       __imp_?AfxWinMain@@YGHPAUHINSTANCE__@@0PA_WH@Z 0040c690     mfc71u:MFC71U.DLL
 0002:00000694       __imp_?GetNextDocTemplate@CWinApp@@QBEPAVCDocTemplate@@AAPAU__POSITION@@@Z 0040c694     mfc71u:MFC71U.DLL
 0002:00000698       \177MFC71U_NULL_THUNK_DATA 0040c698     mfc71u:MFC71U.DLL
 0002:0000069c       __imp_??1?$basic_string@DU?$char_traits@D@std@@V?$allocator@D@2@@std@@QAE@XZ 0040c69c     msvcprt:MSVCP71.dll
 0002:000006a0       __imp_??0?$basic_string@DU?$char_traits@D@std@@V?$allocator@D@2@@std@@QAE@ABV01@@Z 0040c6a0     msvcprt:MSVCP71.dll
 0002:000006a4       __imp_??0?$basic_string@DU?$char_traits@D@std@@V?$allocator@D@2@@std@@QAE@PBD@Z 0040c6a4     msvcprt:MSVCP71.dll
 0002:000006a8       \177MSVCP71_NULL_THUNK_DATA 0040c6a8     msvcprt:MSVCP71.dll
 0002:000006ac       __imp____security_error_handler 0040c6ac     msvcrt:MSVCR71.dll
 0002:000006b0       __imp_?terminate@@YAXXZ    0040c6b0     msvcrt:MSVCR71.dll
 0002:000006b4       __imp___controlfp          0040c6b4     msvcrt:MSVCR71.dll
 0002:000006b8       __imp___adjust_fdiv        0040c6b8     msvcrt:MSVCR71.dll
 0002:000006bc       __imp____setusermatherr    0040c6bc     msvcrt:MSVCR71.dll
 0002:000006c0       __imp___initterm           0040c6c0     msvcrt:MSVCR71.dll
 0002:000006c4       __imp____wgetmainargs      0040c6c4     msvcrt:MSVCR71.dll
 0002:000006c8       __imp___amsg_exit          0040c6c8     msvcrt:MSVCR71.dll
 0002:000006cc       __imp___wcmdln             0040c6cc     msvcrt:MSVCR71.dll
 0002:000006d0       __imp__exit                0040c6d0     msvcrt:MSVCR71.dll
 0002:000006d4       __imp___cexit              0040c6d4     msvcrt:MSVCR71.dll
 0002:000006d8       __imp___XcptFilter         0040c6d8     msvcrt:MSVCR71.dll
 0002:000006dc       __imp___exit               0040c6dc     msvcrt:MSVCR71.dll
 0002:000006e0       __imp___c_exit             0040c6e0     msvcrt:MSVCR71.dll
 0002:000006e4       __imp___except_handler3    0040c6e4     msvcrt:MSVCR71.dll
 0002:000006e8       __imp__wcsncpy             0040c6e8     msvcrt:MSVCR71.dll
 0002:000006ec       __imp__strlen              0040c6ec     msvcrt:MSVCR71.dll
 0002:000006f0       __imp_??1exception@@UAE@XZ 0040c6f0     msvcrt:MSVCR71.dll
 0002:000006f4       __imp_??0exception@@QAE@ABV0@@Z 0040c6f4     msvcrt:MSVCR71.dll
 0002:000006f8       __imp_??1type_info@@UAE@XZ 0040c6f8     msvcrt:MSVCR71.dll
 0002:000006fc       __imp__swprintf            0040c6fc     msvcrt:MSVCR71.dll
 0002:00000700       __imp__iswprint            0040c700     msvcrt:MSVCR71.dll
 0002:00000704       __imp__iswascii            0040c704     msvcrt:MSVCR71.dll
 0002:00000708       __imp__wcscat              0040c708     msvcrt:MSVCR71.dll
 0002:0000070c       __imp___errno              0040c70c     msvcrt:MSVCR71.dll
 0002:00000710       __imp__wcstol              0040c710     msvcrt:MSVCR71.dll
 0002:00000714       __imp__wcsncmp             0040c714     msvcrt:MSVCR71.dll
 0002:00000718       __imp__wcsrchr             0040c718     msvcrt:MSVCR71.dll
 0002:0000071c       __imp__wcslen              0040c71c     msvcrt:MSVCR71.dll
 0002:00000720       __imp___ltow               0040c720     msvcrt:MSVCR71.dll
 0002:00000724       __imp___wcsicmp            0040c724     msvcrt:MSVCR71.dll
 0002:00000728       __imp___wsplitpath         0040c728     msvcrt:MSVCR71.dll
 0002:0000072c       __imp__wcscpy              0040c72c     msvcrt:MSVCR71.dll
 0002:00000730       __imp__memcpy              0040c730     msvcrt:MSVCR71.dll
 0002:00000734       __imp__memset              0040c734     msvcrt:MSVCR71.dll
 0002:00000738       __imp__wcscmp              0040c738     msvcrt:MSVCR71.dll
 0002:0000073c       __imp___purecall           0040c73c     msvcrt:MSVCR71.dll
 0002:00000740       __imp__malloc              0040c740     msvcrt:MSVCR71.dll
 0002:00000744       __imp__free                0040c744     msvcrt:MSVCR71.dll
 0002:00000748       __imp____CxxFrameHandler   0040c748     msvcrt:MSVCR71.dll
 0002:0000074c       __imp___CxxThrowException@8 0040c74c     msvcrt:MSVCR71.dll
 0002:00000750       __imp___onexit             0040c750     msvcrt:MSVCR71.dll
 0002:00000754       __imp____dllonexit         0040c754     msvcrt:MSVCR71.dll
 0002:00000758       __imp____set_app_type      0040c758     msvcrt:MSVCR71.dll
 0002:0000075c       __imp____p__fmode          0040c75c     msvcrt:MSVCR71.dll
 0002:00000760       __imp_??0exception@@QAE@XZ 0040c760     msvcrt:MSVCR71.dll
 0002:00000764       __imp____p__commode        0040c764     msvcrt:MSVCR71.dll
 0002:00000768       \177MSVCR71_NULL_THUNK_DATA 0040c768     msvcrt:MSVCR71.dll
 0002:0000076c       __imp__DragAcceptFiles@8   0040c76c     shell32:SHELL32.dll
 0002:00000770       \177SHELL32_NULL_THUNK_DATA 0040c770     shell32:SHELL32.dll
 0002:00000774       __imp__PeekMessageW@20     0040c774     user32:USER32.dll
 0002:00000778       __imp__wsprintfW           0040c778     user32:USER32.dll
 0002:0000077c       __imp__PostMessageW@16     0040c77c     user32:USER32.dll
 0002:00000780       __imp__IsWindow@4          0040c780     user32:USER32.dll
 0002:00000784       __imp__wvsprintfW@12       0040c784     user32:USER32.dll
 0002:00000788       __imp__GetParent@4         0040c788     user32:USER32.dll
 0002:0000078c       __imp__VkKeyScanW@4        0040c78c     user32:USER32.dll
 0002:00000790       __imp__EnableMenuItem@12   0040c790     user32:USER32.dll
 0002:00000794       __imp__GetSystemMenu@8     0040c794     user32:USER32.dll
 0002:00000798       __imp__UpdateWindow@4      0040c798     user32:USER32.dll
 0002:0000079c       __imp__SendMessageW@16     0040c79c     user32:USER32.dll
 0002:000007a0       __imp__EnableWindow@8      0040c7a0     user32:USER32.dll
 0002:000007a4       \177USER32_NULL_THUNK_DATA 0040c7a4     user32:USER32.dll
 0002:000007a8       __imp__SymGetSymFromName64@12 0040c7a8     dbghelp:dbghelp.dll
 0002:000007ac       __imp__SymGetSymFromAddr64@20 0040c7ac     dbghelp:dbghelp.dll
 0002:000007b0       __imp__SymEnumerateSymbols64@20 0040c7b0     dbghelp:dbghelp.dll
 0002:000007b4       __imp__StackWalk64@36      0040c7b4     dbghelp:dbghelp.dll
 0002:000007b8       __imp__SymGetModuleBase64@12 0040c7b8     dbghelp:dbghelp.dll
 0002:000007bc       __imp__SymGetSearchPath@12 0040c7bc     dbghelp:dbghelp.dll
 0002:000007c0       __imp__SymSetSearchPath@8  0040c7c0     dbghelp:dbghelp.dll
 0002:000007c4       __imp__SymInitialize@12    0040c7c4     dbghelp:dbghelp.dll
 0002:000007c8       __imp__SymSetOptions@4     0040c7c8     dbghelp:dbghelp.dll
 0002:000007cc       __imp__SymFunctionTableAccess64@12 0040c7cc     dbghelp:dbghelp.dll
 0002:000007d0       __imp__SymCleanup@4        0040c7d0     dbghelp:dbghelp.dll
 0002:000007d4       __imp__SymGetOptions@0     0040c7d4     dbghelp:dbghelp.dll
 0002:000007d8       \177dbghelp_NULL_THUNK_DATA 0040c7d8     dbghelp:dbghelp.dll
 0002:000007dc       __imp__ClearSingleStep@4   0040c7dc     i386CPUHelp:i386CPUHelp.dll
 0002:000007e0       __imp__SetSingleStep@4     0040c7e0     i386CPUHelp:i386CPUHelp.dll
 0002:000007e4       __imp__ClearBreakpoint@16  0040c7e4     i386CPUHelp:i386CPUHelp.dll
 0002:000007e8       __imp__InitializeStackFrameWithContext@8 0040c7e8     i386CPUHelp:i386CPUHelp.dll
 0002:000007ec       __imp__SetBreakpoint@12    0040c7ec     i386CPUHelp:i386CPUHelp.dll
 0002:000007f0       __imp__disasm@16           0040c7f0     i386CPUHelp:i386CPUHelp.dll
 0002:000007f4       __imp__DisplayRegisters@12 0040c7f4     i386CPUHelp:i386CPUHelp.dll
 0002:000007f8       \177i386CPUHelp_NULL_THUNK_DATA 0040c7f8     i386CPUHelp:i386CPUHelp.dll
 0002:0000083c       ??_C@_1O@JDLOHAN@?$AAD?$AAe?$AAl?$AAe?$AAt?$AAe?$AA?$AA@ 0040c83c     mfcs71u:stdafx.obj
 0002:0000084c       ??_C@_1BC@GCKHIPE@?$AAN?$AAo?$AAR?$AAe?$AAm?$AAo?$AAv?$AAe?$AA?$AA@ 0040c84c     mfcs71u:stdafx.obj
 0002:00000860       ??_C@_1BI@JFAIJMHL@?$AAF?$AAo?$AAr?$AAc?$AAe?$AAR?$AAe?$AAm?$AAo?$AAv?$AAe?$AA?$AA@ 0040c860     mfcs71u:stdafx.obj
 0002:00000878       ??_C@_17LLMMEOJD@?$AAV?$AAa?$AAl?$AA?$AA@ 0040c878     mfcs71u:stdafx.obj
 0002:00000880       ??_C@_13OPKGLAFF@?$AAB?$AA?$AA@ 0040c880     mfcs71u:stdafx.obj
 0002:00000884       ??_C@_13MKMNOPIJ@?$AAD?$AA?$AA@ 0040c884     mfcs71u:stdafx.obj
 0002:00000888       ??_C@_13LHMFKAAD@?$AAM?$AA?$AA@ 0040c888     mfcs71u:stdafx.obj
 0002:0000088c       ??_C@_13HADIAKP@?$AAS?$AA?$AA@ 0040c88c     mfcs71u:stdafx.obj
 0002:000008b0       ??_7type_info@@6B@         0040c8b0     msvcrt:ti_inst.obj
 0002:00000904       _GUID_ATLVer30             0040c904     atls:atlbase.obj
 0002:00000914       _GUID_ATLVer70             0040c914     atls:atlbase.obj
 0002:00000928       ??_7CAboutDlg@@6B@         0040c928     AboutDlg.obj
 0002:00000a88       ??_7CLocationBP@@6B@       0040ca88     Breakpoint.obj
 0002:00000ad0       ??_7CBreakpoint@@6B@       0040cad0     Breakpoint.obj
 0002:00000b14       ??_C@_0M@HICEFLPN@CLocationBP?$AA@ 0040cb14     Breakpoint.obj
 0002:00000b20       ??_7CCheckListBox@@6B@     0040cb20     BreakpointsDlg.obj
 0002:00000c78       ??_7CButton@@6B@           0040cc78     BreakpointsDlg.obj
 0002:00000db8       ??_7?$CArray@PAVCLocationBP@@PAV1@@@6B@ 0040cdb8     BreakpointsDlg.obj
 0002:00000dd0       ??_7CBreakpointsDlg@@6B@   0040cdd0     BreakpointsDlg.obj
 0002:00000f30       ?messageMap@CBreakpointsDlg@@1UAFX_MSGMAP@@B 0040cf30     BreakpointsDlg.obj
 0002:00000f38       ?_messageEntries@CBreakpointsDlg@@0QBUAFX_MSGMAP_ENTRY@@B 0040cf38     BreakpointsDlg.obj
 0002:00000fb0       ??_C@_11LOCGONAA@?$AA?$AA@ 0040cfb0     DisasmDisplayDlg.obj
 0002:00000fb8       ??_7CDisasmDisplayDlg@@6B@ 0040cfb8     DisasmDisplayDlg.obj
 0002:00001118       ?messageMap@CProjectSettings@@1UAFX_MSGMAP@@B 0040d118     ProjectSettings.obj
 0002:00001118       ?messageMap@CDisasmDisplayDlg@@1UAFX_MSGMAP@@B 0040d118     DisasmDisplayDlg.obj
 0002:00001118       ?messageMap@CThreadPickerDlg@@1UAFX_MSGMAP@@B 0040d118     ThreadPickerDlg.obj
 0002:00001118       ?messageMap@CAboutDlg@@1UAFX_MSGMAP@@B 0040d118     AboutDlg.obj
 0002:00001118       ?messageMap@CSymbolsDisplayDlg@@1UAFX_MSGMAP@@B 0040d118     SymbolsDisplayDlg.obj
 0002:00001120       ??_7CDocNotifyWnd@@6B@     0040d120     DocNotifyWnd.obj
 0002:00001258       ??_C@_1BK@POOJDINH@?$AAD?$AAo?$AAc?$AAN?$AAo?$AAt?$AAi?$AAf?$AAy?$AAW?$AAn?$AAd?$AA?$AA@ 0040d258     DocNotifyWnd.obj
 0002:00001274       ?messageMap@CDocNotifyWnd@@1UAFX_MSGMAP@@B 0040d274     DocNotifyWnd.obj
 0002:00001280       ?_messageEntries@CDocNotifyWnd@@0QBUAFX_MSGMAP_ENTRY@@B 0040d280     DocNotifyWnd.obj
 0002:00001370       ??_7CMainFrame@@6B@        0040d370     MainFrm.obj
 0002:000014f0       ?messageMap@CMainFrame@@1UAFX_MSGMAP@@B 0040d4f0     MainFrm.obj
 0002:000014f8       ?_messageEntries@CMainFrame@@0QBUAFX_MSGMAP_ENTRY@@B 0040d4f8     MainFrm.obj
 0002:00001528       ?classCMainFrame@CMainFrame@@2UCRuntimeClass@@B 0040d528     MainFrm.obj
 0002:00001544       ??_C@_0L@GOKPKJAL@CMainFrame?$AA@ 0040d544     MainFrm.obj
 0002:00001550       ??_7CMemoryDisplayDlg@@6B@ 0040d550     MemoryDisplayDlg.obj
 0002:000016b0       ?messageMap@CMemoryDisplayDlg@@1UAFX_MSGMAP@@B 0040d6b0     MemoryDisplayDlg.obj
 0002:000016b8       ?_messageEntries@CMemoryDisplayDlg@@0QBUAFX_MSGMAP_ENTRY@@B 0040d6b8     MemoryDisplayDlg.obj
 0002:00001718       ??_7CEdit@@6B@             0040d718     NewEditBPDlg.obj
 0002:00001858       ??_7CComboBox@@6B@         0040d858     NewEditBPDlg.obj
 0002:000019a8       ??_7CStatic@@6B@           0040d9a8     NewEditBPDlg.obj
 0002:00001ae8       ??_7CNewEditBPDlg@@6B@     0040dae8     NewEditBPDlg.obj
 0002:00001c48       ??_C@_19PLOBJMHF@?$AAE?$AAd?$AAi?$AAt?$AA?$AA@ 0040dc48     NewEditBPDlg.obj
 0002:00001c54       ??_C@_17IBLPGIF@?$AAN?$AAe?$AAw?$AA?$AA@ 0040dc54     NewEditBPDlg.obj
 0002:00001c5c       ??_C@_1BC@NICNPKDN@?$AAL?$AAo?$AAc?$AAa?$AAt?$AAi?$AAo?$AAn?$AA?$AA@ 0040dc5c     NewEditBPDlg.obj
 0002:00001c70       ?messageMap@CNewEditBPDlg@@1UAFX_MSGMAP@@B 0040dc70     NewEditBPDlg.obj
 0002:00001c78       ?_messageEntries@CNewEditBPDlg@@0QBUAFX_MSGMAP_ENTRY@@B 0040dc78     NewEditBPDlg.obj
 0002:00001ca8       ??_7CProjectSettings@@6B@  0040dca8     ProjectSettings.obj
 0002:00001e08       ??_7CSymbolsDisplayDlg@@6B@ 0040de08     SymbolsDisplayDlg.obj
 0002:00001f68       ??_7CThreadPickerDlg@@6B@  0040df68     ThreadPickerDlg.obj
 0002:000020c8       ??_C@_1O@GNPNAMOC@?$AA0?$AAx?$AA?$CF?$AA0?$AA8?$AAX?$AA?$AA@ 0040e0c8     ThreadPickerDlg.obj
 0002:000020d8       ??_7CWDBGApp@@6B@          0040e0d8     WDBG.obj
 0002:00002198       ??_C@_17ECHFBE@?$AA?$CK?$AA?4?$AA?$CK?$AA?$AA@ 0040e198     WDBG.obj
 0002:000021a0       ??_C@_1BE@EEOKKKNC@?$AAA?$AAl?$AAl?$AA?5?$AAf?$AAi?$AAl?$AAe?$AAs?$AA?$AA@ 0040e1a0     WDBG.obj
 0002:000021b4       ??_C@_1CE@BOPOPEMD@?$AA?$CK?$AA?4?$AAe?$AAx?$AAe?$AA?$DL?$AA?$CK?$AA?4?$AAd?$AAl?$AAl?$AA?$DL?$AA?$CK?$AA?4?$AAo?$AAc?$AAx?$AA?$AA@ 0040e1b4     WDBG.obj
 0002:000021d8       ??_C@_1EK@JBEFBAFH@?$AAE?$AAx?$AAe?$AAc?$AAu?$AAt?$AAa?$AAb?$AAl?$AAe?$AA?5?$AAF?$AAi?$AAl?$AAe?$AAs?$AA?5?$AA?$CI?$AA?$CK?$AA?4@ 0040e1d8     WDBG.obj
 0002:00002224       ??_C@_19FMFEEEON@?$AAO?$AAp?$AAe?$AAn?$AA?$AA@ 0040e224     WDBG.obj
 0002:00002230       ??_C@_1BE@EJFFJGKJ@?$AAB?$AAu?$AAg?$AAs?$AAl?$AAa?$AAy?$AAe?$AAr?$AA?$AA@ 0040e230     WDBG.obj
 0002:00002244       ?messageMap@CWDBGApp@@1UAFX_MSGMAP@@B 0040e244     WDBG.obj
 0002:00002250       ?_messageEntries@CWDBGApp@@0QBUAFX_MSGMAP_ENTRY@@B 0040e250     WDBG.obj
 0002:000022c8       ??_7CWDBGChildFrame@@6B@   0040e2c8     WDBGChildFrame.obj
 0002:00002448       ?messageMap@CWDBGChildFrame@@1UAFX_MSGMAP@@B 0040e448     WDBGChildFrame.obj
 0002:00002450       ?_messageEntries@CAboutDlg@@0QBUAFX_MSGMAP_ENTRY@@B 0040e450     AboutDlg.obj
 0002:00002450       ?_messageEntries@CWDBGChildFrame@@0QBUAFX_MSGMAP_ENTRY@@B 0040e450     WDBGChildFrame.obj
 0002:00002450       ?_messageEntries@CThreadPickerDlg@@0QBUAFX_MSGMAP_ENTRY@@B 0040e450     ThreadPickerDlg.obj
 0002:00002450       ?_messageEntries@CDisasmDisplayDlg@@0QBUAFX_MSGMAP_ENTRY@@B 0040e450     DisasmDisplayDlg.obj
 0002:00002450       ?_messageEntries@CProjectSettings@@0QBUAFX_MSGMAP_ENTRY@@B 0040e450     ProjectSettings.obj
 0002:00002450       ?_messageEntries@CSymbolsDisplayDlg@@0QBUAFX_MSGMAP_ENTRY@@B 0040e450     SymbolsDisplayDlg.obj
 0002:00002468       ?classCWDBGChildFrame@CWDBGChildFrame@@2UCRuntimeClass@@B 0040e468     WDBGChildFrame.obj
 0002:00002484       ??_C@_0BA@MELOMDEB@CWDBGChildFrame?$AA@ 0040e484     WDBGChildFrame.obj
 0002:00002494       ??_7CFont@@6B@             0040e494     WDBGLogView.obj
 0002:000024a8       ??_7CGdiObject@@6B@        0040e4a8     WDBGLogView.obj
 0002:000024c0       ??_7CWDBGLogView@@6B@      0040e4c0     WDBGLogView.obj
 0002:0000265c       ??_C@_1BI@GNONBDFP@?$AAC?$AAo?$AAu?$AAr?$AAi?$AAe?$AAr?$AA?5?$AAN?$AAe?$AAw?$AA?$AA@ 0040e65c     WDBGLogView.obj
 0002:00002674       ??_C@_1BG@FJMDGJEB@?$AAL?$AAo?$AAg?$AA?5?$AAW?$AAi?$AAn?$AAd?$AAo?$AAw?$AA?$AA@ 0040e674     WDBGLogView.obj
 0002:0000268c       ?messageMap@CWDBGLogView@@1UAFX_MSGMAP@@B 0040e68c     WDBGLogView.obj
 0002:00002698       ?_messageEntries@CWDBGLogView@@0QBUAFX_MSGMAP_ENTRY@@B 0040e698     WDBGLogView.obj
 0002:000027d0       ?classCWDBGLogView@CWDBGLogView@@2UCRuntimeClass@@B 0040e7d0     WDBGLogView.obj
 0002:000027ec       ??_C@_0N@DHCAJEPB@CWDBGLogView?$AA@ 0040e7ec     WDBGLogView.obj
 0002:000027fc       ??_7logic_error@std@@6B@   0040e7fc     WDBGProjDoc.obj
 0002:00002804       ??_7CVariableInfo@@6B@     0040e804     WDBGProjDoc.obj
 0002:00002808       ??_7length_error@std@@6B@  0040e808     WDBGProjDoc.obj
 0002:00002810       ??_7CSymbolEngine@@6B@     0040e810     WDBGProjDoc.obj
 0002:00002818       ??_7CWDBGProjDoc@@6B@      0040e818     WDBGProjDoc.obj
 0002:000028d0       ??_7?$CArray@VCOneShotBP@@V1@@@6B@ 0040e8d0     WDBGProjDoc.obj
 0002:000028e8       ??_7COneShotBP@@6B@        0040e8e8     WDBGProjDoc.obj
 0002:0000292c       ??_C@_0BD@OLBABOEK@vector?$DMT?$DO?5too?5long?$AA@ 0040e92c     WDBGProjDoc.obj
 0002:00002940       ??_C@_1DK@KCKEGIOE@?$AAU?$AAn?$AAa?$AAb?$AAl?$AAe?$AA?5?$AAt?$AAo?$AA?5?$AAd?$AAi?$AAs?$AAp?$AAl?$AAa?$AAy?$AA?5?$AAr?$AAe@ 0040e940     WDBGProjDoc.obj
 0002:0000297c       ??_C@_1BC@LKIGADKH@?$AAR?$AAe?$AAg?$AAi?$AAs?$AAt?$AAe?$AAr?$AA?$AA@ 0040e97c     WDBGProjDoc.obj
 0002:00002990       ??_C@_1BO@BMMPBAFH@?$AA?$DM?$AAN?$AAo?$AA?5?$AAs?$AAy?$AAm?$AAb?$AAo?$AAl?$AAs?$AA?$DO?$AA?$AN?$AA?6?$AA?$AA@ 0040e990     WDBGProjDoc.obj
 0002:000029b0       ??_C@_1DC@HBBLLACC@?$AAS?$AAy?$AAs?$AAt?$AAe?$AAm?$AAC?$AAa?$AAl?$AAl?$AAS?$AAt?$AAu?$AAb?$AA?$CL?$AA4?$AA?5?$AAb?$AAy?$AAt@ 0040e9b0     WDBGProjDoc.obj
 0002:000029e4       ??_C@_1CE@GAMKCKFP@?$AA?$CF?$AAS?$AA?$CI?$AA?$CJ?$AA?$CL?$AA?$CF?$AAd?$AA?5?$AAb?$AAy?$AAt?$AAe?$AA?$CI?$AAs?$AA?$CJ?$AA?$AN?$AA?6?$AA?$AA@ 0040e9e4     WDBGProjDoc.obj
 0002:00002a08       ??_C@_1BG@PMEJMNLC@?$AA?$CF?$AA0?$AA8?$AAX?$AA?5?$AA?$CF?$AA?9?$AA2?$AA0?$AAs?$AA?$AA@ 0040ea08     WDBGProjDoc.obj
 0002:00002a20       ??_C@_1CG@GBAFPBDJ@?$AA?$DM?$AA?$DM?$AAU?$AAn?$AAk?$AAn?$AAo?$AAw?$AAn?$AA?5?$AAM?$AAo?$AAd?$AAu?$AAl?$AAe?$AA?$DO?$AA?$DO?$AA?$AA@ 0040ea20     WDBGProjDoc.obj
 0002:00002a48       ??_C@_1BO@OBKNNFHM@?$AAS?$AAh?$AAa?$AAr?$AAe?$AAd?$AAU?$AAs?$AAe?$AAr?$AAD?$AAa?$AAt?$AAa?$AA?$AA@ 0040ea48     WDBGProjDoc.obj
 0002:00002a68       ??_C@_1DE@JBNIJOAP@?$AAT?$AAh?$AAr?$AAe?$AAa?$AAd?$AA?5?$AAn?$AAo?$AA?5?$AAl?$AAo?$AAn?$AAg?$AAe?$AAr?$AA?5?$AAe?$AAx?$AAi@ 0040ea68     WDBGProjDoc.obj
 0002:00002a9c       ??_C@_15FGOLOFBB@?$AA?$DN?$AA?5?$AA?$AA@ 0040ea9c     WDBGProjDoc.obj
 0002:00002aa4       ??_C@_15OJKDPEFE@?$AA?5?$AA?5?$AA?$AA@ 0040eaa4     WDBGProjDoc.obj
 0002:00002aac       ??_C@_19NMAFMAH@?$AA?5?$AA?5?$AA?5?$AA?5?$AA?$AA@ 0040eaac     WDBGProjDoc.obj
 0002:00002ab8       ??_C@_1BE@IINJGMGB@?$AAC?$AAa?$AAl?$AAl?$AAs?$AAt?$AAa?$AAc?$AAk?$AA?$AA@ 0040eab8     WDBGProjDoc.obj
 0002:00002acc       ??_C@_15DAMPJCDE@?$AA?$CF?$AAc?$AA?$AA@ 0040eacc     WDBGProjDoc.obj
 0002:00002ad4       ??_C@_1BC@EAODFIMK@?$AA0?$AAx?$AA?$CF?$AA0?$AA8?$AAX?$AA?5?$AA?5?$AA?$AA@ 0040ead4     WDBGProjDoc.obj
 0002:00002ae8       ??_C@_13HOIJIPNN@?$AA?5?$AA?$AA@ 0040eae8     WDBGProjDoc.obj
 0002:00002aec       ??_C@_15BDFJADND@?$AA?$DP?$AA?$DP?$AA?$AA@ 0040eaec     WDBGProjDoc.obj
 0002:00002af4       ??_C@_1M@HKIMHKCM@?$AA?$CF?$AA0?$AA8?$AAX?$AA?5?$AA?$AA@ 0040eaf4     WDBGProjDoc.obj
 0002:00002b00       ??_C@_1M@CNCDGPGD@?$AA?$CF?$AA0?$AA4?$AAX?$AA?5?$AA?$AA@ 0040eb00     WDBGProjDoc.obj
 0002:00002b0c       ??_C@_1M@OLEMGGOE@?$AA?$CF?$AA0?$AA2?$AAX?$AA?5?$AA?$AA@ 0040eb0c     WDBGProjDoc.obj
 0002:00002b18       ??_C@_1BM@FGIMDOAO@?$AA0?$AAx?$AA?$CF?$AA0?$AA8?$AAX?$AA?5?$AA?5?$AA?5?$AA?$CF?$AAS?$AA?$AN?$AA?6?$AA?$AA@ 0040eb18     WDBGProjDoc.obj
 0002:00002b34       ??_C@_19LNILFIIC@?$AA?$CF?$AAS?$AA?$AN?$AA?6?$AA?$AA@ 0040eb34     WDBGProjDoc.obj
 0002:00002b40       ??_C@_1M@JBLFBEDM@?$AA?$CF?$AAS?$AA?3?$AA?$AN?$AA?6?$AA?$AA@ 0040eb40     WDBGProjDoc.obj
 0002:00002b50       ??_C@_1EE@JJOELCDA@?$AA?$CF?$AA?9?$AA2?$AA5?$AAs?$AA?5?$AA?5?$AA?5?$AA0?$AAx?$AA?$CF?$AA0?$AA8?$AAX?$AA?9?$AA0?$AAx?$AA?$CF?$AA0?$AA8@ 0040eb50     WDBGProjDoc.obj
 0002:00002b94       ??_C@_1DA@MADDEDNJ@?$AA0?$AAx?$AA?$CF?$AA0?$AA8?$AAX?$AA?5?$AA?5?$AA0?$AAx?$AA?$CF?$AA0?$AA8?$AAX?$AA?5?$AA?5?$AA?5?$AA?5?$AA?5?$AA?$CF@ 0040eb94     WDBGProjDoc.obj
 0002:00002bc8       ??_C@_1EA@LHPGPPHK@?$AAU?$AAn?$AAl?$AAo?$AAa?$AAd?$AAi?$AAn?$AAg?$AA?5?$AA?8?$AA?$CF?$AAs?$AA?2?$AA?$CF?$AAs?$AA?8?$AA?5?$AAf?$AAr@ 0040ebc8     WDBGProjDoc.obj
 0002:00002c08       ??_C@_1FA@DBOKAGKE@?$AA?8?$AA?$CF?$AAs?$AA?8?$AA?5?$AAl?$AAo?$AAa?$AAd?$AAe?$AAd?$AA?5?$AAa?$AAt?$AA?5?$AA0?$AAx?$AA?$CF?$AA0?$AA8@ 0040ec08     WDBGProjDoc.obj
 0002:00002c58       ??_C@_15OEMMNBIC@?$AA0?$AAx?$AA?$AA@ 0040ec58     WDBGProjDoc.obj
 0002:00002c60       ??_C@_1BO@HMHLLCLD@?$AA?$CF?$AAS?$AA?$CL?$AA?$CF?$AAd?$AA?5?$AA?$CI?$AA0?$AAx?$AA?$CF?$AA0?$AA8?$AAX?$AA?$CJ?$AA?$AA@ 0040ec60     WDBGProjDoc.obj
 0002:00002c80       ??_C@_1CO@KEPCMPMA@?$AA?$CB?$AA?$CB?$AA?$DM?$AA?$DM?$AAU?$AAn?$AAk?$AAn?$AAo?$AAw?$AAn?$AA?5?$AAM?$AAo?$AAd?$AAu?$AAl?$AAe?$AA?$DO?$AA?$DO@ 0040ec80     WDBGProjDoc.obj
 0002:00002cb0       ??_C@_1DM@HADAOLPN@?$AA?$CB?$AA?$CB?$AA?$CB?$AA?$CB?$AA?$DM?$AA?$DM?$AAU?$AAN?$AAK?$AAN?$AAO?$AAW?$AAN?$AA?5?$AAE?$AAX?$AAC?$AAE?$AAP?$AAT@ 0040ecb0     WDBGProjDoc.obj
 0002:00002cec       ??_C@_1BE@OBBMHKPP@?$AAN?$AAo?$AA?5?$AAM?$AAe?$AAm?$AAo?$AAr?$AAy?$AA?$AA@ 0040ecec     WDBGProjDoc.obj
 0002:00002d00       ??_C@_1DA@JIDPFPNH@?$AAM?$AAi?$AAc?$AAr?$AAo?$AAs?$AAo?$AAf?$AAt?$AA?5?$AAC?$AA?$CL?$AA?$CL?$AA?5?$AAE?$AAx?$AAc?$AAe?$AAp?$AAt@ 0040ed00     WDBGProjDoc.obj
 0002:00002d30       ??_C@_1CI@OFFMKJEJ@?$AAP?$AAr?$AAo?$AAc?$AAe?$AAd?$AAu?$AAr?$AAe?$AA?5?$AAN?$AAo?$AAt?$AA?5?$AAF?$AAo?$AAu?$AAn?$AAd?$AA?$AA@ 0040ed30     WDBGProjDoc.obj
 0002:00002d58       ??_C@_1CC@NALEMMCJ@?$AAM?$AAo?$AAd?$AAu?$AAl?$AAe?$AA?5?$AAN?$AAo?$AAt?$AA?5?$AAF?$AAo?$AAu?$AAn?$AAd?$AA?$AA@ 0040ed58     WDBGProjDoc.obj
 0002:00002d7c       ??_C@_1DE@PCDLLLNK@?$AAD?$AAL?$AAL?$AA?5?$AAI?$AAn?$AAi?$AAt?$AAi?$AAa?$AAl?$AAi?$AAz?$AAa?$AAt?$AAi?$AAo?$AAn?$AA?5?$AAF@ 0040ed7c     WDBGProjDoc.obj
 0002:00002db0       ??_C@_1BM@NMDHPBJM@?$AAD?$AAL?$AAL?$AA?5?$AAN?$AAo?$AAt?$AA?5?$AAF?$AAo?$AAu?$AAn?$AAd?$AA?$AA@ 0040edb0     WDBGProjDoc.obj
 0002:00002dcc       ??_C@_1BI@MPMIOEGD@?$AAC?$AAt?$AAr?$AAl?$AA?$CL?$AAC?$AA?5?$AAE?$AAx?$AAi?$AAt?$AA?$AA@ 0040edcc     WDBGProjDoc.obj
 0002:00002de4       ??_C@_1BO@JFNCBOAL@?$AAI?$AAn?$AAv?$AAa?$AAl?$AAi?$AAd?$AA?5?$AAH?$AAa?$AAn?$AAd?$AAl?$AAe?$AA?$AA@ 0040ede4     WDBGProjDoc.obj
 0002:00002e04       ??_C@_1BG@HNEKPFAA@?$AAG?$AAu?$AAa?$AAr?$AAd?$AA?5?$AAP?$AAa?$AAg?$AAe?$AA?$AA@ 0040ee04     WDBGProjDoc.obj
 0002:00002e1c       ??_C@_1CI@EOANOOF@?$AAI?$AAn?$AAv?$AAa?$AAl?$AAi?$AAd?$AA?5?$AAD?$AAi?$AAs?$AAp?$AAo?$AAs?$AAi?$AAt?$AAi?$AAo?$AAn?$AA?$AA@ 0040ee1c     WDBGProjDoc.obj
 0002:00002e44       ??_C@_1BO@DFNCENED@?$AAS?$AAt?$AAa?$AAc?$AAk?$AA?5?$AAO?$AAv?$AAe?$AAr?$AAf?$AAl?$AAo?$AAw?$AA?$AA@ 0040ee44     WDBGProjDoc.obj
 0002:00002e64       ??_C@_1DC@OANJAFCP@?$AAN?$AAo?$AAn?$AAc?$AAo?$AAn?$AAt?$AAi?$AAn?$AAu?$AAa?$AAb?$AAl?$AAe?$AA?5?$AAe?$AAx?$AAc?$AAe?$AAp@ 0040ee64     WDBGProjDoc.obj
 0002:00002e98       ??_C@_1CI@IAONCADD@?$AAI?$AAl?$AAl?$AAe?$AAg?$AAa?$AAl?$AA?5?$AAI?$AAn?$AAs?$AAt?$AAr?$AAu?$AAc?$AAt?$AAi?$AAo?$AAn?$AA?$AA@ 0040ee98     WDBGProjDoc.obj
 0002:00002ec0       ??_C@_1BM@EFLPPHLN@?$AAP?$AAa?$AAg?$AAe?$AA?5?$AAI?$AAn?$AA?5?$AAE?$AAr?$AAr?$AAo?$AAr?$AA?$AA@ 0040eec0     WDBGProjDoc.obj
 0002:00002edc       ??_C@_1CO@CJGDDAFH@?$AAP?$AAr?$AAi?$AAv?$AAi?$AAl?$AAe?$AAg?$AAe?$AAd?$AA?5?$AAI?$AAn?$AAs?$AAt?$AAr?$AAu?$AAc?$AAt?$AAi@ 0040eedc     WDBGProjDoc.obj
 0002:00002f0c       ??_C@_1CC@BKHNJIBL@?$AAI?$AAn?$AAt?$AAe?$AAg?$AAe?$AAr?$AA?5?$AAO?$AAv?$AAe?$AAr?$AAf?$AAl?$AAo?$AAw?$AA?$AA@ 0040ef0c     WDBGProjDoc.obj
 0002:00002f30       ??_C@_1CO@LJJBDOMI@?$AAI?$AAn?$AAt?$AAe?$AAg?$AAe?$AAr?$AA?5?$AAD?$AAi?$AAv?$AAi?$AAd?$AAe?$AA?5?$AAB?$AAy?$AA?5?$AAZ?$AAe@ 0040ef30     WDBGProjDoc.obj
 0002:00002f60       ??_C@_1DC@ENDEBBLB@?$AAF?$AAl?$AAo?$AAa?$AAt?$AAi?$AAn?$AAg?$AA?9?$AAP?$AAo?$AAi?$AAn?$AAt?$AA?5?$AAU?$AAn?$AAd?$AAe?$AAr@ 0040ef60     WDBGProjDoc.obj
 0002:00002f94       ??_C@_1DG@PGMFFNDO@?$AAF?$AAl?$AAo?$AAa?$AAt?$AAi?$AAn?$AAg?$AA?9?$AAP?$AAo?$AAi?$AAn?$AAt?$AA?5?$AAS?$AAt?$AAa?$AAc?$AAk@ 0040ef94     WDBGProjDoc.obj
 0002:00002fcc       ??_C@_1DA@CDGELGCG@?$AAF?$AAl?$AAo?$AAa?$AAt?$AAi?$AAn?$AAg?$AA?9?$AAP?$AAo?$AAi?$AAn?$AAt?$AA?5?$AAO?$AAv?$AAe?$AAr?$AAf@ 0040efcc     WDBGProjDoc.obj
 0002:00003000       ??_C@_1EC@NGCEFILA@?$AAF?$AAl?$AAo?$AAa?$AAt?$AAi?$AAn?$AAg?$AA?9?$AAP?$AAo?$AAi?$AAn?$AAt?$AA?5?$AAI?$AAn?$AAv?$AAa?$AAl@ 0040f000     WDBGProjDoc.obj
 0002:00003044       ??_C@_1DM@FMGFEPKG@?$AAF?$AAl?$AAo?$AAa?$AAt?$AAi?$AAn?$AAg?$AA?9?$AAP?$AAo?$AAi?$AAn?$AAt?$AA?5?$AAI?$AAn?$AAe?$AAx?$AAa@ 0040f044     WDBGProjDoc.obj
 0002:00003080       ??_C@_1DM@LONEHBFI@?$AAF?$AAl?$AAo?$AAa?$AAt?$AAi?$AAn?$AAg?$AA?9?$AAP?$AAo?$AAi?$AAn?$AAt?$AA?5?$AAD?$AAi?$AAv?$AAi?$AAd@ 0040f080     WDBGProjDoc.obj
 0002:000030c0       ??_C@_1EA@IDLJDPLC@?$AAF?$AAl?$AAo?$AAa?$AAt?$AAi?$AAn?$AAg?$AA?9?$AAP?$AAo?$AAi?$AAn?$AAt?$AA?5?$AAD?$AAe?$AAn?$AAo?$AAr@ 0040f0c0     WDBGProjDoc.obj
 0002:00003100       ??_C@_1CM@OCDKBOCE@?$AAA?$AAr?$AAr?$AAa?$AAy?$AA?5?$AAB?$AAo?$AAu?$AAn?$AAd?$AAs?$AA?5?$AAE?$AAx?$AAc?$AAe?$AAe?$AAd?$AAe@ 0040f100     WDBGProjDoc.obj
 0002:0000312c       ??_C@_1BI@EGCHGLFC@?$AAS?$AAi?$AAn?$AAg?$AAl?$AAe?$AA?5?$AAS?$AAt?$AAe?$AAp?$AA?$AA@ 0040f12c     WDBGProjDoc.obj
 0002:00003144       ??_C@_1BG@PMJILEPB@?$AAB?$AAr?$AAe?$AAa?$AAk?$AAp?$AAo?$AAi?$AAn?$AAt?$AA?$AA@ 0040f144     WDBGProjDoc.obj
 0002:0000315c       ??_C@_1CM@PCLGODOP@?$AAD?$AAa?$AAt?$AAa?$AAt?$AAy?$AAp?$AAe?$AA?5?$AAM?$AAi?$AAs?$AAa?$AAl?$AAi?$AAg?$AAn?$AAm?$AAe?$AAn@ 0040f15c     WDBGProjDoc.obj
 0002:00003188       ??_C@_1CC@PBBAJMDJ@?$AAA?$AAc?$AAc?$AAe?$AAs?$AAs?$AA?5?$AAV?$AAi?$AAo?$AAl?$AAa?$AAt?$AAi?$AAo?$AAn?$AA?$AA@ 0040f188     WDBGProjDoc.obj
 0002:000031ac       ??_C@_1CI@JMPPBHOA@?$AA?$AN?$AA?6?$AA?$DO?$AA?$DO?$AAS?$AAi?$AAn?$AAg?$AAl?$AAe?$AA?5?$AAS?$AAt?$AAe?$AAp?$AA?$CB?$AA?$CB?$AA?$AN?$AA?6?$AA?$AA@ 0040f1ac     WDBGProjDoc.obj
 0002:000031d4       ??_C@_1DM@JAOCCIIA@?$AA?$DO?$AA?$DO?$AAB?$AAr?$AAe?$AAa?$AAk?$AA?5?$AAd?$AAu?$AAe?$AA?5?$AAt?$AAo?$AA?5?$AAm?$AAa?$AAn?$AAu?$AAa@ 0040f1d4     WDBGProjDoc.obj
 0002:00003210       ??_C@_1EE@ILIINPHE@?$AAG?$AAe?$AAt?$AAT?$AAh?$AAr?$AAe?$AAa?$AAd?$AAC?$AAo?$AAn?$AAt?$AAe?$AAx?$AAt?$AA?5?$AAf?$AAa?$AAi@ 0040f210     WDBGProjDoc.obj
 0002:00003254       ??_C@_1DC@BMFFLKGO@?$AA?$DO?$AA?$DO?$AAS?$AAt?$AAo?$AAp?$AAp?$AAe?$AAd?$AA?5?$AAa?$AAt?$AA?5?$AAl?$AAo?$AAa?$AAd?$AAe?$AAr?$AA?5@ 0040f254     WDBGProjDoc.obj
 0002:00003288       ??_C@_1CA@PAIAFFE@?$AA_?$AAN?$AAT?$AA_?$AAS?$AAY?$AAM?$AAB?$AAO?$AAL?$AA_?$AAP?$AAA?$AAT?$AAH?$AA?$AA@ 0040f288     WDBGProjDoc.obj
 0002:000032a8       ??_C@_1DA@CBMEBCFG@?$AAW?$AAD?$AAB?$AAG?$AA_?$AAH?$AAa?$AAp?$AAp?$AAy?$AA_?$AAS?$AAy?$AAn?$AAc?$AAh?$AA_?$AAE?$AAv?$AAe@ 0040f2a8     WDBGProjDoc.obj
 0002:000032d8       ??_C@_1M@JLALLHEG@?$AA?$FL?$AAR?$AAu?$AAn?$AA?$FN?$AA?$AA@ 0040f2d8     WDBGProjDoc.obj
 0002:000032e4       ??_C@_1BA@JJLLDMLD@?$AA?$FL?$AAB?$AAr?$AAe?$AAa?$AAk?$AA?$FN?$AA?$AA@ 0040f2e4     WDBGProjDoc.obj
 0002:000032f4       ??_C@_1DG@PLDIEFPC@?$AAU?$AAn?$AAa?$AAb?$AAl?$AAe?$AA?5?$AAt?$AAo?$AA?5?$AAc?$AAr?$AAe?$AAa?$AAt?$AAe?$AA?5?$AAf?$AAi?$AAl@ 0040f2f4     WDBGProjDoc.obj
 0002:0000332c       ??_C@_19LEMNCGMF@?$AA?4?$AAw?$AAp?$AAj?$AA?$AA@ 0040f32c     WDBGProjDoc.obj
 0002:00003338       ??_C@_19DOGDICKI@?$AA?4?$AAe?$AAx?$AAe?$AA?$AA@ 0040f338     WDBGProjDoc.obj
 0002:00003344       ??_C@_19GEMBODHK@?$AA?4?$AAo?$AAc?$AAx?$AA?$AA@ 0040f344     WDBGProjDoc.obj
 0002:00003350       ??_C@_19BHIGINDB@?$AA?4?$AAd?$AAl?$AAl?$AA?$AA@ 0040f350     WDBGProjDoc.obj
 0002:0000335c       ??_C@_1M@FEDKBPCI@?$AA?$CK?$AA?4?$AAe?$AAx?$AAe?$AA?$AA@ 0040f35c     WDBGProjDoc.obj
 0002:00003368       ??_C@_1DI@NKEMAJAO@?$AAE?$AAx?$AAe?$AAc?$AAu?$AAt?$AAa?$AAb?$AAl?$AAe?$AA?5?$AAp?$AAr?$AAo?$AAg?$AAr?$AAa?$AAm?$AAs?$AA?5@ 0040f368     WDBGProjDoc.obj
 0002:000033a0       ??_C@_1EC@CLCKACKH@?$AAU?$AAn?$AAa?$AAb?$AAl?$AAe?$AA?5?$AAt?$AAo?$AA?5?$AAl?$AAo?$AAa?$AAd?$AA?5?$AAI?$AAD?$AAS?$AA_?$AAT@ 0040f3a0     WDBGProjDoc.obj
 0002:000033e8       ??_C@_1EC@DMPLMCBA@?$AAU?$AAn?$AAa?$AAb?$AAl?$AAe?$AA?5?$AAt?$AAo?$AA?5?$AAl?$AAo?$AAa?$AAd?$AA?5?$AAI?$AAD?$AAS?$AA_?$AAT@ 0040f3e8     WDBGProjDoc.obj
 0002:0000342c       ??_C@_1DM@IIDLLACK@?$AAU?$AAn?$AAa?$AAb?$AAl?$AAe?$AA?5?$AAt?$AAo?$AA?5?$AAl?$AAo?$AAa?$AAd?$AA?5?$AAI?$AAD?$AAS?$AA_?$AAM@ 0040f42c     WDBGProjDoc.obj
 0002:00003468       ??_C@_1DM@MILPIGHJ@?$AAU?$AAn?$AAa?$AAb?$AAl?$AAe?$AA?5?$AAt?$AAo?$AA?5?$AAl?$AAo?$AAa?$AAd?$AA?5?$AAI?$AAD?$AAS?$AA_?$AAM@ 0040f468     WDBGProjDoc.obj
 0002:000034a4       ?messageMap@CWDBGProjDoc@@1UAFX_MSGMAP@@B 0040f4a4     WDBGProjDoc.obj
 0002:000034b0       ?_messageEntries@CWDBGProjDoc@@0QBUAFX_MSGMAP_ENTRY@@B 0040f4b0     WDBGProjDoc.obj
 0002:00003678       ?classCWDBGProjDoc@CWDBGProjDoc@@2UCRuntimeClass@@B 0040f678     WDBGProjDoc.obj
 0002:00003694       ??_C@_0N@ODNOLPBB@CWDBGProjDoc?$AA@ 0040f694     WDBGProjDoc.obj
 0002:000036a4       ??_C@_15JNBOKNOG@?$AA?$AN?$AA?6?$AA?$AA@ 0040f6a4     WDBGProjDoc.obj
 0002:000036ac       ??_7CDebugBaseUser@@6B@    0040f6ac     WDBGUser.obj
 0002:000036e4       ??_C@_1DC@JJPELHAF@?$AAD?$AAL?$AAL?$AA?5?$AAU?$AAn?$AAl?$AAo?$AAa?$AAd?$AAe?$AAd?$AA?5?$AAf?$AAr?$AAo?$AAm?$AA?5?$AA0?$AAx@ 0040f6e4     WDBGUser.obj
 0002:00003718       ??_C@_1EM@DJAHPPEL@?$AA?8?$AA?$CF?$AAs?$AA?8?$AA?5?$AAl?$AAo?$AAa?$AAd?$AAe?$AAd?$AA?5?$AAa?$AAt?$AA?5?$AA0?$AAx?$AA?$CF?$AA0?$AA8@ 0040f718     WDBGUser.obj
 0002:00003768       ??_C@_1EK@MBPGCNOJ@?$AAT?$AAh?$AAr?$AAe?$AAa?$AAd?$AA?5?$AA0?$AAx?$AA?$CF?$AA0?$AA8?$AAX?$AA?5?$AAe?$AAx?$AAi?$AAt?$AAe?$AAd@ 0040f768     WDBGUser.obj
 0002:000037b4       ??_C@_1CM@HCILPG@?$AAT?$AAh?$AAr?$AAe?$AAa?$AAd?$AA?5?$AA0?$AAx?$AA?$CF?$AA0?$AA8?$AAX?$AA?5?$AAc?$AAr?$AAe?$AAa?$AAt?$AAe@ 0040f7b4     WDBGUser.obj
 0002:000037e0       ??_C@_13LBAGMAIH@?$AA?6?$AA?$AA@ 0040f7e0     WDBGUser.obj
 0002:000037e4       ??_7CWDBGUser@@6B@         0040f7e4     WDBGUser.obj
 0002:00003820       ??_C@_1EG@BCJFAFNK@?$AAP?$AAr?$AAo?$AAc?$AAe?$AAs?$AAs?$AA?5?$AAe?$AAx?$AAi?$AAt?$AAe?$AAd?$AA?5?$AAa?$AAn?$AAd?$AA?5?$AAr@ 0040f820     WDBGUser.obj
 0002:00003868       ??_C@_1BI@NIJBKGEB@?$AAD?$AAB?$AAG?$AAH?$AAE?$AAL?$AAP?$AA?4?$AAD?$AAL?$AAL?$AA?$AA@ 0040f868     SymbolEngine_Release:SymbolEngine.obj
 0002:00003880       ??_C@_0P@CICBGLGA@SymGetTypeInfo?$AA@ 0040f880     SymbolEngine_Release:SymbolEngine.obj
 0002:00003890       ??_C@_0O@HMGGMGDA@SymSetContext?$AA@ 0040f890     SymbolEngine_Release:SymbolEngine.obj
 0002:000038a0       ??_C@_0P@HOFLHHNH@SymEnumSymbols?$AA@ 0040f8a0     SymbolEngine_Release:SymbolEngine.obj
 0002:000038b0       ??_C@_19IEAEFCGC@?$AA?$DP?$AA?$DP?$AA?$DP?$AA?$DP?$AA?$AA@ 0040f8b0     SymbolEngine_Release:SymbolEngine.obj
 0002:000038bc       ??_C@_19EGBFBMDH@?$AA?$FL?$AA?$CF?$AAd?$AA?$FN?$AA?$AA@ 0040f8bc     SymbolEngine_Release:SymbolEngine.obj
 0002:000038c8       ??_C@_1O@NPOMLEPH@?$AA?$FL?$AA0?$AAx?$AA?$CF?$AAX?$AA?$FN?$AA?$AA@ 0040f8c8     SymbolEngine_Release:SymbolEngine.obj
 0002:000038d8       ??_C@_1BA@MODDICOM@?$AA_?$AA_?$AAv?$AAf?$AAp?$AAt?$AAr?$AA?$AA@ 0040f8d8     SymbolEngine_Release:TypeDecoding.obj
 0002:000038e8       ??_C@_15JEKLLLNO@?$AA?5?$AA?$CJ?$AA?$AA@ 0040f8e8     SymbolEngine_Release:TypeDecoding.obj
 0002:000038f0       ??_C@_17LDPHCILD@?$AA?5?$AA?0?$AA?5?$AA?$AA@ 0040f8f0     SymbolEngine_Release:TypeDecoding.obj
 0002:000038f8       ??_C@_17CIGGGKKF@?$AA?5?$AA?$CI?$AA?5?$AA?$AA@ 0040f8f8     SymbolEngine_Release:TypeDecoding.obj
 0002:00003900       ??_C@_15IGBOBEDA@?$AA?5?$AA?$CK?$AA?$AA@ 0040f900     SymbolEngine_Release:TypeDecoding.obj
 0002:00003908       ??_C@_1CM@OBGCDIHE@?$AA?$CK?$AA?$CK?$AAU?$AAN?$AAK?$AAN?$AAO?$AAW?$AAN?$AA?5?$AAB?$AAa?$AAs?$AAi?$AAc?$AAT?$AAy?$AAp?$AAe?$AA?$CK@ 0040f908     SymbolEngine_Release:TypeDecoding.obj
 0002:00003934       ??_C@_1BA@FDJMIAME@?$AAH?$AAR?$AAE?$AAS?$AAU?$AAL?$AAT?$AA?$AA@ 0040f934     SymbolEngine_Release:TypeDecoding.obj
 0002:00003944       ??_C@_19KLIIDJPJ@?$AAB?$AAS?$AAT?$AAR?$AA?$AA@ 0040f944     SymbolEngine_Release:TypeDecoding.obj
 0002:00003950       ??_C@_17MDLFOOAJ@?$AAb?$AAi?$AAt?$AA?$AA@ 0040f950     SymbolEngine_Release:TypeDecoding.obj
 0002:00003958       ??_C@_1BA@DLBJOOMD@?$AAC?$AAO?$AAM?$AAP?$AAL?$AAE?$AAX?$AA?$AA@ 0040f958     SymbolEngine_Release:TypeDecoding.obj
 0002:00003968       ??_C@_1BA@HCNPNKMO@?$AAV?$AAA?$AAR?$AAI?$AAA?$AAN?$AAT?$AA?$AA@ 0040f968     SymbolEngine_Release:TypeDecoding.obj
 0002:00003978       ??_C@_19FFMGBAMO@?$AAD?$AAA?$AAT?$AAE?$AA?$AA@ 0040f978     SymbolEngine_Release:TypeDecoding.obj
 0002:00003984       ??_C@_1BC@BHIHGHLA@?$AAC?$AAU?$AAR?$AAR?$AAE?$AAN?$AAC?$AAY?$AA?$AA@ 0040f984     SymbolEngine_Release:TypeDecoding.obj
 0002:00003998       ??_C@_1BM@KCKOECLL@?$AAu?$AAn?$AAs?$AAi?$AAg?$AAn?$AAe?$AAd?$AA?5?$AAl?$AAo?$AAn?$AAg?$AA?$AA@ 0040f998     SymbolEngine_Release:TypeDecoding.obj
 0002:000039b4       ??_C@_19EKGKGAPA@?$AAl?$AAo?$AAn?$AAg?$AA?$AA@ 0040f9b4     SymbolEngine_Release:TypeDecoding.obj
 0002:000039c0       ??_C@_19EIPOAEOH@?$AAb?$AAo?$AAo?$AAl?$AA?$AA@ 0040f9c0     SymbolEngine_Release:TypeDecoding.obj
 0002:000039cc       ??_C@_17GMNPFCKO@?$AAB?$AAC?$AAD?$AA?$AA@ 0040f9cc     SymbolEngine_Release:TypeDecoding.obj
 0002:000039d4       ??_C@_1M@KGKAENKF@?$AAf?$AAl?$AAo?$AAa?$AAt?$AA?$AA@ 0040f9d4     SymbolEngine_Release:TypeDecoding.obj
 0002:000039e0       ??_C@_1BE@GBJLPOH@?$AAu?$AAn?$AAs?$AAi?$AAg?$AAn?$AAe?$AAd?$AA?5?$AA?$AA@ 0040f9e0     SymbolEngine_Release:TypeDecoding.obj
 0002:000039f4       ??_C@_17IDNKMCOH@?$AAi?$AAn?$AAt?$AA?$AA@ 0040f9f4     SymbolEngine_Release:TypeDecoding.obj
 0002:000039fc       ??_C@_1M@LOLCAHAG@?$AAs?$AAh?$AAo?$AAr?$AAt?$AA?$AA@ 0040f9fc     SymbolEngine_Release:TypeDecoding.obj
 0002:00003a08       ??_C@_1O@KAHOIPCF@?$AA_?$AAi?$AAn?$AAt?$AA6?$AA4?$AA?$AA@ 0040fa08     SymbolEngine_Release:TypeDecoding.obj
 0002:00003a18       ??_C@_1BA@CGOMDLII@?$AAw?$AAc?$AAh?$AAa?$AAr?$AA_?$AAt?$AA?$AA@ 0040fa18     SymbolEngine_Release:TypeDecoding.obj
 0002:00003a28       ??_C@_19CHDFCHBM@?$AAc?$AAh?$AAa?$AAr?$AA?$AA@ 0040fa28     SymbolEngine_Release:TypeDecoding.obj
 0002:00003a34       ??_C@_19HFFGOOIH@?$AAv?$AAo?$AAi?$AAd?$AA?$AA@ 0040fa34     SymbolEngine_Release:TypeDecoding.obj
 0002:00003a40       ??_C@_1CA@BCKPDCDN@?$AA?$CK?$AA?$CK?$AA?$CK?$AA?5?$AAN?$AAO?$AA?5?$AAT?$AAY?$AAP?$AAE?$AA?5?$AA?$CK?$AA?$CK?$AA?$CK?$AA?$AA@ 0040fa40     SymbolEngine_Release:TypeDecoding.obj
 0002:00003a60       ??_C@_1BG@KFBJNGFO@?$AAC?$AAO?$AAM?$AAP?$AAL?$AAE?$AAX?$AA?5?$AA?$CF?$AAX?$AA?$AA@ 0040fa60     SymbolEngine_Release:ValueDecoding.obj
 0002:00003a78       ??_C@_1BA@NCPNGEFJ@?$AAD?$AAA?$AAT?$AAE?$AA?5?$AA?$CF?$AAX?$AA?$AA@ 0040fa78     SymbolEngine_Release:ValueDecoding.obj
 0002:00003a88       ??_C@_1BI@PIJBFCMB@?$AAC?$AAU?$AAR?$AAR?$AAE?$AAN?$AAC?$AAY?$AA?5?$AA?$CF?$AAX?$AA?$AA@ 0040fa88     SymbolEngine_Release:ValueDecoding.obj
 0002:00003aa0       ??_C@_17IJMNDCL@?$AA?$CF?$AAl?$AAu?$AA?$AA@ 0040faa0     SymbolEngine_Release:ValueDecoding.obj
 0002:00003aa8       ??_C@_1M@LFIEEOKG@?$AA0?$AAx?$AA?$CF?$AAl?$AAX?$AA?$AA@ 0040faa8     SymbolEngine_Release:ValueDecoding.obj
 0002:00003ab4       ??_C@_1O@MMGGCPIE@?$AA0?$AAx?$AA?$CF?$AA0?$AA2?$AAX?$AA?$AA@ 0040fab4     SymbolEngine_Release:ValueDecoding.obj
 0002:00003ac4       ??_C@_1BC@LPFAAJCE@?$AAB?$AAC?$AAD?$AA?5?$AA?3?$AA?5?$AA?$CF?$AAX?$AA?$AA@ 0040fac4     SymbolEngine_Release:ValueDecoding.obj
 0002:00003ad8       ??_C@_15EFLNJKHH@?$AA?$CF?$AAu?$AA?$AA@ 0040fad8     SymbolEngine_Release:ValueDecoding.obj
 0002:00003ae0       ??_C@_17JDANJBDN@?$AA?$CF?$AAh?$AAu?$AA?$AA@ 0040fae0     SymbolEngine_Release:ValueDecoding.obj
 0002:00003ae8       ??_C@_1M@OGLPPGPN@?$AA?$CF?$AAI?$AA6?$AA4?$AAu?$AA?$AA@ 0040fae8     SymbolEngine_Release:ValueDecoding.obj
 0002:00003af4       ??_C@_17HLKIKBMH@?$AA?$CF?$AAh?$AAd?$AA?$AA@ 0040faf4     SymbolEngine_Release:ValueDecoding.obj
 0002:00003afc       ??_C@_1M@COBFAMLA@?$AA0?$AAx?$AA?$CF?$AAh?$AAX?$AA?$AA@ 0040fafc     SymbolEngine_Release:ValueDecoding.obj
 0002:00003b08       ??_C@_1M@OBKMGAH@?$AA?$CF?$AAI?$AA6?$AA4?$AAd?$AA?$AA@ 0040fb08     SymbolEngine_Release:ValueDecoding.obj
 0002:00003b14       ??_C@_1BA@LKHOELE@?$AA0?$AAx?$AA?$CF?$AAI?$AA6?$AA4?$AAX?$AA?$AA@ 0040fb14     SymbolEngine_Release:ValueDecoding.obj
 0002:00003b24       ??_C@_19LDOHAJGB@?$AA?8?$AA?$CF?$AAc?$AA?8?$AA?$AA@ 0040fb24     SymbolEngine_Release:ValueDecoding.obj
 0002:00003b30       ??_C@_19IKOCPJID@?$AA?8?$AA?2?$AA0?$AA?8?$AA?$AA@ 0040fb30     SymbolEngine_Release:ValueDecoding.obj
 0002:00003b3c       ??_C@_19LEELAMFH@?$AA?8?$AA?$CF?$AAC?$AA?8?$AA?$AA@ 0040fb3c     SymbolEngine_Release:ValueDecoding.obj
 0002:00003b48       ??_C@_19DHGNKLIN@?$AA0?$AAx?$AA?$CF?$AAp?$AA?$AA@ 0040fb48     SymbolEngine_Release:ValueDecoding.obj
 0002:00003b54       ??_C@_15HBBGCAG@?$AA?$CF?$AAf?$AA?$AA@ 0040fb54     SymbolEngine_Release:ValueDecoding.obj
 0002:00003b5c       ??_C@_15LFJGGCNG@?$AA?$CF?$AAE?$AA?$AA@ 0040fb5c     SymbolEngine_Release:ValueDecoding.obj
 0002:00003b64       ??_C@_1BA@EGPGOCPE@?$AA0?$AAx?$AA?$CF?$AA0?$AA1?$AA6?$AAX?$AA?$AA@ 0040fb64     SymbolEngine_Release:ValueDecoding.obj
 0002:00003b74       ??_C@_1BE@BMBBKFEH@?$AA0?$AAx?$AA?$CF?$AA0?$AA1?$AA6?$AAX?$AA?5?$AA?$CI?$AA?$AA@ 0040fb74     SymbolEngine_Release:ValueDecoding.obj
 0002:00003b88       ??_C@_1BC@IFFHHACF@?$AA0?$AAx?$AA?$CF?$AA0?$AA8?$AAX?$AA?5?$AA?$CI?$AA?$AA@ 0040fb88     SymbolEngine_Release:ValueDecoding.obj
 0002:00003b9c       ??_C@_1M@HLGKFCJM@?$AAf?$AAa?$AAl?$AAs?$AAe?$AA?$AA@ 0040fb9c     SymbolEngine_Release:ValueDecoding.obj
 0002:00003ba8       ??_C@_19FKLFLPMF@?$AAt?$AAr?$AAu?$AAe?$AA?$AA@ 0040fba8     SymbolEngine_Release:ValueDecoding.obj
 0002:00003bb4       ??_C@_1CC@JCGNCPAG@?$AAu?$AAn?$AAs?$AAi?$AAg?$AAn?$AAe?$AAd?$AA?5?$AAs?$AAh?$AAo?$AAr?$AAt?$AA?5?$AA?$CK?$AA?$AA@ 0040fbb4     SymbolEngine_Release:ValueDecoding.obj
 0002:00003bd8       ??_C@_1BE@OIDGOHNE@?$AAw?$AAc?$AAh?$AAa?$AAr?$AA_?$AAt?$AA?5?$AA?$CK?$AA?$AA@ 0040fbd8     SymbolEngine_Release:ValueDecoding.obj
 0002:00003bec       ??_C@_1O@OINFIFPD@?$AAc?$AAh?$AAa?$AAr?$AA?5?$AA?$CK?$AA?$AA@ 0040fbec     SymbolEngine_Release:ValueDecoding.obj
 0002:00003bfc       ??_C@_1BE@FIKDMCLL@?$AA0?$AAx?$AA0?$AA1?$AA6?$AAI?$AA6?$AA4?$AAX?$AA?$AA@ 0040fbfc     SymbolEngine_Release:ValueDecoding.obj
 0002:00003c10       ??_C@_15KNBIKKIN@?$AA?$CF?$AAd?$AA?$AA@ 0040fc10     SymbolEngine_Release:ValueDecoding.obj
 0002:00003c18       ??_C@_19FCOLCMFM@?$AA0?$AAx?$AA?$CF?$AAX?$AA?$AA@ 0040fc18     SymbolEngine_Release:ValueDecoding.obj
 0002:00003c24       ??_C@_13DIBMAFH@?$AA?$CJ?$AA?$AA@ 0040fc24     SymbolEngine_Release:ValueDecoding.obj
 0002:00003c28       ??_C@_19IDIKHDLL@?$AA?$CF?$AAd?$AA?5?$AA?$CI?$AA?$AA@ 0040fc28     SymbolEngine_Release:ValueDecoding.obj
 0002:00003c34       ??_C@_1O@OKEJJHIG@?$AA0?$AAx?$AA?$CF?$AAX?$AA?5?$AA?$CI?$AA?$AA@ 0040fc34     SymbolEngine_Release:ValueDecoding.obj
 0002:00003c44       ??_C@_13NEIAEHFG@?$AA?$CC?$AA?$AA@ 0040fc44     SymbolEngine_Release:ValueDecoding.obj
 0002:00003c48       ??_C@_15EDKKDMNP@?$AA?5?$AA?$CC?$AA?$AA@ 0040fc48     SymbolEngine_Release:ValueDecoding.obj
 0002:00003c50       __load_config_used         0040fc50     msvcrt:loadcfg.obj
 0002:00003cd8       ??_R1A@?0A@A@type_info@@8  0040fcd8     msvcrt:ti_inst.obj
 0002:00003cf0       ??_R2type_info@@8          0040fcf0     msvcrt:ti_inst.obj
 0002:00003cf8       ??_R3type_info@@8          0040fcf8     msvcrt:ti_inst.obj
 0002:00003d08       ??_R4type_info@@6B@        0040fd08     msvcrt:ti_inst.obj
 0002:00003d20       ___safe_se_handler_table   0040fd20     <linker-defined>
 0002:00003e04       ___rtc_iaa                 0040fe04     msvcrt:initsect.obj
 0002:00003e08       ___rtc_izz                 0040fe08     msvcrt:initsect.obj
 0002:00003e0c       ___rtc_taa                 0040fe0c     msvcrt:initsect.obj
 0002:00003e10       ___rtc_tzz                 0040fe10     msvcrt:initsect.obj
 0002:00003e18       __TI3?AVlength_error@std@@ 0040fe18     WDBGProjDoc.obj
 0002:00003e28       __CTA3?AVlength_error@std@@ 0040fe28     WDBGProjDoc.obj
 0002:00003e38       __CT??_R0?AVexception@@@8??0exception@@QAE@ABV0@@Z12 0040fe38     WDBGProjDoc.obj
 0002:00003e54       __CT??_R0?AVlogic_error@std@@@8??0logic_error@std@@QAE@ABV01@@Z40 0040fe54     WDBGProjDoc.obj
 0002:00003e70       __CT??_R0?AVlength_error@std@@@8??0length_error@std@@QAE@ABV01@@Z40 0040fe70     WDBGProjDoc.obj
 0002:00004ab8       __IMPORT_DESCRIPTOR_LocalDebug 00410ab8     LocalDebug:LocalDebug.dll
 0002:00004acc       __IMPORT_DESCRIPTOR_BugslayerUtil 00410acc     BugslayerUtil:BugslayerUtil.dll
 0002:00004ae0       __IMPORT_DESCRIPTOR_LocalAssist 00410ae0     LocalAssist:LocalAssist.dll
 0002:00004af4       __IMPORT_DESCRIPTOR_i386CPUHelp 00410af4     i386CPUHelp:i386CPUHelp.dll
 0002:00004b08       __IMPORT_DESCRIPTOR_MFC71U 00410b08     mfc71u:MFC71U.DLL
 0002:00004b1c       __IMPORT_DESCRIPTOR_MSVCR71 00410b1c     msvcrt:MSVCR71.dll
 0002:00004b30       __IMPORT_DESCRIPTOR_KERNEL32 00410b30     kernel32:KERNEL32.dll
 0002:00004b44       __IMPORT_DESCRIPTOR_USER32 00410b44     user32:USER32.dll
 0002:00004b58       __IMPORT_DESCRIPTOR_SHELL32 00410b58     shell32:SHELL32.dll
 0002:00004b6c       __IMPORT_DESCRIPTOR_MSVCP71 00410b6c     msvcprt:MSVCP71.dll
 0002:00004b80       __IMPORT_DESCRIPTOR_dbghelp 00410b80     dbghelp:dbghelp.dll
 0002:00004b94       __NULL_IMPORT_DESCRIPTOR   00410b94     LocalDebug:LocalDebug.dll
 0003:00000000       ___xc_a                    00412000     msvcrt:cinitexe.obj
 0003:00000018       ___xc_z                    00412018     msvcrt:cinitexe.obj
 0003:0000001c       ___xi_a                    0041201c     msvcrt:cinitexe.obj
 0003:00000020       ___xi_z                    00412020     msvcrt:cinitexe.obj
 0003:00000030       ??_R0?AVtype_info@@@8      00412030     msvcrt:ti_inst.obj
 0003:00000048       ___security_cookie         00412048     msvcrt:seccook.obj
 0003:0000004c       ___defaultmatherr          0041204c     msvcrt:merr.obj
 0003:00000050       ?classCLocationBP@CLocationBP@@2UCRuntimeClass@@A 00412050     Breakpoint.obj
 0003:0000007c       ??_R0?AVexception@@@8      0041207c     WDBGProjDoc.obj
 0003:00000094       ??_R0?AVlogic_error@std@@@8 00412094     WDBGProjDoc.obj
 0003:000000b4       ??_R0?AVlength_error@std@@@8 004120b4     WDBGProjDoc.obj
 0003:000000d4       ??_R0PAVCFileException@@@8 004120d4     WDBGProjDoc.obj
 0003:00000100       __afxForceEXCLUDE          00412100     mfcs71u:nolib.obj
 0003:00000104       __afxForceSTDAFX           00412104     mfcs71u:stdafx.obj
 0003:00000108       __dowildcard               00412108     msvcrt:wildcard.obj
 0003:0000010c       __newmode                  0041210c     msvcrt:_newmode.obj
 0003:00000110       __commode                  00412110     msvcrt:xncommod.obj
 0003:00000114       __fmode                    00412114     msvcrt:xtxtmode.obj
 0003:00000118       ?_AtlBaseModule@ATL@@3VCAtlBaseModule@1@A 00412118     atls:atlbase.obj
 0003:00000154       ?_afxInitAppState@@3DA     00412154     mfcs71u:appmodul.obj
 0003:00000155       ?m_bInitFailed@CAtlBaseModule@ATL@@2_NA 00412155     StdAfx.obj
 0003:00000158       ?_init_CLocationBP@@3UAFX_CLASSINIT@@A 00412158     Breakpoint.obj
 0003:00000160       ?theApp@@3VCWDBGApp@@A     00412160     WDBG.obj
 0003:00000208       __adjust_fdiv              00412208     <common>
 0003:0000020c       ___onexitend               0041220c     <common>
 0003:00000210       ___onexitbegin             00412210     <common>

 entry point at        0001:00009ea6

 Static symbols

 0001:00002f0a       ?BrowseForEXE@@YAHPBGAAV?$CStringT@GV?$StrTraitMFC_DLL@GV?$ChTraitsCRT@G@ATL@@@@@ATL@@@Z 00403f0a f   WDBGProjDoc.obj
 0001:00003300       $L131695                   00404300 f    CIL library: CIL module
 0001:00004160       ?ExceptToString@@YAPBGK@Z  00405160 f   WDBGProjDoc.obj
 0001:00004d54       ?SymCallBack@@YGHPAD_KKPAX@Z 00405d54 f   WDBGProjDoc.obj
 0001:00006062       $L130928                   00407062 f i  CIL library: CIL module
 0001:0000606b       $L130930                   0040706b f i  CIL library: CIL module
 0001:00006257       $L130573                   00407257 f i  CIL library: CIL module
 0001:00006263       $L130575                   00407263 f i  CIL library: CIL module
 0001:0000643a       $L130218                   0040743a f i  CIL library: CIL module
 0001:00006443       $L130220                   00407443 f i  CIL library: CIL module
 0001:00006643       $L129783                   00407643 f i  CIL library: CIL module
 0001:0000664c       $L129785                   0040764c f i  CIL library: CIL module
 0001:000075b8       ?Allocate@@YAPAGI@Z        004085b8 f   SymbolEngine_Release:JString.obj
 0001:000075cc       ?Deallocate@@YAHPAX@Z      004085cc f   SymbolEngine_Release:JString.obj
 0001:0000a158       _report_failure            0040b158 f   msvcrt:secchk.obj
 0001:0000a5b4       $L123560                   0040b5b4 f    CIL library: CIL module
 0001:0000a5bc       __ehhandler$??0CWDBGUser@@QAE@XZ 0040b5bc f    CIL library: CIL module
 0001:0000a5c6       $L123626                   0040b5c6 f    CIL library: CIL module
 0001:0000a5cf       __ehhandler$??0logic_error@std@@QAE@ABV?$basic_string@DU?$char_traits@D@std@@V?$allocator@D@2@@1@@Z 0040b5cf f    CIL library: CIL module
 0001:0000a5d9       $L124079                   0040b5d9 f    CIL library: CIL module
 0001:0000a5d9       $L123636                   0040b5d9 f    CIL library: CIL module
 0001:0000a5e2       __ehhandler$??1logic_error@std@@UAE@XZ 0040b5e2 f    CIL library: CIL module
 0001:0000a5e2       __ehhandler$??0logic_error@std@@QAE@ABV01@@Z 0040b5e2 f    CIL library: CIL module
 0001:0000a5ec       $L124990                   0040b5ec f    CIL library: CIL module
 0001:0000a5f5       $L124991                   0040b5f5 f    CIL library: CIL module
 0001:0000a5fe       __ehhandler$?SetPathName@CWDBGProjDoc@@UAEXPBGH@Z 0040b5fe f    CIL library: CIL module
 0001:0000a608       $L125012                   0040b608 f    CIL library: CIL module
 0001:0000a614       $L125013                   0040b614 f    CIL library: CIL module
 0001:0000a620       $L125014                   0040b620 f    CIL library: CIL module
 0001:0000a62c       __ehhandler$?SetTitle@CWDBGProjDoc@@UAEXPBG@Z 0040b62c f    CIL library: CIL module
 0001:0000a636       $L125053                   0040b636 f    CIL library: CIL module
 0001:0000a642       $L125054                   0040b642 f    CIL library: CIL module
 0001:0000a64d       $L125055                   0040b64d f    CIL library: CIL module
 0001:0000a659       $L125056                   0040b659 f    CIL library: CIL module
 0001:0000a665       __ehhandler$?BrowseForEXE@@YAHPBGAAV?$CStringT@GV?$StrTraitMFC_DLL@GV?$ChTraitsCRT@G@ATL@@@@@ATL@@@Z 0040b665 f    CIL library: CIL module
 0001:0000a66f       $L125321                   0040b66f f    CIL library: CIL module
 0001:0000a67a       $L125322                   0040b67a f    CIL library: CIL module
 0001:0000a686       $L125323                   0040b686 f    CIL library: CIL module
 0001:0000a692       $L125324                   0040b692 f    CIL library: CIL module
 0001:0000a69e       $L125325                   0040b69e f    CIL library: CIL module
 0001:0000a6aa       $L125326                   0040b6aa f    CIL library: CIL module
 0001:0000a6b6       $L125327                   0040b6b6 f    CIL library: CIL module
 0001:0000a6c2       $L125328                   0040b6c2 f    CIL library: CIL module
 0001:0000a6ce       __ehhandler$?OnFileOpen@CWDBGApp@@QAEXXZ 0040b6ce f    CIL library: CIL module
 0001:0000a6d8       $L125491                   0040b6d8 f    CIL library: CIL module
 0001:0000a6d8       $L125591                   0040b6d8 f    CIL library: CIL module
 0001:0000a6e0       __ehhandler$??1CThreadPickerDlg@@UAE@XZ 0040b6e0 f    CIL library: CIL module
 0001:0000a6e0       __ehhandler$??1CSymbolsDisplayDlg@@UAE@XZ 0040b6e0 f    CIL library: CIL module
 0001:0000a6ea       $L125631                   0040b6ea f    CIL library: CIL module
 0001:0000a6f2       $L125632                   0040b6f2 f    CIL library: CIL module
 0001:0000a6fe       $L125633                   0040b6fe f    CIL library: CIL module
 0001:0000a70a       $L125634                   0040b70a f    CIL library: CIL module
 0001:0000a719       __ehhandler$??0CProjectSettings@@QAE@PAVCWnd@@@Z 0040b719 f    CIL library: CIL module
 0001:0000a723       $L125703                   0040b723 f    CIL library: CIL module
 0001:0000a72c       $L125704                   0040b72c f    CIL library: CIL module
 0001:0000a735       __ehhandler$?OnInitDialog@CNewEditBPDlg@@MAEHXZ 0040b735 f    CIL library: CIL module
 0001:0000a73f       $L125734                   0040b73f f    CIL library: CIL module
 0001:0000a747       $L125735                   0040b747 f    CIL library: CIL module
 0001:0000a752       $L125736                   0040b752 f    CIL library: CIL module
 0001:0000a760       $L125737                   0040b760 f    CIL library: CIL module
 0001:0000a76e       $L125738                   0040b76e f    CIL library: CIL module
 0001:0000a77d       __ehhandler$??0CNewEditBPDlg@@QAE@HPAVCWDBGProjDoc@@PAVCWnd@@@Z 0040b77d f    CIL library: CIL module
 0001:0000a787       $L125863                   0040b787 f    CIL library: CIL module
 0001:0000a78f       $L125864                   0040b78f f    CIL library: CIL module
 0001:0000a79b       __ehhandler$??0CDocNotifyWnd@@QAE@XZ 0040b79b f    CIL library: CIL module
 0001:0000a7a5       $L125898                   0040b7a5 f    CIL library: CIL module
 0001:0000a7a5       $L125800                   0040b7a5 f    CIL library: CIL module
 0001:0000a7ad       $L125899                   0040b7ad f    CIL library: CIL module
 0001:0000a7ad       $L125801                   0040b7ad f    CIL library: CIL module
 0001:0000a7b9       __ehhandler$??0CMemoryDisplayDlg@@QAE@PAVCWnd@@@Z 0040b7b9 f    CIL library: CIL module
 0001:0000a7b9       __ehhandler$??0CDisasmDisplayDlg@@QAE@PAVCWnd@@@Z 0040b7b9 f    CIL library: CIL module
 0001:0000a7c3       $L126035                   0040b7c3 f    CIL library: CIL module
 0001:0000a7cb       $L126036                   0040b7cb f    CIL library: CIL module
 0001:0000a7d6       $L126037                   0040b7d6 f    CIL library: CIL module
 0001:0000a7e4       __ehhandler$??1CNewEditBPDlg@@UAE@XZ 0040b7e4 f    CIL library: CIL module
 0001:0000a7ee       $L126064                   0040b7ee f    CIL library: CIL module
 0001:0000a7ee       $L126081                   0040b7ee f    CIL library: CIL module
 0001:0000a7f6       $L126065                   0040b7f6 f    CIL library: CIL module
 0001:0000a7f6       $L126082                   0040b7f6 f    CIL library: CIL module
 0001:0000a801       $L126083                   0040b801 f    CIL library: CIL module
 0001:0000a801       $L126066                   0040b801 f    CIL library: CIL module
 0001:0000a80f       __ehhandler$??0CBreakpointsDlg@@QAE@PAV?$CArray@PAVCLocationBP@@PAV1@@@PAVCWDBGProjDoc@@PAVCWnd@@@Z 0040b80f f    CIL library: CIL module
 0001:0000a80f       __ehhandler$??1CBreakpointsDlg@@UAE@XZ 0040b80f f    CIL library: CIL module
 0001:0000a819       $L126256                   0040b819 f    CIL library: CIL module
 0001:0000a824       $L126257                   0040b824 f    CIL library: CIL module
 0001:0000a82f       __ehhandler$??$?5GV?$StrTraitMFC_DLL@GV?$ChTraitsCRT@G@ATL@@@@@@YGAAVCArchive@@AAV0@AAV?$CStringT@GV?$StrTraitMFC_DLL@GV?$ChTraitsCRT@G@ATL@@@@@ATL@@@Z 0040b82f f    CIL library: CIL module
 0001:0000a839       $L126967                   0040b839 f    CIL library: CIL module
 0001:0000a839       $L126950                   0040b839 f    CIL library: CIL module
 0001:0000a839       $L127001                   0040b839 f    CIL library: CIL module
 0001:0000a839       $L126984                   0040b839 f    CIL library: CIL module
 0001:0000a842       __ehhandler$?_Xlen@?$vector@VCLoadedModule@@V?$allocator@VCLoadedModule@@@std@@@std@@IBEXXZ 0040b842 f    CIL library: CIL module
 0001:0000a842       __ehhandler$?_Xlen@?$vector@VCStackDisplay@@V?$allocator@VCStackDisplay@@@std@@@std@@IBEXXZ 0040b842 f    CIL library: CIL module
 0001:0000a842       __ehhandler$?_Xlen@?$vector@VCMemDisplay@@V?$allocator@VCMemDisplay@@@std@@@std@@IBEXXZ 0040b842 f    CIL library: CIL module
 0001:0000a842       __ehhandler$?_Xlen@?$vector@VCDebuggeeThread@@V?$allocator@VCDebuggeeThread@@@std@@@std@@IBEXXZ 0040b842 f    CIL library: CIL module
 0001:0000a84c       $L127793                   0040b84c f    CIL library: CIL module
 0001:0000a859       __ehhandler$?OnDebugBreakpoints@CWDBGProjDoc@@IAEXXZ 0040b859 f    CIL library: CIL module
 0001:0000a863       $L127806                   0040b863 f    CIL library: CIL module
 0001:0000a86f       __ehhandler$?DisplayRegisterSet@CWDBGProjDoc@@IAEXPAVCStackDisplay@@@Z 0040b86f f    CIL library: CIL module
 0001:0000a879       $L127821                   0040b879 f    CIL library: CIL module
 0001:0000a882       __ehhandler$?EnumerateLocalsIntoStackWnd@CWDBGProjDoc@@KGH_KPBG11HPAX@Z 0040b882 f    CIL library: CIL module
 0001:0000a88c       $L128002                   0040b88c f    CIL library: CIL module
 0001:0000a88c       $L133108                   0040b88c f    CIL library: CIL module
 0001:0000a898       __ehhandler$?AppendToActiveThreads@CWDBGProjDoc@@IAEXAAVCDebuggeeThread@@@Z 0040b898 f    CIL library: CIL module
 0001:0000a898       __ehhandler$?HandleGeneralException@CWDBGProjDoc@@IAEKKPAUtag_STEXCEPTIONEVENT@@@Z 0040b898 f    CIL library: CIL module
 0001:0000a8a2       $L128224                   0040b8a2 f    CIL library: CIL module
 0001:0000a8ae       __ehhandler$?HandleCreateProcessEvent@CWDBGProjDoc@@QAEKKPAUtag_STCREATEPROCESSEVENT@@@Z 0040b8ae f    CIL library: CIL module
 0001:0000a8b8       $L128268                   0040b8b8 f    CIL library: CIL module
 0001:0000a8c3       __ehhandler$?OnEditProject@CWDBGProjDoc@@IAEXXZ 0040b8c3 f    CIL library: CIL module
 0001:0000a8cd       $L128649                   0040b8cd f    CIL library: CIL module
 0001:0000a8d5       __ehhandler$??1CWDBGLogView@@UAE@XZ 0040b8d5 f    CIL library: CIL module
 0001:0000a8df       $L128712                   0040b8df f    CIL library: CIL module
 0001:0000a8e7       __ehhandler$?OnAppAbout@CWDBGApp@@QAEXXZ 0040b8e7 f    CIL library: CIL module
 0001:0000a8f1       $L128637                   0040b8f1 f    CIL library: CIL module
 0001:0000a8f1       $L128022                   0040b8f1 f    CIL library: CIL module
 0001:0000a8f1       $L128735                   0040b8f1 f    CIL library: CIL module
 0001:0000a8f1       $L127986                   0040b8f1 f    CIL library: CIL module
 0001:0000a8f1       $L125603                   0040b8f1 f    CIL library: CIL module
 0001:0000a8f1       $L128547                   0040b8f1 f    CIL library: CIL module
 0001:0000a8f1       $L127874                   0040b8f1 f    CIL library: CIL module
 0001:0000a8fa       __ehhandler$?OnInitDialog@CThreadPickerDlg@@MAEHXZ 0040b8fa f    CIL library: CIL module
 0001:0000a8fa       __ehhandler$?AppendToActiveModules@CWDBGProjDoc@@IAEXAAVCLoadedModule@@@Z 0040b8fa f    CIL library: CIL module
 0001:0000a8fa       __ehhandler$?ClearAllViews@CWDBGProjDoc@@QAEXXZ 0040b8fa f    CIL library: CIL module
 0001:0000a8fa       __ehhandler$?HandleUnloadedDllEvent@CWDBGProjDoc@@QAEKKPAUtag_STUNLOADDLLEVENT@@@Z 0040b8fa f    CIL library: CIL module
 0001:0000a8fa       __ehhandler$?OnInitialUpdate@CWDBGLogView@@UAEXXZ 0040b8fa f    CIL library: CIL module
 0001:0000a8fa       __ehhandler$?SymCallBack@@YGHPAD_KKPAX@Z 0040b8fa f    CIL library: CIL module
 0001:0000a8fa       __ehhandler$?OnInitDialog@CProjectSettings@@MAEHXZ 0040b8fa f    CIL library: CIL module
 0001:0000a904       $L128862                   0040b904 f    CIL library: CIL module
 0001:0000a90c       $L128863                   0040b90c f    CIL library: CIL module
 0001:0000a917       $L128864                   0040b917 f    CIL library: CIL module
 0001:0000a926       $L128865                   0040b926 f    CIL library: CIL module
 0001:0000a935       __ehhandler$??0CThreadPickerDlg@@QAE@PAV?$vector@VCDebuggeeThread@@V?$allocator@VCDebuggeeThread@@@std@@@std@@PBGPAVCWnd@@@Z 0040b935 f    CIL library: CIL module
 0001:0000a93f       $L128996                   0040b93f f    CIL library: CIL module
 0001:0000a947       $L128997                   0040b947 f    CIL library: CIL module
 0001:0000a952       $L128998                   0040b952 f    CIL library: CIL module
 0001:0000a961       __ehhandler$??0CSymbolsDisplayDlg@@QAE@PAV?$vector@VCLoadedModule@@V?$allocator@VCLoadedModule@@@std@@@std@@PAVCWnd@@@Z 0040b961 f    CIL library: CIL module
 0001:0000a96b       $L129066                   0040b96b f    CIL library: CIL module
 0001:0000a973       $L129067                   0040b973 f    CIL library: CIL module
 0001:0000a981       __ehhandler$??1CMainFrame@@UAE@XZ 0040b981 f    CIL library: CIL module
 0001:0000a98b       $L129081                   0040b98b f    CIL library: CIL module
 0001:0000a993       $L129082                   0040b993 f    CIL library: CIL module
 0001:0000a9a1       __ehhandler$??0CMainFrame@@QAE@XZ 0040b9a1 f    CIL library: CIL module
 0001:0000a9ab       $L129198                   0040b9ab f    CIL library: CIL module
 0001:0000a9b3       $L129199                   0040b9b3 f    CIL library: CIL module
 0001:0000a9bb       __ehhandler$?OnOK@CBreakpointsDlg@@MAEXXZ 0040b9bb f    CIL library: CIL module
 0001:0000a9c5       $L129292                   0040b9c5 f    CIL library: CIL module
 0001:0000a9cd       __ehhandler$??0CLocationBP@@QAE@ABV0@@Z 0040b9cd f    CIL library: CIL module
 0001:0000a9d7       __ehhandler$?_Insert_n@?$vector@VCStackDisplay@@V?$allocator@VCStackDisplay@@@std@@@std@@IAEXViterator@12@IABVCStackDisplay@@@Z 0040b9d7 f    CIL library: CIL module
 0001:0000a9e1       __ehhandler$?_Insert_n@?$vector@VCMemDisplay@@V?$allocator@VCMemDisplay@@@std@@@std@@IAEXViterator@12@IABVCMemDisplay@@@Z 0040b9e1 f    CIL library: CIL module
 0001:0000a9eb       __ehhandler$?_Insert_n@?$vector@VCLoadedModule@@V?$allocator@VCLoadedModule@@@std@@@std@@IAEXViterator@12@IABVCLoadedModule@@@Z 0040b9eb f    CIL library: CIL module
 0001:0000a9f5       __ehhandler$?_Insert_n@?$vector@VCDebuggeeThread@@V?$allocator@VCDebuggeeThread@@@std@@@std@@IAEXViterator@12@IABVCDebuggeeThread@@@Z 0040b9f5 f    CIL library: CIL module
 0001:0000a9ff       $L131616                   0040b9ff f    CIL library: CIL module
 0001:0000aa0b       __ehhandler$?HandleLoadDllEvent@CWDBGProjDoc@@QAEKKPAUtag_STLOADDLLEVENT@@@Z 0040ba0b f    CIL library: CIL module
 0001:0000aa15       $L131642                   0040ba15 f    CIL library: CIL module
 0001:0000aa1e       __ehhandler$?OnDebugGo@CWDBGProjDoc@@IAEXXZ 0040ba1e f    CIL library: CIL module
 0001:0000aa28       $L131696                   0040ba28 f    CIL library: CIL module
 0001:0000aa34       $L131697                   0040ba34 f    CIL library: CIL module
 0001:0000aa40       $L131698                   0040ba40 f    CIL library: CIL module
 0001:0000aa4b       $L131699                   0040ba4b f    CIL library: CIL module
 0001:0000aa56       $L131700                   0040ba56 f    CIL library: CIL module
 0001:0000aa5f       $L131701                   0040ba5f f    CIL library: CIL module
 0001:0000aa6b       __ehhandler$?OnOpenDocument@CWDBGProjDoc@@UAEHPBG@Z 0040ba6b f    CIL library: CIL module
 0001:0000aa75       $L131755                   0040ba75 f    CIL library: CIL module
 0001:0000aa7d       __ehhandler$?Serialize@CWDBGProjDoc@@UAEXAAVCArchive@@@Z 0040ba7d f    CIL library: CIL module
 0001:0000aa87       $L131823                   0040ba87 f    CIL library: CIL module
 0001:0000aa8f       $L131824                   0040ba8f f    CIL library: CIL module
 0001:0000aa9b       $L131825                   0040ba9b f    CIL library: CIL module
 0001:0000aaa7       $L131826                   0040baa7 f    CIL library: CIL module
 0001:0000aab3       $L131827                   0040bab3 f    CIL library: CIL module
 0001:0000aabf       $L131828                   0040babf f    CIL library: CIL module
 0001:0000aaca       $L131829                   0040baca f    CIL library: CIL module
 0001:0000aad8       $L131830                   0040bad8 f    CIL library: CIL module
 0001:0000aae6       $L131831                   0040bae6 f    CIL library: CIL module
 0001:0000aaf4       $L131832                   0040baf4 f    CIL library: CIL module
 0001:0000ab02       $L131833                   0040bb02 f    CIL library: CIL module
 0001:0000ab10       $L131834                   0040bb10 f    CIL library: CIL module
 0001:0000ab1e       $L131835                   0040bb1e f    CIL library: CIL module
 0001:0000ab2c       $L131836                   0040bb2c f    CIL library: CIL module
 0001:0000ab3a       $L131837                   0040bb3a f    CIL library: CIL module
 0001:0000ab48       $L131838                   0040bb48 f    CIL library: CIL module
 0001:0000ab55       __ehhandler$??1CWDBGProjDoc@@UAE@XZ 0040bb55 f    CIL library: CIL module
 0001:0000ab5f       $L131875                   0040bb5f f    CIL library: CIL module
 0001:0000ab67       $L131876                   0040bb67 f    CIL library: CIL module
 0001:0000ab73       $L131877                   0040bb73 f    CIL library: CIL module
 0001:0000ab7f       $L131878                   0040bb7f f    CIL library: CIL module
 0001:0000ab8b       $L131879                   0040bb8b f    CIL library: CIL module
 0001:0000ab97       $L131880                   0040bb97 f    CIL library: CIL module
 0001:0000aba2       $L131881                   0040bba2 f    CIL library: CIL module
 0001:0000abb0       $L131882                   0040bbb0 f    CIL library: CIL module
 0001:0000abbe       $L131883                   0040bbbe f    CIL library: CIL module
 0001:0000abcc       $L131884                   0040bbcc f    CIL library: CIL module
 0001:0000abda       $L131885                   0040bbda f    CIL library: CIL module
 0001:0000abe8       $L131886                   0040bbe8 f    CIL library: CIL module
 0001:0000abf6       __ehhandler$??0CWDBGProjDoc@@IAE@XZ 0040bbf6 f    CIL library: CIL module
 0001:0000ac00       $L128700                   0040bc00 f    CIL library: CIL module
 0001:0000ac00       $L132336                   0040bc00 f    CIL library: CIL module
 0001:0000ac00       $L132391                   0040bc00 f    CIL library: CIL module
 0001:0000ac09       __ehhandler$?CreateObject@CWDBGProjDoc@@SGPAVCObject@@XZ 0040bc09 f    CIL library: CIL module
 0001:0000ac09       __ehhandler$?CreateObject@CWDBGChildFrame@@SGPAVCObject@@XZ 0040bc09 f    CIL library: CIL module
 0001:0000ac09       __ehhandler$?CreateObject@CWDBGLogView@@SGPAVCObject@@XZ 0040bc09 f    CIL library: CIL module
 0001:0000ac13       $L132413                   0040bc13 f    CIL library: CIL module
 0001:0000ac1c       $L132414                   0040bc1c f    CIL library: CIL module
 0001:0000ac25       $L132415                   0040bc25 f    CIL library: CIL module
 0001:0000ac2d       __ehhandler$?InitInstance@CWDBGApp@@UAEHXZ 0040bc2d f    CIL library: CIL module
 0001:0000ac37       $L132473                   0040bc37 f    CIL library: CIL module
 0001:0000ac40       __ehhandler$?OnInitDialog@CBreakpointsDlg@@MAEHXZ 0040bc40 f    CIL library: CIL module
 0001:0000ac4a       $L132502                   0040bc4a f    CIL library: CIL module
 0001:0000ac57       __ehhandler$?OnNew@CBreakpointsDlg@@IAEXXZ 0040bc57 f    CIL library: CIL module
 0001:0000ac61       $L132529                   0040bc61 f    CIL library: CIL module
 0001:0000ac6e       __ehhandler$?OnEdit@CBreakpointsDlg@@IAEXXZ 0040bc6e f    CIL library: CIL module
 0001:0000ac78       $L129408                   0040bc78 f    CIL library: CIL module
 0001:0000ac78       $L132569                   0040bc78 f    CIL library: CIL module
 0001:0000ac78       $L132770                   0040bc78 f    CIL library: CIL module
 0001:0000ac83       __ehhandler$?DumpArray@CSymbolEngine@@IAEHAAVCVariableInfo@@H@Z 0040bc83 f    CIL library: CIL module
 0001:0000ac83       __ehhandler$?DecodeTypeSymTagFunctionType@CSymbolEngine@@IAEHAAVCVariableInfo@@@Z 0040bc83 f    CIL library: CIL module
 0001:0000ac83       __ehhandler$?DecodeVariable@CSymbolEngine@@IAEHAAVCVariableInfo@@H@Z 0040bc83 f    CIL library: CIL module
 0001:0000ac8d       $L132630                   0040bc8d f    CIL library: CIL module
 0001:0000ac9a       $L132631                   0040bc9a f    CIL library: CIL module
 0001:0000aca3       __ehhandler$?OnViewSymbols@CWDBGProjDoc@@IAEXXZ 0040bca3 f    CIL library: CIL module
 0001:0000acad       $L132673                   0040bcad f    CIL library: CIL module
 0001:0000acb8       $L132674                   0040bcb8 f    CIL library: CIL module
 0001:0000acc1       __ehhandler$?OnViewMemory@CWDBGProjDoc@@IAEXXZ 0040bcc1 f    CIL library: CIL module
 0001:0000accb       $L132698                   0040bccb f    CIL library: CIL module
 0001:0000acd6       $L132699                   0040bcd6 f    CIL library: CIL module
 0001:0000ace2       $L132700                   0040bce2 f    CIL library: CIL module
 0001:0000ace7       $L132701                   0040bce7 f    CIL library: CIL module
 0001:0000acf3       $L132702                   0040bcf3 f    CIL library: CIL module
 0001:0000acff       __ehhandler$?OnViewDisassembly@CWDBGProjDoc@@IAEXXZ 0040bcff f    CIL library: CIL module
 0001:0000ad09       $L132806                   0040bd09 f    CIL library: CIL module
 0001:0000ad12       $L132807                   0040bd12 f    CIL library: CIL module
 0001:0000ad17       $L132808                   0040bd17 f    CIL library: CIL module
 0001:0000ad23       $L132809                   0040bd23 f    CIL library: CIL module
 0001:0000ad2f       __ehhandler$?DisplayCallStack@CWDBGProjDoc@@IAEXPAVCStackDisplay@@@Z 0040bd2f f    CIL library: CIL module
 0001:0000ad39       $L132609                   0040bd39 f    CIL library: CIL module
 0001:0000ad39       $L132868                   0040bd39 f    CIL library: CIL module
 0001:0000ad42       $L132610                   0040bd42 f    CIL library: CIL module
 0001:0000ad42       $L132869                   0040bd42 f    CIL library: CIL module
 0001:0000ad4f       $L132611                   0040bd4f f    CIL library: CIL module
 0001:0000ad4f       $L132870                   0040bd4f f    CIL library: CIL module
 0001:0000ad58       __ehhandler$?OnViewCallstack@CWDBGProjDoc@@IAEXXZ 0040bd58 f    CIL library: CIL module
 0001:0000ad58       __ehhandler$?OnViewRegisters@CWDBGProjDoc@@IAEXXZ 0040bd58 f    CIL library: CIL module
 0001:0000ad62       $L133149                   0040bd62 f    CIL library: CIL module
 0001:0000ad6b       __ehhandler$?IsUserBP@CWDBGProjDoc@@IAEHKPAUtag_STEXCEPTIONEVENT@@@Z 0040bd6b f    CIL library: CIL module
 0001:0000ad75       $L133190                   0040bd75 f    CIL library: CIL module
 0001:0000ad81       __ehhandler$?IsOneShotBP@CWDBGProjDoc@@IAEHKPAUtag_STEXCEPTIONEVENT@@@Z 0040bd81 f    CIL library: CIL module
 0001:0000ad8b       $L133235                   0040bd8b f    CIL library: CIL module
 0001:0000ad94       $L133236                   0040bd94 f    CIL library: CIL module
 0001:0000ad9d       __ehhandler$?HandleBreakpoint@CWDBGProjDoc@@IAEKKPAUtag_STEXCEPTIONEVENT@@@Z 0040bd9d f    CIL library: CIL module
 0001:0000ada7       _$E1                       0040bda7 f   WDBG.obj
 0001:0000adb2       _$E1                       0040bdb2 f   WDBG.obj
 0001:0000adca       _$E5                       0040bdca f   atls:atlbase.obj
 0001:0000ade0       _$E5                       0040bde0 f   mfcs71u:appmodul.obj
 0001:0000adf2       _$E2                       0040bdf2 f   WDBG.obj
 0001:0000adfc       _$E6                       0040bdfc f   atls:atlbase.obj

Line numbers for .\WinRel\WDBGUser.obj(d:\dev\booktwo\disk\wdbg\wdbg\wdbguser.h) segment .text

   182 0001:00007040   181 0001:00007040   183 0001:0000704d

Line numbers for .\WinRel\WDBGUser.obj(d:\dev\booktwo\disk\wdbg\wdbg\wdbguser.cpp) segment .text

    12 0001:0000704e    13 0001:0000706a    14 0001:0000706d    15 0001:00007070
    19 0001:0000707d    23 0001:00007092    26 0001:000070c4    27 0001:000070c8
    29 0001:000070d6    32 0001:000070dd    34 0001:000070e3    36 0001:000070f2
    42 0001:000070fb    54 0001:000070fb    57 0001:00007116    58 0001:00007122
    68 0001:00007125    93 0001:00007125    94 0001:0000713a    95 0001:0000713d
    99 0001:00007140   100 0001:00007141   101 0001:0000714d   102 0001:0000714e
   104 0001:00007156   111 0001:0000715a   118 0001:0000716a   119 0001:0000717d
   122 0001:0000717e   124 0001:00007181   125 0001:00007190   127 0001:0000719e
   131 0001:000071a0   133 0001:000071b3   135 0001:000071b9   136 0001:000071be
   138 0001:000071c0   139 0001:000071c2   141 0001:000071d0   142 0001:000071d3
   143 0001:000071d5   145 0001:000071d6   146 0001:000071dd   147 0001:000071df
   149 0001:000071e6   150 0001:000071e9   155 0001:000071ec   157 0001:000071f2
   158 0001:000071f8   161 0001:000071fb   162 0001:0000720d   168 0001:00007217
   172 0001:0000722b   178 0001:0000722f   180 0001:00007235   181 0001:0000723b
   184 0001:00007242   188 0001:00007248   189 0001:00007264   194 0001:00007268
   195 0001:00007273   197 0001:0000727c   198 0001:00007280   203 0001:00007284
   205 0001:0000728a   206 0001:00007290   209 0001:00007297   213 0001:0000729d
   214 0001:000072b9   218 0001:000072bd   219 0001:000072c8   220 0001:000072d1
   221 0001:000072d5   227 0001:000072d9   229 0001:000072df   230 0001:000072e5
   233 0001:000072ec   237 0001:000072f2   238 0001:0000730e   242 0001:00007312
   243 0001:0000731d   244 0001:00007326   245 0001:0000732a   250 0001:0000732e
   252 0001:00007334   253 0001:0000733a   256 0001:00007341   260 0001:00007347
   261 0001:00007363   265 0001:00007367   266 0001:00007372   267 0001:0000737b
   268 0001:0000737f   275 0001:00007383   277 0001:00007394   278 0001:0000739d
   279 0001:000073a1   280 0001:000073b9   283 0001:000073c0   287 0001:000073c7
   288 0001:000073e4   292 0001:000073e8   293 0001:000073f3   294 0001:000073fc
   295 0001:000073ff   300 0001:0000740c   302 0001:00007412   303 0001:00007418
   306 0001:0000741f   310 0001:00007425   311 0001:00007441   315 0001:00007445
   316 0001:00007450   317 0001:00007459   318 0001:0000745d   323 0001:00007461
   326 0001:00007467   327 0001:0000746d   330 0001:00007474   334 0001:0000747a
   335 0001:00007496   339 0001:0000749a   340 0001:000074a5   341 0001:000074ae
   342 0001:000074b2

Line numbers for .\WinRel\WDBGUser.obj(d:\dev\booktwo\disk\wdbg\include\debuginterface.h) segment .text

    59 0001:000074b6    90 0001:000074da    89 0001:000074da    91 0001:000074e7
    96 0001:000074e8    95 0001:000074e8    97 0001:000074ea   104 0001:000074ed
   105 0001:000074ee   106 0001:000074ff   107 0001:00007509   108 0001:0000750f
   117 0001:00007512   118 0001:00007512   119 0001:00007517   126 0001:0000751a
   129 0001:0000751b   130 0001:00007530   132 0001:0000753a   133 0001:00007540
   145 0001:00007543   149 0001:00007543   150 0001:0000756b   151 0001:00007576
   152 0001:0000757c   159 0001:0000757f   160 0001:00007580   161 0001:00007591
   162 0001:0000759b   163 0001:000075a1   171 0001:000075a4   170 0001:000075a4
   172 0001:000075b0   173 0001:000075b5

Line numbers for .\WinRel\WDBGProjDoc.obj(g:\vsnet\vc7\include\memory) segment .text

   207 0001:00006c17   211 0001:00006c17   212 0001:00006c1d   218 0001:00006c39
   207 0001:00006c3a   211 0001:00006c3a   212 0001:00006c40   218 0001:00006c63
   207 0001:00006c64   211 0001:00006c64   212 0001:00006c6a   218 0001:00006c87
   211 0001:00006c88   207 0001:00006c88   212 0001:00006c8d   218 0001:00006ca2
    81 0001:00006d37    77 0001:00006d37    82 0001:00006d3f    89 0001:00006d58
    77 0001:00006d59    81 0001:00006d5c    82 0001:00006d69    89 0001:00006d85
    81 0001:00006d86    77 0001:00006d86    82 0001:00006d8e    89 0001:00006da8
    77 0001:00006da9    81 0001:00006da9    82 0001:00006dab    81 0001:00006dbf
    89 0001:00006dc5

Line numbers for .\WinRel\WDBGProjDoc.obj(d:\dev\booktwo\disk\wdbg\wdbg\breakpoint.h) segment .text

   163 0001:000028ba   165 0001:000028c8   166 0001:000028cf   191 0001:000028d3
   190 0001:000028d3   192 0001:000028d6

Line numbers for .\WinRel\WDBGProjDoc.obj(d:\dev\booktwo\disk\wdbg\wdbg\wdbgprojdoc.h) segment .text

    61 0001:000028d7    55 0001:000028d7    62 0001:000028d9    63 0001:000028e0
    64 0001:000028e5    65 0001:000028f8    66 0001:00002908

Line numbers for .\WinRel\WDBGProjDoc.obj(d:\dev\booktwo\disk\wdbg\wdbg\wdbgprojdoc.cpp) segment .text

    37 0001:0000292a    37 0001:00002961    39 0001:00002967    63 0001:0000296d
    64 0001:00002a6b    67 0001:00002a6e    82 0001:00002a75    84 0001:00002ab7
    87 0001:00002acd    88 0001:00002aec    90 0001:00002af8    95 0001:00002aff
    98 0001:00002b0f   103 0001:00002b1a   105 0001:00002b29   106 0001:00002b32
   108 0001:00002b49   112 0001:00002c11   111 0001:00002c11   119 0001:00002c1c
   122 0001:00002c1d   123 0001:00002c2d   125 0001:00002c3e   126 0001:00002c47
   127 0001:00002c50   128 0001:00002c59   129 0001:00002c62   132 0001:00002c6c
   134 0001:00002c77   135 0001:00002c84   137 0001:00002c8c   138 0001:00002c9b
   140 0001:00002caa   141 0001:00002cb3   143 0001:00002cb5   144 0001:00002cbf
   145 0001:00002cc9   146 0001:00002cd3   147 0001:00002cdd   150 0001:00002ce8
   153 0001:00002cf1   155 0001:00002d01   156 0001:00002d18   157 0001:00002d20
   160 0001:00002d30   163 0001:00002d41   164 0001:00002d4d   165 0001:00002d55
   167 0001:00002d5f   171 0001:00002d6c   174 0001:00002d7d   165 0001:00002d82
   178 0001:00002d88   179 0001:00002d91   182 0001:00002da6   185 0001:00002db4
   187 0001:00002dc3   190 0001:00002dd5   193 0001:00002de3   195 0001:00002df2
   198 0001:00002e04   200 0001:00002e12   202 0001:00002e21   205 0001:00002e33
   207 0001:00002e41   209 0001:00002e50   224 0001:00002e66   226 0001:00002e71
   229 0001:00002e82   231 0001:00002e88   233 0001:00002e90   231 0001:00002e94
   241 0001:00002e9b   244 0001:00002eac   246 0001:00002eb2   235 0001:00002eba
   236 0001:00002ec3   248 0001:00002ec5   246 0001:00002ec9   256 0001:00002ed0
   259 0001:00002ee1   261 0001:00002ee7   263 0001:00002eef   261 0001:00002ef3
   263 0001:00002efa   265 0001:00002efc   270 0001:00002f08   279 0001:00002f0a
   280 0001:00002f21   281 0001:00002f30   283 0001:00002f4d   284 0001:00002f5d
   286 0001:00002f66   288 0001:00002f79   290 0001:00002f8f   292 0001:00002f9b
   293 0001:00002fb0   294 0001:00002fbd   295 0001:00002fce   298 0001:00002fdb
   300 0001:00002fec   301 0001:00002ffb   303 0001:0000301a   304 0001:00003028
   305 0001:00003035   306 0001:0000305b   307 0001:00003067   310 0001:0000307f
   314 0001:0000309c   316 0001:000030ac   329 0001:000030b4   331 0001:000030c4
   338 0001:000030e9   339 0001:0000312d   341 0001:00003141   343 0001:00003143
   354 0001:00003150   355 0001:0000315f   346 0001:00003163   347 0001:00003176
   348 0001:00003189   349 0001:0000319c   359 0001:000031ad   363 0001:000031b9
   370 0001:000031bb   371 0001:000031d9   374 0001:000031e2   389 0001:000031e6
   379 0001:000031ed   381 0001:000031f6   382 0001:00003208   384 0001:00003217
   386 0001:0000321f   387 0001:0000322b   389 0001:0000323e   391 0001:0000324e
   392 0001:00003254   394 0001:00003256   400 0001:00003262   402 0001:00003271
   404 0001:0000328e   406 0001:000032a7   408 0001:000032b9   410 0001:000032c4
   412 0001:000032cf   415 0001:000032da   426 0001:000032fb   429 0001:000032fe
   420 0001:00003300   422 0001:0000330d   423 0001:00003325   424 0001:00003331
   425 0001:0000333c   431 0001:00003350   434 0001:00003357   440 0001:0000336c
   442 0001:00003371   443 0001:0000337d   447 0001:00003385   449 0001:0000338d
   456 0001:00003393   459 0001:0000339a   461 0001:000033ae   466 0001:000033bc
   467 0001:000033c8   473 0001:000033e1   475 0001:000033ef   480 0001:000033f9
   481 0001:0000340a   483 0001:00003418   488 0001:00003424   489 0001:0000343e
   492 0001:00003457   494 0001:0000345a   496 0001:00003463   500 0001:00003468
   503 0001:0000346d   505 0001:00003477   509 0001:0000347f   510 0001:00003492
   511 0001:000034a6   512 0001:000034b3   513 0001:000034c0   514 0001:000034cd
   516 0001:000034d0   518 0001:000034e3   520 0001:000034f2   521 0001:000034fb
   523 0001:00003507   525 0001:00003516   526 0001:0000351f   528 0001:0000352b
   530 0001:00003533   531 0001:0000353c   534 0001:00003542   537 0001:00003560
   544 0001:00003578   546 0001:00003593   549 0001:00003599   551 0001:000035a5
   552 0001:000035b8   553 0001:000035c8   555 0001:000035d3   559 0001:000035e8
   562 0001:000035ed   564 0001:000035f4   568 0001:00003609   572 0001:0000361a
   574 0001:0000362a   576 0001:00003635   577 0001:00003648   579 0001:00003656
   580 0001:00003669   583 0001:0000367c   584 0001:00003689   588 0001:000036c6
   589 0001:000036de   598 0001:000036eb   600 0001:0000370d   603 0001:00003713
   605 0001:00003720   608 0001:00003732   611 0001:00003740   612 0001:00003749
   613 0001:0000375d   614 0001:0000376d   615 0001:0000377d   618 0001:0000378a
   619 0001:00003796   620 0001:000037a8   622 0001:000037aa   624 0001:000037b7
   627 0001:000037ce   628 0001:000037cf   630 0001:000037df   631 0001:000037e3
   635 0001:000037e5   637 0001:000037e8   641 0001:000037eb   643 0001:000037ef
   645 0001:000037f2   647 0001:000037f6   651 0001:000037fa   653 0001:00003807
   655 0001:0000380b   658 0001:0000380f   661 0001:0000381a   663 0001:00003823
   665 0001:00003825   668 0001:00003827   669 0001:00003834   670 0001:00003839
   673 0001:0000383c   676 0001:00003851   679 0001:0000385d   682 0001:00003863
   685 0001:00003876   687 0001:00003882   689 0001:00003888   695 0001:00003897
   697 0001:000038a0   702 0001:000038b1   708 0001:000038d1   724 0001:000038de
   727 0001:00003902   732 0001:00003905   734 0001:00003912   737 0001:0000391c
   740 0001:00003921   743 0001:00003928   750 0001:00003931   757 0001:00003942
   760 0001:00003962   770 0001:0000396d   772 0001:00003980   777 0001:00003995
   775 0001:00003995   778 0001:000039b4   781 0001:000039b7   783 0001:000039ba
   790 0001:000039c3   796 0001:000039d0   798 0001:000039dc   801 0001:000039e9
   802 0001:000039ef   811 0001:000039f0   805 0001:000039f0   812 0001:00003a19
   815 0001:00003a1c   817 0001:00003a1c   820 0001:00003a2e   822 0001:00003a40
   824 0001:00003a4b   828 0001:00003a5f   832 0001:00003a6d   835 0001:00003a74
   837 0001:00003a7f   850 0001:00003a80   851 0001:00003a9a   855 0001:00003aa0
   861 0001:00003aaa   862 0001:00003ac2   864 0001:00003acc   867 0001:00003ad5
   873 0001:00003ae5   874 0001:00003afe   876 0001:00003b06   883 0001:00003b12
   886 0001:00003b2c   888 0001:00003b3c   889 0001:00003b50   890 0001:00003b66
   892 0001:00003b79   894 0001:00003b87   897 0001:00003b92   899 0001:00003b9a
   900 0001:00003ba6   901 0001:00003bb2   905 0001:00003bcc   908 0001:00003bd2
   909 0001:00003bd8   913 0001:00003be0   916 0001:00003be7   925 0001:00003bfa
   926 0001:00003bff   922 0001:00003c01   923 0001:00003c0b   919 0001:00003c0d
   930 0001:00003c19   934 0001:00003c1a   941 0001:00003c2b   944 0001:00003c37
   947 0001:00003c46   951 0001:00003c4c   954 0001:00003c5f   961 0001:00003c66
   962 0001:00003c79   967 0001:00003c7b   970 0001:00003c82   971 0001:00003c8b
   975 0001:00003ca0   977 0001:00003cae   978 0001:00003cbd   984 0001:00003cc8
   986 0001:00003cd4   988 0001:00003cd6   990 0001:00003ce1   995 0001:00003ce5
   997 0001:00003cf8   999 0001:00003cff  1001 0001:00003d0f  1002 0001:00003d27
  1004 0001:00003d37  1005 0001:00003d47  1009 0001:00003d58  1013 0001:00003d74
  1024 0001:00003d8d  1030 0001:00003db7  1033 0001:00003dca  1037 0001:00003dd3
  1042 0001:00003df5  1045 0001:00003e06  1048 0001:00003e0d  1052 0001:00003e30
  1054 0001:00003e37  1056 0001:00003e45  1061 0001:00003e5d  1063 0001:00003e6e
  1067 0001:00003e80  1075 0001:00003e9a  1078 0001:00003ea2  1082 0001:00003ebb
  1084 0001:00003ecb  1085 0001:00003ed1  1089 0001:00003ee8  1091 0001:00003f00
  1093 0001:00003f0c  1095 0001:00003f0e  1098 0001:00003f18  1145 0001:00003f3c
  1146 0001:00003f3e  1103 0001:00003f56  1105 0001:00003f69  1109 0001:00003f75
  1114 0001:00003f97  1117 0001:00003fa8  1122 0001:00003faa  1123 0001:00003fc7
  1126 0001:00003fcc  1127 0001:00003fe1  1133 0001:00003fe3  1135 0001:00003fea
  1138 0001:00003ff7  1139 0001:00004033  1140 0001:00004043  1151 0001:00004054
  1156 0001:0000406b  1158 0001:0000407e  1162 0001:00004087  1167 0001:000040a0
  1201 0001:000040b1  1202 0001:000040b6  1175 0001:000040ce  1179 0001:000040d7
  1184 0001:00004105  1185 0001:00004119  1187 0001:00004121  1188 0001:00004134
  1192 0001:0000413e  1194 0001:00004145  1195 0001:00004156  1206 0001:00004160
  1208 0001:00004160  1274 0001:000041b1  1302 0001:000041b6  1256 0001:000041b7
  1302 0001:000041bc  1211 0001:000041bd  1302 0001:000041c2  1220 0001:000041c3
  1302 0001:000041c8  1217 0001:000041c9  1302 0001:000041ce  1214 0001:000041cf
  1302 0001:000041d4  1271 0001:000041d5  1302 0001:000041da  1295 0001:000041db
  1302 0001:000041e0  1208 0001:000041e1  1229 0001:0000420f  1302 0001:00004214
  1226 0001:00004215  1302 0001:0000421a  1223 0001:0000421b  1302 0001:00004220
  1268 0001:00004221  1302 0001:00004226  1262 0001:00004227  1302 0001:0000422c
  1259 0001:0000422d  1302 0001:00004232  1232 0001:00004233  1302 0001:00004238
  1208 0001:00004239  1253 0001:00004275  1302 0001:0000427a  1250 0001:0000427b
  1302 0001:00004280  1247 0001:00004281  1302 0001:00004286  1244 0001:00004287
  1302 0001:0000428c  1241 0001:0000428d  1302 0001:00004292  1238 0001:00004293
  1302 0001:00004298  1235 0001:00004299  1302 0001:0000429e  1265 0001:0000429f
  1302 0001:000042a4  1208 0001:000042a5  1298 0001:000042cf  1302 0001:000042d4
  1292 0001:000042d5  1302 0001:000042da  1289 0001:000042db  1302 0001:000042e0
  1286 0001:000042e1  1302 0001:000042e6  1283 0001:000042e7  1302 0001:000042ec
  1277 0001:000042ed  1302 0001:000042f2  1280 0001:000042f3  1302 0001:000042f8
  1307 0001:000042f9  1309 0001:00004312  1314 0001:00004319  1323 0001:00004331
  1325 0001:00004344  1327 0001:00004348  1330 0001:0000435c  1331 0001:0000436b
  1333 0001:00004377  1336 0001:0000437e  1338 0001:00004383  1349 0001:00004399
  1352 0001:000043d2  1364 0001:000043e5  1371 0001:000043e7  1372 0001:000043f6
  1376 0001:00004409  1379 0001:00004414  1382 0001:0000441d  1385 0001:00004429
  1386 0001:00004435  1390 0001:0000444f  1400 0001:00004460  1402 0001:00004498
  1408 0001:000044aa  1410 0001:000044d1  1412 0001:000044d3  1415 0001:000044e8
  1417 0001:000044ea  1419 0001:000044fe  1423 0001:0000450a  1429 0001:00004519
  1432 0001:00004533  1433 0001:0000454b  1435 0001:0000455e  1436 0001:00004560
  1446 0001:00004562  1449 0001:00004578  1452 0001:0000457d  1454 0001:0000459e
  1456 0001:000045bc  1457 0001:000045c4  1459 0001:000045c9  1460 0001:000045cb
  1464 0001:000045d8  1469 0001:000045e2  1471 0001:000045f2  1474 0001:00004605
  1477 0001:0000460d  1478 0001:00004619  1479 0001:0000461e  1483 0001:00004620
  1488 0001:00004625  1490 0001:0000462b  1492 0001:0000463b  1494 0001:0000464d
  1502 0001:0000465e  1505 0001:00004667  1506 0001:00004673  1507 0001:00004676
  1511 0001:00004678  1512 0001:00004690  1515 0001:00004696  1519 0001:000046a2
  1521 0001:000046b9  1523 0001:000046cb  1525 0001:000046cf  1527 0001:000046d5
  1529 0001:000046d7  1530 0001:000046db  1536 0001:000046dd  1542 0001:000046f7
  1544 0001:00004715  1547 0001:00004727  1549 0001:00004733  1554 0001:00004743
  1555 0001:00004771  1557 0001:00004787  1558 0001:00004793  1559 0001:0000479f
  1563 0001:000047b7  1566 0001:000047c4  1568 0001:000047ca  1570 0001:000047d3
  1572 0001:000047e3  1575 0001:000047f6  1579 0001:00004803  1580 0001:00004820
  1582 0001:00004833  1586 0001:00004842  1591 0001:0000484e  1594 0001:00004860
  1596 0001:0000486c  1600 0001:00004880  1601 0001:00004880  1602 0001:00004890
  1603 0001:0000489c  1604 0001:0000489f  1608 0001:000048a0  1611 0001:000048b8
  1613 0001:000048c8  1617 0001:000048d8  1618 0001:000048f6  1619 0001:0000490c
  1622 0001:0000492c  1623 0001:0000492d  1624 0001:00004941  1627 0001:00004944
  1628 0001:00004952  1634 0001:0000495f  1635 0001:00004988  1636 0001:0000499e
  1644 0001:000049b6  1647 0001:000049b6  1649 0001:000049bc  1651 0001:000049c4
  1649 0001:000049cc  1656 0001:000049d3  1657 0001:000049d6  1653 0001:000049d9
  1661 0001:000049de  1662 0001:000049f9  1667 0001:00004a0d  1669 0001:00004a27
  1670 0001:00004a37  1672 0001:00004a52  1675 0001:00004a62  1677 0001:00004a67
  1683 0001:00004a74  1688 0001:00004a90  1689 0001:00004aa1  1690 0001:00004aae
  1693 0001:00004ab3  1698 0001:00004abf  1700 0001:00004acc  1704 0001:00004ad9
  1718 0001:00004af7  1720 0001:00004b4b  1722 0001:00004b5b  1723 0001:00004b77
  1731 0001:00004b85  1733 0001:00004ba5  1734 0001:00004bc1  1737 0001:00004bcf
  1739 0001:00004bd1  1740 0001:00004be1  1741 0001:00004bfc  1742 0001:00004c08
  1743 0001:00004c12  1745 0001:00004c36  1747 0001:00004c44  1748 0001:00004c61
  1756 0001:00004c93  1757 0001:00004ca4  1762 0001:00004cb8  1764 0001:00004ccc
  1765 0001:00004cd9  1767 0001:00004cee  1773 0001:00004cfa  1776 0001:00004d0c
  1779 0001:00004d17  1780 0001:00004d25  1781 0001:00004d2f  1793 0001:00004d54
  1797 0001:00004d5f  1800 0001:00004d68  1802 0001:00004d81  1804 0001:00004d91
  1806 0001:00004d9a  1809 0001:00004dab  1810 0001:00004dbf  1812 0001:00004dd8
  1815 0001:00004df0  1816 0001:00004dfd  1818 0001:00004e12  1821 0001:00004e1f
  1823 0001:00004e2c  1827 0001:00004e3b  1831 0001:00004e52  1832 0001:00004e5a
  1833 0001:00004e64  1834 0001:00004e7b  1842 0001:00004e99  1844 0001:00004eac
  1878 0001:00004eb2  1895 0001:00004ecd  1896 0001:00004ee1  1885 0001:00004ee3
  1886 0001:00004eed  1887 0001:00004ef7  1881 0001:00004ef9  1882 0001:00004f03
  1900 0001:00004f0d  1906 0001:00004f11  1908 0001:00004f28  1910 0001:00004f3b
  1911 0001:00004f46  1918 0001:00004f6a  1921 0001:00004f77  1924 0001:00004f84
  1926 0001:00004f92  1930 0001:00004f9a  1937 0001:00004fa0  1941 0001:00004fb7
  1950 0001:00004fcf  1958 0001:00004ff6  1959 0001:0000500e  1961 0001:0000501a
  1973 0001:0000501c  1977 0001:00005069  1985 0001:0000508f  1992 0001:000050aa
  1994 0001:000050b0  1997 0001:000050bd  2001 0001:000050dd  2003 0001:000050f9
  2007 0001:00005121  2008 0001:0000512e  2010 0001:0000513c  2016 0001:0000514a
  2019 0001:00005160  2022 0001:0000516f  2023 0001:00005174  2026 0001:00005183
  2028 0001:00005189  2030 0001:00005191  2028 0001:00005199  2033 0001:0000519d
  2036 0001:000051ac  2038 0001:000051b2  2040 0001:000051ba  2038 0001:000051c4
  2043 0001:000051c8  2046 0001:000051d7  2048 0001:000051dd  2050 0001:000051e5
  2048 0001:000051ed  2053 0001:000051f4  2056 0001:000051f5  2057 0001:00005209
  2059 0001:00005214  2062 0001:00005229  2065 0001:00005237  2067 0001:0000524e
  2070 0001:00005262  2071 0001:0000526f  2073 0001:00005284  2075 0001:0000528f
  2077 0001:00005291  2080 0001:00005293  2082 0001:0000529c  2084 0001:000052a6
  2085 0001:000052b5  2086 0001:000052be  2089 0001:000052e4  2090 0001:000052e7
  2091 0001:000052fd  2100 0001:00005300  2104 0001:00005313  2106 0001:00005323
  2108 0001:00005331  2110 0001:00005338  2114 0001:00005349  2116 0001:00005355
  2119 0001:00005364  2121 0001:00005370  2123 0001:0000537a  2133 0001:00005387
  2134 0001:00005395  2128 0001:00005398  2129 0001:000053ad  2136 0001:000053ba
  2138 0001:000053c8  2140 0001:000053d7  2141 0001:000053e0  2147 0001:000053fa
  2149 0001:000053fb  2152 0001:00005406  2155 0001:0000541d  2157 0001:0000542e
  2162 0001:00005432  2161 0001:00005433  2162 0001:00005436  2165 0001:00005437
  2167 0001:0000544f  2170 0001:0000545c  2174 0001:00005462  2176 0001:00005489
  2178 0001:0000548f  2179 0001:00005498  2183 0001:000054ad  2185 0001:000054bb
  2186 0001:000054c6  2189 0001:000054d4  2191 0001:000054e1  2195 0001:000054f7
  2197 0001:0000550c  2199 0001:00005520  2200 0001:0000552c  2209 0001:0000553c
  2211 0001:00005541  2221 0001:00005555  2222 0001:0000557a  2226 0001:0000557e
  2231 0001:00005591  2235 0001:00005593  2236 0001:000055ab  2238 0001:000055af
  2240 0001:000055bc  2243 0001:000055be  2247 0001:000055cc  2248 0001:000055db
  2250 0001:000055e1  2252 0001:000055e3  2254 0001:000055e5  2260 0001:000055eb
  2266 0001:00005604  2275 0001:00005619  2277 0001:00005654  2281 0001:00005664
  2283 0001:0000568c  2286 0001:0000568e  2288 0001:000056aa  2290 0001:000056bd
  2292 0001:000056c6  2294 0001:000056d3  2296 0001:000056d5  2298 0001:000056e0
  2307 0001:000056ee  2310 0001:0000574b  2312 0001:00005755  2313 0001:00005768
  2316 0001:000057aa  2317 0001:000057be  2319 0001:000057c9  2322 0001:000057de
  2325 0001:000057ec  2327 0001:00005803  2330 0001:00005817  2331 0001:00005824
  2333 0001:00005839  2335 0001:00005844  2337 0001:00005848  2340 0001:00005853
  2342 0001:0000585a  2344 0001:00005865  2345 0001:00005873  2346 0001:0000587d
  2354 0001:000058a3  2357 0001:000058b9  2360 0001:000058c3  2363 0001:000058c6
  2365 0001:000058e4  2367 0001:000058ea  2368 0001:000058f6  2372 0001:0000590e
  2374 0001:0000591f  2375 0001:0000592d  2380 0001:0000593b  2383 0001:00005958
  2386 0001:0000596c  2387 0001:0000597b  2390 0001:00005990  2416 0001:00005994
  2417 0001:0000599a  2419 0001:0000599e  2421 0001:000059a9  2423 0001:000059ad
  2426 0001:000059b4  2432 0001:000059b6  2429 0001:000059b6  2433 0001:000059d4
  2436 0001:000059d7  2437 0001:000059e8  2440 0001:00005a04  2442 0001:00005a19
  2445 0001:00005a22  2447 0001:00005a2b  2450 0001:00005a31  2453 0001:00005a4e
  2454 0001:00005a56  2455 0001:00005a5f  2457 0001:00005a63  2460 0001:00005a69
  2462 0001:00005a7a  2463 0001:00005a8a  2471 0001:00005a96  2474 0001:00005aac
  2477 0001:00005ab6  2480 0001:00005ac5  2486 0001:00005ad7  2489 0001:00005adb
  2490 0001:00005adc  2491 0001:00005ae2  2494 0001:00005ae7  2496 0001:00005af5
  2498 0001:00005b00  2500 0001:00005b18  2501 0001:00005b1f  2503 0001:00005b2b
  2508 0001:00005b3b  2511 0001:00005b3c  2512 0001:00005b3d  2513 0001:00005b43
  2516 0001:00005b48  2518 0001:00005b56  2520 0001:00005b61  2522 0001:00005b6d
  2526 0001:00005b7d

Line numbers for .\WinRel\WDBGProjDoc.obj(g:\vsnet\vc7\include\vector) segment .text

   579 0001:00005b7e   580 0001:00005b82   581 0001:00005b99   582 0001:00005bad
   583 0001:00005baf   584 0001:00005bc1   723 0001:00005bc5   724 0001:00005bc6
   726 0001:00005bd6   727 0001:00005bdc   728 0001:00005be1   579 0001:00005be4
   580 0001:00005beb   581 0001:00005bfd   582 0001:00005c0e   583 0001:00005c10
   584 0001:00005c23   723 0001:00005c27   724 0001:00005c28   726 0001:00005c3b
   727 0001:00005c44   728 0001:00005c49   388 0001:00005c4c   387 0001:00005c4c
   515 0001:00005c51   516 0001:00005c51   517 0001:00005c5a   516 0001:00005c5b
   517 0001:00005c63   579 0001:00005c64   580 0001:00005c6b   581 0001:00005c7d
   582 0001:00005c8e   583 0001:00005c90   584 0001:00005ca3   723 0001:00005ca7
   724 0001:00005ca8   726 0001:00005cb8   727 0001:00005cbe   728 0001:00005cc3
   516 0001:00005cc6   515 0001:00005cc6   517 0001:00005ccf   516 0001:00005cd0
   517 0001:00005cd8   579 0001:00005cd9   580 0001:00005ce0   581 0001:00005cf2
   582 0001:00005d0c   583 0001:00005d0e   584 0001:00005d21   723 0001:00005d25
   724 0001:00005d29   726 0001:00005d3c   727 0001:00005d42   728 0001:00005d47
   458 0001:00005d4b   457 0001:00005d4b   459 0001:00005d54   458 0001:00005d55
   459 0001:00005d60   515 0001:00005d61   516 0001:00005d61   517 0001:00005d6a
   516 0001:00005d6b   517 0001:00005d76   620 0001:00005d77   621 0001:00005d78
   622 0001:00005d96   623 0001:00005da7   624 0001:00005db5   792 0001:00005db8
   791 0001:00005db8   795 0001:00005dbf   797 0001:00005dc6   798 0001:00005dd2
   877 0001:00005dd3   878 0001:00005dd6   879 0001:00005de4   880 0001:00005ded
   457 0001:00005df1   458 0001:00005df1   459 0001:00005dfa   458 0001:00005dfb
   459 0001:00005e08   515 0001:00005e09   516 0001:00005e09   517 0001:00005e12
   516 0001:00005e13   517 0001:00005e20   620 0001:00005e21   621 0001:00005e22
   622 0001:00005e42   623 0001:00005e53   624 0001:00005e61   877 0001:00005e64
   878 0001:00005e67   879 0001:00005e78   880 0001:00005e87   458 0001:00005e8b
   457 0001:00005e8b   459 0001:00005e94   458 0001:00005e95   459 0001:00005e9d
   620 0001:00005e9e   621 0001:00005e9f   622 0001:00005eb8   623 0001:00005ec9
   624 0001:00005ed4   877 0001:00005ed7   878 0001:00005eda   879 0001:00005eeb
   880 0001:00005ef7   458 0001:00005efb   457 0001:00005efb   459 0001:00005f04
   458 0001:00005f05   459 0001:00005f0d   620 0001:00005f0e   621 0001:00005f0f
   622 0001:00005f28   623 0001:00005f3a   624 0001:00005f45   809 0001:00005f48
   810 0001:00005f58   811 0001:00005f61   813 0001:00005f6c   815 0001:00005f79
   816 0001:00005f8b   817 0001:00005f90   820 0001:00005fa1   821 0001:00005fbe
   822 0001:00005fcb   823 0001:00005fd9   826 0001:00005fe5   828 0001:00005fe9
   829 0001:00005ffd   830 0001:00006009   837 0001:0000601a   838 0001:00006026
   840 0001:0000602d   841 0001:00006039   843 0001:00006042   844 0001:00006051
   845 0001:0000605a   847 0001:0000605d   833 0001:00006062   857 0001:0000606b
   847 0001:00006074   850 0001:00006089   852 0001:000060a3   854 0001:000060aa
   860 0001:000060c5   862 0001:000060ce   864 0001:000060df   868 0001:000060e1
   870 0001:000060fa   872 0001:00006109   874 0001:0000611a   809 0001:0000612b
   810 0001:00006148   811 0001:00006155   813 0001:00006161   815 0001:0000616e
   816 0001:00006180   817 0001:00006185   820 0001:00006196   821 0001:000061ab
   822 0001:000061b8   823 0001:000061c3   826 0001:000061d1   828 0001:000061d5
   829 0001:000061ec   830 0001:000061fb   837 0001:0000620c   838 0001:00006215
   840 0001:0000621c   841 0001:0000622a   843 0001:00006233   844 0001:0000623f
   845 0001:0000624f   847 0001:00006252   833 0001:00006257   857 0001:00006263
   847 0001:0000626c   850 0001:0000627c   852 0001:0000629d   854 0001:000062a4
   860 0001:000062c6   862 0001:000062cc   864 0001:000062e0   868 0001:000062e2
   870 0001:000062f5   872 0001:00006306   874 0001:0000631a   809 0001:00006333
   810 0001:00006343   811 0001:0000634d   813 0001:00006358   815 0001:00006365
   816 0001:00006377   817 0001:0000637c   820 0001:0000638d   821 0001:000063a2
   822 0001:000063af   823 0001:000063ba   826 0001:000063c5   828 0001:000063c9
   829 0001:000063dd   830 0001:000063e9   837 0001:000063fa   838 0001:00006403
   840 0001:0000640a   841 0001:00006416   843 0001:0000641f   844 0001:00006427
   845 0001:00006432   847 0001:00006435   833 0001:0000643a   857 0001:00006443
   847 0001:0000644c   850 0001:00006452   852 0001:00006475   854 0001:0000647c
   860 0001:00006495   862 0001:0000649b   864 0001:000064ac   868 0001:000064ae
   870 0001:000064bc   872 0001:000064cd   874 0001:000064de   883 0001:000064ef
   884 0001:000064fc   809 0001:00006531   810 0001:00006546   811 0001:00006550
   813 0001:0000655d   815 0001:00006567   816 0001:00006579   817 0001:0000657e
   820 0001:0000658f   821 0001:000065a4   822 0001:000065b1   823 0001:000065bc
   826 0001:000065c7   828 0001:000065cb   829 0001:000065df   830 0001:000065f3
   837 0001:00006607   838 0001:00006610   840 0001:00006617   841 0001:00006623
   843 0001:0000662c   844 0001:00006635   845 0001:0000663b   847 0001:0000663e
   833 0001:00006643   857 0001:0000664c   847 0001:00006655   850 0001:00006669
   852 0001:00006680   854 0001:00006687   860 0001:000066a0   862 0001:000066ac
   864 0001:000066c2   868 0001:000066c4   870 0001:000066d7   872 0001:000066ec
   874 0001:00006702

Line numbers for .\WinRel\WDBGProjDoc.obj(g:\vsnet\vc7\atlmfc\include\afxtempl.h) segment .text

   359 0001:00006770   356 0001:00006770   361 0001:0000677d   362 0001:00006787
   363 0001:0000679e   365 0001:000067a8   629 0001:000067a9   633 0001:000067ab
   635 0001:000067b8   637 0001:000067c4   639 0001:000067c6   640 0001:000067cd
   642 0001:000067d5   643 0001:000067e3   369 0001:000068ea   373 0001:000068f3
   374 0001:000068f7   376 0001:000068fd   377 0001:00006901   379 0001:00006904
   382 0001:00006908   384 0001:0000690d   385 0001:0000691a   386 0001:0000692f
   387 0001:00006937   389 0001:0000693e   391 0001:00006944   398 0001:00006950
   399 0001:0000695d   400 0001:00006969   401 0001:00006979   399 0001:00006981
   404 0001:00006984   401 0001:00006990   409 0001:00006998   412 0001:000069a8
   415 0001:000069af   416 0001:000069c3   419 0001:000069d5   416 0001:000069e7
   422 0001:000069f1   425 0001:000069fc   426 0001:00006a0e   430 0001:00006a2b
   433 0001:00006a30   434 0001:00006a33   438 0001:00006a37   439 0001:00006a40
   442 0001:00006a55   443 0001:00006a59   445 0001:00006a5e   449 0001:00006a61
   450 0001:00006a66   455 0001:00006a6b   458 0001:00006a79   462 0001:00006a89
   463 0001:00006aa1   466 0001:00006ab1   463 0001:00006ac3   470 0001:00006ad0
   471 0001:00006ad9   473 0001:00006adc   472 0001:00006ae2   475 0001:00006ae7
   322 0001:00006ae9   320 0001:00006ae9   323 0001:00006af2   325 0001:00006af8
   324 0001:00006af9    69 0001:00006afe    74 0001:00006b02    80 0001:00006b10
    81 0001:00006b17    85 0001:00006b1b    86 0001:00006b26    88 0001:00006b37
    91 0001:00006b40    98 0001:00006b42   102 0001:00006b46   103 0001:00006b51
   105 0001:00006b62   108 0001:00006b6e   322 0001:00006b72   320 0001:00006b72
   323 0001:00006b7b   325 0001:00006b81   324 0001:00006b82

Line numbers for .\WinRel\WDBGProjDoc.obj(g:\vsnet\vc7\include\xutility) segment .text

  1039 0001:000067e6  1040 0001:000067ea  1041 0001:000067fb  1039 0001:000067fd
  1040 0001:00006801  1041 0001:00006812  1039 0001:00006814  1040 0001:00006818
  1041 0001:00006829  1135 0001:0000682b  1134 0001:0000682b  1136 0001:00006833
  1137 0001:00006847  1067 0001:00006848  1069 0001:0000684c  1070 0001:0000685d
  1135 0001:0000685f  1134 0001:0000685f  1136 0001:00006867  1137 0001:00006881
  1067 0001:00006882  1069 0001:00006886  1070 0001:00006897  1134 0001:00006899
  1135 0001:00006899  1136 0001:000068a1  1137 0001:000068b6  1067 0001:000068b7
  1069 0001:000068bb  1070 0001:000068cc  1020 0001:00006b87  1021 0001:00006b8a
  1022 0001:00006b91  1023 0001:00006ba7  1024 0001:00006baa  1020 0001:00006bac
  1021 0001:00006baf  1022 0001:00006bbb  1023 0001:00006bd3  1024 0001:00006bd6
  1020 0001:00006bd8  1021 0001:00006bdb  1022 0001:00006be2  1023 0001:00006bf9
  1024 0001:00006bfc  1020 0001:00006bfe  1021 0001:00006bfe  1022 0001:00006c00
  1021 0001:00006c10  1024 0001:00006c16  1048 0001:00006ca3  1049 0001:00006ca6
  1050 0001:00006cad  1051 0001:00006cc3  1052 0001:00006cc6  1048 0001:00006cc8
  1049 0001:00006ccb  1050 0001:00006cd7  1051 0001:00006cef  1052 0001:00006cf2
  1048 0001:00006cf4  1049 0001:00006cf7  1050 0001:00006cfe  1051 0001:00006d15
  1052 0001:00006d18  1049 0001:00006d1a  1048 0001:00006d1a  1050 0001:00006d20
  1052 0001:00006d36

Line numbers for .\WinRel\WDBGProjDoc.obj(g:\vsnet\vc7\atlmfc\include\afxwin2.inl) segment .text

   983 0001:00006dc6   981 0001:00006dd0  1048 0001:00006ebb

Line numbers for .\WinRel\WDBGProjDoc.obj(g:\vsnet\vc7\include\stdexcept) segment .text

    26 0001:00006df0    27 0001:00006df0    28 0001:00006df9    27 0001:00006dfa
    28 0001:00006dfd    23 0001:00006e1a    99 0001:00006e57    19 0001:00006e62
    20 0001:00006e8e

Line numbers for .\WinRel\WDBGProjDoc.obj(d:\dev\booktwo\disk\include\variableinfo.h) segment .text

    62 0001:00006f0e    63 0001:00006f0f    21 0001:00006f8e    23 0001:00006f9f
    24 0001:00006fa6    70 0001:00006fa9    71 0001:00006faa    88 0001:00006fac
    89 0001:00007015    90 0001:0000701d

Line numbers for .\WinRel\WDBGProjDoc.obj(d:\dev\booktwo\disk\include\symbolengine.h) segment .text

   422 0001:00006e9f   426 0001:00006e9f   427 0001:00006eb8   446 0001:00006ec8
   442 0001:00006ec8   447 0001:00006ee1   136 0001:00006ee4   137 0001:00006eea
   119 0001:00006f3e   121 0001:00006f4d   124 0001:00006f4f   126 0001:00006f60
   127 0001:00006f66   128 0001:00006f6c   129 0001:00006f72   130 0001:00006f78
   131 0001:00006f7e   132 0001:00006f84   133 0001:00006f8a   698 0001:0000701e
   697 0001:0000701e   699 0001:00007023   700 0001:00007026   701 0001:00007029
   702 0001:0000702c   703 0001:0000702f   704 0001:00007035   705 0001:0000703c
   706 0001:0000703f

Line numbers for .\WinRel\WDBGLogView.obj(g:\vsnet\vc7\atlmfc\include\afxwin1.inl) segment .text

   155 0001:00002893

Line numbers for .\WinRel\WDBGLogView.obj(d:\dev\booktwo\disk\wdbg\wdbg\wdbglogview.cpp) segment .text

    18 0001:0000254c    18 0001:00002583    20 0001:00002589    39 0001:0000258f
    41 0001:000025ac    44 0001:000025af    45 0001:000025ca    48 0001:000025f3
    49 0001:000025f3    63 0001:000025f8    65 0001:000025f8    71 0001:000025fd
    69 0001:000025fd    77 0001:00002602    75 0001:00002602   100 0001:00002607
    99 0001:00002607   101 0001:00002610   102 0001:00002622   105 0001:00002623
   108 0001:00002624   120 0001:0000264c   125 0001:00002654   128 0001:00002657
   129 0001:00002666   132 0001:0000266b   133 0001:00002678   136 0001:0000268a
   138 0001:00002698   142 0001:000026a2   144 0001:000026b8   145 0001:000026c2
   148 0001:000026d9   149 0001:000026da   150 0001:000026f6   151 0001:00002701
   153 0001:00002709   155 0001:0000270e   157 0001:00002710   159 0001:00002715
   162 0001:00002718   164 0001:00002719   165 0001:00002726   169 0001:0000272b
   171 0001:00002735   172 0001:0000274a   173 0001:0000275c   177 0001:0000275f
   181 0001:0000275f   182 0001:0000276c   183 0001:0000276e   186 0001:00002771
   187 0001:00002774   189 0001:0000277b   190 0001:00002786   191 0001:0000279a
   193 0001:000027a1   195 0001:000027ad   199 0001:000027b0   202 0001:000027b7
   204 0001:000027c2   207 0001:000027dc   208 0001:000027ec   230 0001:000027f0
   228 0001:000027f0   235 0001:000027f3   233 0001:000027f3   238 0001:000027f4
   239 0001:000027f4   240 0001:000027fe   244 0001:00002801   250 0001:00002804
   251 0001:0000280e

Line numbers for .\WinRel\WDBGLogView.obj(g:\vsnet\vc7\atlmfc\include\afxwin2.inl) segment .text

   869 0001:00002816   870 0001:0000282f   871 0001:00002837   852 0001:00002847
   850 0001:0000285e    58 0001:00002875

Line numbers for .\WinRel\WDBGChildFrame.obj(d:\dev\booktwo\disk\wdbg\wdbg\wdbgchildframe.cpp) segment .text

    15 0001:00002450    15 0001:00002487    18 0001:0000248d    19 0001:0000249a
    22 0001:000024b9    23 0001:000024bf    28 0001:000024c4    26 0001:000024c4
    30 0001:000024d5    32 0001:000024d9    34 0001:000024e9    37 0001:000024ea
    38 0001:000024ea    40 0001:000024fb    42 0001:000024ff    44 0001:0000250f
    46 0001:00002510    52 0001:00002516    53 0001:00002517    58 0001:00002525
    59 0001:00002529    60 0001:0000252d

Line numbers for .\WinRel\WDBG.obj(d:\dev\booktwo\disk\wdbg\wdbg\wdbg.cpp) segment .text

    20 0001:00001f18    35 0001:00001f1e    36 0001:00001f27    38 0001:00001f34
    49 0001:00001f37    62 0001:00001f47    65 0001:00001f53    72 0001:00001f5c
    77 0001:00001f96    80 0001:00001f9e    81 0001:00001fc2    86 0001:00001fde
    89 0001:00001feb    90 0001:00001ff2    93 0001:00001ffa    97 0001:00002002
   100 0001:00002018   104 0001:0000202b   105 0001:00002035   107 0001:0000203e
   108 0001:0000204c   127 0001:0000205b   128 0001:00002069   129 0001:00002075
   130 0001:0000207c   134 0001:00002094   137 0001:000020ad   147 0001:000020be
   150 0001:000020d2   151 0001:000020e1   154 0001:000020fa   156 0001:0000210c
   159 0001:0000211d   163 0001:00002132   164 0001:0000213e   166 0001:0000214a
   169 0001:00002163   171 0001:00002174   172 0001:00002187   174 0001:00002194
   177 0001:000021a9   179 0001:000021ba   180 0001:000021cd   184 0001:000021da
   185 0001:000021e6   187 0001:000021f2   188 0001:000021fd   190 0001:0000220b
   198 0001:0000221b   199 0001:00002257   201 0001:00002259   202 0001:0000226c
   203 0001:00002279   204 0001:00002287   205 0001:0000229a   188 0001:000022a7
   210 0001:000022b3   211 0001:000022bf   214 0001:000022d9   216 0001:000022ea
   217 0001:000022fd   218 0001:0000230a   219 0001:0000231b   222 0001:00002328
   224 0001:00002339   225 0001:00002348   227 0001:0000236a   229 0001:00002378
   231 0001:00002388   233 0001:0000238d   235 0001:0000239d   238 0001:00002416
   239 0001:00002418   244 0001:00002425   245 0001:0000242f   246 0001:00002433
    43 0001:0000adb2

Line numbers for .\WinRel\WDBG.obj(g:\vsnet\vc7\atlmfc\include\afxwin2.inl) segment .text

   957 0001:00002436

Line numbers for .\WinRel\ThreadPickerDlg.obj(d:\dev\booktwo\disk\wdbg\wdbg\threadpickerdlg.cpp) segment .text

    20 0001:00001cf4    22 0001:00001d49    24 0001:00001d5a    27 0001:00001d5d
    28 0001:00001d75    32 0001:00001df1    35 0001:00001df5    36 0001:00001e08
    38 0001:00001e1b    41 0001:00001e1e    47 0001:00001e24    48 0001:00001e26
    49 0001:00001e2f    52 0001:00001e39    54 0001:00001e48    58 0001:00001e50
    59 0001:00001e5f    61 0001:00001e64    65 0001:00001e71    67 0001:00001e7a
    69 0001:00001e83    70 0001:00001e97    72 0001:00001ea1    74 0001:00001ebb
    77 0001:00001ed0    79 0001:00001edd    81 0001:00001ee6

Line numbers for .\WinRel\SymbolsDisplayDlg.obj(d:\dev\booktwo\disk\wdbg\wdbg\symbolsdisplaydlg.cpp) segment .text

    19 0001:00001b94    21 0001:00001bda    23 0001:00001beb    24 0001:00001bee
    25 0001:00001bf5    29 0001:00001c6a    32 0001:00001c6e    33 0001:00001c81
    35 0001:00001c94    55 0001:00001c97    56 0001:00001c9b    61 0001:00001ca0
    63 0001:00001ca9    65 0001:00001cb5    67 0001:00001cbd    70 0001:00001cd9
    72 0001:00001cee    74 0001:00001cf3

Line numbers for .\WinRel\ProjectSettings.obj(d:\dev\booktwo\disk\wdbg\wdbg\projectsettings.cpp) segment .text

    17 0001:00001a3d    19 0001:00001a86    20 0001:00001a98    21 0001:00001aa2
    23 0001:00001aa6    27 0001:00001afa    30 0001:00001afc    31 0001:00001b11
    32 0001:00001b20    34 0001:00001b31    43 0001:00001b34    46 0001:00001b34
    50 0001:00001b39    51 0001:00001b47    53 0001:00001b4c    54 0001:00001b59
    55 0001:00001b71    57 0001:00001b7b    59 0001:00001b84

Line numbers for .\WinRel\NewEditBPDlg.obj(d:\dev\booktwo\disk\wdbg\wdbg\neweditbpdlg.cpp) segment .text

    20 0001:00001669    22 0001:000016dd    25 0001:000016ee    28 0001:000016f8
    29 0001:000016ff    30 0001:00001706    34 0001:0000174e    37 0001:00001751
    38 0001:00001766    39 0001:00001779    40 0001:0000178b    41 0001:0000179d
    43 0001:000017ae    46 0001:000017b1    55 0001:000017b7    56 0001:000017c8
    59 0001:000017cd    60 0001:000017d8    63 0001:000017ed    65 0001:000017fb
    66 0001:00001806    69 0001:0000181c    70 0001:00001829    72 0001:00001830
    75 0001:00001844    78 0001:00001849    80 0001:0000184b    83 0001:0000185a
    86 0001:00001868    88 0001:00001872    90 0001:0000187b    91 0001:00001887
    92 0001:00001893    99 0001:000018a2   100 0001:000018b4   103 0001:000018c6
   104 0001:000018ca   106 0001:000018d4   107 0001:000018dc   109 0001:000018e1
   110 0001:000018ee   112 0001:000018f0   114 0001:000018f7   115 0001:00001904
   118 0001:00001913   121 0001:00001914   122 0001:00001916   124 0001:00001921
   126 0001:0000192d   127 0001:00001936   130 0001:00001938   133 0001:00001947
   135 0001:00001958   149 0001:00001967   141 0001:00001968   144 0001:0000196e
   145 0001:00001978   148 0001:00001987

Line numbers for .\WinRel\NewEditBPDlg.obj(g:\vsnet\vc7\atlmfc\include\afxwin2.inl) segment .text

   743 0001:0000198f   732 0001:000019a6   745 0001:000019b9   757 0001:000019d2

Line numbers for .\WinRel\MemoryDisplayDlg.obj(d:\dev\booktwo\disk\wdbg\wdbg\memorydisplaydlg.cpp) segment .text

    18 0001:00001532    20 0001:00001565    24 0001:00001576    25 0001:0000157a
    29 0001:000015cc    32 0001:000015cf    33 0001:000015e1    35 0001:000015f7
    38 0001:000015fa    64 0001:00001600    65 0001:00001603    68 0001:00001608
    81 0001:00001616    82 0001:0000161b    74 0001:0000161d    75 0001:00001622
    71 0001:00001624    85 0001:00001629    87 0001:00001631    88 0001:00001643
    89 0001:00001647    92 0001:00001648    93 0001:00001648    94 0001:00001652
    98 0001:00001653    97 0001:00001653    99 0001:0000165d   103 0001:0000165e
   102 0001:0000165e   104 0001:00001668

Line numbers for .\WinRel\MainFrm.obj(d:\dev\booktwo\disk\wdbg\wdbg\mainfrm.cpp) segment .text

    16 0001:000013cf    18 0001:000013d5    35 0001:000013db    36 0001:00001414
    39 0001:00001425    40 0001:0000143c    43 0001:00001475    44 0001:0000147e
    45 0001:0000148b    49 0001:00001491    57 0001:000014e1    63 0001:00001512
    52 0001:00001516    64 0001:00001519    68 0001:00001520    67 0001:00001520
    74 0001:0000152f

Line numbers for .\WinRel\DocNotifyWnd.obj(d:\dev\booktwo\disk\wdbg\wdbg\docnotifywnd.cpp) segment .text

    15 0001:00001232    31 0001:00001238    32 0001:00001263    33 0001:00001280
    36 0001:000012ae    37 0001:000012b1    40 0001:000012c8    41 0001:000012ce
    52 0001:000012d1    55 0001:00001308    59 0001:0000130a    61 0001:0000130b
    62 0001:00001319    66 0001:0000131c    68 0001:0000131c    69 0001:0000132e
    73 0001:00001331    75 0001:00001332    76 0001:0000133f    79 0001:00001342
    81 0001:00001343    82 0001:0000134d    83 0001:00001355    84 0001:00001358
    88 0001:0000135b    90 0001:0000135b    91 0001:00001367    97 0001:0000136a
    95 0001:0000136a    98 0001:00001378   102 0001:0000137b   104 0001:0000137c
   105 0001:0000138b   109 0001:0000138e   111 0001:0000138e   112 0001:0000139a
   117 0001:0000139d   119 0001:0000139d   120 0001:000013ab

Line numbers for .\WinRel\DisasmDisplayDlg.obj(d:\dev\booktwo\disk\wdbg\wdbg\disasmdisplaydlg.cpp) segment .text

    18 0001:00001165    20 0001:00001198    23 0001:000011a9    24 0001:000011ad
    25 0001:000011b1    28 0001:000011cd    31 0001:000011d0    32 0001:000011e2
    34 0001:000011f8    42 0001:000011fb    45 0001:000011fd    48 0001:00001206
    50 0001:00001219    56 0001:00001228    54 0001:0000122a

Line numbers for .\WinRel\BreakpointsDlg.obj(d:\dev\booktwo\disk\wdbg\wdbg\breakpoint.h) segment .text

   229 0001:0000062e   231 0001:0000064e   232 0001:00000654   233 0001:0000065a
   234 0001:00000660   235 0001:00000666   236 0001:00000669   237 0001:00000679

Line numbers for .\WinRel\BreakpointsDlg.obj(d:\dev\booktwo\disk\wdbg\wdbg\breakpointsdlg.cpp) segment .text

    21 0001:0000068b    25 0001:000006e5    29 0001:000006e8    33 0001:00000785
    36 0001:00000787    37 0001:0000079c    38 0001:000007ab    40 0001:000007bc
    43 0001:000007bf    53 0001:000007c5    54 0001:000007d5    55 0001:000007f3
    58 0001:00000806    59 0001:0000080f    61 0001:00000823    66 0001:00000833
    67 0001:0000083b    69 0001:00000845    75 0001:00000850   114 0001:0000087a
   116 0001:00000886    78 0001:00000888    82 0001:00000893    85 0001:000008a4
    88 0001:000008ab    89 0001:000008ad    95 0001:000008bd    97 0001:000008c9
    99 0001:000008d0   100 0001:000008d7   103 0001:000008e1   120 0001:000008ed
   121 0001:000008f7   129 0001:00000916   130 0001:00000920   132 0001:00000927
   135 0001:0000092f   136 0001:00000939   138 0001:0000093d   140 0001:00000944
   130 0001:00000956   151 0001:00000959   155 0001:00000969   157 0001:00000970
   163 0001:0000099e   165 0001:000009a5   166 0001:000009ae   170 0001:000009c5
   171 0001:000009d2   174 0001:000009dd   176 0001:000009e4   165 0001:00000a02
   179 0001:00000a07   182 0001:00000a0d   183 0001:00000a19   185 0001:00000a1f
   187 0001:00000a27   189 0001:00000a39   191 0001:00000a41   195 0001:00000a4b
   197 0001:00000a60   201 0001:00000a6d   203 0001:00000a75   205 0001:00000a91
   206 0001:00000aa2   213 0001:00000aa9   215 0001:00000ac0   217 0001:00000ad5
   219 0001:00000adf   221 0001:00000aeb   226 0001:00000af5   229 0001:00000b02
   231 0001:00000b19   234 0001:00000b23   239 0001:00000b30   240 0001:00000b3a
   243 0001:00000b47   247 0001:00000b51   248 0001:00000b63   249 0001:00000b6e
   250 0001:00000b7b   253 0001:00000b85   256 0001:00000b8c   259 0001:00000c0c
   260 0001:00000c1e   262 0001:00000c3c   267 0001:00000c4b   269 0001:00000c68
   272 0001:00000c73   274 0001:00000c85   276 0001:00000c92   278 0001:00000c9d
   280 0001:00000ca7   282 0001:00000caf   285 0001:00000ccd   288 0001:00000cd2
   292 0001:00000ce8   295 0001:00000cf0   297 0001:00000cfd   299 0001:00000d05
   302 0001:00000d1b   306 0001:00000d24   307 0001:00000d34   311 0001:00000d39
   312 0001:00000d42   314 0001:00000d4f   316 0001:00000d5f   317 0001:00000d84
   319 0001:00000d96   321 0001:00000da2   323 0001:00000dad   327 0001:00000dc4
   329 0001:00000dd9   331 0001:00000de0   334 0001:00000df0   335 0001:00000df3
   336 0001:00000dfb   338 0001:00000dfe   339 0001:00000e0d   341 0001:00000e0f
   343 0001:00000e11   344 0001:00000e18   346 0001:00000e26

Line numbers for .\WinRel\BreakpointsDlg.obj(g:\vsnet\vc7\atlmfc\include\afxtempl.h) segment .text

   356 0001:00000e27   359 0001:00000e2d   363 0001:00000e34   365 0001:00000e3b
   629 0001:00000e3c   633 0001:00000e3d   635 0001:00000e4b   637 0001:00000e57
   639 0001:00000e5a   640 0001:00000e61   642 0001:00000e6a   643 0001:00000e78
   369 0001:00000e99   373 0001:00000e9d   374 0001:00000e9f   376 0001:00000ea5
   377 0001:00000ea9   379 0001:00000eac   382 0001:00000eb0   386 0001:00000eb7
   387 0001:00000ebd   389 0001:00000ec1   475 0001:00000ec9   391 0001:00000ecb
   398 0001:00000ed3   399 0001:00000edc   400 0001:00000ee7   407 0001:00000efb
   409 0001:00000efe   412 0001:00000f0a   415 0001:00000f15   430 0001:00000f2b
   433 0001:00000f30   434 0001:00000f33   438 0001:00000f37   439 0001:00000f40
   442 0001:00000f55   443 0001:00000f59   445 0001:00000f5e   449 0001:00000f61
   450 0001:00000f68   455 0001:00000f6d   458 0001:00000f78   462 0001:00000f88
   470 0001:00000f9e   473 0001:00000fa6   472 0001:00000fb2   475 0001:00000fb6
   533 0001:00000fb8   537 0001:00000fb8   538 0001:00000fbf   540 0001:00000fc4
   541 0001:00000fca   542 0001:00000fd6   543 0001:00000fe1    69 0001:00000fe4
    74 0001:00000fe8    80 0001:00000ff6    81 0001:00000ffd    85 0001:00001001
    86 0001:0000100c    88 0001:0000101d    91 0001:00001026    98 0001:00001028
   102 0001:0000102c   103 0001:00001037   105 0001:00001048   108 0001:00001054

Line numbers for .\WinRel\BreakpointsDlg.obj(g:\vsnet\vc7\atlmfc\include\afxwin2.inl) segment .text

   692 0001:00001058   641 0001:0000106f   658 0001:00001086   696 0001:0000109f
   660 0001:000010b8   639 0001:000010cf   694 0001:000010e2   637 0001:000010f9
   723 0001:0000112d

Line numbers for .\WinRel\Breakpoint.obj(d:\dev\booktwo\disk\wdbg\wdbg\breakpoint.h) segment .text

    59 0001:00000072    62 0001:00000081    63 0001:00000085    64 0001:00000089
    65 0001:00000094   218 0001:00000097   220 0001:0000009f   221 0001:000000a9
   252 0001:000000ad   251 0001:000000ad   253 0001:000000b0

Line numbers for .\WinRel\Breakpoint.obj(d:\dev\booktwo\disk\wdbg\wdbg\breakpoint.cpp) segment .text

    20 0001:000000d6    19 0001:000000d6    24 0001:000000dd    25 0001:000000e7
    29 0001:000000ea    28 0001:000000ea    33 0001:000000f3    36 0001:00000104
    42 0001:00000116    46 0001:00000119    48 0001:0000011f    50 0001:00000131
    58 0001:00000140    38 0001:00000142    59 0001:00000144    63 0001:00000151
    64 0001:00000151    65 0001:00000154    69 0001:00000155    68 0001:00000155
    70 0001:00000158    74 0001:00000159    78 0001:0000016d    87 0001:0000017f
    99 0001:0000018e   101 0001:000001a7   102 0001:000001ae    89 0001:000001b0
    80 0001:000001b4   103 0001:000001b7   107 0001:000001c2   108 0001:000001c2
   109 0001:000001c5   112 0001:000001c6   111 0001:000001c6   113 0001:000001cd
   116 0001:000001ce   118 0001:000001d1   120 0001:000001d7   122 0001:000001dc
   123 0001:000001e4   131 0001:000001e5   138 0001:000001f5   143 0001:00000201
   148 0001:00000232   149 0001:00000235   157 0001:0000024b   154 0001:0000024b
   158 0001:0000024e   165 0001:00000251   172 0001:00000261   179 0001:0000026d
   188 0001:0000029e   195 0001:000002b2   199 0001:000002b5   204 0001:000002ca
   207 0001:000002db   209 0001:000002e4   212 0001:000002e6   214 0001:000002ec
   220 0001:000002f0   222 0001:000002f9   224 0001:0000030d   234 0001:00000318
   235 0001:00000321   236 0001:00000324   239 0001:00000331   246 0001:0000033a
   253 0001:00000356   256 0001:0000035f   259 0001:0000037f   262 0001:00000381
   248 0001:00000390   263 0001:00000392   267 0001:0000039c   267 0001:000003b0
   270 0001:000003b6   274 0001:000003b8   278 0001:000003c8   280 0001:000003cb
   282 0001:000003d5   284 0001:000003d8   285 0001:000003e1   287 0001:000003ea
   289 0001:000003ec   290 0001:000003f6   292 0001:00000403   267 0001:0000ada7

Line numbers for .\WinRel\Breakpoint.obj(g:\vsnet\vc7\atlmfc\include\afxstr.h) segment .text

   111 0001:00000406   110 0001:00000406   112 0001:00000416   114 0001:00000428
   115 0001:0000042c   120 0001:0000042f   122 0001:0000044a   125 0001:00000459
   128 0001:0000047b   129 0001:00000496   130 0001:00000498   131 0001:0000049a
   132 0001:000004a9   133 0001:000004be   137 0001:000004c0   140 0001:000004d7
   141 0001:000004f7   142 0001:000004fb   143 0001:00000503   144 0001:00000512
   147 0001:0000052b

Line numbers for .\WinRel\Breakpoint.obj(g:\vsnet\vc7\atlmfc\include\atlalloc.h) segment .text

   226 0001:00000547   225 0001:00000547   228 0001:0000054e   230 0001:00000553
   312 0001:00000554   313 0001:00000554   314 0001:0000055d   276 0001:0000055e
   278 0001:0000055e   280 0001:00000568   282 0001:00000572   284 0001:00000574
   287 0001:00000579   288 0001:0000057b   293 0001:0000057e   292 0001:0000057e
   294 0001:00000588   296 0001:0000058d   298 0001:00000597   299 0001:0000059d

Line numbers for .\WinRel\Breakpoint.obj(g:\vsnet\vc7\atlmfc\include\atlexcept.h) segment .text

    64 0001:000005a0    61 0001:000005a0    66 0001:000005aa    70 0001:000005af

Line numbers for .\WinRel\Breakpoint.obj(g:\vsnet\vc7\atlmfc\include\afx.inl) segment .text

   300 0001:000005b9   299 0001:000005b9   301 0001:000005bf   302 0001:000005c9
   303 0001:000005d6   304 0001:000005e3   305 0001:000005f4   200 0001:000005f7
   199 0001:000005f7   201 0001:00000600   202 0001:0000060a   203 0001:0000061c
   204 0001:0000062b

Line numbers for .\WinRel\AboutDlg.obj(d:\dev\booktwo\disk\wdbg\wdbg\aboutdlg.cpp) segment .text

    16 0001:00000021    19 0001:00000032    26 0001:00000035    22 0001:00000035

Line numbers for .\WinRel\AboutDlg.obj(g:\vsnet\vc7\atlmfc\include\afxwin2.inl) segment .text

   569 0001:00000038   551 0001:0000004d   549 0001:00000059

Line numbers for .\WinRel\AboutDlg.obj(g:\vsnet\vc7\atlmfc\include\afx.inl) segment .text

    31 0001:00000065

Line numbers for \Dev\BookTwo\Disk\Release\SymbolEngine_Release.lib(d:\dev\booktwo\disk\symbolengine\determineaddress.cpp) segment .text

    11 0001:00008965    12 0001:0000897e    16 0001:00008981    18 0001:0000898b
    29 0001:00008991    31 0001:000089a0    33 0001:000089ab    35 0001:000089ad
    38 0001:000089c0    39 0001:000089cf    40 0001:000089d5    44 0001:000089da
    49 0001:000089eb    57 0001:000089ff    58 0001:00008a01    64 0001:00008a08
    70 0001:00008a24    79 0001:00008a30    80 0001:00008a33    86 0001:00008a48
    87 0001:00008a49    88 0001:00008a4c    94 0001:00008a5c    95 0001:00008a67
    97 0001:00008a6c    98 0001:00008a72   100 0001:00008a74   101 0001:00008a7a
   103 0001:00008a7c   104 0001:00008a82   106 0001:00008a84   107 0001:00008a8b
   109 0001:00008a8d   110 0001:00008a94   112 0001:00008a96   113 0001:00008a9d
   115 0001:00008a9f   116 0001:00008aac   118 0001:00008ab1   119 0001:00008abc
   121 0001:00008ac1   122 0001:00008ac7   124 0001:00008ac9   125 0001:00008acf
   127 0001:00008ad1   128 0001:00008ad7   130 0001:00008ad9   131 0001:00008adf
   133 0001:00008ae1   134 0001:00008ae7   136 0001:00008ae9   137 0001:00008aef
   139 0001:00008af1   140 0001:00008af7   142 0001:00008af9   143 0001:00008aff
   145 0001:00008b04   146 0001:00008b0a   148 0001:00008b0f   149 0001:00008b15
   151 0001:00008b17   152 0001:00008b1d   154 0001:00008b1f   155 0001:00008b25
   157 0001:00008b27   158 0001:00008b2d   160 0001:00008b2f   161 0001:00008b35
   163 0001:00008b37   164 0001:00008b3d   166 0001:00008b3f   167 0001:00008b45
   169 0001:00008b47   170 0001:00008b4d   172 0001:00008b4f   173 0001:00008b55
   175 0001:00008b57   176 0001:00008b5d   178 0001:00008b5f   179 0001:00008b65
   181 0001:00008b67   182 0001:00008b6d   184 0001:00008b6f   185 0001:00008b75
   187 0001:00008b7a   188 0001:00008b80   190 0001:00008b85   191 0001:00008b8b
   193 0001:00008b8d   194 0001:00008b99   197 0001:00008b9b   200 0001:00008b9d
   201 0001:00008ba0

Line numbers for \Dev\BookTwo\Disk\Release\SymbolEngine_Release.lib(d:\dev\booktwo\disk\jfx\jstring.cpp) segment .text

    17 0001:000075b8    21 0001:000075b8    23 0001:000075cb    26 0001:000075cc
    27 0001:000075cc    29 0001:000075df    34 0001:000075e0    33 0001:000075e0
    35 0001:000075e4    36 0001:000075e7    37 0001:000075ee    38 0001:000075f2
    39 0001:000075f5    95 0001:000075f6    94 0001:000075f6    97 0001:000075fc
    98 0001:00007603    99 0001:00007608   100 0001:0000760b   102 0001:0000760e
   111 0001:0000760f   112 0001:0000760f   113 0001:00007623   129 0001:00007624
   128 0001:00007624   131 0001:00007627   133 0001:00007631   135 0001:00007636
   136 0001:0000763b   139 0001:0000763d   142 0001:00007640   145 0001:00007649
   147 0001:0000764e   149 0001:00007654   152 0001:0000765b   153 0001:00007665
   154 0001:0000766f   156 0001:0000767b   159 0001:0000767d   161 0001:00007689
   163 0001:00007692   164 0001:00007694   169 0001:00007695   167 0001:00007695
   180 0001:000076a1   183 0001:000076aa   185 0001:000076b0   187 0001:000076b6
   190 0001:000076bd   191 0001:000076c7   192 0001:000076cf   194 0001:000076dc
   197 0001:000076de   199 0001:000076e9   171 0001:000076f1   173 0001:000076f6
   174 0001:000076fb   201 0001:00007700   202 0001:00007702   263 0001:00007703
   264 0001:00007703   266 0001:00007709   269 0001:0000770b   268 0001:0000770c
   269 0001:00007713   321 0001:00007714   322 0001:0000771a   324 0001:00007728
   327 0001:0000772e   329 0001:00007733   330 0001:00007738   333 0001:0000773b
   334 0001:00007744   336 0001:0000774b   338 0001:00007756   339 0001:00007765
   341 0001:0000776c   343 0001:0000776e   345 0001:0000777a   347 0001:00007782
   348 0001:0000778d   349 0001:00007790   352 0001:000077a2   354 0001:000077b2
   356 0001:000077b6   357 0001:000077b9   360 0001:000077bd   361 0001:000077c2
   363 0001:000077ca   366 0001:000077d0   368 0001:000077d5   369 0001:000077da
   372 0001:000077dd   373 0001:000077e7   375 0001:000077ee   377 0001:000077f9
   378 0001:00007806   380 0001:0000780d   382 0001:0000780f   384 0001:0000781b
   387 0001:00007823   388 0001:0000782e   389 0001:00007831   392 0001:00007841
   395 0001:00007851   397 0001:00007854   398 0001:00007858   527 0001:0000785c
   528 0001:0000785c   530 0001:00007862   532 0001:00007866   533 0001:0000786b

Line numbers for \Dev\BookTwo\Disk\Release\SymbolEngine_Release.lib(d:\dev\booktwo\disk\include\variableinfo.h) segment .text

    95 0001:000080a8    94 0001:000080a8    96 0001:000080b4    97 0001:000080bd
    98 0001:000080c3    99 0001:000080c9   100 0001:000080d2   101 0001:000080d8
   102 0001:000080e1   105 0001:000080ee   111 0001:000080fa   112 0001:000080fd
   115 0001:0000812f   123 0001:0000813d   124 0001:0000814f   130 0001:00008158

Line numbers for \Dev\BookTwo\Disk\Release\SymbolEngine_Release.lib(d:\dev\booktwo\disk\symbolengine\symbolengine.cpp) segment .text

    11 0001:000078eb    14 0001:00007907    16 0001:00007912    21 0001:0000791b
    23 0001:00007930    27 0001:00007938    30 0001:00007940    33 0001:0000794c
    35 0001:00007952    37 0001:00007954    41 0001:00007956    43 0001:0000795f
    45 0001:00007963    49 0001:0000796a    51 0001:00007976    60 0001:00007982
    63 0001:000079a0    68 0001:000079a7    73 0001:000079da    78 0001:000079e7
    81 0001:000079fd    83 0001:00007a09    84 0001:00007a19    89 0001:00007a2b
    93 0001:00007a36   100 0001:00007a43   101 0001:00007a5d   107 0001:00007a60
   109 0001:00007a67   110 0001:00007a6e   115 0001:00007a70   126 0001:00007a75
   130 0001:00007a92   132 0001:00007a96   138 0001:00007aa4   142 0001:00007ab2
   143 0001:00007acd    84 0001:00007ad4   149 0001:00007aec   164 0001:00007b05
   167 0001:00007b3b   170 0001:00007b44   180 0001:00007b54   183 0001:00007b8d
   184 0001:00007b8f   188 0001:00007b9e   190 0001:00007bac   198 0001:00007bb4
   206 0001:00007bce   209 0001:00007bd0   211 0001:00007be8   216 0001:00007bf5
   217 0001:00007bfa   222 0001:00007c11   227 0001:00007c26   231 0001:00007c38
   233 0001:00007c54   235 0001:00007c64   241 0001:00007c6f   245 0001:00007c91
   251 0001:00007ca4   255 0001:00007cb5   262 0001:00007cca   264 0001:00007ced
   269 0001:00007cfc   272 0001:00007d15   285 0001:00007d20   290 0001:00007d58
   292 0001:00007d6f   294 0001:00007d74   298 0001:00007d8b   300 0001:00007d9c
   308 0001:00007dbe   310 0001:00007dd4   316 0001:00007df1   324 0001:00007df6
   331 0001:00007dfc   335 0001:00007e0d   337 0001:00007e24   340 0001:00007e28
   342 0001:00007e37   345 0001:00007e45   346 0001:00007e48   357 0001:00007e4c
   363 0001:00007e59   371 0001:00007e79   372 0001:00007e7f   373 0001:00007e85
   374 0001:00007e8b   375 0001:00007e91   380 0001:00007e97   382 0001:00007eae
   383 0001:00007eb9   384 0001:00007ec5   387 0001:00007ed4   388 0001:00007ede
   390 0001:00007ee0   394 0001:00007ee2   396 0001:00007ef0   365 0001:00007ef5
   398 0001:00007ef9   408 0001:00007efd   402 0001:00007efd   410 0001:00007f21
   416 0001:00007f24   424 0001:00007f28   426 0001:00007f42   432 0001:00007f44
   435 0001:00007f4d   438 0001:00007f51   443 0001:00007f5c   445 0001:00007f81
   447 0001:00007f95   454 0001:00007f97   460 0001:00007f9a   461 0001:00007faf
   463 0001:00007fb4   465 0001:00007fbf   467 0001:00007fc7   469 0001:00007fc9
   474 0001:00007fd3   475 0001:00007fd8   530 0001:00007fda   532 0001:00007fdb
   534 0001:00007fe8   536 0001:00007fec   538 0001:00007ff9   539 0001:00007ffc
   546 0001:00007fff   547 0001:00008003   550 0001:0000800e   553 0001:0000801a
   559 0001:00008022   562 0001:00008037   566 0001:0000803b   567 0001:0000803c
   570 0001:00008047   573 0001:00008053   577 0001:0000805b   580 0001:00008069
   640 0001:0000806c   641 0001:00008070   644 0001:0000807b   647 0001:00008087
   653 0001:0000808f   656 0001:000080a4

Line numbers for \Dev\BookTwo\Disk\Release\SymbolEngine_Release.lib(d:\dev\booktwo\disk\symbolengine\symengwide.cpp) segment .text

   173 0001:0000786c   178 0001:0000786e   180 0001:00007883   182 0001:00007892
   184 0001:00007897   186 0001:0000789e   187 0001:000078a2   189 0001:000078a7
   191 0001:000078a8   202 0001:000078ab   204 0001:000078c8   207 0001:000078d4
   209 0001:000078e5   210 0001:000078e8

Line numbers for \Dev\BookTwo\Disk\Release\SymbolEngine_Release.lib(d:\dev\booktwo\disk\symbolengine\typedecoding.cpp) segment .text

    10 0001:00008159    15 0001:00008162    18 0001:00008182    19 0001:00008184
    27 0001:00008189    29 0001:000081aa    31 0001:000081af    34 0001:000081d4
    36 0001:000081d9    38 0001:000081de    39 0001:000081e3    41 0001:000081e8
    42 0001:000081ed    44 0001:000081f2    45 0001:000081f7    48 0001:000081fc
    50 0001:0000820a    52 0001:0000820f    54 0001:0000821d    56 0001:00008222
    58 0001:00008227    61 0001:0000822c    64 0001:00008231    65 0001:00008241
    67 0001:00008252    69 0001:00008257    71 0001:00008262    73 0001:0000826e
    75 0001:00008273    78 0001:00008278    80 0001:0000827a    81 0001:0000827f
    83 0001:00008281    84 0001:00008286    86 0001:00008288    87 0001:0000828d
    89 0001:0000828f    90 0001:00008294    31 0001:00008296   101 0001:000082ad
   102 0001:000082b2    98 0001:000082b4    99 0001:000082b9    95 0001:000082bb
    96 0001:000082c0    92 0001:000082c2    93 0001:000082c7   104 0001:000082c9
   105 0001:000082ce    31 0001:000082d0   116 0001:000082db   118 0001:000082e0
   113 0001:000082e2   114 0001:000082e7   110 0001:000082e9   111 0001:000082ee
   107 0001:000082f0   120 0001:00008300   121 0001:00008306   124 0001:00008334
   134 0001:00008336   137 0001:0000836e   138 0001:00008378   140 0001:00008388
   143 0001:0000838a   145 0001:0000838d   146 0001:00008390   149 0001:00008391
   150 0001:00008395   156 0001:0000839d   158 0001:000083b6   160 0001:000083bc
   161 0001:000083ca   162 0001:000083d3   165 0001:000083d9   168 0001:000083db
   172 0001:000083e6   182 0001:000083f2   184 0001:0000842b   187 0001:00008433
   192 0001:0000843b   195 0001:00008452   200 0001:0000845a   201 0001:0000846e
   207 0001:0000847d   211 0001:0000848c   212 0001:000084a5   216 0001:000084ae
   227 0001:000084c2   230 0001:000084ff   233 0001:0000850d   236 0001:0000851c
   237 0001:00008530   245 0001:0000853c   250 0001:00008575   256 0001:0000857b
   259 0001:0000859b   261 0001:000085aa   263 0001:000085b6   264 0001:000085c0
   269 0001:000085c7   271 0001:000085dc   273 0001:000085e7   276 0001:000085f5
   278 0001:00008600   279 0001:00008612   281 0001:0000861d   285 0001:0000862d
   261 0001:00008636   293 0001:00008643   295 0001:00008653   296 0001:00008668
   300 0001:00008684   301 0001:00008688   310 0001:0000868e   313 0001:000086c8
   314 0001:000086d0   316 0001:000086d3   317 0001:000086d8   320 0001:000086da
   327 0001:000086e2   329 0001:00008703   330 0001:00008711   331 0001:0000871a
   333 0001:0000871c   334 0001:0000871f   337 0001:00008721   341 0001:00008728
   350 0001:0000872e   353 0001:00008764   358 0001:00008768   360 0001:00008781
   361 0001:00008796   367 0001:0000879e   368 0001:000087aa   370 0001:000087ac
   372 0001:000087ba   375 0001:000087bc   378 0001:000087c0   381 0001:000087c2
   382 0001:000087c8   385 0001:000087de   390 0001:000087e2   392 0001:00008801
   393 0001:00008816   394 0001:00008821   396 0001:0000882b   397 0001:00008830
   400 0001:00008834   410 0001:0000883a   412 0001:00008872   417 0001:00008876
   419 0001:0000888e   420 0001:000088a0   421 0001:000088ab   424 0001:000088b4
   426 0001:000088bc   428 0001:000088be   432 0001:000088c2   435 0001:000088c4
   437 0001:000088c5   460 0001:000088ee   461 0001:000088f5   457 0001:000088f7
   458 0001:000088fc   454 0001:000088fe   455 0001:00008907   451 0001:00008909
   452 0001:00008910   442 0001:00008912   443 0001:0000891b   463 0001:0000891d
   464 0001:00008924   437 0001:00008926   479 0001:00008938   480 0001:00008940
   476 0001:00008942   477 0001:00008949   471 0001:0000894b   472 0001:00008952
   466 0001:00008954   484 0001:0000895d   485 0001:00008962

Line numbers for \Dev\BookTwo\Disk\Release\SymbolEngine_Release.lib(d:\dev\booktwo\disk\symbolengine\valuedecoding.cpp) segment .text

    14 0001:00008c2d    11 0001:00008c2d    29 0001:00008c42    33 0001:00008c45
    17 0001:00008c46    26 0001:00008c4c    33 0001:00008c56    20 0001:00008c57
    23 0001:00008c5c    36 0001:00008c61    44 0001:00008c7b    45 0001:00008c81
    46 0001:00008c84    59 0001:00008c8a    66 0001:00008ce9    72 0001:00008d05
    74 0001:00008d0d    76 0001:00008d10    77 0001:00008d12    79 0001:00008d35
    85 0001:00008d38    93 0001:00008d3b    99 0001:00008d4b   100 0001:00008d60
   101 0001:00008d69   106 0001:00008d6b   108 0001:00008d6f   114 0001:00008d76
   115 0001:00008d98   117 0001:00008da2   124 0001:00008da8   126 0001:00008dc5
   128 0001:00008dc7   130 0001:00008dd0   135 0001:00008dda   138 0001:00008ddc
   141 0001:00008de0   145 0001:00008df8   151 0001:00008e12   153 0001:00008e39
   155 0001:00008e3e   162 0001:00008e43   170 0001:00008e46   171 0001:00008e5b
   180 0001:00008e64   185 0001:00008e92   191 0001:00008e98   194 0001:00008eb8
   196 0001:00008ebd   203 0001:00008ec8   205 0001:00008ee2   207 0001:00008ee7
   209 0001:00008ef0   215 0001:00008ef4   196 0001:00008f0c   246 0001:00008f17
   250 0001:00008f1b   252 0001:00008f2a   217 0001:00008f2c   221 0001:00008f30
   223 0001:00008f3f   227 0001:00008f41   230 0001:00008f50   232 0001:00008f61
   234 0001:00008f6d   236 0001:00008f78   238 0001:00008f81   256 0001:00008f83
   258 0001:00008f92   262 0001:00008fa5   265 0001:00008fb8   267 0001:00008fcb
   271 0001:00008fdc   275 0001:00008ffb   282 0001:00009001   288 0001:00009008
   289 0001:0000901a   291 0001:00009023   295 0001:0000902f   297 0001:0000904a
   301 0001:0000904c   308 0001:00009064   310 0001:0000907b   312 0001:00009082
   313 0001:00009084   315 0001:000090aa   319 0001:000090b1   324 0001:000090b4
   330 0001:000090c0   331 0001:000090d5   332 0001:000090de   337 0001:000090e0
   340 0001:000090e4   346 0001:000090e9   347 0001:0000910b   349 0001:00009115
   356 0001:0000911b   359 0001:00009138   361 0001:0000913a   363 0001:00009143
   367 0001:0000914b   369 0001:0000914d   374 0001:00009161   377 0001:0000917a
   381 0001:00009189   383 0001:00009197   391 0001:0000919e   392 0001:000091a6
   397 0001:000091ac   398 0001:000091bc   400 0001:000091c0   401 0001:000091d4
   406 0001:000091d9   411 0001:000091e4   413 0001:000091f5   415 0001:000091f7
   418 0001:000091fc   420 0001:00009207   432 0001:0000920a   435 0001:00009224
   436 0001:00009227   439 0001:0000922b   441 0001:0000923a   443 0001:0000923d
   436 0001:0000923f   446 0001:00009244   448 0001:00009247   450 0001:00009252
   452 0001:00009254   455 0001:00009263   456 0001:00009274   457 0001:00009280
   459 0001:0000928b   461 0001:00009294   463 0001:00009299   465 0001:0000929c
   467 0001:000092a7   469 0001:000092a9   471 0001:000092b8   474 0001:000092c9
   478 0001:000092d7   482 0001:000092e0   484 0001:000092e7   488 0001:000092f8
   490 0001:00009305   494 0001:0000930a   497 0001:00009317   501 0001:0000931c
   619 0001:0000934c   620 0001:00009351   576 0001:00009356   590 0001:00009368
   593 0001:0000936e   595 0001:00009377   599 0001:0000937b   601 0001:00009381
   604 0001:00009386   606 0001:0000938b   610 0001:0000938f   612 0001:00009391
   616 0001:00009396   535 0001:0000939b   537 0001:000093af   539 0001:000093b3
   543 0001:000093be   548 0001:000093c3   550 0001:000093c8   556 0001:000093cf
   652 0001:000093d1   654 0001:000093d7   656 0001:000093dc   528 0001:000093e1
   530 0001:000093f1   532 0001:000093f6   515 0001:000093fb   519 0001:00009404
   504 0001:00009406   639 0001:0000940b   641 0001:00009410   643 0001:00009416
   645 0001:0000941b   647 0001:00009420   650 0001:00009425   658 0001:0000942a
   662 0001:0000942f   501 0001:00009434   722 0001:00009448   723 0001:0000944d
   718 0001:00009452   719 0001:00009457   714 0001:00009459   715 0001:0000945e
   710 0001:00009460   711 0001:00009465   706 0001:00009467   707 0001:0000946c
   665 0001:0000946e   667 0001:00009482   669 0001:00009486   673 0001:0000948d
   677 0001:00009492   678 0001:000094a9   680 0001:000094ab   682 0001:000094b4
   684 0001:000094be   686 0001:000094c3   693 0001:000094c5   695 0001:000094c9
   699 0001:000094d0   725 0001:000094d5   728 0001:000094e9   729 0001:000094ed

Line numbers for G:\VSNET\Vc7\atlmfc\lib\mfcs71u.lib(f:\vs70builds\3036\vc\mfcatl\ship\atlmfc\include\atlcore.h) segment .text

   114 0001:00009e42   116 0001:00009e43   117 0001:00009e52   129 0001:00009e56
   130 0001:00009e62   131 0001:00009e64   133 0001:00009e67   136 0001:00009e70
   138 0001:00009e81   143 0001:00009e9e   144 0001:00009ea0

Line numbers for G:\VSNET\Vc7\atlmfc\lib\mfcs71u.lib(f:\vs70builds\3036\vc\mfcatl\ship\atlmfc\src\mfc\appmodul.cpp) segment .text

    24 0001:0000a4d4    22 0001:0000a4d4    32 0001:0000a4d9    31 0001:0000a4d9
    33 0001:0000a4de    37 0001:0000a4e5    44 0001:0000a4ef    45 0001:0000a4f2
    66 0001:0000ade0

Line numbers for G:\VSNET\Vc7\lib\msvcrt.lib(F:\VS70Builds\3036\vc\crtbld\crt\src\intel\chkstk.asm) segment .text

    69 0001:0000a540    65 0001:0000a540    70 0001:0000a545    72 0001:0000a547
    73 0001:0000a549    74 0001:0000a54b    75 0001:0000a54e    76 0001:0000a550
    77 0001:0000a551    78 0001:0000a553    79 0001:0000a554    82 0001:0000a555
    83 0001:0000a556    88 0001:0000a55a    89 0001:0000a560    91 0001:0000a565
    93 0001:0000a567    94 0001:0000a56c    97 0001:0000a56e    98 0001:0000a570
   100 0001:0000a572   102 0001:0000a574   104 0001:0000a576   105 0001:0000a578
   107 0001:0000a57b   109 0001:0000a57c

Line numbers for G:\VSNET\Vc7\lib\msvcrt.lib(f:\vs70builds\3036\vc\crtbld\crt\src\atonexit.c) segment .text

    81 0001:0000a0c8    76 0001:0000a0c8    90 0001:0000a0ed    96 0001:0000a0ee
    95 0001:0000a0ee    97 0001:0000a0ff

Line numbers for G:\VSNET\Vc7\lib\msvcrt.lib(f:\vs70builds\3036\vc\crtbld\crt\src\merr.c) segment .text

    33 0001:0000a354    32 0001:0000a354    34 0001:0000a356

Line numbers for G:\VSNET\Vc7\lib\msvcrt.lib(f:\vs70builds\3036\vc\crtbld\crt\src\crtexe.c) segment .text

   202 0001:00009ea6   214 0001:00009eb2   222 0001:00009eb7   229 0001:00009f12
   234 0001:00009f15   244 0001:00009f1e   249 0001:00009f2c   250 0001:00009f3a
   257 0001:00009f48   264 0001:00009f54   273 0001:00009f59   282 0001:00009f5e
   283 0001:00009f66   286 0001:00009f72   305 0001:00009f77   308 0001:00009f86
   319 0001:00009f90   322 0001:00009f98   329 0001:00009fba   330 0001:00009fbe
   336 0001:00009fc6   345 0001:00009fd7   346 0001:00009fe6   347 0001:00009ff0
   353 0001:00009ff3   372 0001:0000a006   373 0001:0000a014   374 0001:0000a019
   376 0001:0000a01b   377 0001:0000a01e   390 0001:0000a02b   403 0001:0000a04b
   404 0001:0000a050   406 0001:0000a057   358 0001:0000a05f   366 0001:0000a070
   367 0001:0000a072   409 0001:0000a077   415 0001:0000a08e   417 0001:0000a091
   418 0001:0000a097   420 0001:0000a09e   424 0001:0000a0a8   425 0001:0000a0aa

Line numbers for G:\VSNET\Vc7\lib\msvcrt.lib(f:\vs70builds\3036\vc\crtbld\crt\src\dllargv.c) segment .text

    49 0001:0000a354    48 0001:0000a354    50 0001:0000a356

Line numbers for G:\VSNET\Vc7\lib\msvcrt.lib(f:\vs70builds\3036\vc\crtbld\crt\src\intel\fp8.c) segment .text

    19 0001:0000a342    18 0001:0000a342    20 0001:0000a353

Line numbers for G:\VSNET\Vc7\lib\msvcrt.lib(F:\VS70Builds\3036\vc\crtbld\crt\src\intel\llmul.asm) segment .text

    62 0001:0000a580    47 0001:0000a580    63 0001:0000a584    64 0001:0000a588
    65 0001:0000a58a    66 0001:0000a58e    68 0001:0000a590    69 0001:0000a594
    71 0001:0000a596    74 0001:0000a599    81 0001:0000a59a    82 0001:0000a59c
    84 0001:0000a59e    85 0001:0000a5a2    86 0001:0000a5a6    88 0001:0000a5a8
    89 0001:0000a5ac    90 0001:0000a5ae    92 0001:0000a5b0    94 0001:0000a5b1

Line numbers for G:\VSNET\Vc7\lib\msvcrt.lib(f:\vs70builds\3036\vc\crtbld\crt\src\secchk.c) segment .text

   114 0001:0000a158   116 0001:0000a164   117 0001:0000a168   119 0001:0000a175
   123 0001:0000a180   100 0001:0000a189   103 0001:0000a189   104 0001:0000a18f
   105 0001:0000a191   107 0001:0000a192

Line numbers for G:\VSNET\Vc7\lib\msvcrt.lib(f:\vs70builds\3036\vc\crtbld\crt\src\seccinit.c) segment .text

    49 0001:0000a364    58 0001:0000a36a    67 0001:0000a37b    70 0001:0000a385
    75 0001:0000a38b    76 0001:0000a393    77 0001:0000a39b    79 0001:0000a3a3
    93 0001:0000a3ad    94 0001:0000a3c8

Line numbers for G:\VSNET\Vc7\atlmfc\lib\atls.lib(f:\vs70builds\3036\vc\mfcatl\ship\atlmfc\src\atl\atls\atlbase.cpp) segment .text

    67 0001:0000a413    68 0001:0000a416    69 0001:0000a420    29 0001:0000a429
    32 0001:0000a444    36 0001:0000a449    38 0001:0000a46c    39 0001:0000a47d
    41 0001:0000a483    46 0001:0000a489    49 0001:0000a491    51 0001:0000a49f
    58 0001:0000a4a3    62 0001:0000a4bd    64 0001:0000a4c4   126 0001:0000adca

Line numbers for G:\VSNET\Vc7\atlmfc\lib\atls.lib(f:\vs70builds\3036\vc\mfcatl\ship\atlmfc\include\atlsimpcoll.h) segment .text

   173 0001:0000a3dc   174 0001:0000a3df   178 0001:0000a3e5   179 0001:0000a3eb
   181 0001:0000a3ef   182 0001:0000a3f3   183 0001:0000a3f8
